
build/debug/L4_V3.elf:     file format elf32-littlearm

Sections:
Idx Name          Size      VMA       LMA       File off  Algn
  0 .isr_vector   00000188  08000000  08000000  00001000  2**0
                  CONTENTS, ALLOC, LOAD, READONLY, DATA
  1 .text         00007668  08000190  08000190  00001190  2**4
                  CONTENTS, ALLOC, LOAD, READONLY, CODE
  2 .rodata       000007f0  080077f8  080077f8  000087f8  2**2
                  CONTENTS, ALLOC, LOAD, READONLY, DATA
  3 .ARM.extab    00000000  08007fe8  08007fe8  00009060  2**0
                  CONTENTS, READONLY
  4 .ARM          00000008  08007fe8  08007fe8  00008fe8  2**2
                  CONTENTS, ALLOC, LOAD, READONLY, DATA
  5 .preinit_array 00000000  08007ff0  08007ff0  00009060  2**0
                  CONTENTS, ALLOC, LOAD, DATA
  6 .init_array   00000008  08007ff0  08007ff0  00008ff0  2**2
                  CONTENTS, ALLOC, LOAD, READONLY, DATA
  7 .fini_array   00000008  08007ff8  08007ff8  00008ff8  2**2
                  CONTENTS, ALLOC, LOAD, READONLY, DATA
  8 .data         00000060  20000000  08008000  00009000  2**2
                  CONTENTS, ALLOC, LOAD, DATA
  9 .bss          00012f68  20000060  08008060  00009060  2**2
                  ALLOC
 10 ._user_heap_stack 00000600  20012fc8  08008060  00009fc8  2**0
                  ALLOC
 11 .ARM.attributes 00000030  00000000  00000000  00009060  2**0
                  CONTENTS, READONLY
 12 .comment      00000039  00000000  00000000  00009090  2**0
                  CONTENTS, READONLY
 13 .debug_info   00023438  00000000  00000000  000090c9  2**0
                  CONTENTS, READONLY, DEBUGGING, OCTETS
 14 .debug_abbrev 00003d0e  00000000  00000000  0002c501  2**0
                  CONTENTS, READONLY, DEBUGGING, OCTETS
 15 .debug_loclists 0000f881  00000000  00000000  0003020f  2**0
                  CONTENTS, READONLY, DEBUGGING, OCTETS
 16 .debug_aranges 000015b8  00000000  00000000  0003fa90  2**3
                  CONTENTS, READONLY, DEBUGGING, OCTETS
 17 .debug_rnglists 0000115a  00000000  00000000  00041048  2**0
                  CONTENTS, READONLY, DEBUGGING, OCTETS
 18 .debug_line   0001b6af  00000000  00000000  000421a2  2**0
                  CONTENTS, READONLY, DEBUGGING, OCTETS
 19 .debug_str    000067e2  00000000  00000000  0005d851  2**0
                  CONTENTS, READONLY, DEBUGGING, OCTETS
 20 .debug_frame  00003ba0  00000000  00000000  00064034  2**2
                  CONTENTS, READONLY, DEBUGGING, OCTETS
 21 .debug_line_str 00000051  00000000  00000000  00067bd4  2**0
                  CONTENTS, READONLY, DEBUGGING, OCTETS

Disassembly of section .text:

08000190 <strlen>:
 8000190:	4603      	mov	r3, r0
 8000192:	f813 2b01 	ldrb.w	r2, [r3], #1
 8000196:	2a00      	cmp	r2, #0
 8000198:	d1fb      	bne.n	8000192 <strlen+0x2>
 800019a:	1a18      	subs	r0, r3, r0
 800019c:	3801      	subs	r0, #1
 800019e:	4770      	bx	lr

080001a0 <memchr>:
 80001a0:	f001 01ff 	and.w	r1, r1, #255	@ 0xff
 80001a4:	2a10      	cmp	r2, #16
 80001a6:	db2b      	blt.n	8000200 <memchr+0x60>
 80001a8:	f010 0f07 	tst.w	r0, #7
 80001ac:	d008      	beq.n	80001c0 <memchr+0x20>
 80001ae:	f810 3b01 	ldrb.w	r3, [r0], #1
 80001b2:	3a01      	subs	r2, #1
 80001b4:	428b      	cmp	r3, r1
 80001b6:	d02d      	beq.n	8000214 <memchr+0x74>
 80001b8:	f010 0f07 	tst.w	r0, #7
 80001bc:	b342      	cbz	r2, 8000210 <memchr+0x70>
 80001be:	d1f6      	bne.n	80001ae <memchr+0xe>
 80001c0:	b4f0      	push	{r4, r5, r6, r7}
 80001c2:	ea41 2101 	orr.w	r1, r1, r1, lsl #8
 80001c6:	ea41 4101 	orr.w	r1, r1, r1, lsl #16
 80001ca:	f022 0407 	bic.w	r4, r2, #7
 80001ce:	f07f 0700 	mvns.w	r7, #0
 80001d2:	2300      	movs	r3, #0
 80001d4:	e8f0 5602 	ldrd	r5, r6, [r0], #8
 80001d8:	3c08      	subs	r4, #8
 80001da:	ea85 0501 	eor.w	r5, r5, r1
 80001de:	ea86 0601 	eor.w	r6, r6, r1
 80001e2:	fa85 f547 	uadd8	r5, r5, r7
 80001e6:	faa3 f587 	sel	r5, r3, r7
 80001ea:	fa86 f647 	uadd8	r6, r6, r7
 80001ee:	faa5 f687 	sel	r6, r5, r7
 80001f2:	b98e      	cbnz	r6, 8000218 <memchr+0x78>
 80001f4:	d1ee      	bne.n	80001d4 <memchr+0x34>
 80001f6:	bcf0      	pop	{r4, r5, r6, r7}
 80001f8:	f001 01ff 	and.w	r1, r1, #255	@ 0xff
 80001fc:	f002 0207 	and.w	r2, r2, #7
 8000200:	b132      	cbz	r2, 8000210 <memchr+0x70>
 8000202:	f810 3b01 	ldrb.w	r3, [r0], #1
 8000206:	3a01      	subs	r2, #1
 8000208:	ea83 0301 	eor.w	r3, r3, r1
 800020c:	b113      	cbz	r3, 8000214 <memchr+0x74>
 800020e:	d1f8      	bne.n	8000202 <memchr+0x62>
 8000210:	2000      	movs	r0, #0
 8000212:	4770      	bx	lr
 8000214:	3801      	subs	r0, #1
 8000216:	4770      	bx	lr
 8000218:	2d00      	cmp	r5, #0
 800021a:	bf06      	itte	eq
 800021c:	4635      	moveq	r5, r6
 800021e:	3803      	subeq	r0, #3
 8000220:	3807      	subne	r0, #7
 8000222:	f015 0f01 	tst.w	r5, #1
 8000226:	d107      	bne.n	8000238 <memchr+0x98>
 8000228:	3001      	adds	r0, #1
 800022a:	f415 7f80 	tst.w	r5, #256	@ 0x100
 800022e:	bf02      	ittt	eq
 8000230:	3001      	addeq	r0, #1
 8000232:	f415 3fc0 	tsteq.w	r5, #98304	@ 0x18000
 8000236:	3001      	addeq	r0, #1
 8000238:	bcf0      	pop	{r4, r5, r6, r7}
 800023a:	3801      	subs	r0, #1
 800023c:	4770      	bx	lr
 800023e:	bf00      	nop

08000240 <__aeabi_uldivmod>:
 8000240:	b953      	cbnz	r3, 8000258 <__aeabi_uldivmod+0x18>
 8000242:	b94a      	cbnz	r2, 8000258 <__aeabi_uldivmod+0x18>
 8000244:	2900      	cmp	r1, #0
 8000246:	bf08      	it	eq
 8000248:	2800      	cmpeq	r0, #0
 800024a:	bf1c      	itt	ne
 800024c:	f04f 31ff 	movne.w	r1, #4294967295	@ 0xffffffff
 8000250:	f04f 30ff 	movne.w	r0, #4294967295	@ 0xffffffff
 8000254:	f000 b80c 	b.w	8000270 <__aeabi_idiv0>
 8000258:	f1ad 0c08 	sub.w	ip, sp, #8
 800025c:	e96d ce04 	strd	ip, lr, [sp, #-16]!
 8000260:	f007 f92e 	bl	80074c0 <__udivmoddi4>
 8000264:	f8dd e004 	ldr.w	lr, [sp, #4]
 8000268:	e9dd 2302 	ldrd	r2, r3, [sp, #8]
 800026c:	b004      	add	sp, #16
 800026e:	4770      	bx	lr

08000270 <__aeabi_idiv0>:
 8000270:	4770      	bx	lr
 8000272:	bf00      	nop

08000274 <__do_global_dtors_aux>:
 8000274:	b508      	push	{r3, lr}
 8000276:	4b06      	ldr	r3, [pc, #24]	@ (8000290 <__do_global_dtors_aux+0x1c>)
 8000278:	781a      	ldrb	r2, [r3, #0]
 800027a:	b93a      	cbnz	r2, 800028c <__do_global_dtors_aux+0x18>
 800027c:	4a05      	ldr	r2, [pc, #20]	@ (8000294 <__do_global_dtors_aux+0x20>)
 800027e:	b11a      	cbz	r2, 8000288 <__do_global_dtors_aux+0x14>
 8000280:	4805      	ldr	r0, [pc, #20]	@ (8000298 <__do_global_dtors_aux+0x24>)
 8000282:	f3af 8000 	nop.w
 8000286:	4b02      	ldr	r3, [pc, #8]	@ (8000290 <__do_global_dtors_aux+0x1c>)
 8000288:	2201      	movs	r2, #1
 800028a:	701a      	strb	r2, [r3, #0]
 800028c:	bd08      	pop	{r3, pc}
 800028e:	bf00      	nop
 8000290:	20000060 	.word	0x20000060
 8000294:	00000000 	.word	0x00000000
 8000298:	080077e0 	.word	0x080077e0

0800029c <frame_dummy>:
 800029c:	b508      	push	{r3, lr}
 800029e:	4b03      	ldr	r3, [pc, #12]	@ (80002ac <frame_dummy+0x10>)
 80002a0:	b11b      	cbz	r3, 80002aa <frame_dummy+0xe>
 80002a2:	4903      	ldr	r1, [pc, #12]	@ (80002b0 <frame_dummy+0x14>)
 80002a4:	4803      	ldr	r0, [pc, #12]	@ (80002b4 <frame_dummy+0x18>)
 80002a6:	f3af 8000 	nop.w
 80002aa:	bd08      	pop	{r3, pc}
 80002ac:	00000000 	.word	0x00000000
 80002b0:	20000064 	.word	0x20000064
 80002b4:	080077e0 	.word	0x080077e0

080002b8 <SD_Log>:

static uint8_t flushBuf[512] __attribute__((aligned(4)));  


/* ── Internal helpers ───────────────────────────────────────── */
static void SD_Log(const char *msg) {
 80002b8:	b538      	push	{r3, r4, r5, lr}
    if (_uart) {
 80002ba:	4b06      	ldr	r3, [pc, #24]	@ (80002d4 <SD_Log+0x1c>)
 80002bc:	681c      	ldr	r4, [r3, #0]
 80002be:	b144      	cbz	r4, 80002d2 <SD_Log+0x1a>
 80002c0:	4605      	mov	r5, r0
        HAL_UART_Transmit(_uart, (uint8_t*)msg, strlen(msg), 200);
 80002c2:	f7ff ff65 	bl	8000190 <strlen>
 80002c6:	23c8      	movs	r3, #200	@ 0xc8
 80002c8:	b282      	uxth	r2, r0
 80002ca:	4629      	mov	r1, r5
 80002cc:	4620      	mov	r0, r4
 80002ce:	f005 fd06 	bl	8005cde <HAL_UART_Transmit>
    }
}
 80002d2:	bd38      	pop	{r3, r4, r5, pc}
 80002d4:	2000007c 	.word	0x2000007c

080002d8 <HAL_SD_TxCpltCallback>:
    return 0;
}

/* ── DMA Callbacks ──────────────────────────────────────────── */
void HAL_SD_TxCpltCallback(SD_HandleTypeDef *hsd) {
    SD_TxDone = 1;
 80002d8:	4b01      	ldr	r3, [pc, #4]	@ (80002e0 <HAL_SD_TxCpltCallback+0x8>)
 80002da:	2201      	movs	r2, #1
 80002dc:	701a      	strb	r2, [r3, #0]
}
 80002de:	4770      	bx	lr
 80002e0:	20000081 	.word	0x20000081

080002e4 <HAL_SD_RxCpltCallback>:

void HAL_SD_RxCpltCallback(SD_HandleTypeDef *hsd) {
    SD_RxDone = 1;
 80002e4:	4b01      	ldr	r3, [pc, #4]	@ (80002ec <HAL_SD_RxCpltCallback+0x8>)
 80002e6:	2201      	movs	r2, #1
 80002e8:	701a      	strb	r2, [r3, #0]
}
 80002ea:	4770      	bx	lr
 80002ec:	20000080 	.word	0x20000080

080002f0 <HAL_SD_ErrorCallback>:

void HAL_SD_ErrorCallback(SD_HandleTypeDef *hsd) {
 80002f0:	b508      	push	{r3, lr}
    SD_TxDone = 0;
 80002f2:	2300      	movs	r3, #0
 80002f4:	4a03      	ldr	r2, [pc, #12]	@ (8000304 <HAL_SD_ErrorCallback+0x14>)
 80002f6:	7013      	strb	r3, [r2, #0]
    SD_RxDone = 0;
 80002f8:	4a03      	ldr	r2, [pc, #12]	@ (8000308 <HAL_SD_ErrorCallback+0x18>)
 80002fa:	7013      	strb	r3, [r2, #0]
    SD_Log("SD DMA Error\r\n");
 80002fc:	4803      	ldr	r0, [pc, #12]	@ (800030c <HAL_SD_ErrorCallback+0x1c>)
 80002fe:	f7ff ffdb 	bl	80002b8 <SD_Log>
}
 8000302:	bd08      	pop	{r3, pc}
 8000304:	20000081 	.word	0x20000081
 8000308:	20000080 	.word	0x20000080
 800030c:	080077f8 	.word	0x080077f8

08000310 <SD_IO_Init>:
/**
 * @brief  Inject UART handle for logging. Call once in main() before
 *         any SD_ReadUptime / SD_WriteUptime calls.
 * @param  uartHandle  pointer to your huart (e.g. &huart3), or NULL to disable logging
 */
void SD_IO_Init(UART_HandleTypeDef *uartHandle) {
 8000310:	b508      	push	{r3, lr}
    _uart = uartHandle;
 8000312:	4b03      	ldr	r3, [pc, #12]	@ (8000320 <SD_IO_Init+0x10>)
 8000314:	6018      	str	r0, [r3, #0]
    SD_Log("SD_IO ready\r\n");
 8000316:	4803      	ldr	r0, [pc, #12]	@ (8000324 <SD_IO_Init+0x14>)
 8000318:	f7ff ffce 	bl	80002b8 <SD_Log>
}
 800031c:	bd08      	pop	{r3, pc}
 800031e:	bf00      	nop
 8000320:	2000007c 	.word	0x2000007c
 8000324:	08007808 	.word	0x08007808

08000328 <SD_ReadUptime>:
/**
 * @brief  Read uptime value from fixed SD sector.
 * @retval Restored uptime in seconds, or 0 if not found / error
 */
/* ── Read uptime from SD ────────────────────────────────────── */
uint32_t SD_ReadUptime(void) {
 8000328:	b510      	push	{r4, lr}
 800032a:	b092      	sub	sp, #72	@ 0x48
    char msg[64];
    memset(rxBuf, 0, sizeof(rxBuf));
 800032c:	4c24      	ldr	r4, [pc, #144]	@ (80003c0 <SD_ReadUptime+0x98>)
 800032e:	f44f 7200 	mov.w	r2, #512	@ 0x200
 8000332:	2100      	movs	r1, #0
 8000334:	4620      	mov	r0, r4
 8000336:	f006 fc1d 	bl	8006b74 <memset>

    SD_Log("SD Read: starting...\r\n");
 800033a:	4822      	ldr	r0, [pc, #136]	@ (80003c4 <SD_ReadUptime+0x9c>)
 800033c:	f7ff ffbc 	bl	80002b8 <SD_Log>

    // BLOCKING — same as raw test, no callbacks needed
    if (HAL_SD_ReadBlocks(&hsd1, rxBuf, UPTIME_SECTOR, 1, 5000) != HAL_OK) {
 8000340:	f241 3388 	movw	r3, #5000	@ 0x1388
 8000344:	9300      	str	r3, [sp, #0]
 8000346:	2301      	movs	r3, #1
 8000348:	2264      	movs	r2, #100	@ 0x64
 800034a:	4621      	mov	r1, r4
 800034c:	481e      	ldr	r0, [pc, #120]	@ (80003c8 <SD_ReadUptime+0xa0>)
 800034e:	f004 f901 	bl	8004554 <HAL_SD_ReadBlocks>
 8000352:	b998      	cbnz	r0, 800037c <SD_ReadUptime+0x54>
        SD_Log("SD Read: failed\r\n");
        return 0;
    }

    // Wait for card ready
    uint32_t t = HAL_GetTick();
 8000354:	f001 f864 	bl	8001420 <HAL_GetTick>
 8000358:	4604      	mov	r4, r0
    while (HAL_SD_GetCardState(&hsd1) != HAL_SD_CARD_TRANSFER) {
 800035a:	481b      	ldr	r0, [pc, #108]	@ (80003c8 <SD_ReadUptime+0xa0>)
 800035c:	f004 fd7b 	bl	8004e56 <HAL_SD_GetCardState>
 8000360:	2804      	cmp	r0, #4
 8000362:	d012      	beq.n	800038a <SD_ReadUptime+0x62>
        if (HAL_GetTick() - t > 5000) {
 8000364:	f001 f85c 	bl	8001420 <HAL_GetTick>
 8000368:	1b00      	subs	r0, r0, r4
 800036a:	f241 3388 	movw	r3, #5000	@ 0x1388
 800036e:	4298      	cmp	r0, r3
 8000370:	d9f3      	bls.n	800035a <SD_ReadUptime+0x32>
            SD_Log("SD Read: card not ready\r\n");
 8000372:	4816      	ldr	r0, [pc, #88]	@ (80003cc <SD_ReadUptime+0xa4>)
 8000374:	f7ff ffa0 	bl	80002b8 <SD_Log>
            return 0;
 8000378:	2400      	movs	r4, #0
 800037a:	e003      	b.n	8000384 <SD_ReadUptime+0x5c>
        SD_Log("SD Read: failed\r\n");
 800037c:	4814      	ldr	r0, [pc, #80]	@ (80003d0 <SD_ReadUptime+0xa8>)
 800037e:	f7ff ff9b 	bl	80002b8 <SD_Log>
        return 0;
 8000382:	2400      	movs	r4, #0
        return uptime;
    }

    SD_Log("SD Read: no uptime found, starting from 0\r\n");
    return 0;
 8000384:	4620      	mov	r0, r4
 8000386:	b012      	add	sp, #72	@ 0x48
 8000388:	bd10      	pop	{r4, pc}
    char *ptr = strstr((char*)rxBuf, "UPTIME=");
 800038a:	4912      	ldr	r1, [pc, #72]	@ (80003d4 <SD_ReadUptime+0xac>)
 800038c:	480c      	ldr	r0, [pc, #48]	@ (80003c0 <SD_ReadUptime+0x98>)
 800038e:	f006 fbf9 	bl	8006b84 <strstr>
    if (ptr) {
 8000392:	b178      	cbz	r0, 80003b4 <SD_ReadUptime+0x8c>
        uint32_t uptime = (uint32_t)strtoul(ptr + 7, NULL, 10);
 8000394:	220a      	movs	r2, #10
 8000396:	2100      	movs	r1, #0
 8000398:	3007      	adds	r0, #7
 800039a:	f006 fb8d 	bl	8006ab8 <strtoul>
 800039e:	4604      	mov	r4, r0
        snprintf(msg, sizeof(msg), "Uptime restored: %lu sec\r\n", (unsigned long)uptime);
 80003a0:	4603      	mov	r3, r0
 80003a2:	4a0d      	ldr	r2, [pc, #52]	@ (80003d8 <SD_ReadUptime+0xb0>)
 80003a4:	2140      	movs	r1, #64	@ 0x40
 80003a6:	a802      	add	r0, sp, #8
 80003a8:	f006 fb90 	bl	8006acc <sniprintf>
        SD_Log(msg);
 80003ac:	a802      	add	r0, sp, #8
 80003ae:	f7ff ff83 	bl	80002b8 <SD_Log>
        return uptime;
 80003b2:	e7e7      	b.n	8000384 <SD_ReadUptime+0x5c>
    SD_Log("SD Read: no uptime found, starting from 0\r\n");
 80003b4:	4809      	ldr	r0, [pc, #36]	@ (80003dc <SD_ReadUptime+0xb4>)
 80003b6:	f7ff ff7f 	bl	80002b8 <SD_Log>
    return 0;
 80003ba:	2400      	movs	r4, #0
 80003bc:	e7e2      	b.n	8000384 <SD_ReadUptime+0x5c>
 80003be:	bf00      	nop
 80003c0:	20000084 	.word	0x20000084
 80003c4:	080078b4 	.word	0x080078b4
 80003c8:	20010e14 	.word	0x20010e14
 80003cc:	080078e0 	.word	0x080078e0
 80003d0:	080078cc 	.word	0x080078cc
 80003d4:	08007854 	.word	0x08007854
 80003d8:	080078fc 	.word	0x080078fc
 80003dc:	08007918 	.word	0x08007918

080003e0 <Stream_Log>:
extern SD_HandleTypeDef hsd1;

static uint32_t current_sector = DATA_START_SECTOR;
static UART_HandleTypeDef *_uart = NULL;

static void Stream_Log(const char *msg) {
 80003e0:	b538      	push	{r3, r4, r5, lr}
    if (_uart) HAL_UART_Transmit(_uart, (uint8_t*)msg, strlen(msg), 200);
 80003e2:	4b06      	ldr	r3, [pc, #24]	@ (80003fc <Stream_Log+0x1c>)
 80003e4:	681c      	ldr	r4, [r3, #0]
 80003e6:	b144      	cbz	r4, 80003fa <Stream_Log+0x1a>
 80003e8:	4605      	mov	r5, r0
 80003ea:	f7ff fed1 	bl	8000190 <strlen>
 80003ee:	23c8      	movs	r3, #200	@ 0xc8
 80003f0:	b282      	uxth	r2, r0
 80003f2:	4629      	mov	r1, r5
 80003f4:	4620      	mov	r0, r4
 80003f6:	f005 fc72 	bl	8005cde <HAL_UART_Transmit>
}
 80003fa:	bd38      	pop	{r3, r4, r5, pc}
 80003fc:	20000484 	.word	0x20000484

08000400 <SD_Stream_Init>:

void SD_Stream_Init(UART_HandleTypeDef *uartHandle) {
 8000400:	b508      	push	{r3, lr}
    _uart          = uartHandle;
 8000402:	4b05      	ldr	r3, [pc, #20]	@ (8000418 <SD_Stream_Init+0x18>)
 8000404:	6018      	str	r0, [r3, #0]
    current_sector = DATA_START_SECTOR;
 8000406:	4b05      	ldr	r3, [pc, #20]	@ (800041c <SD_Stream_Init+0x1c>)
 8000408:	f241 3288 	movw	r2, #5000	@ 0x1388
 800040c:	601a      	str	r2, [r3, #0]
    Stream_Log("SD_Stream ready\r\n");
 800040e:	4804      	ldr	r0, [pc, #16]	@ (8000420 <SD_Stream_Init+0x20>)
 8000410:	f7ff ffe6 	bl	80003e0 <Stream_Log>
}
 8000414:	bd08      	pop	{r3, pc}
 8000416:	bf00      	nop
 8000418:	20000484 	.word	0x20000484
 800041c:	20000000 	.word	0x20000000
 8000420:	08007944 	.word	0x08007944

08000424 <SD_Stream_WriteBlock>:

// Write a single packed block directly to SD
HAL_StatusTypeDef SD_Stream_WriteBlock(uint8_t *block) {
 8000424:	b530      	push	{r4, r5, lr}
 8000426:	b097      	sub	sp, #92	@ 0x5c
 8000428:	4601      	mov	r1, r0
    char dbg[80];

    HAL_StatusTypeDef result = HAL_SD_WriteBlocks(
 800042a:	f241 3388 	movw	r3, #5000	@ 0x1388
 800042e:	9300      	str	r3, [sp, #0]
 8000430:	2301      	movs	r3, #1
 8000432:	4a18      	ldr	r2, [pc, #96]	@ (8000494 <SD_Stream_WriteBlock+0x70>)
 8000434:	6812      	ldr	r2, [r2, #0]
 8000436:	4818      	ldr	r0, [pc, #96]	@ (8000498 <SD_Stream_WriteBlock+0x74>)
 8000438:	f004 f9ae 	bl	8004798 <HAL_SD_WriteBlocks>
        current_sector,
        1,       // 1 block at a time (512 bytes)
        5000
    );

    if (result != HAL_OK) {
 800043c:	4605      	mov	r5, r0
 800043e:	b9a0      	cbnz	r0, 800046a <SD_Stream_WriteBlock+0x46>
        Stream_Log("SD: write failed\r\n");
        return result;
    }

    uint32_t t = HAL_GetTick();
 8000440:	f000 ffee 	bl	8001420 <HAL_GetTick>
 8000444:	4604      	mov	r4, r0
    while (HAL_SD_GetCardState(&hsd1) != HAL_SD_CARD_TRANSFER) {
 8000446:	4814      	ldr	r0, [pc, #80]	@ (8000498 <SD_Stream_WriteBlock+0x74>)
 8000448:	f004 fd05 	bl	8004e56 <HAL_SD_GetCardState>
 800044c:	2804      	cmp	r0, #4
 800044e:	d012      	beq.n	8000476 <SD_Stream_WriteBlock+0x52>
        if (HAL_GetTick() - t > 5000) {
 8000450:	f000 ffe6 	bl	8001420 <HAL_GetTick>
 8000454:	1b00      	subs	r0, r0, r4
 8000456:	f241 3388 	movw	r3, #5000	@ 0x1388
 800045a:	4298      	cmp	r0, r3
 800045c:	d9f3      	bls.n	8000446 <SD_Stream_WriteBlock+0x22>
            Stream_Log("SD: card timeout\r\n");
 800045e:	480f      	ldr	r0, [pc, #60]	@ (800049c <SD_Stream_WriteBlock+0x78>)
 8000460:	f7ff ffbe 	bl	80003e0 <Stream_Log>
            return HAL_TIMEOUT;
 8000464:	2303      	movs	r3, #3
 8000466:	461d      	mov	r5, r3
 8000468:	e002      	b.n	8000470 <SD_Stream_WriteBlock+0x4c>
        Stream_Log("SD: write failed\r\n");
 800046a:	480d      	ldr	r0, [pc, #52]	@ (80004a0 <SD_Stream_WriteBlock+0x7c>)
 800046c:	f7ff ffb8 	bl	80003e0 <Stream_Log>
    snprintf(dbg, sizeof(dbg), "SD: wrote sector %lu\r\n", (unsigned long)current_sector);
    Stream_Log(dbg);

    current_sector++;
    return HAL_OK;
}
 8000470:	4628      	mov	r0, r5
 8000472:	b017      	add	sp, #92	@ 0x5c
 8000474:	bd30      	pop	{r4, r5, pc}
    snprintf(dbg, sizeof(dbg), "SD: wrote sector %lu\r\n", (unsigned long)current_sector);
 8000476:	4c07      	ldr	r4, [pc, #28]	@ (8000494 <SD_Stream_WriteBlock+0x70>)
 8000478:	6823      	ldr	r3, [r4, #0]
 800047a:	4a0a      	ldr	r2, [pc, #40]	@ (80004a4 <SD_Stream_WriteBlock+0x80>)
 800047c:	2150      	movs	r1, #80	@ 0x50
 800047e:	a802      	add	r0, sp, #8
 8000480:	f006 fb24 	bl	8006acc <sniprintf>
    Stream_Log(dbg);
 8000484:	a802      	add	r0, sp, #8
 8000486:	f7ff ffab 	bl	80003e0 <Stream_Log>
    current_sector++;
 800048a:	6823      	ldr	r3, [r4, #0]
 800048c:	3301      	adds	r3, #1
 800048e:	6023      	str	r3, [r4, #0]
    return HAL_OK;
 8000490:	e7ee      	b.n	8000470 <SD_Stream_WriteBlock+0x4c>
 8000492:	bf00      	nop
 8000494:	20000000 	.word	0x20000000
 8000498:	20010e14 	.word	0x20010e14
 800049c:	0800796c 	.word	0x0800796c
 80004a0:	08007958 	.word	0x08007958
 80004a4:	08007980 	.word	0x08007980

080004a8 <SD_Stream_GetCurrentSector>:

uint32_t SD_Stream_GetCurrentSector(void) {
    return current_sector;
}
 80004a8:	4b01      	ldr	r3, [pc, #4]	@ (80004b0 <SD_Stream_GetCurrentSector+0x8>)
 80004aa:	6818      	ldr	r0, [r3, #0]
 80004ac:	4770      	bx	lr
 80004ae:	bf00      	nop
 80004b0:	20000000 	.word	0x20000000

080004b4 <SD_Stream_ReadDebug>:

void SD_Stream_ReadDebug(uint32_t start_sector, uint32_t num_blocks) {
 80004b4:	e92d 4ff0 	stmdb	sp!, {r4, r5, r6, r7, r8, r9, sl, fp, lr}
 80004b8:	b0a9      	sub	sp, #164	@ 0xa4
 80004ba:	4680      	mov	r8, r0
 80004bc:	460f      	mov	r7, r1
    static uint8_t read_buf[512] __attribute__((aligned(4)));
    char msg[64];

    Stream_Log("--- SD READ START ---\r\n");
 80004be:	484f      	ldr	r0, [pc, #316]	@ (80005fc <SD_Stream_ReadDebug+0x148>)
 80004c0:	f7ff ff8e 	bl	80003e0 <Stream_Log>

    for (uint32_t i = 0; i < num_blocks; i++) {
 80004c4:	2600      	movs	r6, #0
 80004c6:	42be      	cmp	r6, r7
 80004c8:	d221      	bcs.n	800050e <SD_Stream_ReadDebug+0x5a>
        HAL_StatusTypeDef res = HAL_SD_ReadBlocks(
 80004ca:	f44f 63fa 	mov.w	r3, #2000	@ 0x7d0
 80004ce:	9300      	str	r3, [sp, #0]
 80004d0:	2301      	movs	r3, #1
 80004d2:	eb06 0208 	add.w	r2, r6, r8
 80004d6:	494a      	ldr	r1, [pc, #296]	@ (8000600 <SD_Stream_ReadDebug+0x14c>)
 80004d8:	484a      	ldr	r0, [pc, #296]	@ (8000604 <SD_Stream_ReadDebug+0x150>)
 80004da:	f004 f83b 	bl	8004554 <HAL_SD_ReadBlocks>
            &hsd1, read_buf, start_sector + i, 1, 2000);

        if (res != HAL_OK) { Stream_Log("Read error\r\n"); break; }
 80004de:	b998      	cbnz	r0, 8000508 <SD_Stream_ReadDebug+0x54>

        uint32_t t = HAL_GetTick();
 80004e0:	f000 ff9e 	bl	8001420 <HAL_GetTick>
 80004e4:	4604      	mov	r4, r0
        while (HAL_SD_GetCardState(&hsd1) != HAL_SD_CARD_TRANSFER) {
 80004e6:	4847      	ldr	r0, [pc, #284]	@ (8000604 <SD_Stream_ReadDebug+0x150>)
 80004e8:	f004 fcb5 	bl	8004e56 <HAL_SD_GetCardState>
 80004ec:	2804      	cmp	r0, #4
 80004ee:	d012      	beq.n	8000516 <SD_Stream_ReadDebug+0x62>
            if (HAL_GetTick() - t > 2000) { Stream_Log("Timeout\r\n"); return; }
 80004f0:	f000 ff96 	bl	8001420 <HAL_GetTick>
 80004f4:	1b00      	subs	r0, r0, r4
 80004f6:	f5b0 6ffa 	cmp.w	r0, #2000	@ 0x7d0
 80004fa:	d9f4      	bls.n	80004e6 <SD_Stream_ReadDebug+0x32>
 80004fc:	4842      	ldr	r0, [pc, #264]	@ (8000608 <SD_Stream_ReadDebug+0x154>)
 80004fe:	f7ff ff6f 	bl	80003e0 <Stream_Log>
                read_buf[row+12], read_buf[row+13], read_buf[row+14], read_buf[row+15]);
            HAL_UART_Transmit(_uart, (uint8_t*)msg, len, 500);
        }
    }
    Stream_Log("--- SD READ END ---\r\n");
 8000502:	b029      	add	sp, #164	@ 0xa4
 8000504:	e8bd 8ff0 	ldmia.w	sp!, {r4, r5, r6, r7, r8, r9, sl, fp, pc}
        if (res != HAL_OK) { Stream_Log("Read error\r\n"); break; }
 8000508:	4840      	ldr	r0, [pc, #256]	@ (800060c <SD_Stream_ReadDebug+0x158>)
 800050a:	f7ff ff69 	bl	80003e0 <Stream_Log>
    Stream_Log("--- SD READ END ---\r\n");
 800050e:	4840      	ldr	r0, [pc, #256]	@ (8000610 <SD_Stream_ReadDebug+0x15c>)
 8000510:	f7ff ff66 	bl	80003e0 <Stream_Log>
 8000514:	e7f5      	b.n	8000502 <SD_Stream_ReadDebug+0x4e>
        for (int row = 0; row < 512; row += 16) {
 8000516:	f04f 0900 	mov.w	r9, #0
 800051a:	9615      	str	r6, [sp, #84]	@ 0x54
 800051c:	f8cd 8058 	str.w	r8, [sp, #88]	@ 0x58
 8000520:	9717      	str	r7, [sp, #92]	@ 0x5c
 8000522:	e062      	b.n	80005ea <SD_Stream_ReadDebug+0x136>
                read_buf[row+0],  read_buf[row+1],  read_buf[row+2],  read_buf[row+3],
 8000524:	4b36      	ldr	r3, [pc, #216]	@ (8000600 <SD_Stream_ReadDebug+0x14c>)
 8000526:	f813 2009 	ldrb.w	r2, [r3, r9]
 800052a:	9211      	str	r2, [sp, #68]	@ 0x44
 800052c:	f109 0201 	add.w	r2, r9, #1
 8000530:	5c99      	ldrb	r1, [r3, r2]
 8000532:	9112      	str	r1, [sp, #72]	@ 0x48
 8000534:	f109 0202 	add.w	r2, r9, #2
 8000538:	5c98      	ldrb	r0, [r3, r2]
 800053a:	9013      	str	r0, [sp, #76]	@ 0x4c
 800053c:	f109 0203 	add.w	r2, r9, #3
 8000540:	5c9c      	ldrb	r4, [r3, r2]
 8000542:	9414      	str	r4, [sp, #80]	@ 0x50
                read_buf[row+4],  read_buf[row+5],  read_buf[row+6],  read_buf[row+7],
 8000544:	f109 0204 	add.w	r2, r9, #4
 8000548:	5c9a      	ldrb	r2, [r3, r2]
 800054a:	f109 0105 	add.w	r1, r9, #5
 800054e:	5c59      	ldrb	r1, [r3, r1]
 8000550:	f109 0006 	add.w	r0, r9, #6
 8000554:	5c18      	ldrb	r0, [r3, r0]
 8000556:	f109 0407 	add.w	r4, r9, #7
 800055a:	5d1d      	ldrb	r5, [r3, r4]
                read_buf[row+8],  read_buf[row+9],  read_buf[row+10], read_buf[row+11],
 800055c:	f109 0408 	add.w	r4, r9, #8
 8000560:	5d1e      	ldrb	r6, [r3, r4]
 8000562:	f109 0409 	add.w	r4, r9, #9
 8000566:	5d1f      	ldrb	r7, [r3, r4]
 8000568:	f109 040a 	add.w	r4, r9, #10
 800056c:	f813 c004 	ldrb.w	ip, [r3, r4]
 8000570:	f109 040b 	add.w	r4, r9, #11
 8000574:	f813 e004 	ldrb.w	lr, [r3, r4]
                read_buf[row+12], read_buf[row+13], read_buf[row+14], read_buf[row+15]);
 8000578:	f109 040c 	add.w	r4, r9, #12
 800057c:	f813 8004 	ldrb.w	r8, [r3, r4]
 8000580:	f109 040d 	add.w	r4, r9, #13
 8000584:	f813 a004 	ldrb.w	sl, [r3, r4]
 8000588:	f109 040e 	add.w	r4, r9, #14
 800058c:	f813 b004 	ldrb.w	fp, [r3, r4]
 8000590:	f109 040f 	add.w	r4, r9, #15
 8000594:	5d1b      	ldrb	r3, [r3, r4]
            int len = snprintf(msg, sizeof(msg),
 8000596:	ac18      	add	r4, sp, #96	@ 0x60
 8000598:	930f      	str	r3, [sp, #60]	@ 0x3c
 800059a:	f8cd b038 	str.w	fp, [sp, #56]	@ 0x38
 800059e:	f8cd a034 	str.w	sl, [sp, #52]	@ 0x34
 80005a2:	f8cd 8030 	str.w	r8, [sp, #48]	@ 0x30
 80005a6:	f8cd e02c 	str.w	lr, [sp, #44]	@ 0x2c
 80005aa:	f8cd c028 	str.w	ip, [sp, #40]	@ 0x28
 80005ae:	9709      	str	r7, [sp, #36]	@ 0x24
 80005b0:	9608      	str	r6, [sp, #32]
 80005b2:	9507      	str	r5, [sp, #28]
 80005b4:	9006      	str	r0, [sp, #24]
 80005b6:	9105      	str	r1, [sp, #20]
 80005b8:	9204      	str	r2, [sp, #16]
 80005ba:	9b14      	ldr	r3, [sp, #80]	@ 0x50
 80005bc:	9303      	str	r3, [sp, #12]
 80005be:	9813      	ldr	r0, [sp, #76]	@ 0x4c
 80005c0:	9002      	str	r0, [sp, #8]
 80005c2:	9912      	ldr	r1, [sp, #72]	@ 0x48
 80005c4:	9101      	str	r1, [sp, #4]
 80005c6:	9a11      	ldr	r2, [sp, #68]	@ 0x44
 80005c8:	9200      	str	r2, [sp, #0]
 80005ca:	464b      	mov	r3, r9
 80005cc:	4a11      	ldr	r2, [pc, #68]	@ (8000614 <SD_Stream_ReadDebug+0x160>)
 80005ce:	2140      	movs	r1, #64	@ 0x40
 80005d0:	4620      	mov	r0, r4
 80005d2:	f006 fa7b 	bl	8006acc <sniprintf>
            HAL_UART_Transmit(_uart, (uint8_t*)msg, len, 500);
 80005d6:	f44f 73fa 	mov.w	r3, #500	@ 0x1f4
 80005da:	2237      	movs	r2, #55	@ 0x37
 80005dc:	4621      	mov	r1, r4
 80005de:	480e      	ldr	r0, [pc, #56]	@ (8000618 <SD_Stream_ReadDebug+0x164>)
 80005e0:	6800      	ldr	r0, [r0, #0]
 80005e2:	f005 fb7c 	bl	8005cde <HAL_UART_Transmit>
        for (int row = 0; row < 512; row += 16) {
 80005e6:	f109 0910 	add.w	r9, r9, #16
 80005ea:	f5b9 7f00 	cmp.w	r9, #512	@ 0x200
 80005ee:	db99      	blt.n	8000524 <SD_Stream_ReadDebug+0x70>
    for (uint32_t i = 0; i < num_blocks; i++) {
 80005f0:	9e15      	ldr	r6, [sp, #84]	@ 0x54
 80005f2:	f8dd 8058 	ldr.w	r8, [sp, #88]	@ 0x58
 80005f6:	9f17      	ldr	r7, [sp, #92]	@ 0x5c
 80005f8:	3601      	adds	r6, #1
 80005fa:	e764      	b.n	80004c6 <SD_Stream_ReadDebug+0x12>
 80005fc:	08007998 	.word	0x08007998
 8000600:	20000284 	.word	0x20000284
 8000604:	20010e14 	.word	0x20010e14
 8000608:	080079c0 	.word	0x080079c0
 800060c:	080079b0 	.word	0x080079b0
 8000610:	08007a28 	.word	0x08007a28
 8000614:	080079cc 	.word	0x080079cc
 8000618:	20000484 	.word	0x20000484

0800061c <MX_GPIO_Init>:
  * @brief GPIO Initialization Function
  * @param None
  * @retval None
  */
static void MX_GPIO_Init(void)
{
 800061c:	e92d 41f0 	stmdb	sp!, {r4, r5, r6, r7, r8, lr}
 8000620:	b08a      	sub	sp, #40	@ 0x28
  GPIO_InitTypeDef GPIO_InitStruct = {0};
 8000622:	ad05      	add	r5, sp, #20
 8000624:	2400      	movs	r4, #0
 8000626:	9405      	str	r4, [sp, #20]
 8000628:	9406      	str	r4, [sp, #24]
 800062a:	9407      	str	r4, [sp, #28]
 800062c:	9408      	str	r4, [sp, #32]
 800062e:	9409      	str	r4, [sp, #36]	@ 0x24
  /* USER CODE BEGIN MX_GPIO_Init_1 */

  /* USER CODE END MX_GPIO_Init_1 */

  /* GPIO Ports Clock Enable */
  __HAL_RCC_GPIOC_CLK_ENABLE();
 8000630:	4b3b      	ldr	r3, [pc, #236]	@ (8000720 <MX_GPIO_Init+0x104>)
 8000632:	6cda      	ldr	r2, [r3, #76]	@ 0x4c
 8000634:	f042 0204 	orr.w	r2, r2, #4
 8000638:	64da      	str	r2, [r3, #76]	@ 0x4c
 800063a:	6cda      	ldr	r2, [r3, #76]	@ 0x4c
 800063c:	f002 0204 	and.w	r2, r2, #4
 8000640:	9201      	str	r2, [sp, #4]
 8000642:	9a01      	ldr	r2, [sp, #4]
  __HAL_RCC_GPIOA_CLK_ENABLE();
 8000644:	6cda      	ldr	r2, [r3, #76]	@ 0x4c
 8000646:	f042 0201 	orr.w	r2, r2, #1
 800064a:	64da      	str	r2, [r3, #76]	@ 0x4c
 800064c:	6cda      	ldr	r2, [r3, #76]	@ 0x4c
 800064e:	f002 0201 	and.w	r2, r2, #1
 8000652:	9202      	str	r2, [sp, #8]
 8000654:	9a02      	ldr	r2, [sp, #8]
  __HAL_RCC_GPIOB_CLK_ENABLE();
 8000656:	6cda      	ldr	r2, [r3, #76]	@ 0x4c
 8000658:	f042 0202 	orr.w	r2, r2, #2
 800065c:	64da      	str	r2, [r3, #76]	@ 0x4c
 800065e:	6cda      	ldr	r2, [r3, #76]	@ 0x4c
 8000660:	f002 0202 	and.w	r2, r2, #2
 8000664:	9203      	str	r2, [sp, #12]
 8000666:	9a03      	ldr	r2, [sp, #12]
  __HAL_RCC_GPIOD_CLK_ENABLE();
 8000668:	6cda      	ldr	r2, [r3, #76]	@ 0x4c
 800066a:	f042 0208 	orr.w	r2, r2, #8
 800066e:	64da      	str	r2, [r3, #76]	@ 0x4c
 8000670:	6cdb      	ldr	r3, [r3, #76]	@ 0x4c
 8000672:	f003 0308 	and.w	r3, r3, #8
 8000676:	9304      	str	r3, [sp, #16]
 8000678:	9b04      	ldr	r3, [sp, #16]

  /*Configure GPIO pin Output Level */
  HAL_GPIO_WritePin(GPIOC, Wi_EN_Pin|Wi_RST_Pin|Wi_WAKE_Pin|Wi_GPIO_0_Pin, GPIO_PIN_RESET);
 800067a:	f8df 80ac 	ldr.w	r8, [pc, #172]	@ 8000728 <MX_GPIO_Init+0x10c>
 800067e:	4622      	mov	r2, r4
 8000680:	21cc      	movs	r1, #204	@ 0xcc
 8000682:	4640      	mov	r0, r8
 8000684:	f001 fb54 	bl	8001d30 <HAL_GPIO_WritePin>

  /*Configure GPIO pin Output Level */
  HAL_GPIO_WritePin(GPIOB, Wi_PWR_CTRL_Pin|Lo_PWR_CTRL_Pin|SD0_PWR_CTRL_Pin|Lo_GPIO_0_Pin
 8000688:	4e26      	ldr	r6, [pc, #152]	@ (8000724 <MX_GPIO_Init+0x108>)
 800068a:	4622      	mov	r2, r4
 800068c:	f641 4107 	movw	r1, #7175	@ 0x1c07
 8000690:	4630      	mov	r0, r6
 8000692:	f001 fb4d 	bl	8001d30 <HAL_GPIO_WritePin>
                          |Lo_GPIO_1_Pin|Lo_GPIO_2_Pin, GPIO_PIN_RESET);

  /*Configure GPIO pins : Wi_EN_Pin Wi_RST_Pin Wi_WAKE_Pin Wi_GPIO_0_Pin */
  GPIO_InitStruct.Pin = Wi_EN_Pin|Wi_RST_Pin|Wi_WAKE_Pin|Wi_GPIO_0_Pin;
 8000696:	23cc      	movs	r3, #204	@ 0xcc
 8000698:	9305      	str	r3, [sp, #20]
  GPIO_InitStruct.Mode = GPIO_MODE_OUTPUT_PP;
 800069a:	2701      	movs	r7, #1
 800069c:	9706      	str	r7, [sp, #24]
  GPIO_InitStruct.Pull = GPIO_NOPULL;
 800069e:	9407      	str	r4, [sp, #28]
  GPIO_InitStruct.Speed = GPIO_SPEED_FREQ_LOW;
 80006a0:	9408      	str	r4, [sp, #32]
  HAL_GPIO_Init(GPIOC, &GPIO_InitStruct);
 80006a2:	4629      	mov	r1, r5
 80006a4:	4640      	mov	r0, r8
 80006a6:	f001 f99d 	bl	80019e4 <HAL_GPIO_Init>

  /*Configure GPIO pin : SD_GPIO_INPUT_Pin */
  GPIO_InitStruct.Pin = SD_GPIO_INPUT_Pin;
 80006aa:	2310      	movs	r3, #16
 80006ac:	9305      	str	r3, [sp, #20]
  GPIO_InitStruct.Mode = GPIO_MODE_INPUT;
 80006ae:	9406      	str	r4, [sp, #24]
  GPIO_InitStruct.Pull = GPIO_PULLDOWN;
 80006b0:	2302      	movs	r3, #2
 80006b2:	9307      	str	r3, [sp, #28]
  HAL_GPIO_Init(SD_GPIO_INPUT_GPIO_Port, &GPIO_InitStruct);
 80006b4:	4629      	mov	r1, r5
 80006b6:	f04f 4090 	mov.w	r0, #1207959552	@ 0x48000000
 80006ba:	f001 f993 	bl	80019e4 <HAL_GPIO_Init>

  /*Configure GPIO pins : Wi_PWR_CTRL_Pin Lo_PWR_CTRL_Pin SD0_PWR_CTRL_Pin Lo_GPIO_0_Pin
                           Lo_GPIO_1_Pin Lo_GPIO_2_Pin */
  GPIO_InitStruct.Pin = Wi_PWR_CTRL_Pin|Lo_PWR_CTRL_Pin|SD0_PWR_CTRL_Pin|Lo_GPIO_0_Pin
 80006be:	f641 4307 	movw	r3, #7175	@ 0x1c07
 80006c2:	9305      	str	r3, [sp, #20]
                          |Lo_GPIO_1_Pin|Lo_GPIO_2_Pin;
  GPIO_InitStruct.Mode = GPIO_MODE_OUTPUT_PP;
 80006c4:	9706      	str	r7, [sp, #24]
  GPIO_InitStruct.Pull = GPIO_NOPULL;
 80006c6:	9407      	str	r4, [sp, #28]
  GPIO_InitStruct.Speed = GPIO_SPEED_FREQ_LOW;
 80006c8:	9408      	str	r4, [sp, #32]
  HAL_GPIO_Init(GPIOB, &GPIO_InitStruct);
 80006ca:	4629      	mov	r1, r5
 80006cc:	4630      	mov	r0, r6
 80006ce:	f001 f989 	bl	80019e4 <HAL_GPIO_Init>

  /*Configure GPIO pin : D_WAKE_Pin */
  GPIO_InitStruct.Pin = D_WAKE_Pin;
 80006d2:	f44f 6300 	mov.w	r3, #2048	@ 0x800
 80006d6:	9305      	str	r3, [sp, #20]
  GPIO_InitStruct.Mode = GPIO_MODE_IT_RISING;
 80006d8:	f44f 1388 	mov.w	r3, #1114112	@ 0x110000
 80006dc:	9306      	str	r3, [sp, #24]
  GPIO_InitStruct.Pull = GPIO_NOPULL;
 80006de:	9407      	str	r4, [sp, #28]
  HAL_GPIO_Init(D_WAKE_GPIO_Port, &GPIO_InitStruct);
 80006e0:	4629      	mov	r1, r5
 80006e2:	f04f 4090 	mov.w	r0, #1207959552	@ 0x48000000
 80006e6:	f001 f97d 	bl	80019e4 <HAL_GPIO_Init>

  /*Configure GPIO pin : D_GPIO0_Pin */
  GPIO_InitStruct.Pin = D_GPIO0_Pin;
 80006ea:	f44f 5380 	mov.w	r3, #4096	@ 0x1000
 80006ee:	9305      	str	r3, [sp, #20]
  GPIO_InitStruct.Mode = GPIO_MODE_INPUT;
 80006f0:	9406      	str	r4, [sp, #24]
  GPIO_InitStruct.Pull = GPIO_NOPULL;
 80006f2:	9407      	str	r4, [sp, #28]
  HAL_GPIO_Init(D_GPIO0_GPIO_Port, &GPIO_InitStruct);
 80006f4:	4629      	mov	r1, r5
 80006f6:	f04f 4090 	mov.w	r0, #1207959552	@ 0x48000000
 80006fa:	f001 f973 	bl	80019e4 <HAL_GPIO_Init>

  /* EXTI interrupt init*/
  HAL_NVIC_SetPriority(EXTI15_10_IRQn, 14, 0);
 80006fe:	4622      	mov	r2, r4
 8000700:	210e      	movs	r1, #14
 8000702:	2028      	movs	r0, #40	@ 0x28
 8000704:	f000 ff36 	bl	8001574 <HAL_NVIC_SetPriority>
  HAL_NVIC_EnableIRQ(EXTI15_10_IRQn);
 8000708:	2028      	movs	r0, #40	@ 0x28
 800070a:	f000 ff43 	bl	8001594 <HAL_NVIC_EnableIRQ>

  /* USER CODE BEGIN MX_GPIO_Init_2 */
  // SET SD CARD HIGH FOR TESTING : TODO REMOVE
  HAL_GPIO_WritePin(SD0_PWR_CTRL_GPIO_Port, SD0_PWR_CTRL_Pin, GPIO_PIN_SET);
 800070e:	463a      	mov	r2, r7
 8000710:	2104      	movs	r1, #4
 8000712:	4630      	mov	r0, r6
 8000714:	f001 fb0c 	bl	8001d30 <HAL_GPIO_WritePin>
  /* USER CODE END MX_GPIO_Init_2 */
}
 8000718:	b00a      	add	sp, #40	@ 0x28
 800071a:	e8bd 81f0 	ldmia.w	sp!, {r4, r5, r6, r7, r8, pc}
 800071e:	bf00      	nop
 8000720:	40021000 	.word	0x40021000
 8000724:	48000400 	.word	0x48000400
 8000728:	48000800 	.word	0x48000800

0800072c <MX_DMA_Init>:
{
 800072c:	b500      	push	{lr}
 800072e:	b083      	sub	sp, #12
  __HAL_RCC_DMA1_CLK_ENABLE();
 8000730:	4b16      	ldr	r3, [pc, #88]	@ (800078c <MX_DMA_Init+0x60>)
 8000732:	6c9a      	ldr	r2, [r3, #72]	@ 0x48
 8000734:	f042 0201 	orr.w	r2, r2, #1
 8000738:	649a      	str	r2, [r3, #72]	@ 0x48
 800073a:	6c9a      	ldr	r2, [r3, #72]	@ 0x48
 800073c:	f002 0201 	and.w	r2, r2, #1
 8000740:	9200      	str	r2, [sp, #0]
 8000742:	9a00      	ldr	r2, [sp, #0]
  __HAL_RCC_DMA2_CLK_ENABLE();
 8000744:	6c9a      	ldr	r2, [r3, #72]	@ 0x48
 8000746:	f042 0202 	orr.w	r2, r2, #2
 800074a:	649a      	str	r2, [r3, #72]	@ 0x48
 800074c:	6c9b      	ldr	r3, [r3, #72]	@ 0x48
 800074e:	f003 0302 	and.w	r3, r3, #2
 8000752:	9301      	str	r3, [sp, #4]
 8000754:	9b01      	ldr	r3, [sp, #4]
  HAL_NVIC_SetPriority(DMA1_Channel5_IRQn, 14, 0);
 8000756:	2200      	movs	r2, #0
 8000758:	210e      	movs	r1, #14
 800075a:	200f      	movs	r0, #15
 800075c:	f000 ff0a 	bl	8001574 <HAL_NVIC_SetPriority>
  HAL_NVIC_EnableIRQ(DMA1_Channel5_IRQn);
 8000760:	200f      	movs	r0, #15
 8000762:	f000 ff17 	bl	8001594 <HAL_NVIC_EnableIRQ>
  HAL_NVIC_SetPriority(DMA2_Channel4_IRQn, 0, 0);
 8000766:	2200      	movs	r2, #0
 8000768:	4611      	mov	r1, r2
 800076a:	203b      	movs	r0, #59	@ 0x3b
 800076c:	f000 ff02 	bl	8001574 <HAL_NVIC_SetPriority>
  HAL_NVIC_EnableIRQ(DMA2_Channel4_IRQn);
 8000770:	203b      	movs	r0, #59	@ 0x3b
 8000772:	f000 ff0f 	bl	8001594 <HAL_NVIC_EnableIRQ>
  HAL_NVIC_SetPriority(DMA2_Channel5_IRQn, 0, 0);
 8000776:	2200      	movs	r2, #0
 8000778:	4611      	mov	r1, r2
 800077a:	203c      	movs	r0, #60	@ 0x3c
 800077c:	f000 fefa 	bl	8001574 <HAL_NVIC_SetPriority>
  HAL_NVIC_EnableIRQ(DMA2_Channel5_IRQn);
 8000780:	203c      	movs	r0, #60	@ 0x3c
 8000782:	f000 ff07 	bl	8001594 <HAL_NVIC_EnableIRQ>
}
 8000786:	b003      	add	sp, #12
 8000788:	bd00      	pop	{pc}
 800078a:	bf00      	nop
 800078c:	40021000 	.word	0x40021000

08000790 <UART_SendString>:
/**
 * @brief Sends a string over the specified UART peripheral.
 * @param huart: Pointer to the UART handle (e.g., &huart3)
 * @param str: The string to be sent
 */
void UART_SendString(UART_HandleTypeDef *huart, char *str) {
 8000790:	b538      	push	{r3, r4, r5, lr}
 8000792:	4605      	mov	r5, r0
 8000794:	460c      	mov	r4, r1
    HAL_UART_Transmit(huart, (uint8_t*)str, strlen(str), HAL_MAX_DELAY);
 8000796:	4608      	mov	r0, r1
 8000798:	f7ff fcfa 	bl	8000190 <strlen>
 800079c:	f04f 33ff 	mov.w	r3, #4294967295	@ 0xffffffff
 80007a0:	b282      	uxth	r2, r0
 80007a2:	4621      	mov	r1, r4
 80007a4:	4628      	mov	r0, r5
 80007a6:	f005 fa9a 	bl	8005cde <HAL_UART_Transmit>
}
 80007aa:	bd38      	pop	{r3, r4, r5, pc}

080007ac <Print_SD_Details>:



void Print_SD_Details(void) {
 80007ac:	b530      	push	{r4, r5, lr}
 80007ae:	b0a3      	sub	sp, #140	@ 0x8c
        "Version:   %lu\r\n"
        "Block Size: %lu bytes\r\n"
        "Block Nbr:  %lu\r\n"
        "Total Size: %lu KB\r\n"
        "--------------------\r\n",
        (uint32_t)hsd1.SdCard.CardVersion,
 80007b0:	4a0c      	ldr	r2, [pc, #48]	@ (80007e4 <Print_SD_Details+0x38>)
        (uint32_t)hsd1.SdCard.BlockSize,
 80007b2:	6d93      	ldr	r3, [r2, #88]	@ 0x58
        (uint32_t)hsd1.SdCard.BlockNbr,
 80007b4:	6d50      	ldr	r0, [r2, #84]	@ 0x54
        (uint32_t)(hsd1.SdCard.BlockNbr * hsd1.SdCard.BlockSize / 1024) // Calculated Size
 80007b6:	fb00 f103 	mul.w	r1, r0, r3
    int len = sprintf(msg, 
 80007ba:	ad02      	add	r5, sp, #8
 80007bc:	0a89      	lsrs	r1, r1, #10
 80007be:	9101      	str	r1, [sp, #4]
 80007c0:	9000      	str	r0, [sp, #0]
 80007c2:	6c92      	ldr	r2, [r2, #72]	@ 0x48
 80007c4:	4908      	ldr	r1, [pc, #32]	@ (80007e8 <Print_SD_Details+0x3c>)
 80007c6:	4628      	mov	r0, r5
 80007c8:	f006 f9b2 	bl	8006b30 <siprintf>
    );

    // Send the formatted string via your UART function
    UART_SendString(&huart3, msg);
 80007cc:	4c07      	ldr	r4, [pc, #28]	@ (80007ec <Print_SD_Details+0x40>)
 80007ce:	4629      	mov	r1, r5
 80007d0:	4620      	mov	r0, r4
 80007d2:	f7ff ffdd 	bl	8000790 <UART_SendString>
    UART_SendString(&huart3, "end of setup test\r\n");
 80007d6:	4906      	ldr	r1, [pc, #24]	@ (80007f0 <Print_SD_Details+0x44>)
 80007d8:	4620      	mov	r0, r4
 80007da:	f7ff ffd9 	bl	8000790 <UART_SendString>

}
 80007de:	b023      	add	sp, #140	@ 0x8c
 80007e0:	bd30      	pop	{r4, r5, pc}
 80007e2:	bf00      	nop
 80007e4:	20010e14 	.word	0x20010e14
 80007e8:	08007a40 	.word	0x08007a40
 80007ec:	20010f04 	.word	0x20010f04
 80007f0:	08007abc 	.word	0x08007abc

080007f4 <SD_RawWriteTest>:

// Direct SDMMC write/read-back test — no FatFS involved
void SD_RawWriteTest(void) {
 80007f4:	b530      	push	{r4, r5, lr}
 80007f6:	b093      	sub	sp, #76	@ 0x4c
    char uart[64];

    // Fill write buffer with known pattern
    for (int i = 0; i < 512; i++) {
 80007f8:	2300      	movs	r3, #0
 80007fa:	e002      	b.n	8000802 <SD_RawWriteTest+0xe>
        writeBuf[i] = (uint8_t)(i & 0xFF);
 80007fc:	4a56      	ldr	r2, [pc, #344]	@ (8000958 <SD_RawWriteTest+0x164>)
 80007fe:	54d3      	strb	r3, [r2, r3]
    for (int i = 0; i < 512; i++) {
 8000800:	3301      	adds	r3, #1
 8000802:	f5b3 7f00 	cmp.w	r3, #512	@ 0x200
 8000806:	dbf9      	blt.n	80007fc <SD_RawWriteTest+0x8>
    }
    memset(readBuf, 0xAA, sizeof(readBuf)); // fill read buf with garbage first
 8000808:	f44f 7200 	mov.w	r2, #512	@ 0x200
 800080c:	21aa      	movs	r1, #170	@ 0xaa
 800080e:	4853      	ldr	r0, [pc, #332]	@ (800095c <SD_RawWriteTest+0x168>)
 8000810:	f006 f9b0 	bl	8006b74 <memset>

    UART_SendString(&huart3, "\r\n--- RAW HAL SD TEST ---\r\n");
 8000814:	4952      	ldr	r1, [pc, #328]	@ (8000960 <SD_RawWriteTest+0x16c>)
 8000816:	4853      	ldr	r0, [pc, #332]	@ (8000964 <SD_RawWriteTest+0x170>)
 8000818:	f7ff ffba 	bl	8000790 <UART_SendString>

    // --- WRITE ---
    HAL_StatusTypeDef wStat = HAL_SD_WriteBlocks(&hsd1, writeBuf, 100, 1, 5000);
 800081c:	f241 3388 	movw	r3, #5000	@ 0x1388
 8000820:	9300      	str	r3, [sp, #0]
 8000822:	2301      	movs	r3, #1
 8000824:	2264      	movs	r2, #100	@ 0x64
 8000826:	494c      	ldr	r1, [pc, #304]	@ (8000958 <SD_RawWriteTest+0x164>)
 8000828:	484f      	ldr	r0, [pc, #316]	@ (8000968 <SD_RawWriteTest+0x174>)
 800082a:	f003 ffb5 	bl	8004798 <HAL_SD_WriteBlocks>
    snprintf(uart, sizeof(uart), "WriteBlocks: %s (%d)\r\n",
 800082e:	4604      	mov	r4, r0
 8000830:	b9f8      	cbnz	r0, 8000872 <SD_RawWriteTest+0x7e>
 8000832:	4b4e      	ldr	r3, [pc, #312]	@ (800096c <SD_RawWriteTest+0x178>)
 8000834:	ad02      	add	r5, sp, #8
 8000836:	9400      	str	r4, [sp, #0]
 8000838:	4a4d      	ldr	r2, [pc, #308]	@ (8000970 <SD_RawWriteTest+0x17c>)
 800083a:	2140      	movs	r1, #64	@ 0x40
 800083c:	4628      	mov	r0, r5
 800083e:	f006 f945 	bl	8006acc <sniprintf>
             wStat == HAL_OK ? "HAL_OK" : "FAILED", wStat);
    UART_SendString(&huart3, uart);
 8000842:	4629      	mov	r1, r5
 8000844:	4847      	ldr	r0, [pc, #284]	@ (8000964 <SD_RawWriteTest+0x170>)
 8000846:	f7ff ffa3 	bl	8000790 <UART_SendString>

    if (wStat != HAL_OK) {
 800084a:	b9a4      	cbnz	r4, 8000876 <SD_RawWriteTest+0x82>
        return;
    }


    // --- WAIT for card to finish ---
    uint32_t t = HAL_GetTick();
 800084c:	f000 fde8 	bl	8001420 <HAL_GetTick>
 8000850:	4604      	mov	r4, r0
    while (HAL_SD_GetCardState(&hsd1) != HAL_SD_CARD_TRANSFER) {
 8000852:	4845      	ldr	r0, [pc, #276]	@ (8000968 <SD_RawWriteTest+0x174>)
 8000854:	f004 faff 	bl	8004e56 <HAL_SD_GetCardState>
 8000858:	2804      	cmp	r0, #4
 800085a:	d027      	beq.n	80008ac <SD_RawWriteTest+0xb8>
        if (HAL_GetTick() - t > 2000) {
 800085c:	f000 fde0 	bl	8001420 <HAL_GetTick>
 8000860:	1b00      	subs	r0, r0, r4
 8000862:	f5b0 6ffa 	cmp.w	r0, #2000	@ 0x7d0
 8000866:	d9f4      	bls.n	8000852 <SD_RawWriteTest+0x5e>
            UART_SendString(&huart3, "Timeout waiting for card after write!\r\n");
 8000868:	4942      	ldr	r1, [pc, #264]	@ (8000974 <SD_RawWriteTest+0x180>)
 800086a:	483e      	ldr	r0, [pc, #248]	@ (8000964 <SD_RawWriteTest+0x170>)
 800086c:	f7ff ff90 	bl	8000790 <UART_SendString>
            return;
 8000870:	e01a      	b.n	80008a8 <SD_RawWriteTest+0xb4>
    snprintf(uart, sizeof(uart), "WriteBlocks: %s (%d)\r\n",
 8000872:	4b41      	ldr	r3, [pc, #260]	@ (8000978 <SD_RawWriteTest+0x184>)
 8000874:	e7de      	b.n	8000834 <SD_RawWriteTest+0x40>
        HAL_SD_CardStateTypeDef state = HAL_SD_GetCardState(&hsd1);
 8000876:	4d3c      	ldr	r5, [pc, #240]	@ (8000968 <SD_RawWriteTest+0x174>)
 8000878:	4628      	mov	r0, r5
 800087a:	f004 faec 	bl	8004e56 <HAL_SD_GetCardState>
 800087e:	4603      	mov	r3, r0
        snprintf(uart, sizeof(uart), "Card state after write: %d\r\n", (int)state);
 8000880:	ac02      	add	r4, sp, #8
 8000882:	4a3e      	ldr	r2, [pc, #248]	@ (800097c <SD_RawWriteTest+0x188>)
 8000884:	2140      	movs	r1, #64	@ 0x40
 8000886:	4620      	mov	r0, r4
 8000888:	f006 f920 	bl	8006acc <sniprintf>
        UART_SendString(&huart3, uart);
 800088c:	4621      	mov	r1, r4
 800088e:	4835      	ldr	r0, [pc, #212]	@ (8000964 <SD_RawWriteTest+0x170>)
 8000890:	f7ff ff7e 	bl	8000790 <UART_SendString>
        uint32_t sdErr = hsd1.ErrorCode;    // FAILS WITH SDMMC_ERROR_CMD_CRC_FAIL implying signal integrity issue. 
 8000894:	6bab      	ldr	r3, [r5, #56]	@ 0x38
        snprintf(uart, sizeof(uart), "SD ErrorCode: 0x%08lX\r\n", (unsigned long)sdErr);
 8000896:	4a3a      	ldr	r2, [pc, #232]	@ (8000980 <SD_RawWriteTest+0x18c>)
 8000898:	2140      	movs	r1, #64	@ 0x40
 800089a:	4620      	mov	r0, r4
 800089c:	f006 f916 	bl	8006acc <sniprintf>
        UART_SendString(&huart3, uart);
 80008a0:	4621      	mov	r1, r4
 80008a2:	4830      	ldr	r0, [pc, #192]	@ (8000964 <SD_RawWriteTest+0x170>)
 80008a4:	f7ff ff74 	bl	8000790 <UART_SendString>

    snprintf(uart, sizeof(uart), "Verify: %s (%d mismatches)\r\n",
             mismatches == 0 ? "PASS" : "FAIL", mismatches);
    UART_SendString(&huart3, uart);
    UART_SendString(&huart3, "--- END RAW TEST ---\r\n\r\n");
}
 80008a8:	b013      	add	sp, #76	@ 0x4c
 80008aa:	bd30      	pop	{r4, r5, pc}
    UART_SendString(&huart3, "Card ready after write.\r\n");
 80008ac:	4935      	ldr	r1, [pc, #212]	@ (8000984 <SD_RawWriteTest+0x190>)
 80008ae:	482d      	ldr	r0, [pc, #180]	@ (8000964 <SD_RawWriteTest+0x170>)
 80008b0:	f7ff ff6e 	bl	8000790 <UART_SendString>
    HAL_StatusTypeDef rStat = HAL_SD_ReadBlocks(&hsd1, readBuf, 100, 1, 2000);
 80008b4:	f44f 63fa 	mov.w	r3, #2000	@ 0x7d0
 80008b8:	9300      	str	r3, [sp, #0]
 80008ba:	2301      	movs	r3, #1
 80008bc:	2264      	movs	r2, #100	@ 0x64
 80008be:	4927      	ldr	r1, [pc, #156]	@ (800095c <SD_RawWriteTest+0x168>)
 80008c0:	4829      	ldr	r0, [pc, #164]	@ (8000968 <SD_RawWriteTest+0x174>)
 80008c2:	f003 fe47 	bl	8004554 <HAL_SD_ReadBlocks>
    snprintf(uart, sizeof(uart), "ReadBlocks:  %s (%d)\r\n",
 80008c6:	4604      	mov	r4, r0
 80008c8:	bb00      	cbnz	r0, 800090c <SD_RawWriteTest+0x118>
 80008ca:	4b28      	ldr	r3, [pc, #160]	@ (800096c <SD_RawWriteTest+0x178>)
 80008cc:	ad02      	add	r5, sp, #8
 80008ce:	9400      	str	r4, [sp, #0]
 80008d0:	4a2d      	ldr	r2, [pc, #180]	@ (8000988 <SD_RawWriteTest+0x194>)
 80008d2:	2140      	movs	r1, #64	@ 0x40
 80008d4:	4628      	mov	r0, r5
 80008d6:	f006 f8f9 	bl	8006acc <sniprintf>
    UART_SendString(&huart3, uart);
 80008da:	4629      	mov	r1, r5
 80008dc:	4821      	ldr	r0, [pc, #132]	@ (8000964 <SD_RawWriteTest+0x170>)
 80008de:	f7ff ff57 	bl	8000790 <UART_SendString>
    if (rStat != HAL_OK) return;
 80008e2:	2c00      	cmp	r4, #0
 80008e4:	d1e0      	bne.n	80008a8 <SD_RawWriteTest+0xb4>
    t = HAL_GetTick();
 80008e6:	f000 fd9b 	bl	8001420 <HAL_GetTick>
 80008ea:	4604      	mov	r4, r0
    while (HAL_SD_GetCardState(&hsd1) != HAL_SD_CARD_TRANSFER) {
 80008ec:	481e      	ldr	r0, [pc, #120]	@ (8000968 <SD_RawWriteTest+0x174>)
 80008ee:	f004 fab2 	bl	8004e56 <HAL_SD_GetCardState>
 80008f2:	2804      	cmp	r0, #4
 80008f4:	d00c      	beq.n	8000910 <SD_RawWriteTest+0x11c>
        if (HAL_GetTick() - t > 2000) {
 80008f6:	f000 fd93 	bl	8001420 <HAL_GetTick>
 80008fa:	1b03      	subs	r3, r0, r4
 80008fc:	f5b3 6ffa 	cmp.w	r3, #2000	@ 0x7d0
 8000900:	d9f4      	bls.n	80008ec <SD_RawWriteTest+0xf8>
            UART_SendString(&huart3, "Timeout waiting for card after read!\r\n");
 8000902:	4922      	ldr	r1, [pc, #136]	@ (800098c <SD_RawWriteTest+0x198>)
 8000904:	4817      	ldr	r0, [pc, #92]	@ (8000964 <SD_RawWriteTest+0x170>)
 8000906:	f7ff ff43 	bl	8000790 <UART_SendString>
            return;
 800090a:	e7cd      	b.n	80008a8 <SD_RawWriteTest+0xb4>
    snprintf(uart, sizeof(uart), "ReadBlocks:  %s (%d)\r\n",
 800090c:	4b1a      	ldr	r3, [pc, #104]	@ (8000978 <SD_RawWriteTest+0x184>)
 800090e:	e7dd      	b.n	80008cc <SD_RawWriteTest+0xd8>
    for (int i = 0; i < 512; i++) {
 8000910:	2300      	movs	r3, #0
    int mismatches = 0;
 8000912:	4618      	mov	r0, r3
 8000914:	e000      	b.n	8000918 <SD_RawWriteTest+0x124>
    for (int i = 0; i < 512; i++) {
 8000916:	3301      	adds	r3, #1
 8000918:	f5b3 7f00 	cmp.w	r3, #512	@ 0x200
 800091c:	da07      	bge.n	800092e <SD_RawWriteTest+0x13a>
        if (readBuf[i] != writeBuf[i]) mismatches++;
 800091e:	4a0f      	ldr	r2, [pc, #60]	@ (800095c <SD_RawWriteTest+0x168>)
 8000920:	5cd1      	ldrb	r1, [r2, r3]
 8000922:	4a0d      	ldr	r2, [pc, #52]	@ (8000958 <SD_RawWriteTest+0x164>)
 8000924:	5cd2      	ldrb	r2, [r2, r3]
 8000926:	4291      	cmp	r1, r2
 8000928:	d0f5      	beq.n	8000916 <SD_RawWriteTest+0x122>
 800092a:	3001      	adds	r0, #1
 800092c:	e7f3      	b.n	8000916 <SD_RawWriteTest+0x122>
    snprintf(uart, sizeof(uart), "Verify: %s (%d mismatches)\r\n",
 800092e:	b988      	cbnz	r0, 8000954 <SD_RawWriteTest+0x160>
 8000930:	4b17      	ldr	r3, [pc, #92]	@ (8000990 <SD_RawWriteTest+0x19c>)
 8000932:	ad02      	add	r5, sp, #8
 8000934:	9000      	str	r0, [sp, #0]
 8000936:	4a17      	ldr	r2, [pc, #92]	@ (8000994 <SD_RawWriteTest+0x1a0>)
 8000938:	2140      	movs	r1, #64	@ 0x40
 800093a:	4628      	mov	r0, r5
 800093c:	f006 f8c6 	bl	8006acc <sniprintf>
    UART_SendString(&huart3, uart);
 8000940:	4c08      	ldr	r4, [pc, #32]	@ (8000964 <SD_RawWriteTest+0x170>)
 8000942:	4629      	mov	r1, r5
 8000944:	4620      	mov	r0, r4
 8000946:	f7ff ff23 	bl	8000790 <UART_SendString>
    UART_SendString(&huart3, "--- END RAW TEST ---\r\n\r\n");
 800094a:	4913      	ldr	r1, [pc, #76]	@ (8000998 <SD_RawWriteTest+0x1a4>)
 800094c:	4620      	mov	r0, r4
 800094e:	f7ff ff1f 	bl	8000790 <UART_SendString>
 8000952:	e7a9      	b.n	80008a8 <SD_RawWriteTest+0xb4>
    snprintf(uart, sizeof(uart), "Verify: %s (%d mismatches)\r\n",
 8000954:	4b11      	ldr	r3, [pc, #68]	@ (800099c <SD_RawWriteTest+0x1a8>)
 8000956:	e7ec      	b.n	8000932 <SD_RawWriteTest+0x13e>
 8000958:	20012c78 	.word	0x20012c78
 800095c:	20012a78 	.word	0x20012a78
 8000960:	08007af0 	.word	0x08007af0
 8000964:	20010f04 	.word	0x20010f04
 8000968:	20010e14 	.word	0x20010e14
 800096c:	08007ad0 	.word	0x08007ad0
 8000970:	08007b0c 	.word	0x08007b0c
 8000974:	08007b5c 	.word	0x08007b5c
 8000978:	08007ad8 	.word	0x08007ad8
 800097c:	08007b24 	.word	0x08007b24
 8000980:	08007b44 	.word	0x08007b44
 8000984:	08007b84 	.word	0x08007b84
 8000988:	08007ba0 	.word	0x08007ba0
 800098c:	08007bb8 	.word	0x08007bb8
 8000990:	08007ae0 	.word	0x08007ae0
 8000994:	08007be0 	.word	0x08007be0
 8000998:	08007c00 	.word	0x08007c00
 800099c:	08007ae8 	.word	0x08007ae8

080009a0 <HAL_UARTEx_RxEventCallback>:

void HAL_UARTEx_RxEventCallback(UART_HandleTypeDef *huart, uint16_t Size)
{
 80009a0:	b5f0      	push	{r4, r5, r6, r7, lr}
 80009a2:	b095      	sub	sp, #84	@ 0x54
 80009a4:	4604      	mov	r4, r0
 80009a6:	460d      	mov	r5, r1
 80009a8:	2300      	movs	r3, #0
 80009aa:	461f      	mov	r7, r3


    if (huart->Instance == LPUART1)
 80009ac:	6802      	ldr	r2, [r0, #0]
 80009ae:	4b55      	ldr	r3, [pc, #340]	@ (8000b04 <HAL_UARTEx_RxEventCallback+0x164>)
 80009b0:	429a      	cmp	r2, r3
 80009b2:	d009      	beq.n	80009c8 <HAL_UARTEx_RxEventCallback+0x28>
    }


// Fires  at N/2, N, or idle
    // FOR SHARC BOUY ROUTING
    if (huart->Instance == USART1)
 80009b4:	6822      	ldr	r2, [r4, #0]
 80009b6:	4b54      	ldr	r3, [pc, #336]	@ (8000b08 <HAL_UARTEx_RxEventCallback+0x168>)
 80009b8:	429a      	cmp	r2, r3
 80009ba:	d015      	beq.n	80009e8 <HAL_UARTEx_RxEventCallback+0x48>
    }


    // WIFI ROUTING
    // Check if the interrupt came from USART2
    if (huart->Instance == USART2)
 80009bc:	6822      	ldr	r2, [r4, #0]
 80009be:	4b53      	ldr	r3, [pc, #332]	@ (8000b0c <HAL_UARTEx_RxEventCallback+0x16c>)
 80009c0:	429a      	cmp	r2, r3
 80009c2:	d07e      	beq.n	8000ac2 <HAL_UARTEx_RxEventCallback+0x122>
        NVIC_SetPendingIRQ(EXTI0_IRQn);

        // 5. IMPORTANT: Re-arm the listener for the next packet
        HAL_UARTEx_ReceiveToIdle_IT(&huart2, (uint8_t *)wifi_rx_buf, sizeof(wifi_rx_buf));
    }
}
 80009c4:	b015      	add	sp, #84	@ 0x54
 80009c6:	bdf0      	pop	{r4, r5, r6, r7, pc}
        lora_rx_buf[Size] = '\0';  // null-terminate for easy string use
 80009c8:	4951      	ldr	r1, [pc, #324]	@ (8000b10 <HAL_UARTEx_RxEventCallback+0x170>)
 80009ca:	554f      	strb	r7, [r1, r5]
        lora_rx_len   = Size;
 80009cc:	4b51      	ldr	r3, [pc, #324]	@ (8000b14 <HAL_UARTEx_RxEventCallback+0x174>)
 80009ce:	801d      	strh	r5, [r3, #0]
        lora_rx_ready = 1;
 80009d0:	4b51      	ldr	r3, [pc, #324]	@ (8000b18 <HAL_UARTEx_RxEventCallback+0x178>)
 80009d2:	2201      	movs	r2, #1
 80009d4:	701a      	strb	r2, [r3, #0]
 */
__STATIC_INLINE void __NVIC_SetPendingIRQ(IRQn_Type IRQn)
{
  if ((int32_t)(IRQn) >= 0)
  {
    NVIC->ISPR[(((uint32_t)IRQn) >> 5UL)] = (uint32_t)(1UL << (((uint32_t)IRQn) & 0x1FUL));
 80009d6:	4b51      	ldr	r3, [pc, #324]	@ (8000b1c <HAL_UARTEx_RxEventCallback+0x17c>)
 80009d8:	2240      	movs	r2, #64	@ 0x40
 80009da:	f8c3 2100 	str.w	r2, [r3, #256]	@ 0x100
        HAL_UARTEx_ReceiveToIdle_IT(&hlpuart1, lora_rx_buf, sizeof(lora_rx_buf));
 80009de:	22fa      	movs	r2, #250	@ 0xfa
 80009e0:	484f      	ldr	r0, [pc, #316]	@ (8000b20 <HAL_UARTEx_RxEventCallback+0x180>)
 80009e2:	f005 fb3c 	bl	800605e <HAL_UARTEx_ReceiveToIdle_IT>
 80009e6:	e7e5      	b.n	80009b4 <HAL_UARTEx_RxEventCallback+0x14>
        HAL_UART_RxEventTypeTypeDef event = HAL_UARTEx_GetRxEventType(huart);
 80009e8:	4620      	mov	r0, r4
 80009ea:	f005 fb87 	bl	80060fc <HAL_UARTEx_GetRxEventType>
        switch (event)
 80009ee:	2801      	cmp	r0, #1
 80009f0:	d007      	beq.n	8000a02 <HAL_UARTEx_RxEventCallback+0x62>
 80009f2:	2802      	cmp	r0, #2
 80009f4:	d00d      	beq.n	8000a12 <HAL_UARTEx_RxEventCallback+0x72>
 80009f6:	2800      	cmp	r0, #0
 80009f8:	d1e0      	bne.n	80009bc <HAL_UARTEx_RxEventCallback+0x1c>
                cb_write_second_half = 1;
 80009fa:	4b4a      	ldr	r3, [pc, #296]	@ (8000b24 <HAL_UARTEx_RxEventCallback+0x184>)
 80009fc:	2201      	movs	r2, #1
 80009fe:	701a      	strb	r2, [r3, #0]
                break;
 8000a00:	e7dc      	b.n	80009bc <HAL_UARTEx_RxEventCallback+0x1c>
                UART_SendString(&huart3, dbg);
 8000a02:	4669      	mov	r1, sp
 8000a04:	4848      	ldr	r0, [pc, #288]	@ (8000b28 <HAL_UARTEx_RxEventCallback+0x188>)
 8000a06:	f7ff fec3 	bl	8000790 <UART_SendString>
                cb_write_first_half = 1;
 8000a0a:	4b48      	ldr	r3, [pc, #288]	@ (8000b2c <HAL_UARTEx_RxEventCallback+0x18c>)
 8000a0c:	2201      	movs	r2, #1
 8000a0e:	701a      	strb	r2, [r3, #0]
                break;
 8000a10:	e7d4      	b.n	80009bc <HAL_UARTEx_RxEventCallback+0x1c>
              if (Size == lastSize) break; // No new data
 8000a12:	4b47      	ldr	r3, [pc, #284]	@ (8000b30 <HAL_UARTEx_RxEventCallback+0x190>)
 8000a14:	881b      	ldrh	r3, [r3, #0]
 8000a16:	42ab      	cmp	r3, r5
 8000a18:	d0d0      	beq.n	80009bc <HAL_UARTEx_RxEventCallback+0x1c>
              if (Size > lastSize) {
 8000a1a:	d202      	bcs.n	8000a22 <HAL_UARTEx_RxEventCallback+0x82>
                  newBytes = Size - lastSize;
 8000a1c:	1aeb      	subs	r3, r5, r3
 8000a1e:	b29b      	uxth	r3, r3
 8000a20:	461f      	mov	r7, r3
              UART_SendString(&huart3, "RX DATA: ");
 8000a22:	4944      	ldr	r1, [pc, #272]	@ (8000b34 <HAL_UARTEx_RxEventCallback+0x194>)
 8000a24:	4840      	ldr	r0, [pc, #256]	@ (8000b28 <HAL_UARTEx_RxEventCallback+0x188>)
 8000a26:	f7ff feb3 	bl	8000790 <UART_SendString>
              for (uint16_t i = 0; i < newBytes; i++) {
 8000a2a:	2300      	movs	r3, #0
 8000a2c:	461a      	mov	r2, r3
 8000a2e:	e011      	b.n	8000a54 <HAL_UARTEx_RxEventCallback+0xb4>
                  snprintf(hex, sizeof(hex), "%02X ", rxBuffer[lastSize + i]);
 8000a30:	4b3f      	ldr	r3, [pc, #252]	@ (8000b30 <HAL_UARTEx_RxEventCallback+0x190>)
 8000a32:	881b      	ldrh	r3, [r3, #0]
 8000a34:	4616      	mov	r6, r2
 8000a36:	4413      	add	r3, r2
 8000a38:	4a3f      	ldr	r2, [pc, #252]	@ (8000b38 <HAL_UARTEx_RxEventCallback+0x198>)
 8000a3a:	5cd3      	ldrb	r3, [r2, r3]
 8000a3c:	4a3f      	ldr	r2, [pc, #252]	@ (8000b3c <HAL_UARTEx_RxEventCallback+0x19c>)
 8000a3e:	2104      	movs	r1, #4
 8000a40:	4668      	mov	r0, sp
 8000a42:	f006 f843 	bl	8006acc <sniprintf>
                  UART_SendString(&huart3, hex);
 8000a46:	4669      	mov	r1, sp
 8000a48:	4837      	ldr	r0, [pc, #220]	@ (8000b28 <HAL_UARTEx_RxEventCallback+0x188>)
 8000a4a:	f7ff fea1 	bl	8000790 <UART_SendString>
              for (uint16_t i = 0; i < newBytes; i++) {
 8000a4e:	1c73      	adds	r3, r6, #1
 8000a50:	b29b      	uxth	r3, r3
 8000a52:	461a      	mov	r2, r3
 8000a54:	4297      	cmp	r7, r2
 8000a56:	d8eb      	bhi.n	8000a30 <HAL_UARTEx_RxEventCallback+0x90>
              accumBuffer[accumHead++] = 0x00; // This will be size of value
 8000a58:	4939      	ldr	r1, [pc, #228]	@ (8000b40 <HAL_UARTEx_RxEventCallback+0x1a0>)
 8000a5a:	880b      	ldrh	r3, [r1, #0]
 8000a5c:	1c5a      	adds	r2, r3, #1
 8000a5e:	b292      	uxth	r2, r2
 8000a60:	800a      	strh	r2, [r1, #0]
 8000a62:	4838      	ldr	r0, [pc, #224]	@ (8000b44 <HAL_UARTEx_RxEventCallback+0x1a4>)
 8000a64:	f04f 0600 	mov.w	r6, #0
 8000a68:	54c6      	strb	r6, [r0, r3]
              accumBuffer[accumHead++] = 0x00;
 8000a6a:	3302      	adds	r3, #2
 8000a6c:	b29b      	uxth	r3, r3
 8000a6e:	800b      	strh	r3, [r1, #0]
 8000a70:	5486      	strb	r6, [r0, r2]
              memcpy(&accumBuffer[accumHead], &rxBuffer[lastSize], newBytes);
 8000a72:	4a2f      	ldr	r2, [pc, #188]	@ (8000b30 <HAL_UARTEx_RxEventCallback+0x190>)
 8000a74:	8811      	ldrh	r1, [r2, #0]
 8000a76:	463a      	mov	r2, r7
 8000a78:	f8df c0bc 	ldr.w	ip, [pc, #188]	@ 8000b38 <HAL_UARTEx_RxEventCallback+0x198>
 8000a7c:	4461      	add	r1, ip
 8000a7e:	4418      	add	r0, r3
 8000a80:	f006 f8c2 	bl	8006c08 <memcpy>
              for (uint16_t i = 0; i < (newBytes + 2)*2; i++) {
 8000a84:	2300      	movs	r3, #0
 8000a86:	461a      	mov	r2, r3
 8000a88:	e00e      	b.n	8000aa8 <HAL_UARTEx_RxEventCallback+0x108>
                  snprintf(hex, sizeof(hex), "%02X ", accumBuffer[(accumHead - 2) + i]);
 8000a8a:	4b2d      	ldr	r3, [pc, #180]	@ (8000b40 <HAL_UARTEx_RxEventCallback+0x1a0>)
 8000a8c:	881b      	ldrh	r3, [r3, #0]
 8000a8e:	3b02      	subs	r3, #2
 8000a90:	4616      	mov	r6, r2
 8000a92:	4413      	add	r3, r2
 8000a94:	4a2b      	ldr	r2, [pc, #172]	@ (8000b44 <HAL_UARTEx_RxEventCallback+0x1a4>)
 8000a96:	5cd3      	ldrb	r3, [r2, r3]
 8000a98:	4a28      	ldr	r2, [pc, #160]	@ (8000b3c <HAL_UARTEx_RxEventCallback+0x19c>)
 8000a9a:	2104      	movs	r1, #4
 8000a9c:	4668      	mov	r0, sp
 8000a9e:	f006 f815 	bl	8006acc <sniprintf>
              for (uint16_t i = 0; i < (newBytes + 2)*2; i++) {
 8000aa2:	1c73      	adds	r3, r6, #1
 8000aa4:	b29b      	uxth	r3, r3
 8000aa6:	461a      	mov	r2, r3
 8000aa8:	463b      	mov	r3, r7
 8000aaa:	3302      	adds	r3, #2
 8000aac:	ebb2 0f43 	cmp.w	r2, r3, lsl #1
 8000ab0:	dbeb      	blt.n	8000a8a <HAL_UARTEx_RxEventCallback+0xea>
            accumHead += newBytes;
 8000ab2:	4a23      	ldr	r2, [pc, #140]	@ (8000b40 <HAL_UARTEx_RxEventCallback+0x1a0>)
 8000ab4:	8813      	ldrh	r3, [r2, #0]
 8000ab6:	4639      	mov	r1, r7
 8000ab8:	4419      	add	r1, r3
 8000aba:	8011      	strh	r1, [r2, #0]
            lastSize = Size;
 8000abc:	4b1c      	ldr	r3, [pc, #112]	@ (8000b30 <HAL_UARTEx_RxEventCallback+0x190>)
 8000abe:	801d      	strh	r5, [r3, #0]
 8000ac0:	e77c      	b.n	80009bc <HAL_UARTEx_RxEventCallback+0x1c>
        wifi_rx_len = Size;
 8000ac2:	4b21      	ldr	r3, [pc, #132]	@ (8000b48 <HAL_UARTEx_RxEventCallback+0x1a8>)
 8000ac4:	801d      	strh	r5, [r3, #0]
        wifi_rx_ready = 1;
 8000ac6:	4b21      	ldr	r3, [pc, #132]	@ (8000b4c <HAL_UARTEx_RxEventCallback+0x1ac>)
 8000ac8:	2201      	movs	r2, #1
 8000aca:	701a      	strb	r2, [r3, #0]
        if (Size < sizeof(wifi_rx_buf)) {
 8000acc:	2d7f      	cmp	r5, #127	@ 0x7f
 8000ace:	d802      	bhi.n	8000ad6 <HAL_UARTEx_RxEventCallback+0x136>
            wifi_rx_buf[Size] = '\0';
 8000ad0:	4b1f      	ldr	r3, [pc, #124]	@ (8000b50 <HAL_UARTEx_RxEventCallback+0x1b0>)
 8000ad2:	2200      	movs	r2, #0
 8000ad4:	555a      	strb	r2, [r3, r5]
              for (uint16_t i = 0; i < (newBytes + 2)*2; i++) {
 8000ad6:	2400      	movs	r4, #0
 8000ad8:	e008      	b.n	8000aec <HAL_UARTEx_RxEventCallback+0x14c>
            snprintf(hex, sizeof(hex), "%02X ", wifi_rx_buf[i]);
 8000ada:	4b1d      	ldr	r3, [pc, #116]	@ (8000b50 <HAL_UARTEx_RxEventCallback+0x1b0>)
 8000adc:	5d1b      	ldrb	r3, [r3, r4]
 8000ade:	4a17      	ldr	r2, [pc, #92]	@ (8000b3c <HAL_UARTEx_RxEventCallback+0x19c>)
 8000ae0:	2108      	movs	r1, #8
 8000ae2:	4668      	mov	r0, sp
 8000ae4:	f005 fff2 	bl	8006acc <sniprintf>
        for (uint16_t i = 0; i < Size; i++)
 8000ae8:	3401      	adds	r4, #1
 8000aea:	b2a4      	uxth	r4, r4
 8000aec:	42ac      	cmp	r4, r5
 8000aee:	d3f4      	bcc.n	8000ada <HAL_UARTEx_RxEventCallback+0x13a>
 8000af0:	4b0a      	ldr	r3, [pc, #40]	@ (8000b1c <HAL_UARTEx_RxEventCallback+0x17c>)
 8000af2:	2240      	movs	r2, #64	@ 0x40
 8000af4:	f8c3 2100 	str.w	r2, [r3, #256]	@ 0x100
        HAL_UARTEx_ReceiveToIdle_IT(&huart2, (uint8_t *)wifi_rx_buf, sizeof(wifi_rx_buf));
 8000af8:	2280      	movs	r2, #128	@ 0x80
 8000afa:	4915      	ldr	r1, [pc, #84]	@ (8000b50 <HAL_UARTEx_RxEventCallback+0x1b0>)
 8000afc:	4815      	ldr	r0, [pc, #84]	@ (8000b54 <HAL_UARTEx_RxEventCallback+0x1b4>)
 8000afe:	f005 faae 	bl	800605e <HAL_UARTEx_ReceiveToIdle_IT>
}
 8000b02:	e75f      	b.n	80009c4 <HAL_UARTEx_RxEventCallback+0x24>
 8000b04:	40008000 	.word	0x40008000
 8000b08:	40013800 	.word	0x40013800
 8000b0c:	40004400 	.word	0x40004400
 8000b10:	2001297c 	.word	0x2001297c
 8000b14:	2001297a 	.word	0x2001297a
 8000b18:	20012978 	.word	0x20012978
 8000b1c:	e000e100 	.word	0xe000e100
 8000b20:	2001109c 	.word	0x2001109c
 8000b24:	20010d14 	.word	0x20010d14
 8000b28:	20010f04 	.word	0x20010f04
 8000b2c:	20010d15 	.word	0x20010d15
 8000b30:	20001d0c 	.word	0x20001d0c
 8000b34:	08007c1c 	.word	0x08007c1c
 8000b38:	2000dd14 	.word	0x2000dd14
 8000b3c:	08007c28 	.word	0x08007c28
 8000b40:	20001d0e 	.word	0x20001d0e
 8000b44:	20001d10 	.word	0x20001d10
 8000b48:	20001c8a 	.word	0x20001c8a
 8000b4c:	20001c88 	.word	0x20001c88
 8000b50:	20001c8c 	.word	0x20001c8c
 8000b54:	20010f8c 	.word	0x20010f8c

08000b58 <CRC16>:
    }
}

uint16_t CRC16(const uint8_t *data, uint16_t length) {
    return 69;
}
 8000b58:	2045      	movs	r0, #69	@ 0x45
 8000b5a:	4770      	bx	lr

08000b5c <PackBlocks>:
void PackBlocks(const uint8_t *src, uint16_t dataLen) {
 8000b5c:	e92d 4ff8 	stmdb	sp!, {r3, r4, r5, r6, r7, r8, r9, sl, fp, lr}
 8000b60:	4682      	mov	sl, r0
 8000b62:	460f      	mov	r7, r1
    for (uint16_t i = 0; i < NUM_BLOCKS; i++) {
 8000b64:	2400      	movs	r4, #0
 8000b66:	e00a      	b.n	8000b7e <PackBlocks+0x22>
            memset(&block[4 + currentBlockLen], 0, BLOCK_DATA_SIZE - currentBlockLen);
 8000b68:	1d28      	adds	r0, r5, #4
 8000b6a:	f5c5 727f 	rsb	r2, r5, #1020	@ 0x3fc
 8000b6e:	2100      	movs	r1, #0
 8000b70:	4430      	add	r0, r6
 8000b72:	f005 ffff 	bl	8006b74 <memset>
            remaining -= currentBlockLen;
 8000b76:	1b7d      	subs	r5, r7, r5
 8000b78:	b2af      	uxth	r7, r5
    for (uint16_t i = 0; i < NUM_BLOCKS; i++) {
 8000b7a:	3401      	adds	r4, #1
 8000b7c:	b2a4      	uxth	r4, r4
 8000b7e:	2c05      	cmp	r4, #5
 8000b80:	d825      	bhi.n	8000bce <PackBlocks+0x72>
        uint8_t *block = packedBlocks[i];
 8000b82:	ea4f 2984 	mov.w	r9, r4, lsl #10
 8000b86:	f8df b04c 	ldr.w	fp, [pc, #76]	@ 8000bd4 <PackBlocks+0x78>
 8000b8a:	eb0b 2684 	add.w	r6, fp, r4, lsl #10
        const uint8_t *data = src + (i * BLOCK_DATA_SIZE);
 8000b8e:	ebc4 2804 	rsb	r8, r4, r4, lsl #8
 8000b92:	eb0a 0888 	add.w	r8, sl, r8, lsl #2
        uint16_t currentBlockLen = (remaining > BLOCK_DATA_SIZE) ? BLOCK_DATA_SIZE : remaining;
 8000b96:	463d      	mov	r5, r7
 8000b98:	f5b7 7f7f 	cmp.w	r7, #1020	@ 0x3fc
 8000b9c:	bf28      	it	cs
 8000b9e:	f44f 757f 	movcs.w	r5, #1020	@ 0x3fc
        uint16_t crc = CRC16(data, currentBlockLen);
 8000ba2:	4629      	mov	r1, r5
 8000ba4:	4640      	mov	r0, r8
 8000ba6:	f7ff ffd7 	bl	8000b58 <CRC16>
        block[0] = (currentBlockLen >> 8) & 0xFF; 
 8000baa:	0a2b      	lsrs	r3, r5, #8
 8000bac:	f80b 3009 	strb.w	r3, [fp, r9]
        block[1] =  currentBlockLen       & 0xFF; 
 8000bb0:	7075      	strb	r5, [r6, #1]
        block[2] = (crc >> 8) & 0xFF;
 8000bb2:	0a03      	lsrs	r3, r0, #8
 8000bb4:	70b3      	strb	r3, [r6, #2]
        block[3] =  crc            & 0xFF;
 8000bb6:	70f0      	strb	r0, [r6, #3]
        if (currentBlockLen > 0) {
 8000bb8:	2f00      	cmp	r7, #0
 8000bba:	d0d5      	beq.n	8000b68 <PackBlocks+0xc>
            memcpy(&block[4], data, currentBlockLen);
 8000bbc:	462a      	mov	r2, r5
 8000bbe:	4641      	mov	r1, r8
 8000bc0:	1d30      	adds	r0, r6, #4
 8000bc2:	f006 f821 	bl	8006c08 <memcpy>
        if (currentBlockLen < BLOCK_DATA_SIZE) {
 8000bc6:	f5b7 7f7f 	cmp.w	r7, #1020	@ 0x3fc
 8000bca:	d2d4      	bcs.n	8000b76 <PackBlocks+0x1a>
 8000bcc:	e7cc      	b.n	8000b68 <PackBlocks+0xc>
}
 8000bce:	e8bd 8ff8 	ldmia.w	sp!, {r3, r4, r5, r6, r7, r8, r9, sl, fp, pc}
 8000bd2:	bf00      	nop
 8000bd4:	20011178 	.word	0x20011178

08000bd8 <UART_DumpBuffer>:

void UART_DumpBuffer(uint8_t *data, uint32_t len) {
 8000bd8:	b5f0      	push	{r4, r5, r6, r7, lr}
 8000bda:	b091      	sub	sp, #68	@ 0x44
 8000bdc:	4607      	mov	r7, r0
 8000bde:	460e      	mov	r6, r1
    char msg[64];
    for (uint32_t i = 0; i < len; i += 16) {
 8000be0:	2500      	movs	r5, #0
 8000be2:	e016      	b.n	8000c12 <UART_DumpBuffer+0x3a>
        
        for (int j = 0; j < 16; j++) {
            if (i + j < len) {
                sprintf(msg, "%02X ", data[i + j]);
            } else {
                sprintf(msg, "   ");
 8000be4:	4b12      	ldr	r3, [pc, #72]	@ (8000c30 <UART_DumpBuffer+0x58>)
 8000be6:	9300      	str	r3, [sp, #0]
            }
            UART_SendString(&huart3, msg);
 8000be8:	4669      	mov	r1, sp
 8000bea:	4812      	ldr	r0, [pc, #72]	@ (8000c34 <UART_DumpBuffer+0x5c>)
 8000bec:	f7ff fdd0 	bl	8000790 <UART_SendString>
        for (int j = 0; j < 16; j++) {
 8000bf0:	3401      	adds	r4, #1
 8000bf2:	2c0f      	cmp	r4, #15
 8000bf4:	dc08      	bgt.n	8000c08 <UART_DumpBuffer+0x30>
            if (i + j < len) {
 8000bf6:	1963      	adds	r3, r4, r5
 8000bf8:	42b3      	cmp	r3, r6
 8000bfa:	d2f3      	bcs.n	8000be4 <UART_DumpBuffer+0xc>
                sprintf(msg, "%02X ", data[i + j]);
 8000bfc:	5cfa      	ldrb	r2, [r7, r3]
 8000bfe:	490e      	ldr	r1, [pc, #56]	@ (8000c38 <UART_DumpBuffer+0x60>)
 8000c00:	4668      	mov	r0, sp
 8000c02:	f005 ff95 	bl	8006b30 <siprintf>
 8000c06:	e7ef      	b.n	8000be8 <UART_DumpBuffer+0x10>
        }
        UART_SendString(&huart3, "\r\n");
 8000c08:	490c      	ldr	r1, [pc, #48]	@ (8000c3c <UART_DumpBuffer+0x64>)
 8000c0a:	480a      	ldr	r0, [pc, #40]	@ (8000c34 <UART_DumpBuffer+0x5c>)
 8000c0c:	f7ff fdc0 	bl	8000790 <UART_SendString>
    for (uint32_t i = 0; i < len; i += 16) {
 8000c10:	3510      	adds	r5, #16
 8000c12:	42b5      	cmp	r5, r6
 8000c14:	d20a      	bcs.n	8000c2c <UART_DumpBuffer+0x54>
        sprintf(msg, "%04X: ", (unsigned int)i);
 8000c16:	462a      	mov	r2, r5
 8000c18:	4909      	ldr	r1, [pc, #36]	@ (8000c40 <UART_DumpBuffer+0x68>)
 8000c1a:	4668      	mov	r0, sp
 8000c1c:	f005 ff88 	bl	8006b30 <siprintf>
        UART_SendString(&huart3, msg);
 8000c20:	4669      	mov	r1, sp
 8000c22:	4804      	ldr	r0, [pc, #16]	@ (8000c34 <UART_DumpBuffer+0x5c>)
 8000c24:	f7ff fdb4 	bl	8000790 <UART_SendString>
        for (int j = 0; j < 16; j++) {
 8000c28:	2400      	movs	r4, #0
 8000c2a:	e7e2      	b.n	8000bf2 <UART_DumpBuffer+0x1a>
    }
}
 8000c2c:	b011      	add	sp, #68	@ 0x44
 8000c2e:	bdf0      	pop	{r4, r5, r6, r7, pc}
 8000c30:	00202020 	.word	0x00202020
 8000c34:	20010f04 	.word	0x20010f04
 8000c38:	08007c28 	.word	0x08007c28
 8000c3c:	08007c38 	.word	0x08007c38
 8000c40:	08007c30 	.word	0x08007c30

08000c44 <Error_Handler>:
  \details Disables IRQ interrupts by setting the I-bit in the CPSR.
           Can only be executed in Privileged modes.
 */
__STATIC_FORCEINLINE void __disable_irq(void)
{
  __ASM volatile ("cpsid i" : : : "memory");
 8000c44:	b672      	cpsid	i
void Error_Handler(void)
{
  /* USER CODE BEGIN Error_Handler_Debug */
  /* User can add his own implementation to report the HAL error return state */
  __disable_irq();
  while (1)
 8000c46:	e7fe      	b.n	8000c46 <Error_Handler+0x2>

08000c48 <MX_LPUART1_UART_Init>:
{
 8000c48:	b508      	push	{r3, lr}
  hlpuart1.Instance = LPUART1;
 8000c4a:	480a      	ldr	r0, [pc, #40]	@ (8000c74 <MX_LPUART1_UART_Init+0x2c>)
 8000c4c:	4b0a      	ldr	r3, [pc, #40]	@ (8000c78 <MX_LPUART1_UART_Init+0x30>)
 8000c4e:	6003      	str	r3, [r0, #0]
  hlpuart1.Init.BaudRate = 115200;
 8000c50:	f44f 33e1 	mov.w	r3, #115200	@ 0x1c200
 8000c54:	6043      	str	r3, [r0, #4]
  hlpuart1.Init.WordLength = UART_WORDLENGTH_8B;
 8000c56:	2300      	movs	r3, #0
 8000c58:	6083      	str	r3, [r0, #8]
  hlpuart1.Init.StopBits = UART_STOPBITS_1;
 8000c5a:	60c3      	str	r3, [r0, #12]
  hlpuart1.Init.Parity = UART_PARITY_NONE;
 8000c5c:	6103      	str	r3, [r0, #16]
  hlpuart1.Init.Mode = UART_MODE_TX_RX;
 8000c5e:	220c      	movs	r2, #12
 8000c60:	6142      	str	r2, [r0, #20]
  hlpuart1.Init.HwFlowCtl = UART_HWCONTROL_NONE;
 8000c62:	6183      	str	r3, [r0, #24]
  hlpuart1.Init.OneBitSampling = UART_ONE_BIT_SAMPLE_DISABLE;
 8000c64:	6203      	str	r3, [r0, #32]
  hlpuart1.AdvancedInit.AdvFeatureInit = UART_ADVFEATURE_NO_INIT;
 8000c66:	6243      	str	r3, [r0, #36]	@ 0x24
  if (HAL_UART_Init(&hlpuart1) != HAL_OK)
 8000c68:	f005 f908 	bl	8005e7c <HAL_UART_Init>
 8000c6c:	b900      	cbnz	r0, 8000c70 <MX_LPUART1_UART_Init+0x28>
}
 8000c6e:	bd08      	pop	{r3, pc}
    Error_Handler();
 8000c70:	f7ff ffe8 	bl	8000c44 <Error_Handler>
 8000c74:	2001109c 	.word	0x2001109c
 8000c78:	40008000 	.word	0x40008000

08000c7c <MX_USART2_UART_Init>:
{
 8000c7c:	b508      	push	{r3, lr}
  huart2.Instance = USART2;
 8000c7e:	480b      	ldr	r0, [pc, #44]	@ (8000cac <MX_USART2_UART_Init+0x30>)
 8000c80:	4b0b      	ldr	r3, [pc, #44]	@ (8000cb0 <MX_USART2_UART_Init+0x34>)
 8000c82:	6003      	str	r3, [r0, #0]
  huart2.Init.BaudRate = 115200;
 8000c84:	f44f 33e1 	mov.w	r3, #115200	@ 0x1c200
 8000c88:	6043      	str	r3, [r0, #4]
  huart2.Init.WordLength = UART_WORDLENGTH_8B;
 8000c8a:	2300      	movs	r3, #0
 8000c8c:	6083      	str	r3, [r0, #8]
  huart2.Init.StopBits = UART_STOPBITS_1;
 8000c8e:	60c3      	str	r3, [r0, #12]
  huart2.Init.Parity = UART_PARITY_NONE;
 8000c90:	6103      	str	r3, [r0, #16]
  huart2.Init.Mode = UART_MODE_TX_RX;
 8000c92:	220c      	movs	r2, #12
 8000c94:	6142      	str	r2, [r0, #20]
  huart2.Init.HwFlowCtl = UART_HWCONTROL_NONE;
 8000c96:	6183      	str	r3, [r0, #24]
  huart2.Init.OverSampling = UART_OVERSAMPLING_16;
 8000c98:	61c3      	str	r3, [r0, #28]
  huart2.Init.OneBitSampling = UART_ONE_BIT_SAMPLE_DISABLE;
 8000c9a:	6203      	str	r3, [r0, #32]
  huart2.AdvancedInit.AdvFeatureInit = UART_ADVFEATURE_NO_INIT;
 8000c9c:	6243      	str	r3, [r0, #36]	@ 0x24
  if (HAL_UART_Init(&huart2) != HAL_OK)
 8000c9e:	f005 f8ed 	bl	8005e7c <HAL_UART_Init>
 8000ca2:	b900      	cbnz	r0, 8000ca6 <MX_USART2_UART_Init+0x2a>
}
 8000ca4:	bd08      	pop	{r3, pc}
    Error_Handler();
 8000ca6:	f7ff ffcd 	bl	8000c44 <Error_Handler>
 8000caa:	bf00      	nop
 8000cac:	20010f8c 	.word	0x20010f8c
 8000cb0:	40004400 	.word	0x40004400

08000cb4 <MX_USART3_UART_Init>:
{
 8000cb4:	b508      	push	{r3, lr}
  huart3.Instance = USART3;
 8000cb6:	480b      	ldr	r0, [pc, #44]	@ (8000ce4 <MX_USART3_UART_Init+0x30>)
 8000cb8:	4b0b      	ldr	r3, [pc, #44]	@ (8000ce8 <MX_USART3_UART_Init+0x34>)
 8000cba:	6003      	str	r3, [r0, #0]
  huart3.Init.BaudRate = 115200;
 8000cbc:	f44f 33e1 	mov.w	r3, #115200	@ 0x1c200
 8000cc0:	6043      	str	r3, [r0, #4]
  huart3.Init.WordLength = UART_WORDLENGTH_8B;
 8000cc2:	2300      	movs	r3, #0
 8000cc4:	6083      	str	r3, [r0, #8]
  huart3.Init.StopBits = UART_STOPBITS_1;
 8000cc6:	60c3      	str	r3, [r0, #12]
  huart3.Init.Parity = UART_PARITY_NONE;
 8000cc8:	6103      	str	r3, [r0, #16]
  huart3.Init.Mode = UART_MODE_TX_RX;
 8000cca:	220c      	movs	r2, #12
 8000ccc:	6142      	str	r2, [r0, #20]
  huart3.Init.HwFlowCtl = UART_HWCONTROL_NONE;
 8000cce:	6183      	str	r3, [r0, #24]
  huart3.Init.OverSampling = UART_OVERSAMPLING_16;
 8000cd0:	61c3      	str	r3, [r0, #28]
  huart3.Init.OneBitSampling = UART_ONE_BIT_SAMPLE_DISABLE;
 8000cd2:	6203      	str	r3, [r0, #32]
  huart3.AdvancedInit.AdvFeatureInit = UART_ADVFEATURE_NO_INIT;
 8000cd4:	6243      	str	r3, [r0, #36]	@ 0x24
  if (HAL_UART_Init(&huart3) != HAL_OK)
 8000cd6:	f005 f8d1 	bl	8005e7c <HAL_UART_Init>
 8000cda:	b900      	cbnz	r0, 8000cde <MX_USART3_UART_Init+0x2a>
}
 8000cdc:	bd08      	pop	{r3, pc}
    Error_Handler();
 8000cde:	f7ff ffb1 	bl	8000c44 <Error_Handler>
 8000ce2:	bf00      	nop
 8000ce4:	20010f04 	.word	0x20010f04
 8000ce8:	40004800 	.word	0x40004800

08000cec <MX_SPI1_Init>:
{
 8000cec:	b508      	push	{r3, lr}
  hspi1.Instance = SPI1;
 8000cee:	480f      	ldr	r0, [pc, #60]	@ (8000d2c <MX_SPI1_Init+0x40>)
 8000cf0:	4b0f      	ldr	r3, [pc, #60]	@ (8000d30 <MX_SPI1_Init+0x44>)
 8000cf2:	6003      	str	r3, [r0, #0]
  hspi1.Init.Mode = SPI_MODE_MASTER;
 8000cf4:	f44f 7382 	mov.w	r3, #260	@ 0x104
 8000cf8:	6043      	str	r3, [r0, #4]
  hspi1.Init.Direction = SPI_DIRECTION_2LINES;
 8000cfa:	2300      	movs	r3, #0
 8000cfc:	6083      	str	r3, [r0, #8]
  hspi1.Init.DataSize = SPI_DATASIZE_4BIT;
 8000cfe:	f44f 7240 	mov.w	r2, #768	@ 0x300
 8000d02:	60c2      	str	r2, [r0, #12]
  hspi1.Init.CLKPolarity = SPI_POLARITY_LOW;
 8000d04:	6103      	str	r3, [r0, #16]
  hspi1.Init.CLKPhase = SPI_PHASE_1EDGE;
 8000d06:	6143      	str	r3, [r0, #20]
  hspi1.Init.NSS = SPI_NSS_SOFT;
 8000d08:	f44f 7200 	mov.w	r2, #512	@ 0x200
 8000d0c:	6182      	str	r2, [r0, #24]
  hspi1.Init.BaudRatePrescaler = SPI_BAUDRATEPRESCALER_2;
 8000d0e:	61c3      	str	r3, [r0, #28]
  hspi1.Init.FirstBit = SPI_FIRSTBIT_MSB;
 8000d10:	6203      	str	r3, [r0, #32]
  hspi1.Init.TIMode = SPI_TIMODE_DISABLE;
 8000d12:	6243      	str	r3, [r0, #36]	@ 0x24
  hspi1.Init.CRCCalculation = SPI_CRCCALCULATION_DISABLE;
 8000d14:	6283      	str	r3, [r0, #40]	@ 0x28
  hspi1.Init.CRCPolynomial = 7;
 8000d16:	2207      	movs	r2, #7
 8000d18:	62c2      	str	r2, [r0, #44]	@ 0x2c
  hspi1.Init.CRCLength = SPI_CRC_LENGTH_DATASIZE;
 8000d1a:	6303      	str	r3, [r0, #48]	@ 0x30
  hspi1.Init.NSSPMode = SPI_NSS_PULSE_ENABLE;
 8000d1c:	2308      	movs	r3, #8
 8000d1e:	6343      	str	r3, [r0, #52]	@ 0x34
  if (HAL_SPI_Init(&hspi1) != HAL_OK)
 8000d20:	f004 f9de 	bl	80050e0 <HAL_SPI_Init>
 8000d24:	b900      	cbnz	r0, 8000d28 <MX_SPI1_Init+0x3c>
}
 8000d26:	bd08      	pop	{r3, pc}
    Error_Handler();
 8000d28:	f7ff ff8c 	bl	8000c44 <Error_Handler>
 8000d2c:	20010d20 	.word	0x20010d20
 8000d30:	40013000 	.word	0x40013000

08000d34 <MX_RTC_Init>:
{
 8000d34:	b500      	push	{lr}
 8000d36:	b087      	sub	sp, #28
  RTC_TimeTypeDef sTime = {0};
 8000d38:	2300      	movs	r3, #0
 8000d3a:	9301      	str	r3, [sp, #4]
 8000d3c:	9302      	str	r3, [sp, #8]
 8000d3e:	9303      	str	r3, [sp, #12]
 8000d40:	9304      	str	r3, [sp, #16]
 8000d42:	9305      	str	r3, [sp, #20]
  RTC_DateTypeDef sDate = {0};
 8000d44:	9300      	str	r3, [sp, #0]
  hrtc.Instance = RTC;
 8000d46:	4819      	ldr	r0, [pc, #100]	@ (8000dac <MX_RTC_Init+0x78>)
 8000d48:	4a19      	ldr	r2, [pc, #100]	@ (8000db0 <MX_RTC_Init+0x7c>)
 8000d4a:	6002      	str	r2, [r0, #0]
  hrtc.Init.HourFormat = RTC_HOURFORMAT_24;
 8000d4c:	6043      	str	r3, [r0, #4]
  hrtc.Init.AsynchPrediv = 127;
 8000d4e:	227f      	movs	r2, #127	@ 0x7f
 8000d50:	6082      	str	r2, [r0, #8]
  hrtc.Init.SynchPrediv = 255;
 8000d52:	22ff      	movs	r2, #255	@ 0xff
 8000d54:	60c2      	str	r2, [r0, #12]
  hrtc.Init.OutPut = RTC_OUTPUT_DISABLE;
 8000d56:	6103      	str	r3, [r0, #16]
  hrtc.Init.OutPutRemap = RTC_OUTPUT_REMAP_NONE;
 8000d58:	6143      	str	r3, [r0, #20]
  hrtc.Init.OutPutPolarity = RTC_OUTPUT_POLARITY_HIGH;
 8000d5a:	6183      	str	r3, [r0, #24]
  hrtc.Init.OutPutType = RTC_OUTPUT_TYPE_OPENDRAIN;
 8000d5c:	61c3      	str	r3, [r0, #28]
  if (HAL_RTC_Init(&hrtc) != HAL_OK)
 8000d5e:	f003 f8bd 	bl	8003edc <HAL_RTC_Init>
 8000d62:	b9e8      	cbnz	r0, 8000da0 <MX_RTC_Init+0x6c>
  sTime.Hours = 0x0;
 8000d64:	f88d 0004 	strb.w	r0, [sp, #4]
  sTime.Minutes = 0x0;
 8000d68:	f88d 0005 	strb.w	r0, [sp, #5]
  sTime.Seconds = 0x0;
 8000d6c:	f88d 0006 	strb.w	r0, [sp, #6]
  sTime.DayLightSaving = RTC_DAYLIGHTSAVING_NONE;
 8000d70:	9004      	str	r0, [sp, #16]
  sTime.StoreOperation = RTC_STOREOPERATION_RESET;
 8000d72:	9005      	str	r0, [sp, #20]
  if (HAL_RTC_SetTime(&hrtc, &sTime, RTC_FORMAT_BCD) != HAL_OK)
 8000d74:	2201      	movs	r2, #1
 8000d76:	a901      	add	r1, sp, #4
 8000d78:	480c      	ldr	r0, [pc, #48]	@ (8000dac <MX_RTC_Init+0x78>)
 8000d7a:	f003 f90d 	bl	8003f98 <HAL_RTC_SetTime>
 8000d7e:	b988      	cbnz	r0, 8000da4 <MX_RTC_Init+0x70>
  sDate.WeekDay = RTC_WEEKDAY_MONDAY;
 8000d80:	2201      	movs	r2, #1
 8000d82:	f88d 2000 	strb.w	r2, [sp]
  sDate.Month = RTC_MONTH_JANUARY;
 8000d86:	f88d 2001 	strb.w	r2, [sp, #1]
  sDate.Date = 0x1;
 8000d8a:	f88d 2002 	strb.w	r2, [sp, #2]
  sDate.Year = 0x0;
 8000d8e:	f88d 0003 	strb.w	r0, [sp, #3]
  if (HAL_RTC_SetDate(&hrtc, &sDate, RTC_FORMAT_BCD) != HAL_OK)
 8000d92:	4669      	mov	r1, sp
 8000d94:	4805      	ldr	r0, [pc, #20]	@ (8000dac <MX_RTC_Init+0x78>)
 8000d96:	f003 f967 	bl	8004068 <HAL_RTC_SetDate>
 8000d9a:	b928      	cbnz	r0, 8000da8 <MX_RTC_Init+0x74>
}
 8000d9c:	b007      	add	sp, #28
 8000d9e:	bd00      	pop	{pc}
    Error_Handler();
 8000da0:	f7ff ff50 	bl	8000c44 <Error_Handler>
    Error_Handler();
 8000da4:	f7ff ff4e 	bl	8000c44 <Error_Handler>
    Error_Handler();
 8000da8:	f7ff ff4c 	bl	8000c44 <Error_Handler>
 8000dac:	20010e98 	.word	0x20010e98
 8000db0:	40002800 	.word	0x40002800

08000db4 <MX_I2C2_Init>:
{
 8000db4:	b508      	push	{r3, lr}
  hi2c2.Instance = I2C2;
 8000db6:	4811      	ldr	r0, [pc, #68]	@ (8000dfc <MX_I2C2_Init+0x48>)
 8000db8:	4b11      	ldr	r3, [pc, #68]	@ (8000e00 <MX_I2C2_Init+0x4c>)
 8000dba:	6003      	str	r3, [r0, #0]
  hi2c2.Init.Timing = 0x10D19CE4;
 8000dbc:	4b11      	ldr	r3, [pc, #68]	@ (8000e04 <MX_I2C2_Init+0x50>)
 8000dbe:	6043      	str	r3, [r0, #4]
  hi2c2.Init.OwnAddress1 = 0;
 8000dc0:	2300      	movs	r3, #0
 8000dc2:	6083      	str	r3, [r0, #8]
  hi2c2.Init.AddressingMode = I2C_ADDRESSINGMODE_7BIT;
 8000dc4:	2201      	movs	r2, #1
 8000dc6:	60c2      	str	r2, [r0, #12]
  hi2c2.Init.DualAddressMode = I2C_DUALADDRESS_DISABLE;
 8000dc8:	6103      	str	r3, [r0, #16]
  hi2c2.Init.OwnAddress2 = 0;
 8000dca:	6143      	str	r3, [r0, #20]
  hi2c2.Init.OwnAddress2Masks = I2C_OA2_NOMASK;
 8000dcc:	6183      	str	r3, [r0, #24]
  hi2c2.Init.GeneralCallMode = I2C_GENERALCALL_DISABLE;
 8000dce:	61c3      	str	r3, [r0, #28]
  hi2c2.Init.NoStretchMode = I2C_NOSTRETCH_DISABLE;
 8000dd0:	6203      	str	r3, [r0, #32]
  if (HAL_I2C_Init(&hi2c2) != HAL_OK)
 8000dd2:	f000 ffc1 	bl	8001d58 <HAL_I2C_Init>
 8000dd6:	b950      	cbnz	r0, 8000dee <MX_I2C2_Init+0x3a>
  if (HAL_I2CEx_ConfigAnalogFilter(&hi2c2, I2C_ANALOGFILTER_ENABLE) != HAL_OK)
 8000dd8:	4601      	mov	r1, r0
 8000dda:	4808      	ldr	r0, [pc, #32]	@ (8000dfc <MX_I2C2_Init+0x48>)
 8000ddc:	f001 f820 	bl	8001e20 <HAL_I2CEx_ConfigAnalogFilter>
 8000de0:	b938      	cbnz	r0, 8000df2 <MX_I2C2_Init+0x3e>
  if (HAL_I2CEx_ConfigDigitalFilter(&hi2c2, 0) != HAL_OK)
 8000de2:	4601      	mov	r1, r0
 8000de4:	4805      	ldr	r0, [pc, #20]	@ (8000dfc <MX_I2C2_Init+0x48>)
 8000de6:	f001 f848 	bl	8001e7a <HAL_I2CEx_ConfigDigitalFilter>
 8000dea:	b920      	cbnz	r0, 8000df6 <MX_I2C2_Init+0x42>
}
 8000dec:	bd08      	pop	{r3, pc}
    Error_Handler();
 8000dee:	f7ff ff29 	bl	8000c44 <Error_Handler>
    Error_Handler();
 8000df2:	f7ff ff27 	bl	8000c44 <Error_Handler>
    Error_Handler();
 8000df6:	f7ff ff25 	bl	8000c44 <Error_Handler>
 8000dfa:	bf00      	nop
 8000dfc:	20011124 	.word	0x20011124
 8000e00:	40005800 	.word	0x40005800
 8000e04:	10d19ce4 	.word	0x10d19ce4

08000e08 <MX_USART1_UART_Init>:
{
 8000e08:	b508      	push	{r3, lr}
  huart1.Instance = USART1;
 8000e0a:	480b      	ldr	r0, [pc, #44]	@ (8000e38 <MX_USART1_UART_Init+0x30>)
 8000e0c:	4b0b      	ldr	r3, [pc, #44]	@ (8000e3c <MX_USART1_UART_Init+0x34>)
 8000e0e:	6003      	str	r3, [r0, #0]
  huart1.Init.BaudRate = 115200;
 8000e10:	f44f 33e1 	mov.w	r3, #115200	@ 0x1c200
 8000e14:	6043      	str	r3, [r0, #4]
  huart1.Init.WordLength = UART_WORDLENGTH_8B;
 8000e16:	2300      	movs	r3, #0
 8000e18:	6083      	str	r3, [r0, #8]
  huart1.Init.StopBits = UART_STOPBITS_1;
 8000e1a:	60c3      	str	r3, [r0, #12]
  huart1.Init.Parity = UART_PARITY_NONE;
 8000e1c:	6103      	str	r3, [r0, #16]
  huart1.Init.Mode = UART_MODE_TX_RX;
 8000e1e:	220c      	movs	r2, #12
 8000e20:	6142      	str	r2, [r0, #20]
  huart1.Init.HwFlowCtl = UART_HWCONTROL_NONE;
 8000e22:	6183      	str	r3, [r0, #24]
  huart1.Init.OverSampling = UART_OVERSAMPLING_16;
 8000e24:	61c3      	str	r3, [r0, #28]
  huart1.Init.OneBitSampling = UART_ONE_BIT_SAMPLE_DISABLE;
 8000e26:	6203      	str	r3, [r0, #32]
  huart1.AdvancedInit.AdvFeatureInit = UART_ADVFEATURE_NO_INIT;
 8000e28:	6243      	str	r3, [r0, #36]	@ 0x24
  if (HAL_UART_Init(&huart1) != HAL_OK)
 8000e2a:	f005 f827 	bl	8005e7c <HAL_UART_Init>
 8000e2e:	b900      	cbnz	r0, 8000e32 <MX_USART1_UART_Init+0x2a>
}
 8000e30:	bd08      	pop	{r3, pc}
    Error_Handler();
 8000e32:	f7ff ff07 	bl	8000c44 <Error_Handler>
 8000e36:	bf00      	nop
 8000e38:	20011014 	.word	0x20011014
 8000e3c:	40013800 	.word	0x40013800

08000e40 <MX_SDMMC1_SD_Init>:
{
 8000e40:	b508      	push	{r3, lr}
  hsd1.Instance = SDMMC1;
 8000e42:	4818      	ldr	r0, [pc, #96]	@ (8000ea4 <MX_SDMMC1_SD_Init+0x64>)
 8000e44:	4b18      	ldr	r3, [pc, #96]	@ (8000ea8 <MX_SDMMC1_SD_Init+0x68>)
 8000e46:	6003      	str	r3, [r0, #0]
  hsd1.Init.ClockEdge = SDMMC_CLOCK_EDGE_RISING;
 8000e48:	2300      	movs	r3, #0
 8000e4a:	6043      	str	r3, [r0, #4]
  hsd1.Init.ClockBypass = SDMMC_CLOCK_BYPASS_DISABLE;
 8000e4c:	6083      	str	r3, [r0, #8]
  hsd1.Init.ClockPowerSave = SDMMC_CLOCK_POWER_SAVE_DISABLE;
 8000e4e:	60c3      	str	r3, [r0, #12]
  hsd1.Init.BusWide = SDMMC_BUS_WIDE_4B;
 8000e50:	f44f 6200 	mov.w	r2, #2048	@ 0x800
 8000e54:	6102      	str	r2, [r0, #16]
  hsd1.Init.HardwareFlowControl = SDMMC_HARDWARE_FLOW_CONTROL_ENABLE;
 8000e56:	f44f 4280 	mov.w	r2, #16384	@ 0x4000
 8000e5a:	6142      	str	r2, [r0, #20]
  hsd1.Init.ClockDiv = 0;
 8000e5c:	6183      	str	r3, [r0, #24]
  if (HAL_SD_Init(&hsd1) != HAL_OK)
 8000e5e:	f003 ffd1 	bl	8004e04 <HAL_SD_Init>
 8000e62:	b9b0      	cbnz	r0, 8000e92 <MX_SDMMC1_SD_Init+0x52>
  if (HAL_SD_ConfigWideBusOperation(&hsd1, SDMMC_BUS_WIDE_4B) != HAL_OK)
 8000e64:	f44f 6100 	mov.w	r1, #2048	@ 0x800
 8000e68:	480e      	ldr	r0, [pc, #56]	@ (8000ea4 <MX_SDMMC1_SD_Init+0x64>)
 8000e6a:	f003 ff4b 	bl	8004d04 <HAL_SD_ConfigWideBusOperation>
 8000e6e:	b990      	cbnz	r0, 8000e96 <MX_SDMMC1_SD_Init+0x56>
  hsd1.Init.BusWide = SDMMC_BUS_WIDE_1B;
 8000e70:	480c      	ldr	r0, [pc, #48]	@ (8000ea4 <MX_SDMMC1_SD_Init+0x64>)
 8000e72:	2300      	movs	r3, #0
 8000e74:	6103      	str	r3, [r0, #16]
  if (HAL_SD_Init(&hsd1) != HAL_OK) {
 8000e76:	f003 ffc5 	bl	8004e04 <HAL_SD_Init>
 8000e7a:	b970      	cbnz	r0, 8000e9a <MX_SDMMC1_SD_Init+0x5a>
 if (HAL_SD_ConfigWideBusOperation(&hsd1, SDMMC_BUS_WIDE_4B) != HAL_OK) {
 8000e7c:	f44f 6100 	mov.w	r1, #2048	@ 0x800
 8000e80:	4808      	ldr	r0, [pc, #32]	@ (8000ea4 <MX_SDMMC1_SD_Init+0x64>)
 8000e82:	f003 ff3f 	bl	8004d04 <HAL_SD_ConfigWideBusOperation>
 8000e86:	b950      	cbnz	r0, 8000e9e <MX_SDMMC1_SD_Init+0x5e>
  UART_SendString(&huart3, "SD CARD INIT\r\n");
 8000e88:	4908      	ldr	r1, [pc, #32]	@ (8000eac <MX_SDMMC1_SD_Init+0x6c>)
 8000e8a:	4809      	ldr	r0, [pc, #36]	@ (8000eb0 <MX_SDMMC1_SD_Init+0x70>)
 8000e8c:	f7ff fc80 	bl	8000790 <UART_SendString>
}
 8000e90:	bd08      	pop	{r3, pc}
    Error_Handler();
 8000e92:	f7ff fed7 	bl	8000c44 <Error_Handler>
    Error_Handler();
 8000e96:	f7ff fed5 	bl	8000c44 <Error_Handler>
     Error_Handler();
 8000e9a:	f7ff fed3 	bl	8000c44 <Error_Handler>
    Error_Handler();
 8000e9e:	f7ff fed1 	bl	8000c44 <Error_Handler>
 8000ea2:	bf00      	nop
 8000ea4:	20010e14 	.word	0x20010e14
 8000ea8:	40012800 	.word	0x40012800
 8000eac:	08007c3c 	.word	0x08007c3c
 8000eb0:	20010f04 	.word	0x20010f04

08000eb4 <SystemClock_Config>:
{
 8000eb4:	b500      	push	{lr}
 8000eb6:	b097      	sub	sp, #92	@ 0x5c
  RCC_OscInitTypeDef RCC_OscInitStruct = {0};
 8000eb8:	2244      	movs	r2, #68	@ 0x44
 8000eba:	2100      	movs	r1, #0
 8000ebc:	a805      	add	r0, sp, #20
 8000ebe:	f005 fe59 	bl	8006b74 <memset>
  RCC_ClkInitTypeDef RCC_ClkInitStruct = {0};
 8000ec2:	2300      	movs	r3, #0
 8000ec4:	9300      	str	r3, [sp, #0]
 8000ec6:	9301      	str	r3, [sp, #4]
 8000ec8:	9302      	str	r3, [sp, #8]
 8000eca:	9303      	str	r3, [sp, #12]
 8000ecc:	9304      	str	r3, [sp, #16]
  if (HAL_PWREx_ControlVoltageScaling(PWR_REGULATOR_VOLTAGE_SCALE1) != HAL_OK)
 8000ece:	f44f 7000 	mov.w	r0, #512	@ 0x200
 8000ed2:	f001 fae7 	bl	80024a4 <HAL_PWREx_ControlVoltageScaling>
 8000ed6:	bb48      	cbnz	r0, 8000f2c <SystemClock_Config+0x78>
  RCC_OscInitStruct.OscillatorType = RCC_OSCILLATORTYPE_HSI|RCC_OSCILLATORTYPE_LSI
 8000ed8:	231a      	movs	r3, #26
 8000eda:	9305      	str	r3, [sp, #20]
  RCC_OscInitStruct.HSIState = RCC_HSI_ON;
 8000edc:	f44f 7380 	mov.w	r3, #256	@ 0x100
 8000ee0:	9308      	str	r3, [sp, #32]
  RCC_OscInitStruct.HSICalibrationValue = RCC_HSICALIBRATION_DEFAULT;
 8000ee2:	2310      	movs	r3, #16
 8000ee4:	9309      	str	r3, [sp, #36]	@ 0x24
  RCC_OscInitStruct.LSIState = RCC_LSI_ON;
 8000ee6:	2301      	movs	r3, #1
 8000ee8:	930a      	str	r3, [sp, #40]	@ 0x28
  RCC_OscInitStruct.MSIState = RCC_MSI_ON;
 8000eea:	930b      	str	r3, [sp, #44]	@ 0x2c
  RCC_OscInitStruct.MSICalibrationValue = 0;
 8000eec:	900c      	str	r0, [sp, #48]	@ 0x30
  RCC_OscInitStruct.MSIClockRange = RCC_MSIRANGE_6;
 8000eee:	2260      	movs	r2, #96	@ 0x60
 8000ef0:	920d      	str	r2, [sp, #52]	@ 0x34
  RCC_OscInitStruct.PLL.PLLState = RCC_PLL_ON;
 8000ef2:	2202      	movs	r2, #2
 8000ef4:	920f      	str	r2, [sp, #60]	@ 0x3c
  RCC_OscInitStruct.PLL.PLLSource = RCC_PLLSOURCE_MSI;
 8000ef6:	9310      	str	r3, [sp, #64]	@ 0x40
  RCC_OscInitStruct.PLL.PLLM = 1;
 8000ef8:	9311      	str	r3, [sp, #68]	@ 0x44
  RCC_OscInitStruct.PLL.PLLN = 40;
 8000efa:	2328      	movs	r3, #40	@ 0x28
 8000efc:	9312      	str	r3, [sp, #72]	@ 0x48
  RCC_OscInitStruct.PLL.PLLP = RCC_PLLP_DIV7;
 8000efe:	2307      	movs	r3, #7
 8000f00:	9313      	str	r3, [sp, #76]	@ 0x4c
  RCC_OscInitStruct.PLL.PLLQ = RCC_PLLQ_DIV4;
 8000f02:	2304      	movs	r3, #4
 8000f04:	9314      	str	r3, [sp, #80]	@ 0x50
  RCC_OscInitStruct.PLL.PLLR = RCC_PLLR_DIV2;
 8000f06:	9215      	str	r2, [sp, #84]	@ 0x54
  if (HAL_RCC_OscConfig(&RCC_OscInitStruct) != HAL_OK)
 8000f08:	a805      	add	r0, sp, #20
 8000f0a:	f001 fbdf 	bl	80026cc <HAL_RCC_OscConfig>
 8000f0e:	b978      	cbnz	r0, 8000f30 <SystemClock_Config+0x7c>
  RCC_ClkInitStruct.ClockType = RCC_CLOCKTYPE_HCLK|RCC_CLOCKTYPE_SYSCLK
 8000f10:	230f      	movs	r3, #15
 8000f12:	9300      	str	r3, [sp, #0]
  RCC_ClkInitStruct.SYSCLKSource = RCC_SYSCLKSOURCE_PLLCLK;
 8000f14:	2303      	movs	r3, #3
 8000f16:	9301      	str	r3, [sp, #4]
  RCC_ClkInitStruct.AHBCLKDivider = RCC_SYSCLK_DIV1;
 8000f18:	9002      	str	r0, [sp, #8]
  RCC_ClkInitStruct.APB1CLKDivider = RCC_HCLK_DIV1;
 8000f1a:	9003      	str	r0, [sp, #12]
  RCC_ClkInitStruct.APB2CLKDivider = RCC_HCLK_DIV1;
 8000f1c:	9004      	str	r0, [sp, #16]
  if (HAL_RCC_ClockConfig(&RCC_ClkInitStruct, FLASH_LATENCY_4) != HAL_OK)
 8000f1e:	2104      	movs	r1, #4
 8000f20:	4668      	mov	r0, sp
 8000f22:	f001 fee3 	bl	8002cec <HAL_RCC_ClockConfig>
 8000f26:	b928      	cbnz	r0, 8000f34 <SystemClock_Config+0x80>
}
 8000f28:	b017      	add	sp, #92	@ 0x5c
 8000f2a:	bd00      	pop	{pc}
    Error_Handler();
 8000f2c:	f7ff fe8a 	bl	8000c44 <Error_Handler>
    Error_Handler();
 8000f30:	f7ff fe88 	bl	8000c44 <Error_Handler>
    Error_Handler();
 8000f34:	f7ff fe86 	bl	8000c44 <Error_Handler>

08000f38 <main>:
{
 8000f38:	b5f0      	push	{r4, r5, r6, r7, lr}
 8000f3a:	b0b3      	sub	sp, #204	@ 0xcc
  HAL_Init();
 8000f3c:	f000 fa54 	bl	80013e8 <HAL_Init>
  SystemClock_Config();
 8000f40:	f7ff ffb8 	bl	8000eb4 <SystemClock_Config>
    RCC_PeriphCLKInitTypeDef PeriphClkInit = {0};
 8000f44:	ac10      	add	r4, sp, #64	@ 0x40
 8000f46:	2288      	movs	r2, #136	@ 0x88
 8000f48:	2100      	movs	r1, #0
 8000f4a:	4620      	mov	r0, r4
 8000f4c:	f005 fe12 	bl	8006b74 <memset>
    PeriphClkInit.PeriphClockSelection = RCC_PERIPHCLK_LPUART1;
 8000f50:	2320      	movs	r3, #32
 8000f52:	9310      	str	r3, [sp, #64]	@ 0x40
    PeriphClkInit.Lpuart1ClockSelection = RCC_LPUART1CLKSOURCE_HSI;
 8000f54:	f44f 6300 	mov.w	r3, #2048	@ 0x800
 8000f58:	9323      	str	r3, [sp, #140]	@ 0x8c
    if (HAL_RCCEx_PeriphCLKConfig(&PeriphClkInit) != HAL_OK)
 8000f5a:	4620      	mov	r0, r4
 8000f5c:	f002 f9b8 	bl	80032d0 <HAL_RCCEx_PeriphCLKConfig>
 8000f60:	2800      	cmp	r0, #0
 8000f62:	d14d      	bne.n	8001000 <main+0xc8>
    SET_BIT(RCC->CR, RCC_CR_HSIKERON);
 8000f64:	4ab9      	ldr	r2, [pc, #740]	@ (800124c <main+0x314>)
 8000f66:	6813      	ldr	r3, [r2, #0]
 8000f68:	f443 7300 	orr.w	r3, r3, #512	@ 0x200
 8000f6c:	6013      	str	r3, [r2, #0]
  MX_GPIO_Init();
 8000f6e:	f7ff fb55 	bl	800061c <MX_GPIO_Init>
  MX_DMA_Init();
 8000f72:	f7ff fbdb 	bl	800072c <MX_DMA_Init>
  MX_LPUART1_UART_Init();
 8000f76:	f7ff fe67 	bl	8000c48 <MX_LPUART1_UART_Init>
  MX_USART2_UART_Init();
 8000f7a:	f7ff fe7f 	bl	8000c7c <MX_USART2_UART_Init>
  MX_USART3_UART_Init();
 8000f7e:	f7ff fe99 	bl	8000cb4 <MX_USART3_UART_Init>
  MX_SPI1_Init();
 8000f82:	f7ff feb3 	bl	8000cec <MX_SPI1_Init>
  MX_RTC_Init();
 8000f86:	f7ff fed5 	bl	8000d34 <MX_RTC_Init>
  MX_I2C2_Init();
 8000f8a:	f7ff ff13 	bl	8000db4 <MX_I2C2_Init>
  MX_SDMMC1_SD_Init();
 8000f8e:	f7ff ff57 	bl	8000e40 <MX_SDMMC1_SD_Init>
  MX_USART1_UART_Init();
 8000f92:	f7ff ff39 	bl	8000e08 <MX_USART1_UART_Init>
  HAL_UARTEx_ReceiveToIdle_DMA(&huart1, rxBuffer, RX_BUF_SIZE);
 8000f96:	f44f 5240 	mov.w	r2, #12288	@ 0x3000
 8000f9a:	49ad      	ldr	r1, [pc, #692]	@ (8001250 <main+0x318>)
 8000f9c:	48ad      	ldr	r0, [pc, #692]	@ (8001254 <main+0x31c>)
 8000f9e:	f005 f885 	bl	80060ac <HAL_UARTEx_ReceiveToIdle_DMA>
    HAL_UARTEx_ReceiveToIdle_IT(&hlpuart1, lora_rx_buf, sizeof(lora_rx_buf));
 8000fa2:	22fa      	movs	r2, #250	@ 0xfa
 8000fa4:	49ac      	ldr	r1, [pc, #688]	@ (8001258 <main+0x320>)
 8000fa6:	48ad      	ldr	r0, [pc, #692]	@ (800125c <main+0x324>)
 8000fa8:	f005 f859 	bl	800605e <HAL_UARTEx_ReceiveToIdle_IT>
  HAL_DBGMCU_EnableDBGSleepMode();
 8000fac:	f000 fa60 	bl	8001470 <HAL_DBGMCU_EnableDBGSleepMode>
  HAL_DBGMCU_EnableDBGStopMode();
 8000fb0:	f000 fa66 	bl	8001480 <HAL_DBGMCU_EnableDBGStopMode>
  HAL_DBGMCU_EnableDBGStandbyMode();
 8000fb4:	f000 fa6c 	bl	8001490 <HAL_DBGMCU_EnableDBGStandbyMode>
  HAL_GPIO_WritePin(Wi_EN_GPIO_Port, Wi_EN_Pin, GPIO_PIN_SET);
 8000fb8:	4ca9      	ldr	r4, [pc, #676]	@ (8001260 <main+0x328>)
 8000fba:	2201      	movs	r2, #1
 8000fbc:	2104      	movs	r1, #4
 8000fbe:	4620      	mov	r0, r4
 8000fc0:	f000 feb6 	bl	8001d30 <HAL_GPIO_WritePin>
  HAL_GPIO_WritePin(Wi_GPIO_0_GPIO_Port, Wi_GPIO_0_Pin, GPIO_PIN_SET);
 8000fc4:	2201      	movs	r2, #1
 8000fc6:	2180      	movs	r1, #128	@ 0x80
 8000fc8:	4620      	mov	r0, r4
 8000fca:	f000 feb1 	bl	8001d30 <HAL_GPIO_WritePin>
  UART_SendString(&huart3, "SETUP\r\n");
 8000fce:	4ca5      	ldr	r4, [pc, #660]	@ (8001264 <main+0x32c>)
 8000fd0:	49a5      	ldr	r1, [pc, #660]	@ (8001268 <main+0x330>)
 8000fd2:	4620      	mov	r0, r4
 8000fd4:	f7ff fbdc 	bl	8000790 <UART_SendString>
  Print_SD_Details();
 8000fd8:	f7ff fbe8 	bl	80007ac <Print_SD_Details>
  SD_IO_Init(&huart3); 
 8000fdc:	4620      	mov	r0, r4
 8000fde:	f7ff f997 	bl	8000310 <SD_IO_Init>
  SD_RawWriteTest();
 8000fe2:	f7ff fc07 	bl	80007f4 <SD_RawWriteTest>
  total_uptime = SD_ReadUptime();
 8000fe6:	f7ff f99f 	bl	8000328 <SD_ReadUptime>
 8000fea:	4ba0      	ldr	r3, [pc, #640]	@ (800126c <main+0x334>)
 8000fec:	6018      	str	r0, [r3, #0]
  SD_Stream_Init(&huart3);
 8000fee:	4620      	mov	r0, r4
 8000ff0:	f7ff fa06 	bl	8000400 <SD_Stream_Init>
  HAL_Delay(500);
 8000ff4:	f44f 70fa 	mov.w	r0, #500	@ 0x1f4
 8000ff8:	f000 fa18 	bl	800142c <HAL_Delay>
  int i = 0;
 8000ffc:	2500      	movs	r5, #0
  while (i < 10000000)
 8000ffe:	e040      	b.n	8001082 <main+0x14a>
        Error_Handler();
 8001000:	f7ff fe20 	bl	8000c44 <Error_Handler>
        if (wifi_rx_ready == 1) 
 8001004:	4b9a      	ldr	r3, [pc, #616]	@ (8001270 <main+0x338>)
 8001006:	781b      	ldrb	r3, [r3, #0]
 8001008:	2b01      	cmp	r3, #1
 800100a:	d05c      	beq.n	80010c6 <main+0x18e>
      if (wake_source == 3){
 800100c:	4b99      	ldr	r3, [pc, #612]	@ (8001274 <main+0x33c>)
 800100e:	781b      	ldrb	r3, [r3, #0]
 8001010:	2b03      	cmp	r3, #3
 8001012:	d07c      	beq.n	800110e <main+0x1d6>
      if (lora_rx_ready){
 8001014:	4b98      	ldr	r3, [pc, #608]	@ (8001278 <main+0x340>)
 8001016:	781b      	ldrb	r3, [r3, #0]
 8001018:	2b00      	cmp	r3, #0
 800101a:	d17d      	bne.n	8001118 <main+0x1e0>
      if (wake_source == 2){
 800101c:	4b95      	ldr	r3, [pc, #596]	@ (8001274 <main+0x33c>)
 800101e:	781b      	ldrb	r3, [r3, #0]
 8001020:	2b02      	cmp	r3, #2
 8001022:	f000 8098 	beq.w	8001156 <main+0x21e>
             if (cb_write_first_half) {
 8001026:	4b95      	ldr	r3, [pc, #596]	@ (800127c <main+0x344>)
 8001028:	781b      	ldrb	r3, [r3, #0]
 800102a:	2b00      	cmp	r3, #0
 800102c:	f040 8098 	bne.w	8001160 <main+0x228>
              else if (cb_write_second_half){
 8001030:	4b93      	ldr	r3, [pc, #588]	@ (8001280 <main+0x348>)
 8001032:	781b      	ldrb	r3, [r3, #0]
 8001034:	2b00      	cmp	r3, #0
 8001036:	f040 8161 	bne.w	80012fc <main+0x3c4>
              else if (dataReady)
 800103a:	4b92      	ldr	r3, [pc, #584]	@ (8001284 <main+0x34c>)
 800103c:	781b      	ldrb	r3, [r3, #0]
 800103e:	2b00      	cmp	r3, #0
 8001040:	f040 8169 	bne.w	8001316 <main+0x3de>
    __HAL_GPIO_EXTI_CLEAR_IT(D_WAKE_Pin); // Clear wakeup pin interrupt flag
 8001044:	4b90      	ldr	r3, [pc, #576]	@ (8001288 <main+0x350>)
 8001046:	f44f 6200 	mov.w	r2, #2048	@ 0x800
 800104a:	615a      	str	r2, [r3, #20]
    HAL_Delay(500); // DElay to allow completion before resleep concerend why this is needded.. maybe dma isnt working
 800104c:	f44f 70fa 	mov.w	r0, #500	@ 0x1f4
 8001050:	f000 f9ec 	bl	800142c <HAL_Delay>
    if (wake_source == 1){
 8001054:	4b87      	ldr	r3, [pc, #540]	@ (8001274 <main+0x33c>)
 8001056:	781b      	ldrb	r3, [r3, #0]
 8001058:	2b01      	cmp	r3, #1
 800105a:	f000 816c 	beq.w	8001336 <main+0x3fe>
    HAL_RTCEx_SetWakeUpTimer_IT(&hrtc, 10, RTC_WAKEUPCLOCK_CK_SPRE_16BITS);
 800105e:	2204      	movs	r2, #4
 8001060:	210a      	movs	r1, #10
 8001062:	488a      	ldr	r0, [pc, #552]	@ (800128c <main+0x354>)
 8001064:	f003 f854 	bl	8004110 <HAL_RTCEx_SetWakeUpTimer_IT>
    wake_source = 0; // reset wake source for next loop
 8001068:	2400      	movs	r4, #0
 800106a:	4b82      	ldr	r3, [pc, #520]	@ (8001274 <main+0x33c>)
 800106c:	701c      	strb	r4, [r3, #0]
    HAL_SuspendTick();    // Need to sleep clock because systick triggers interrupt too
 800106e:	f000 f9f1 	bl	8001454 <HAL_SuspendTick>
    HAL_PWR_EnterSLEEPMode(PWR_MAINREGULATOR_ON, PWR_SLEEPENTRY_WFI);  //SLEEP NOT STOP 
 8001072:	2101      	movs	r1, #1
 8001074:	4620      	mov	r0, r4
 8001076:	f001 f9e7 	bl	8002448 <HAL_PWR_EnterSLEEPMode>
    SystemClock_Config();
 800107a:	f7ff ff1b 	bl	8000eb4 <SystemClock_Config>
    HAL_ResumeTick();
 800107e:	f000 f9f0 	bl	8001462 <HAL_ResumeTick>
  while (i < 10000000)
 8001082:	4b83      	ldr	r3, [pc, #524]	@ (8001290 <main+0x358>)
 8001084:	429d      	cmp	r5, r3
 8001086:	f280 8160 	bge.w	800134a <main+0x412>
    i++;
 800108a:	3501      	adds	r5, #1
      if (WIFI_MODE){
 800108c:	4b81      	ldr	r3, [pc, #516]	@ (8001294 <main+0x35c>)
 800108e:	781b      	ldrb	r3, [r3, #0]
 8001090:	2b00      	cmp	r3, #0
 8001092:	d0bb      	beq.n	800100c <main+0xd4>
        if(WIFI_MODE_SETUP == 0){
 8001094:	4b80      	ldr	r3, [pc, #512]	@ (8001298 <main+0x360>)
 8001096:	781b      	ldrb	r3, [r3, #0]
 8001098:	2b00      	cmp	r3, #0
 800109a:	d1b3      	bne.n	8001004 <main+0xcc>
          UART_SendString(&huart3, "STARTING WIFI\r\n"); 
 800109c:	497f      	ldr	r1, [pc, #508]	@ (800129c <main+0x364>)
 800109e:	4871      	ldr	r0, [pc, #452]	@ (8001264 <main+0x32c>)
 80010a0:	f7ff fb76 	bl	8000790 <UART_SendString>
          HAL_GPIO_WritePin(Wi_EN_GPIO_Port, Wi_EN_Pin, GPIO_PIN_SET);
 80010a4:	2201      	movs	r2, #1
 80010a6:	2104      	movs	r1, #4
 80010a8:	486d      	ldr	r0, [pc, #436]	@ (8001260 <main+0x328>)
 80010aa:	f000 fe41 	bl	8001d30 <HAL_GPIO_WritePin>
          HAL_Delay(100);
 80010ae:	2064      	movs	r0, #100	@ 0x64
 80010b0:	f000 f9bc 	bl	800142c <HAL_Delay>
          HAL_UARTEx_ReceiveToIdle_IT(&huart2, (uint8_t *)wifi_rx_buf, sizeof(wifi_rx_buf));  // settign up recieve to internal buffer
 80010b4:	2280      	movs	r2, #128	@ 0x80
 80010b6:	497a      	ldr	r1, [pc, #488]	@ (80012a0 <main+0x368>)
 80010b8:	487a      	ldr	r0, [pc, #488]	@ (80012a4 <main+0x36c>)
 80010ba:	f004 ffd0 	bl	800605e <HAL_UARTEx_ReceiveToIdle_IT>
           WIFI_MODE_SETUP = 1; // set flag after setup
 80010be:	4b76      	ldr	r3, [pc, #472]	@ (8001298 <main+0x360>)
 80010c0:	2201      	movs	r2, #1
 80010c2:	701a      	strb	r2, [r3, #0]
 80010c4:	e79e      	b.n	8001004 <main+0xcc>
          wifi_rx_ready = 0; // Reset the flag so we don't process the same data twice
 80010c6:	4e6a      	ldr	r6, [pc, #424]	@ (8001270 <main+0x338>)
 80010c8:	2700      	movs	r7, #0
 80010ca:	7037      	strb	r7, [r6, #0]
          UART_SendString(&huart3, "WIFI DATA RECEIVED:\r\n"); 
 80010cc:	4c65      	ldr	r4, [pc, #404]	@ (8001264 <main+0x32c>)
 80010ce:	4976      	ldr	r1, [pc, #472]	@ (80012a8 <main+0x370>)
 80010d0:	4620      	mov	r0, r4
 80010d2:	f7ff fb5d 	bl	8000790 <UART_SendString>
          wifi_rx_ready = 0; // Reset the flag so we don't process the same data twice
 80010d6:	7037      	strb	r7, [r6, #0]
          UART_SendString(&huart3, (char*)wifi_rx_buf);
 80010d8:	4e71      	ldr	r6, [pc, #452]	@ (80012a0 <main+0x368>)
 80010da:	4631      	mov	r1, r6
 80010dc:	4620      	mov	r0, r4
 80010de:	f7ff fb57 	bl	8000790 <UART_SendString>
          UART_SendString(&huart3, "\r\n");
 80010e2:	4972      	ldr	r1, [pc, #456]	@ (80012ac <main+0x374>)
 80010e4:	4620      	mov	r0, r4
 80010e6:	f7ff fb53 	bl	8000790 <UART_SendString>
          HAL_UARTEx_ReceiveToIdle_IT(&huart2, (uint8_t *)wifi_rx_buf, sizeof(wifi_rx_buf));
 80010ea:	4c6e      	ldr	r4, [pc, #440]	@ (80012a4 <main+0x36c>)
 80010ec:	2280      	movs	r2, #128	@ 0x80
 80010ee:	4631      	mov	r1, r6
 80010f0:	4620      	mov	r0, r4
 80010f2:	f004 ffb4 	bl	800605e <HAL_UARTEx_ReceiveToIdle_IT>
        HAL_UART_Transmit(&huart2, (uint8_t*)msg, strlen(msg), 100);
 80010f6:	2364      	movs	r3, #100	@ 0x64
 80010f8:	221e      	movs	r2, #30
 80010fa:	496d      	ldr	r1, [pc, #436]	@ (80012b0 <main+0x378>)
 80010fc:	4620      	mov	r0, r4
 80010fe:	f004 fdee 	bl	8005cde <HAL_UART_Transmit>
        SD_Stream_ReadDebug(DATA_START_SECTOR,100 );
 8001102:	2164      	movs	r1, #100	@ 0x64
 8001104:	f241 3088 	movw	r0, #5000	@ 0x1388
 8001108:	f7ff f9d4 	bl	80004b4 <SD_Stream_ReadDebug>
 800110c:	e77e      	b.n	800100c <main+0xd4>
        UART_SendString(&huart3, "Woke from LPUART!\r\n"); 
 800110e:	4969      	ldr	r1, [pc, #420]	@ (80012b4 <main+0x37c>)
 8001110:	4854      	ldr	r0, [pc, #336]	@ (8001264 <main+0x32c>)
 8001112:	f7ff fb3d 	bl	8000790 <UART_SendString>
 8001116:	e77d      	b.n	8001014 <main+0xdc>
        lora_rx_ready = 0;
 8001118:	2400      	movs	r4, #0
 800111a:	4b57      	ldr	r3, [pc, #348]	@ (8001278 <main+0x340>)
 800111c:	701c      	strb	r4, [r3, #0]
        UART_SendString(&huart3, "LORA DATA: \r\n"); 
 800111e:	4966      	ldr	r1, [pc, #408]	@ (80012b8 <main+0x380>)
 8001120:	4850      	ldr	r0, [pc, #320]	@ (8001264 <main+0x32c>)
 8001122:	f7ff fb35 	bl	8000790 <UART_SendString>
        for (uint16_t i = 0; i < lora_rx_len; i++)
 8001126:	e00d      	b.n	8001144 <main+0x20c>
            snprintf(hex, sizeof(hex), "%02X ", lora_rx_buf[i]);
 8001128:	ae01      	add	r6, sp, #4
 800112a:	4b4b      	ldr	r3, [pc, #300]	@ (8001258 <main+0x320>)
 800112c:	5d1b      	ldrb	r3, [r3, r4]
 800112e:	4a63      	ldr	r2, [pc, #396]	@ (80012bc <main+0x384>)
 8001130:	2108      	movs	r1, #8
 8001132:	4630      	mov	r0, r6
 8001134:	f005 fcca 	bl	8006acc <sniprintf>
            UART_SendString(&huart3, hex);
 8001138:	4631      	mov	r1, r6
 800113a:	484a      	ldr	r0, [pc, #296]	@ (8001264 <main+0x32c>)
 800113c:	f7ff fb28 	bl	8000790 <UART_SendString>
        for (uint16_t i = 0; i < lora_rx_len; i++)
 8001140:	3401      	adds	r4, #1
 8001142:	b2a4      	uxth	r4, r4
 8001144:	4b5e      	ldr	r3, [pc, #376]	@ (80012c0 <main+0x388>)
 8001146:	881b      	ldrh	r3, [r3, #0]
 8001148:	42a3      	cmp	r3, r4
 800114a:	d8ed      	bhi.n	8001128 <main+0x1f0>
        UART_SendString(&huart3, "\r\n"); 
 800114c:	4957      	ldr	r1, [pc, #348]	@ (80012ac <main+0x374>)
 800114e:	4845      	ldr	r0, [pc, #276]	@ (8001264 <main+0x32c>)
 8001150:	f7ff fb1e 	bl	8000790 <UART_SendString>
 8001154:	e762      	b.n	800101c <main+0xe4>
      UART_SendString(&huart3, "Woke from GPIO!\r\n"); 
 8001156:	495b      	ldr	r1, [pc, #364]	@ (80012c4 <main+0x38c>)
 8001158:	4842      	ldr	r0, [pc, #264]	@ (8001264 <main+0x32c>)
 800115a:	f7ff fb19 	bl	8000790 <UART_SendString>
 800115e:	e762      	b.n	8001026 <main+0xee>
              cb_write_first_half = 0;
 8001160:	2400      	movs	r4, #0
 8001162:	4b46      	ldr	r3, [pc, #280]	@ (800127c <main+0x344>)
 8001164:	701c      	strb	r4, [r3, #0]
              UART_SendString(&huart3, "First half of buffer ready\r\n");
 8001166:	4958      	ldr	r1, [pc, #352]	@ (80012c8 <main+0x390>)
 8001168:	483e      	ldr	r0, [pc, #248]	@ (8001264 <main+0x32c>)
 800116a:	f7ff fb11 	bl	8000790 <UART_SendString>
             memcpy(firstHalfCopy, rxBuffer, RX_BUF_SIZE / 2);
 800116e:	4e57      	ldr	r6, [pc, #348]	@ (80012cc <main+0x394>)
 8001170:	f44f 57c0 	mov.w	r7, #6144	@ 0x1800
 8001174:	463a      	mov	r2, r7
 8001176:	4936      	ldr	r1, [pc, #216]	@ (8001250 <main+0x318>)
 8001178:	4630      	mov	r0, r6
 800117a:	f005 fd45 	bl	8006c08 <memcpy>
              PackBlocks(firstHalfCopy, RX_BUF_SIZE / 2);
 800117e:	4639      	mov	r1, r7
 8001180:	4630      	mov	r0, r6
 8001182:	f7ff fceb 	bl	8000b5c <PackBlocks>
            for (uint32_t i = 0; i < accumHead; i++) {
 8001186:	e008      	b.n	800119a <main+0x262>
                snprintf(hex, sizeof(hex), "%02X ", accumBuffer[i]);
 8001188:	4b51      	ldr	r3, [pc, #324]	@ (80012d0 <main+0x398>)
 800118a:	5d1b      	ldrb	r3, [r3, r4]
 800118c:	4a4b      	ldr	r2, [pc, #300]	@ (80012bc <main+0x384>)
 800118e:	2104      	movs	r1, #4
 8001190:	eb0d 0001 	add.w	r0, sp, r1
 8001194:	f005 fc9a 	bl	8006acc <sniprintf>
                if ((i + 1) % 32 == 0) {
 8001198:	3401      	adds	r4, #1
            for (uint32_t i = 0; i < accumHead; i++) {
 800119a:	4b4e      	ldr	r3, [pc, #312]	@ (80012d4 <main+0x39c>)
 800119c:	881b      	ldrh	r3, [r3, #0]
 800119e:	42a3      	cmp	r3, r4
 80011a0:	d8f2      	bhi.n	8001188 <main+0x250>
           snprintf(pbg, sizeof(pbg), "PackBlocks: accumHead=%u\r\n", accumHead);
 80011a2:	4a4d      	ldr	r2, [pc, #308]	@ (80012d8 <main+0x3a0>)
 80011a4:	213c      	movs	r1, #60	@ 0x3c
 80011a6:	a801      	add	r0, sp, #4
 80011a8:	f005 fc90 	bl	8006acc <sniprintf>
              accumHead = 0;
 80011ac:	2400      	movs	r4, #0
 80011ae:	4b49      	ldr	r3, [pc, #292]	@ (80012d4 <main+0x39c>)
 80011b0:	801c      	strh	r4, [r3, #0]
              UART_SendString(&huart3, "Packed Block 0 Preview:\r\n");
 80011b2:	4f2c      	ldr	r7, [pc, #176]	@ (8001264 <main+0x32c>)
 80011b4:	4949      	ldr	r1, [pc, #292]	@ (80012dc <main+0x3a4>)
 80011b6:	4638      	mov	r0, r7
 80011b8:	f7ff faea 	bl	8000790 <UART_SendString>
              UART_DumpBuffer(packedBlocks[0], 512); // Assuming standard 512-byte SD blocks
 80011bc:	4e48      	ldr	r6, [pc, #288]	@ (80012e0 <main+0x3a8>)
 80011be:	f44f 7100 	mov.w	r1, #512	@ 0x200
 80011c2:	4630      	mov	r0, r6
 80011c4:	f7ff fd08 	bl	8000bd8 <UART_DumpBuffer>
              UART_SendString(&huart3, "Packed Block 1 Preview:\r\n");
 80011c8:	4946      	ldr	r1, [pc, #280]	@ (80012e4 <main+0x3ac>)
 80011ca:	4638      	mov	r0, r7
 80011cc:	f7ff fae0 	bl	8000790 <UART_SendString>
               UART_DumpBuffer(packedBlocks[1], 512); // Assuming standard 512-byte SD blocks
 80011d0:	f44f 7100 	mov.w	r1, #512	@ 0x200
 80011d4:	f506 6080 	add.w	r0, r6, #1024	@ 0x400
 80011d8:	f7ff fcfe 	bl	8000bd8 <UART_DumpBuffer>
              UART_SendString(&huart3, "Packed Block 2 Preview:\r\n");
 80011dc:	4942      	ldr	r1, [pc, #264]	@ (80012e8 <main+0x3b0>)
 80011de:	4638      	mov	r0, r7
 80011e0:	f7ff fad6 	bl	8000790 <UART_SendString>
              UART_DumpBuffer(packedBlocks[2], 512); // Assuming standard 512-byte SD blocks
 80011e4:	f44f 7100 	mov.w	r1, #512	@ 0x200
 80011e8:	f506 6000 	add.w	r0, r6, #2048	@ 0x800
 80011ec:	f7ff fcf4 	bl	8000bd8 <UART_DumpBuffer>
                UART_SendString(&huart3, "Packed Block 3 Preview:\r\n");
 80011f0:	493e      	ldr	r1, [pc, #248]	@ (80012ec <main+0x3b4>)
 80011f2:	4638      	mov	r0, r7
 80011f4:	f7ff facc 	bl	8000790 <UART_SendString>
              UART_DumpBuffer(packedBlocks[3], 512); // Assuming standard 512-byte SD blocks
 80011f8:	f44f 7100 	mov.w	r1, #512	@ 0x200
 80011fc:	f506 6040 	add.w	r0, r6, #3072	@ 0xc00
 8001200:	f7ff fcea 	bl	8000bd8 <UART_DumpBuffer>
                UART_SendString(&huart3, "Packed Block 4 Preview:\r\n");
 8001204:	493a      	ldr	r1, [pc, #232]	@ (80012f0 <main+0x3b8>)
 8001206:	4638      	mov	r0, r7
 8001208:	f7ff fac2 	bl	8000790 <UART_SendString>
              UART_DumpBuffer(packedBlocks[4], 512); // Assuming standard 512-byte SD blocks
 800120c:	f44f 7100 	mov.w	r1, #512	@ 0x200
 8001210:	f506 5080 	add.w	r0, r6, #4096	@ 0x1000
 8001214:	f7ff fce0 	bl	8000bd8 <UART_DumpBuffer>
                UART_SendString(&huart3, "Packed Block 5 Preview:\r\n");
 8001218:	4936      	ldr	r1, [pc, #216]	@ (80012f4 <main+0x3bc>)
 800121a:	4638      	mov	r0, r7
 800121c:	f7ff fab8 	bl	8000790 <UART_SendString>
              UART_DumpBuffer(packedBlocks[5], 512); // Assuming standard 512-byte SD blocks
 8001220:	f44f 7100 	mov.w	r1, #512	@ 0x200
 8001224:	f506 50a0 	add.w	r0, r6, #5120	@ 0x1400
 8001228:	f7ff fcd6 	bl	8000bd8 <UART_DumpBuffer>
                HAL_SD_DeInit(&hsd1);       // cleanly tear down
 800122c:	4832      	ldr	r0, [pc, #200]	@ (80012f8 <main+0x3c0>)
 800122e:	f003 f97e 	bl	800452e <HAL_SD_DeInit>
                MX_SDMMC1_SD_Init();        // re-init SDMMC peripheral
 8001232:	f7ff fe05 	bl	8000e40 <MX_SDMMC1_SD_Init>
                for (uint16_t i = 0; i < NUM_BLOCKS; i++) {
 8001236:	e006      	b.n	8001246 <main+0x30e>
                    SD_Stream_WriteBlock(packedBlocks[i]);
 8001238:	4829      	ldr	r0, [pc, #164]	@ (80012e0 <main+0x3a8>)
 800123a:	eb00 2084 	add.w	r0, r0, r4, lsl #10
 800123e:	f7ff f8f1 	bl	8000424 <SD_Stream_WriteBlock>
                for (uint16_t i = 0; i < NUM_BLOCKS; i++) {
 8001242:	3401      	adds	r4, #1
 8001244:	b2a4      	uxth	r4, r4
 8001246:	2c05      	cmp	r4, #5
 8001248:	d9f6      	bls.n	8001238 <main+0x300>
 800124a:	e6fb      	b.n	8001044 <main+0x10c>
 800124c:	40021000 	.word	0x40021000
 8001250:	2000dd14 	.word	0x2000dd14
 8001254:	20011014 	.word	0x20011014
 8001258:	2001297c 	.word	0x2001297c
 800125c:	2001109c 	.word	0x2001109c
 8001260:	48000800 	.word	0x48000800
 8001264:	20010f04 	.word	0x20010f04
 8001268:	08007c4c 	.word	0x08007c4c
 800126c:	20010d18 	.word	0x20010d18
 8001270:	20001c88 	.word	0x20001c88
 8001274:	20010d16 	.word	0x20010d16
 8001278:	20012978 	.word	0x20012978
 800127c:	20010d15 	.word	0x20010d15
 8001280:	20010d14 	.word	0x20010d14
 8001284:	2000dd10 	.word	0x2000dd10
 8001288:	40010400 	.word	0x40010400
 800128c:	20010e98 	.word	0x20010e98
 8001290:	00989680 	.word	0x00989680
 8001294:	20000004 	.word	0x20000004
 8001298:	20010d1c 	.word	0x20010d1c
 800129c:	08007c54 	.word	0x08007c54
 80012a0:	20001c8c 	.word	0x20001c8c
 80012a4:	20010f8c 	.word	0x20010f8c
 80012a8:	08007c64 	.word	0x08007c64
 80012ac:	08007c38 	.word	0x08007c38
 80012b0:	08007c7c 	.word	0x08007c7c
 80012b4:	08007c9c 	.word	0x08007c9c
 80012b8:	08007cb0 	.word	0x08007cb0
 80012bc:	08007c28 	.word	0x08007c28
 80012c0:	2001297a 	.word	0x2001297a
 80012c4:	08007cc0 	.word	0x08007cc0
 80012c8:	08007cd4 	.word	0x08007cd4
 80012cc:	20000488 	.word	0x20000488
 80012d0:	20001d10 	.word	0x20001d10
 80012d4:	20001d0e 	.word	0x20001d0e
 80012d8:	08007cf4 	.word	0x08007cf4
 80012dc:	08007d10 	.word	0x08007d10
 80012e0:	20011178 	.word	0x20011178
 80012e4:	08007d2c 	.word	0x08007d2c
 80012e8:	08007d48 	.word	0x08007d48
 80012ec:	08007d64 	.word	0x08007d64
 80012f0:	08007d80 	.word	0x08007d80
 80012f4:	08007d9c 	.word	0x08007d9c
 80012f8:	20010e14 	.word	0x20010e14
                cb_write_second_half = 0;
 80012fc:	4b1c      	ldr	r3, [pc, #112]	@ (8001370 <main+0x438>)
 80012fe:	2200      	movs	r2, #0
 8001300:	701a      	strb	r2, [r3, #0]
                UART_SendString(&huart3, "Second half of buffer ready\r\n");
 8001302:	491c      	ldr	r1, [pc, #112]	@ (8001374 <main+0x43c>)
 8001304:	481c      	ldr	r0, [pc, #112]	@ (8001378 <main+0x440>)
 8001306:	f7ff fa43 	bl	8000790 <UART_SendString>
                HAL_SD_DeInit(&hsd1);       // cleanly tear down
 800130a:	481c      	ldr	r0, [pc, #112]	@ (800137c <main+0x444>)
 800130c:	f003 f90f 	bl	800452e <HAL_SD_DeInit>
                MX_SDMMC1_SD_Init();        // re-init SDMMC peripheral
 8001310:	f7ff fd96 	bl	8000e40 <MX_SDMMC1_SD_Init>
 8001314:	e696      	b.n	8001044 <main+0x10c>
                dataReady = 0;
 8001316:	4b1a      	ldr	r3, [pc, #104]	@ (8001380 <main+0x448>)
 8001318:	2200      	movs	r2, #0
 800131a:	701a      	strb	r2, [r3, #0]
                sprintf(hdr, "Received %d bytes:\r\n", rxLen);
 800131c:	4b19      	ldr	r3, [pc, #100]	@ (8001384 <main+0x44c>)
 800131e:	881a      	ldrh	r2, [r3, #0]
 8001320:	ac01      	add	r4, sp, #4
 8001322:	b292      	uxth	r2, r2
 8001324:	4918      	ldr	r1, [pc, #96]	@ (8001388 <main+0x450>)
 8001326:	4620      	mov	r0, r4
 8001328:	f005 fc02 	bl	8006b30 <siprintf>
                UART_SendString(&huart3, hdr);
 800132c:	4621      	mov	r1, r4
 800132e:	4812      	ldr	r0, [pc, #72]	@ (8001378 <main+0x440>)
 8001330:	f7ff fa2e 	bl	8000790 <UART_SendString>
 8001334:	e686      	b.n	8001044 <main+0x10c>
      UART_SendString(&huart3, "Woke from RTC!\r\n"); 
 8001336:	4915      	ldr	r1, [pc, #84]	@ (800138c <main+0x454>)
 8001338:	480f      	ldr	r0, [pc, #60]	@ (8001378 <main+0x440>)
 800133a:	f7ff fa29 	bl	8000790 <UART_SendString>
      HAL_RTCEx_SetWakeUpTimer_IT(&hrtc, 10, RTC_WAKEUPCLOCK_CK_SPRE_16BITS);
 800133e:	2204      	movs	r2, #4
 8001340:	210a      	movs	r1, #10
 8001342:	4813      	ldr	r0, [pc, #76]	@ (8001390 <main+0x458>)
 8001344:	f002 fee4 	bl	8004110 <HAL_RTCEx_SetWakeUpTimer_IT>
 8001348:	e689      	b.n	800105e <main+0x126>
  HAL_Delay(500);  // give card time to settle
 800134a:	f44f 70fa 	mov.w	r0, #500	@ 0x1f4
 800134e:	f000 f86d 	bl	800142c <HAL_Delay>
  UART_SendString(&huart3, "While exit\n");
 8001352:	4910      	ldr	r1, [pc, #64]	@ (8001394 <main+0x45c>)
 8001354:	4808      	ldr	r0, [pc, #32]	@ (8001378 <main+0x440>)
 8001356:	f7ff fa1b 	bl	8000790 <UART_SendString>
  uint32_t sectors_written_read = SD_Stream_GetCurrentSector() - DATA_START_SECTOR;
 800135a:	f7ff f8a5 	bl	80004a8 <SD_Stream_GetCurrentSector>
 800135e:	4601      	mov	r1, r0
  SD_Stream_ReadDebug(DATA_START_SECTOR, DATA_START_SECTOR + sectors_written_read);
 8001360:	f241 3088 	movw	r0, #5000	@ 0x1388
 8001364:	f7ff f8a6 	bl	80004b4 <SD_Stream_ReadDebug>
}
 8001368:	2000      	movs	r0, #0
 800136a:	b033      	add	sp, #204	@ 0xcc
 800136c:	bdf0      	pop	{r4, r5, r6, r7, pc}
 800136e:	bf00      	nop
 8001370:	20010d14 	.word	0x20010d14
 8001374:	08007db8 	.word	0x08007db8
 8001378:	20010f04 	.word	0x20010f04
 800137c:	20010e14 	.word	0x20010e14
 8001380:	2000dd10 	.word	0x2000dd10
 8001384:	2000dd12 	.word	0x2000dd12
 8001388:	08007dd8 	.word	0x08007dd8
 800138c:	08007df0 	.word	0x08007df0
 8001390:	20010e98 	.word	0x20010e98
 8001394:	08007e04 	.word	0x08007e04

08001398 <HAL_InitTick>:
__weak HAL_StatusTypeDef HAL_InitTick(uint32_t TickPriority)
{
  HAL_StatusTypeDef  status = HAL_OK;

  /* Check uwTickFreq for MisraC 2012 (even if uwTickFreq is a enum type that doesn't take the value zero)*/
  if ((uint32_t)uwTickFreq != 0U)
 8001398:	4b10      	ldr	r3, [pc, #64]	@ (80013dc <HAL_InitTick+0x44>)
 800139a:	781b      	ldrb	r3, [r3, #0]
 800139c:	b90b      	cbnz	r3, 80013a2 <HAL_InitTick+0xa>
      status = HAL_ERROR;
    }
  }
  else
  {
    status = HAL_ERROR;
 800139e:	2001      	movs	r0, #1
  }

  /* Return function status */
  return status;
}
 80013a0:	4770      	bx	lr
{
 80013a2:	b510      	push	{r4, lr}
 80013a4:	4604      	mov	r4, r0
    if (HAL_SYSTICK_Config(SystemCoreClock / (1000U / (uint32_t)uwTickFreq)) == 0U)
 80013a6:	4a0e      	ldr	r2, [pc, #56]	@ (80013e0 <HAL_InitTick+0x48>)
 80013a8:	6810      	ldr	r0, [r2, #0]
 80013aa:	f44f 727a 	mov.w	r2, #1000	@ 0x3e8
 80013ae:	fbb2 f3f3 	udiv	r3, r2, r3
 80013b2:	fbb0 f0f3 	udiv	r0, r0, r3
 80013b6:	f000 f8f5 	bl	80015a4 <HAL_SYSTICK_Config>
 80013ba:	b968      	cbnz	r0, 80013d8 <HAL_InitTick+0x40>
      if (TickPriority < (1UL << __NVIC_PRIO_BITS))
 80013bc:	2c0f      	cmp	r4, #15
 80013be:	d901      	bls.n	80013c4 <HAL_InitTick+0x2c>
        status = HAL_ERROR;
 80013c0:	2001      	movs	r0, #1
 80013c2:	e00a      	b.n	80013da <HAL_InitTick+0x42>
        HAL_NVIC_SetPriority(SysTick_IRQn, TickPriority, 0U);
 80013c4:	4602      	mov	r2, r0
 80013c6:	4621      	mov	r1, r4
 80013c8:	f04f 30ff 	mov.w	r0, #4294967295	@ 0xffffffff
 80013cc:	f000 f8d2 	bl	8001574 <HAL_NVIC_SetPriority>
        uwTickPrio = TickPriority;
 80013d0:	4b04      	ldr	r3, [pc, #16]	@ (80013e4 <HAL_InitTick+0x4c>)
 80013d2:	601c      	str	r4, [r3, #0]
  HAL_StatusTypeDef  status = HAL_OK;
 80013d4:	2000      	movs	r0, #0
 80013d6:	e000      	b.n	80013da <HAL_InitTick+0x42>
      status = HAL_ERROR;
 80013d8:	2001      	movs	r0, #1
}
 80013da:	bd10      	pop	{r4, pc}
 80013dc:	20000005 	.word	0x20000005
 80013e0:	2000000c 	.word	0x2000000c
 80013e4:	20000008 	.word	0x20000008

080013e8 <HAL_Init>:
{
 80013e8:	b510      	push	{r4, lr}
  HAL_NVIC_SetPriorityGrouping(NVIC_PRIORITYGROUP_4);
 80013ea:	2003      	movs	r0, #3
 80013ec:	f000 f8b0 	bl	8001550 <HAL_NVIC_SetPriorityGrouping>
  if (HAL_InitTick(TICK_INT_PRIORITY) != HAL_OK)
 80013f0:	200f      	movs	r0, #15
 80013f2:	f7ff ffd1 	bl	8001398 <HAL_InitTick>
 80013f6:	b118      	cbz	r0, 8001400 <HAL_Init+0x18>
    status = HAL_ERROR;
 80013f8:	2301      	movs	r3, #1
 80013fa:	461c      	mov	r4, r3
}
 80013fc:	4620      	mov	r0, r4
 80013fe:	bd10      	pop	{r4, pc}
 8001400:	4604      	mov	r4, r0
    HAL_MspInit();
 8001402:	f000 fd65 	bl	8001ed0 <HAL_MspInit>
 8001406:	e7f9      	b.n	80013fc <HAL_Init+0x14>

08001408 <HAL_IncTick>:
  *      implementations in user file.
  * @retval None
  */
__weak void HAL_IncTick(void)
{
  uwTick += (uint32_t)uwTickFreq;
 8001408:	4b03      	ldr	r3, [pc, #12]	@ (8001418 <HAL_IncTick+0x10>)
 800140a:	781b      	ldrb	r3, [r3, #0]
 800140c:	4a03      	ldr	r2, [pc, #12]	@ (800141c <HAL_IncTick+0x14>)
 800140e:	6811      	ldr	r1, [r2, #0]
 8001410:	440b      	add	r3, r1
 8001412:	6013      	str	r3, [r2, #0]
}
 8001414:	4770      	bx	lr
 8001416:	bf00      	nop
 8001418:	20000005 	.word	0x20000005
 800141c:	20012e78 	.word	0x20012e78

08001420 <HAL_GetTick>:
  *       implementations in user file.
  * @retval tick value
  */
__weak uint32_t HAL_GetTick(void)
{
  return uwTick;
 8001420:	4b01      	ldr	r3, [pc, #4]	@ (8001428 <HAL_GetTick+0x8>)
 8001422:	6818      	ldr	r0, [r3, #0]
}
 8001424:	4770      	bx	lr
 8001426:	bf00      	nop
 8001428:	20012e78 	.word	0x20012e78

0800142c <HAL_Delay>:
  *       implementations in user file.
  * @param Delay  specifies the delay time length, in milliseconds.
  * @retval None
  */
__weak void HAL_Delay(uint32_t Delay)
{
 800142c:	b538      	push	{r3, r4, r5, lr}
 800142e:	4604      	mov	r4, r0
  uint32_t tickstart = HAL_GetTick();
 8001430:	f7ff fff6 	bl	8001420 <HAL_GetTick>
 8001434:	4605      	mov	r5, r0
  uint32_t wait = Delay;

  /* Add a period to guaranty minimum wait */
  if (wait < HAL_MAX_DELAY)
 8001436:	f1b4 3fff 	cmp.w	r4, #4294967295	@ 0xffffffff
 800143a:	d002      	beq.n	8001442 <HAL_Delay+0x16>
  {
    wait += (uint32_t)uwTickFreq;
 800143c:	4b04      	ldr	r3, [pc, #16]	@ (8001450 <HAL_Delay+0x24>)
 800143e:	781b      	ldrb	r3, [r3, #0]
 8001440:	441c      	add	r4, r3
  }

  while ((HAL_GetTick() - tickstart) < wait)
 8001442:	f7ff ffed 	bl	8001420 <HAL_GetTick>
 8001446:	1b40      	subs	r0, r0, r5
 8001448:	42a0      	cmp	r0, r4
 800144a:	d3fa      	bcc.n	8001442 <HAL_Delay+0x16>
  {
  }
}
 800144c:	bd38      	pop	{r3, r4, r5, pc}
 800144e:	bf00      	nop
 8001450:	20000005 	.word	0x20000005

08001454 <HAL_SuspendTick>:
  * @retval None
  */
__weak void HAL_SuspendTick(void)
{
  /* Disable SysTick Interrupt */
  SysTick->CTRL &= ~SysTick_CTRL_TICKINT_Msk;
 8001454:	f04f 22e0 	mov.w	r2, #3758153728	@ 0xe000e000
 8001458:	6913      	ldr	r3, [r2, #16]
 800145a:	f023 0302 	bic.w	r3, r3, #2
 800145e:	6113      	str	r3, [r2, #16]
}
 8001460:	4770      	bx	lr

08001462 <HAL_ResumeTick>:
  * @retval None
  */
__weak void HAL_ResumeTick(void)
{
  /* Enable SysTick Interrupt */
  SysTick->CTRL  |= SysTick_CTRL_TICKINT_Msk;
 8001462:	f04f 22e0 	mov.w	r2, #3758153728	@ 0xe000e000
 8001466:	6913      	ldr	r3, [r2, #16]
 8001468:	f043 0302 	orr.w	r3, r3, #2
 800146c:	6113      	str	r3, [r2, #16]
}
 800146e:	4770      	bx	lr

08001470 <HAL_DBGMCU_EnableDBGSleepMode>:
  * @brief  Enable the Debug Module during SLEEP mode.
  * @retval None
  */
void HAL_DBGMCU_EnableDBGSleepMode(void)
{
  SET_BIT(DBGMCU->CR, DBGMCU_CR_DBG_SLEEP);
 8001470:	4a02      	ldr	r2, [pc, #8]	@ (800147c <HAL_DBGMCU_EnableDBGSleepMode+0xc>)
 8001472:	6853      	ldr	r3, [r2, #4]
 8001474:	f043 0301 	orr.w	r3, r3, #1
 8001478:	6053      	str	r3, [r2, #4]
}
 800147a:	4770      	bx	lr
 800147c:	e0042000 	.word	0xe0042000

08001480 <HAL_DBGMCU_EnableDBGStopMode>:
  * @brief  Enable the Debug Module during STOP0/STOP1/STOP2 modes.
  * @retval None
  */
void HAL_DBGMCU_EnableDBGStopMode(void)
{
  SET_BIT(DBGMCU->CR, DBGMCU_CR_DBG_STOP);
 8001480:	4a02      	ldr	r2, [pc, #8]	@ (800148c <HAL_DBGMCU_EnableDBGStopMode+0xc>)
 8001482:	6853      	ldr	r3, [r2, #4]
 8001484:	f043 0302 	orr.w	r3, r3, #2
 8001488:	6053      	str	r3, [r2, #4]
}
 800148a:	4770      	bx	lr
 800148c:	e0042000 	.word	0xe0042000

08001490 <HAL_DBGMCU_EnableDBGStandbyMode>:
  * @brief  Enable the Debug Module during STANDBY mode.
  * @retval None
  */
void HAL_DBGMCU_EnableDBGStandbyMode(void)
{
  SET_BIT(DBGMCU->CR, DBGMCU_CR_DBG_STANDBY);
 8001490:	4a02      	ldr	r2, [pc, #8]	@ (800149c <HAL_DBGMCU_EnableDBGStandbyMode+0xc>)
 8001492:	6853      	ldr	r3, [r2, #4]
 8001494:	f043 0304 	orr.w	r3, r3, #4
 8001498:	6053      	str	r3, [r2, #4]
}
 800149a:	4770      	bx	lr
 800149c:	e0042000 	.word	0xe0042000

080014a0 <__NVIC_EnableIRQ>:
  if ((int32_t)(IRQn) >= 0)
 80014a0:	2800      	cmp	r0, #0
 80014a2:	db07      	blt.n	80014b4 <__NVIC_EnableIRQ+0x14>
    NVIC->ISER[(((uint32_t)IRQn) >> 5UL)] = (uint32_t)(1UL << (((uint32_t)IRQn) & 0x1FUL));
 80014a4:	f000 021f 	and.w	r2, r0, #31
 80014a8:	0940      	lsrs	r0, r0, #5
 80014aa:	2301      	movs	r3, #1
 80014ac:	4093      	lsls	r3, r2
 80014ae:	4a02      	ldr	r2, [pc, #8]	@ (80014b8 <__NVIC_EnableIRQ+0x18>)
 80014b0:	f842 3020 	str.w	r3, [r2, r0, lsl #2]
}
 80014b4:	4770      	bx	lr
 80014b6:	bf00      	nop
 80014b8:	e000e100 	.word	0xe000e100

080014bc <__NVIC_DisableIRQ>:
  if ((int32_t)(IRQn) >= 0)
 80014bc:	2800      	cmp	r0, #0
 80014be:	db0c      	blt.n	80014da <__NVIC_DisableIRQ+0x1e>
    NVIC->ICER[(((uint32_t)IRQn) >> 5UL)] = (uint32_t)(1UL << (((uint32_t)IRQn) & 0x1FUL));
 80014c0:	f000 021f 	and.w	r2, r0, #31
 80014c4:	0940      	lsrs	r0, r0, #5
 80014c6:	2301      	movs	r3, #1
 80014c8:	4093      	lsls	r3, r2
 80014ca:	3020      	adds	r0, #32
 80014cc:	4a03      	ldr	r2, [pc, #12]	@ (80014dc <__NVIC_DisableIRQ+0x20>)
 80014ce:	f842 3020 	str.w	r3, [r2, r0, lsl #2]
  \details Acts as a special kind of Data Memory Barrier.
           It completes when all explicit memory accesses before this instruction complete.
 */
__STATIC_FORCEINLINE void __DSB(void)
{
  __ASM volatile ("dsb 0xF":::"memory");
 80014d2:	f3bf 8f4f 	dsb	sy
  __ASM volatile ("isb 0xF":::"memory");
 80014d6:	f3bf 8f6f 	isb	sy
}
 80014da:	4770      	bx	lr
 80014dc:	e000e100 	.word	0xe000e100

080014e0 <__NVIC_SetPriority>:
  \param [in]  priority  Priority to set.
  \note    The priority cannot be set for every processor exception.
 */
__STATIC_INLINE void __NVIC_SetPriority(IRQn_Type IRQn, uint32_t priority)
{
  if ((int32_t)(IRQn) >= 0)
 80014e0:	2800      	cmp	r0, #0
 80014e2:	db08      	blt.n	80014f6 <__NVIC_SetPriority+0x16>
  {
    NVIC->IP[((uint32_t)IRQn)]               = (uint8_t)((priority << (8U - __NVIC_PRIO_BITS)) & (uint32_t)0xFFUL);
 80014e4:	0109      	lsls	r1, r1, #4
 80014e6:	b2c9      	uxtb	r1, r1
 80014e8:	f100 4060 	add.w	r0, r0, #3758096384	@ 0xe0000000
 80014ec:	f500 4061 	add.w	r0, r0, #57600	@ 0xe100
 80014f0:	f880 1300 	strb.w	r1, [r0, #768]	@ 0x300
 80014f4:	4770      	bx	lr
  }
  else
  {
    SCB->SHP[(((uint32_t)IRQn) & 0xFUL)-4UL] = (uint8_t)((priority << (8U - __NVIC_PRIO_BITS)) & (uint32_t)0xFFUL);
 80014f6:	f000 000f 	and.w	r0, r0, #15
 80014fa:	0109      	lsls	r1, r1, #4
 80014fc:	b2c9      	uxtb	r1, r1
 80014fe:	4b01      	ldr	r3, [pc, #4]	@ (8001504 <__NVIC_SetPriority+0x24>)
 8001500:	5419      	strb	r1, [r3, r0]
  }
}
 8001502:	4770      	bx	lr
 8001504:	e000ed14 	.word	0xe000ed14

08001508 <NVIC_EncodePriority>:
  \param [in]   PreemptPriority  Preemptive priority value (starting from 0).
  \param [in]       SubPriority  Subpriority value (starting from 0).
  \return                        Encoded priority. Value can be used in the function \ref NVIC_SetPriority().
 */
__STATIC_INLINE uint32_t NVIC_EncodePriority (uint32_t PriorityGroup, uint32_t PreemptPriority, uint32_t SubPriority)
{
 8001508:	b500      	push	{lr}
  uint32_t PriorityGroupTmp = (PriorityGroup & (uint32_t)0x07UL);   /* only values 0..7 are used          */
 800150a:	f000 0007 	and.w	r0, r0, #7
  uint32_t PreemptPriorityBits;
  uint32_t SubPriorityBits;

  PreemptPriorityBits = ((7UL - PriorityGroupTmp) > (uint32_t)(__NVIC_PRIO_BITS)) ? (uint32_t)(__NVIC_PRIO_BITS) : (uint32_t)(7UL - PriorityGroupTmp);
 800150e:	f1a0 0c03 	sub.w	ip, r0, #3
 8001512:	f1bc 0f04 	cmp.w	ip, #4
 8001516:	d807      	bhi.n	8001528 <NVIC_EncodePriority+0x20>
 8001518:	f1c0 0e07 	rsb	lr, r0, #7
  SubPriorityBits     = ((PriorityGroupTmp + (uint32_t)(__NVIC_PRIO_BITS)) < (uint32_t)7UL) ? (uint32_t)0UL : (uint32_t)((PriorityGroupTmp - 7UL) + (uint32_t)(__NVIC_PRIO_BITS));
 800151c:	3004      	adds	r0, #4
 800151e:	2806      	cmp	r0, #6
 8001520:	d806      	bhi.n	8001530 <NVIC_EncodePriority+0x28>
 8001522:	f04f 0c00 	mov.w	ip, #0
 8001526:	e003      	b.n	8001530 <NVIC_EncodePriority+0x28>
  PreemptPriorityBits = ((7UL - PriorityGroupTmp) > (uint32_t)(__NVIC_PRIO_BITS)) ? (uint32_t)(__NVIC_PRIO_BITS) : (uint32_t)(7UL - PriorityGroupTmp);
 8001528:	f04f 0e04 	mov.w	lr, #4
  SubPriorityBits     = ((PriorityGroupTmp + (uint32_t)(__NVIC_PRIO_BITS)) < (uint32_t)7UL) ? (uint32_t)0UL : (uint32_t)((PriorityGroupTmp - 7UL) + (uint32_t)(__NVIC_PRIO_BITS));
 800152c:	f04f 0c00 	mov.w	ip, #0

  return (
           ((PreemptPriority & (uint32_t)((1UL << (PreemptPriorityBits)) - 1UL)) << SubPriorityBits) |
 8001530:	f04f 33ff 	mov.w	r3, #4294967295	@ 0xffffffff
 8001534:	fa03 f00e 	lsl.w	r0, r3, lr
 8001538:	ea21 0100 	bic.w	r1, r1, r0
 800153c:	fa01 f10c 	lsl.w	r1, r1, ip
           ((SubPriority     & (uint32_t)((1UL << (SubPriorityBits    )) - 1UL)))
 8001540:	fa03 f30c 	lsl.w	r3, r3, ip
 8001544:	ea22 0203 	bic.w	r2, r2, r3
         );
}
 8001548:	ea41 0002 	orr.w	r0, r1, r2
 800154c:	bd00      	pop	{pc}
	...

08001550 <HAL_NVIC_SetPriorityGrouping>:
  reg_value  =  SCB->AIRCR;                                                   /* read old register configuration    */
 8001550:	4a07      	ldr	r2, [pc, #28]	@ (8001570 <HAL_NVIC_SetPriorityGrouping+0x20>)
 8001552:	68d3      	ldr	r3, [r2, #12]
  reg_value &= ~((uint32_t)(SCB_AIRCR_VECTKEY_Msk | SCB_AIRCR_PRIGROUP_Msk)); /* clear bits to change               */
 8001554:	f423 63e0 	bic.w	r3, r3, #1792	@ 0x700
 8001558:	041b      	lsls	r3, r3, #16
 800155a:	0c1b      	lsrs	r3, r3, #16
                (PriorityGroupTmp << SCB_AIRCR_PRIGROUP_Pos)  );              /* Insert write key and priority group */
 800155c:	0200      	lsls	r0, r0, #8
 800155e:	f400 60e0 	and.w	r0, r0, #1792	@ 0x700
                ((uint32_t)0x5FAUL << SCB_AIRCR_VECTKEY_Pos) |
 8001562:	4303      	orrs	r3, r0
  reg_value  =  (reg_value                                   |
 8001564:	f043 63bf 	orr.w	r3, r3, #100139008	@ 0x5f80000
 8001568:	f443 3300 	orr.w	r3, r3, #131072	@ 0x20000
  SCB->AIRCR =  reg_value;
 800156c:	60d3      	str	r3, [r2, #12]
  /* Check the parameters */
  assert_param(IS_NVIC_PRIORITY_GROUP(PriorityGroup));

  /* Set the PRIGROUP[10:8] bits according to the PriorityGroup parameter value */
  NVIC_SetPriorityGrouping(PriorityGroup);
}
 800156e:	4770      	bx	lr
 8001570:	e000ed00 	.word	0xe000ed00

08001574 <HAL_NVIC_SetPriority>:
  *         This parameter can be a value between 0 and 15
  *         A lower priority value indicates a higher priority.
  * @retval None
  */
void HAL_NVIC_SetPriority(IRQn_Type IRQn, uint32_t PreemptPriority, uint32_t SubPriority)
{
 8001574:	b510      	push	{r4, lr}
 8001576:	4604      	mov	r4, r0
  return ((uint32_t)((SCB->AIRCR & SCB_AIRCR_PRIGROUP_Msk) >> SCB_AIRCR_PRIGROUP_Pos));
 8001578:	4b05      	ldr	r3, [pc, #20]	@ (8001590 <HAL_NVIC_SetPriority+0x1c>)
 800157a:	68d8      	ldr	r0, [r3, #12]
  assert_param(IS_NVIC_SUB_PRIORITY(SubPriority));
  assert_param(IS_NVIC_PREEMPTION_PRIORITY(PreemptPriority));

  prioritygroup = NVIC_GetPriorityGrouping();

  NVIC_SetPriority(IRQn, NVIC_EncodePriority(prioritygroup, PreemptPriority, SubPriority));
 800157c:	f3c0 2002 	ubfx	r0, r0, #8, #3
 8001580:	f7ff ffc2 	bl	8001508 <NVIC_EncodePriority>
 8001584:	4601      	mov	r1, r0
 8001586:	4620      	mov	r0, r4
 8001588:	f7ff ffaa 	bl	80014e0 <__NVIC_SetPriority>
}
 800158c:	bd10      	pop	{r4, pc}
 800158e:	bf00      	nop
 8001590:	e000ed00 	.word	0xe000ed00

08001594 <HAL_NVIC_EnableIRQ>:
  *         This parameter can be an enumerator of IRQn_Type enumeration
  *         (For the complete STM32 Devices IRQ Channels list, please refer to the appropriate CMSIS device file (stm32l4xxxx.h))
  * @retval None
  */
void HAL_NVIC_EnableIRQ(IRQn_Type IRQn)
{
 8001594:	b508      	push	{r3, lr}
  /* Check the parameters */
  assert_param(IS_NVIC_DEVICE_IRQ(IRQn));
  
  /* Enable interrupt */
  NVIC_EnableIRQ(IRQn);
 8001596:	f7ff ff83 	bl	80014a0 <__NVIC_EnableIRQ>
}
 800159a:	bd08      	pop	{r3, pc}

0800159c <HAL_NVIC_DisableIRQ>:
  *         This parameter can be an enumerator of IRQn_Type enumeration
  *         (For the complete STM32 Devices IRQ Channels list, please refer to the appropriate CMSIS device file (stm32l4xxxx.h))
  * @retval None
  */
void HAL_NVIC_DisableIRQ(IRQn_Type IRQn)
{
 800159c:	b508      	push	{r3, lr}
  /* Check the parameters */
  assert_param(IS_NVIC_DEVICE_IRQ(IRQn));
  
  /* Disable interrupt */
  NVIC_DisableIRQ(IRQn);
 800159e:	f7ff ff8d 	bl	80014bc <__NVIC_DisableIRQ>
}
 80015a2:	bd08      	pop	{r3, pc}

080015a4 <HAL_SYSTICK_Config>:
           function <b>SysTick_Config</b> is not included. In this case, the file <b><i>device</i>.h</b>
           must contain a vendor-specific implementation of this function.
 */
__STATIC_INLINE uint32_t SysTick_Config(uint32_t ticks)
{
  if ((ticks - 1UL) > SysTick_LOAD_RELOAD_Msk)
 80015a4:	3801      	subs	r0, #1
 80015a6:	f1b0 7f80 	cmp.w	r0, #16777216	@ 0x1000000
 80015aa:	d20b      	bcs.n	80015c4 <HAL_SYSTICK_Config+0x20>
  {
    return (1UL);                                                   /* Reload value impossible */
  }

  SysTick->LOAD  = (uint32_t)(ticks - 1UL);                         /* set reload register */
 80015ac:	f04f 23e0 	mov.w	r3, #3758153728	@ 0xe000e000
 80015b0:	6158      	str	r0, [r3, #20]
    SCB->SHP[(((uint32_t)IRQn) & 0xFUL)-4UL] = (uint8_t)((priority << (8U - __NVIC_PRIO_BITS)) & (uint32_t)0xFFUL);
 80015b2:	4a05      	ldr	r2, [pc, #20]	@ (80015c8 <HAL_SYSTICK_Config+0x24>)
 80015b4:	21f0      	movs	r1, #240	@ 0xf0
 80015b6:	f882 1023 	strb.w	r1, [r2, #35]	@ 0x23
  NVIC_SetPriority (SysTick_IRQn, (1UL << __NVIC_PRIO_BITS) - 1UL); /* set Priority for Systick Interrupt */
  SysTick->VAL   = 0UL;                                             /* Load the SysTick Counter Value */
 80015ba:	2000      	movs	r0, #0
 80015bc:	6198      	str	r0, [r3, #24]
  SysTick->CTRL  = SysTick_CTRL_CLKSOURCE_Msk |
 80015be:	2207      	movs	r2, #7
 80015c0:	611a      	str	r2, [r3, #16]
                   SysTick_CTRL_TICKINT_Msk   |
                   SysTick_CTRL_ENABLE_Msk;                         /* Enable SysTick IRQ and SysTick Timer */
  return (0UL);                                                     /* Function successful */
 80015c2:	4770      	bx	lr
    return (1UL);                                                   /* Reload value impossible */
 80015c4:	2001      	movs	r0, #1
  *                  - 1  Function failed.
  */
uint32_t HAL_SYSTICK_Config(uint32_t TicksNumb)
{
   return SysTick_Config(TicksNumb);
}
 80015c6:	4770      	bx	lr
 80015c8:	e000ed00 	.word	0xe000ed00

080015cc <DMA_SetConfig>:
  * @param DstAddress The destination memory Buffer address
  * @param DataLength The length of data to be transferred from source to destination
  * @retval HAL status
  */
static void DMA_SetConfig(DMA_HandleTypeDef *hdma, uint32_t SrcAddress, uint32_t DstAddress, uint32_t DataLength)
{
 80015cc:	b510      	push	{r4, lr}
    hdma->DMAmuxRequestGenStatus->RGCFR = hdma->DMAmuxRequestGenStatusMask;
  }
#endif /* DMAMUX1 */

  /* Clear all flags */
  hdma->DmaBaseAddress->IFCR = (DMA_ISR_GIF1 << (hdma->ChannelIndex & 0x1CU));
 80015ce:	6c44      	ldr	r4, [r0, #68]	@ 0x44
 80015d0:	f004 0e1c 	and.w	lr, r4, #28
 80015d4:	f04f 0c01 	mov.w	ip, #1
 80015d8:	fa0c fc0e 	lsl.w	ip, ip, lr
 80015dc:	6c04      	ldr	r4, [r0, #64]	@ 0x40
 80015de:	f8c4 c004 	str.w	ip, [r4, #4]

  /* Configure DMA Channel data length */
  hdma->Instance->CNDTR = DataLength;
 80015e2:	6804      	ldr	r4, [r0, #0]
 80015e4:	6063      	str	r3, [r4, #4]

  /* Memory to Peripheral */
  if ((hdma->Init.Direction) == DMA_MEMORY_TO_PERIPH)
 80015e6:	6883      	ldr	r3, [r0, #8]
 80015e8:	2b10      	cmp	r3, #16
 80015ea:	d004      	beq.n	80015f6 <DMA_SetConfig+0x2a>
  }
  /* Peripheral to Memory */
  else
  {
    /* Configure DMA Channel source address */
    hdma->Instance->CPAR = SrcAddress;
 80015ec:	6803      	ldr	r3, [r0, #0]
 80015ee:	6099      	str	r1, [r3, #8]

    /* Configure DMA Channel destination address */
    hdma->Instance->CMAR = DstAddress;
 80015f0:	6803      	ldr	r3, [r0, #0]
 80015f2:	60da      	str	r2, [r3, #12]
  }
}
 80015f4:	bd10      	pop	{r4, pc}
    hdma->Instance->CPAR = DstAddress;
 80015f6:	6803      	ldr	r3, [r0, #0]
 80015f8:	609a      	str	r2, [r3, #8]
    hdma->Instance->CMAR = SrcAddress;
 80015fa:	6803      	ldr	r3, [r0, #0]
 80015fc:	60d9      	str	r1, [r3, #12]
 80015fe:	e7f9      	b.n	80015f4 <DMA_SetConfig+0x28>

08001600 <HAL_DMA_Init>:
  if (hdma == NULL)
 8001600:	2800      	cmp	r0, #0
 8001602:	d073      	beq.n	80016ec <HAL_DMA_Init+0xec>
{
 8001604:	b410      	push	{r4}
 8001606:	4603      	mov	r3, r0
  if ((uint32_t)(hdma->Instance) < (uint32_t)(DMA2_Channel1))
 8001608:	6802      	ldr	r2, [r0, #0]
 800160a:	4939      	ldr	r1, [pc, #228]	@ (80016f0 <HAL_DMA_Init+0xf0>)
 800160c:	428a      	cmp	r2, r1
 800160e:	d84a      	bhi.n	80016a6 <HAL_DMA_Init+0xa6>
    hdma->ChannelIndex = (((uint32_t)hdma->Instance - (uint32_t)DMA1_Channel1) / ((uint32_t)DMA1_Channel2 - (uint32_t)DMA1_Channel1)) << 2U;
 8001610:	4938      	ldr	r1, [pc, #224]	@ (80016f4 <HAL_DMA_Init+0xf4>)
 8001612:	4411      	add	r1, r2
 8001614:	4838      	ldr	r0, [pc, #224]	@ (80016f8 <HAL_DMA_Init+0xf8>)
 8001616:	fba0 0101 	umull	r0, r1, r0, r1
 800161a:	0909      	lsrs	r1, r1, #4
 800161c:	0089      	lsls	r1, r1, #2
 800161e:	6459      	str	r1, [r3, #68]	@ 0x44
    hdma->DmaBaseAddress = DMA1;
 8001620:	4936      	ldr	r1, [pc, #216]	@ (80016fc <HAL_DMA_Init+0xfc>)
 8001622:	6419      	str	r1, [r3, #64]	@ 0x40
  hdma->State = HAL_DMA_STATE_BUSY;
 8001624:	2102      	movs	r1, #2
 8001626:	f883 1025 	strb.w	r1, [r3, #37]	@ 0x25
  CLEAR_BIT(hdma->Instance->CCR, (DMA_CCR_PL    | DMA_CCR_MSIZE  | DMA_CCR_PSIZE  | \
 800162a:	6811      	ldr	r1, [r2, #0]
 800162c:	f36f 110e 	bfc	r1, #4, #11
 8001630:	6011      	str	r1, [r2, #0]
  SET_BIT(hdma->Instance->CCR, (hdma->Init.Direction           |                               \
 8001632:	6818      	ldr	r0, [r3, #0]
 8001634:	6801      	ldr	r1, [r0, #0]
 8001636:	689a      	ldr	r2, [r3, #8]
 8001638:	68dc      	ldr	r4, [r3, #12]
 800163a:	4322      	orrs	r2, r4
 800163c:	691c      	ldr	r4, [r3, #16]
 800163e:	4322      	orrs	r2, r4
 8001640:	695c      	ldr	r4, [r3, #20]
 8001642:	4322      	orrs	r2, r4
 8001644:	699c      	ldr	r4, [r3, #24]
 8001646:	4322      	orrs	r2, r4
 8001648:	69dc      	ldr	r4, [r3, #28]
 800164a:	4322      	orrs	r2, r4
 800164c:	6a1c      	ldr	r4, [r3, #32]
 800164e:	4322      	orrs	r2, r4
 8001650:	430a      	orrs	r2, r1
 8001652:	6002      	str	r2, [r0, #0]
  if (hdma->Init.Direction != DMA_MEMORY_TO_MEMORY)
 8001654:	689a      	ldr	r2, [r3, #8]
 8001656:	f5b2 4f80 	cmp.w	r2, #16384	@ 0x4000
 800165a:	d01b      	beq.n	8001694 <HAL_DMA_Init+0x94>
    if (DMA1 == hdma->DmaBaseAddress)
 800165c:	6c19      	ldr	r1, [r3, #64]	@ 0x40
 800165e:	4a27      	ldr	r2, [pc, #156]	@ (80016fc <HAL_DMA_Init+0xfc>)
 8001660:	4291      	cmp	r1, r2
 8001662:	d02b      	beq.n	80016bc <HAL_DMA_Init+0xbc>
      DMA2_CSELR->CSELR &= ~(DMA_CSELR_C1S << (hdma->ChannelIndex & 0x1cU));
 8001664:	4a25      	ldr	r2, [pc, #148]	@ (80016fc <HAL_DMA_Init+0xfc>)
 8001666:	f8d2 14a8 	ldr.w	r1, [r2, #1192]	@ 0x4a8
 800166a:	6c58      	ldr	r0, [r3, #68]	@ 0x44
 800166c:	f000 0c1c 	and.w	ip, r0, #28
 8001670:	200f      	movs	r0, #15
 8001672:	fa00 f00c 	lsl.w	r0, r0, ip
 8001676:	ea21 0100 	bic.w	r1, r1, r0
 800167a:	f8c2 14a8 	str.w	r1, [r2, #1192]	@ 0x4a8
      DMA2_CSELR->CSELR |= (uint32_t)(hdma->Init.Request << (hdma->ChannelIndex & 0x1cU));
 800167e:	f8d2 14a8 	ldr.w	r1, [r2, #1192]	@ 0x4a8
 8001682:	6858      	ldr	r0, [r3, #4]
 8001684:	6c5c      	ldr	r4, [r3, #68]	@ 0x44
 8001686:	f004 0c1c 	and.w	ip, r4, #28
 800168a:	fa00 f00c 	lsl.w	r0, r0, ip
 800168e:	4301      	orrs	r1, r0
 8001690:	f8c2 14a8 	str.w	r1, [r2, #1192]	@ 0x4a8
  hdma->ErrorCode = HAL_DMA_ERROR_NONE;
 8001694:	2000      	movs	r0, #0
 8001696:	63d8      	str	r0, [r3, #60]	@ 0x3c
  hdma->State = HAL_DMA_STATE_READY;
 8001698:	2201      	movs	r2, #1
 800169a:	f883 2025 	strb.w	r2, [r3, #37]	@ 0x25
  __HAL_UNLOCK(hdma);
 800169e:	f883 0024 	strb.w	r0, [r3, #36]	@ 0x24
}
 80016a2:	bc10      	pop	{r4}
 80016a4:	4770      	bx	lr
    hdma->ChannelIndex = (((uint32_t)hdma->Instance - (uint32_t)DMA2_Channel1) / ((uint32_t)DMA2_Channel2 - (uint32_t)DMA2_Channel1)) << 2U;
 80016a6:	4916      	ldr	r1, [pc, #88]	@ (8001700 <HAL_DMA_Init+0x100>)
 80016a8:	4411      	add	r1, r2
 80016aa:	4813      	ldr	r0, [pc, #76]	@ (80016f8 <HAL_DMA_Init+0xf8>)
 80016ac:	fba0 0101 	umull	r0, r1, r0, r1
 80016b0:	0909      	lsrs	r1, r1, #4
 80016b2:	0089      	lsls	r1, r1, #2
 80016b4:	6459      	str	r1, [r3, #68]	@ 0x44
    hdma->DmaBaseAddress = DMA2;
 80016b6:	4913      	ldr	r1, [pc, #76]	@ (8001704 <HAL_DMA_Init+0x104>)
 80016b8:	6419      	str	r1, [r3, #64]	@ 0x40
 80016ba:	e7b3      	b.n	8001624 <HAL_DMA_Init+0x24>
      DMA1_CSELR->CSELR &= ~(DMA_CSELR_C1S << (hdma->ChannelIndex & 0x1cU));
 80016bc:	f8d2 10a8 	ldr.w	r1, [r2, #168]	@ 0xa8
 80016c0:	6c58      	ldr	r0, [r3, #68]	@ 0x44
 80016c2:	f000 0c1c 	and.w	ip, r0, #28
 80016c6:	200f      	movs	r0, #15
 80016c8:	fa00 f00c 	lsl.w	r0, r0, ip
 80016cc:	ea21 0100 	bic.w	r1, r1, r0
 80016d0:	f8c2 10a8 	str.w	r1, [r2, #168]	@ 0xa8
      DMA1_CSELR->CSELR |= (uint32_t)(hdma->Init.Request << (hdma->ChannelIndex & 0x1cU));
 80016d4:	f8d2 10a8 	ldr.w	r1, [r2, #168]	@ 0xa8
 80016d8:	6858      	ldr	r0, [r3, #4]
 80016da:	6c5c      	ldr	r4, [r3, #68]	@ 0x44
 80016dc:	f004 0c1c 	and.w	ip, r4, #28
 80016e0:	fa00 f00c 	lsl.w	r0, r0, ip
 80016e4:	4301      	orrs	r1, r0
 80016e6:	f8c2 10a8 	str.w	r1, [r2, #168]	@ 0xa8
 80016ea:	e7d3      	b.n	8001694 <HAL_DMA_Init+0x94>
    return HAL_ERROR;
 80016ec:	2001      	movs	r0, #1
}
 80016ee:	4770      	bx	lr
 80016f0:	40020407 	.word	0x40020407
 80016f4:	bffdfff8 	.word	0xbffdfff8
 80016f8:	cccccccd 	.word	0xcccccccd
 80016fc:	40020000 	.word	0x40020000
 8001700:	bffdfbf8 	.word	0xbffdfbf8
 8001704:	40020400 	.word	0x40020400

08001708 <HAL_DMA_DeInit>:
  if (NULL == hdma)
 8001708:	4603      	mov	r3, r0
 800170a:	2800      	cmp	r0, #0
 800170c:	d04f      	beq.n	80017ae <HAL_DMA_DeInit+0xa6>
  __HAL_DMA_DISABLE(hdma);
 800170e:	6801      	ldr	r1, [r0, #0]
 8001710:	680a      	ldr	r2, [r1, #0]
 8001712:	f022 0201 	bic.w	r2, r2, #1
 8001716:	600a      	str	r2, [r1, #0]
  if ((uint32_t)(hdma->Instance) < (uint32_t)(DMA2_Channel1))
 8001718:	6801      	ldr	r1, [r0, #0]
 800171a:	4a26      	ldr	r2, [pc, #152]	@ (80017b4 <HAL_DMA_DeInit+0xac>)
 800171c:	4291      	cmp	r1, r2
 800171e:	d82e      	bhi.n	800177e <HAL_DMA_DeInit+0x76>
    hdma->ChannelIndex = (((uint32_t)hdma->Instance - (uint32_t)DMA1_Channel1) / ((uint32_t)DMA1_Channel2 - (uint32_t)DMA1_Channel1)) << 2U;
 8001720:	4a25      	ldr	r2, [pc, #148]	@ (80017b8 <HAL_DMA_DeInit+0xb0>)
 8001722:	440a      	add	r2, r1
 8001724:	4825      	ldr	r0, [pc, #148]	@ (80017bc <HAL_DMA_DeInit+0xb4>)
 8001726:	fba0 0202 	umull	r0, r2, r0, r2
 800172a:	0912      	lsrs	r2, r2, #4
 800172c:	0092      	lsls	r2, r2, #2
 800172e:	645a      	str	r2, [r3, #68]	@ 0x44
    hdma->DmaBaseAddress = DMA1;
 8001730:	4a23      	ldr	r2, [pc, #140]	@ (80017c0 <HAL_DMA_DeInit+0xb8>)
 8001732:	641a      	str	r2, [r3, #64]	@ 0x40
  hdma->Instance->CCR = 0U;
 8001734:	2200      	movs	r2, #0
 8001736:	600a      	str	r2, [r1, #0]
  hdma->DmaBaseAddress->IFCR = (DMA_ISR_GIF1 << (hdma->ChannelIndex & 0x1CU));
 8001738:	6c5a      	ldr	r2, [r3, #68]	@ 0x44
 800173a:	f002 011c 	and.w	r1, r2, #28
 800173e:	6c18      	ldr	r0, [r3, #64]	@ 0x40
 8001740:	2201      	movs	r2, #1
 8001742:	408a      	lsls	r2, r1
 8001744:	6042      	str	r2, [r0, #4]
  if (DMA1 == hdma->DmaBaseAddress)
 8001746:	6c19      	ldr	r1, [r3, #64]	@ 0x40
 8001748:	4a1d      	ldr	r2, [pc, #116]	@ (80017c0 <HAL_DMA_DeInit+0xb8>)
 800174a:	4291      	cmp	r1, r2
 800174c:	d022      	beq.n	8001794 <HAL_DMA_DeInit+0x8c>
    DMA2_CSELR->CSELR &= ~(DMA_CSELR_C1S << (hdma->ChannelIndex & 0x1cU));
 800174e:	f8df c070 	ldr.w	ip, [pc, #112]	@ 80017c0 <HAL_DMA_DeInit+0xb8>
 8001752:	f8dc 24a8 	ldr.w	r2, [ip, #1192]	@ 0x4a8
 8001756:	6c59      	ldr	r1, [r3, #68]	@ 0x44
 8001758:	f001 001c 	and.w	r0, r1, #28
 800175c:	210f      	movs	r1, #15
 800175e:	4081      	lsls	r1, r0
 8001760:	ea22 0201 	bic.w	r2, r2, r1
 8001764:	f8cc 24a8 	str.w	r2, [ip, #1192]	@ 0x4a8
  hdma->XferCpltCallback = NULL;
 8001768:	2000      	movs	r0, #0
 800176a:	62d8      	str	r0, [r3, #44]	@ 0x2c
  hdma->XferHalfCpltCallback = NULL;
 800176c:	6318      	str	r0, [r3, #48]	@ 0x30
  hdma->XferErrorCallback = NULL;
 800176e:	6358      	str	r0, [r3, #52]	@ 0x34
  hdma->XferAbortCallback = NULL;
 8001770:	6398      	str	r0, [r3, #56]	@ 0x38
  hdma->ErrorCode = HAL_DMA_ERROR_NONE;
 8001772:	63d8      	str	r0, [r3, #60]	@ 0x3c
  hdma->State = HAL_DMA_STATE_RESET;
 8001774:	f883 0025 	strb.w	r0, [r3, #37]	@ 0x25
  __HAL_UNLOCK(hdma);
 8001778:	f883 0024 	strb.w	r0, [r3, #36]	@ 0x24
  return HAL_OK;
 800177c:	4770      	bx	lr
    hdma->ChannelIndex = (((uint32_t)hdma->Instance - (uint32_t)DMA2_Channel1) / ((uint32_t)DMA2_Channel2 - (uint32_t)DMA2_Channel1)) << 2U;
 800177e:	4a11      	ldr	r2, [pc, #68]	@ (80017c4 <HAL_DMA_DeInit+0xbc>)
 8001780:	440a      	add	r2, r1
 8001782:	480e      	ldr	r0, [pc, #56]	@ (80017bc <HAL_DMA_DeInit+0xb4>)
 8001784:	fba0 0202 	umull	r0, r2, r0, r2
 8001788:	0912      	lsrs	r2, r2, #4
 800178a:	0092      	lsls	r2, r2, #2
 800178c:	645a      	str	r2, [r3, #68]	@ 0x44
    hdma->DmaBaseAddress = DMA2;
 800178e:	4a0e      	ldr	r2, [pc, #56]	@ (80017c8 <HAL_DMA_DeInit+0xc0>)
 8001790:	641a      	str	r2, [r3, #64]	@ 0x40
 8001792:	e7cf      	b.n	8001734 <HAL_DMA_DeInit+0x2c>
    DMA1_CSELR->CSELR &= ~(DMA_CSELR_C1S << (hdma->ChannelIndex & 0x1cU));
 8001794:	4694      	mov	ip, r2
 8001796:	f8d2 20a8 	ldr.w	r2, [r2, #168]	@ 0xa8
 800179a:	6c59      	ldr	r1, [r3, #68]	@ 0x44
 800179c:	f001 001c 	and.w	r0, r1, #28
 80017a0:	210f      	movs	r1, #15
 80017a2:	4081      	lsls	r1, r0
 80017a4:	ea22 0201 	bic.w	r2, r2, r1
 80017a8:	f8cc 20a8 	str.w	r2, [ip, #168]	@ 0xa8
 80017ac:	e7dc      	b.n	8001768 <HAL_DMA_DeInit+0x60>
    return HAL_ERROR;
 80017ae:	2001      	movs	r0, #1
}
 80017b0:	4770      	bx	lr
 80017b2:	bf00      	nop
 80017b4:	40020407 	.word	0x40020407
 80017b8:	bffdfff8 	.word	0xbffdfff8
 80017bc:	cccccccd 	.word	0xcccccccd
 80017c0:	40020000 	.word	0x40020000
 80017c4:	bffdfbf8 	.word	0xbffdfbf8
 80017c8:	40020400 	.word	0x40020400

080017cc <HAL_DMA_Start_IT>:
{
 80017cc:	b510      	push	{r4, lr}
 80017ce:	4604      	mov	r4, r0
  __HAL_LOCK(hdma);
 80017d0:	f890 0024 	ldrb.w	r0, [r0, #36]	@ 0x24
 80017d4:	2801      	cmp	r0, #1
 80017d6:	d036      	beq.n	8001846 <HAL_DMA_Start_IT+0x7a>
 80017d8:	2001      	movs	r0, #1
 80017da:	f884 0024 	strb.w	r0, [r4, #36]	@ 0x24
  if (hdma->State == HAL_DMA_STATE_READY)
 80017de:	f894 0025 	ldrb.w	r0, [r4, #37]	@ 0x25
 80017e2:	2801      	cmp	r0, #1
 80017e4:	d006      	beq.n	80017f4 <HAL_DMA_Start_IT+0x28>
    hdma->ErrorCode = HAL_DMA_ERROR_BUSY;
 80017e6:	2380      	movs	r3, #128	@ 0x80
 80017e8:	63e3      	str	r3, [r4, #60]	@ 0x3c
    __HAL_UNLOCK(hdma);
 80017ea:	2300      	movs	r3, #0
 80017ec:	f884 3024 	strb.w	r3, [r4, #36]	@ 0x24
    status = HAL_ERROR;
 80017f0:	2001      	movs	r0, #1
}
 80017f2:	bd10      	pop	{r4, pc}
    hdma->State = HAL_DMA_STATE_BUSY;
 80017f4:	2002      	movs	r0, #2
 80017f6:	f884 0025 	strb.w	r0, [r4, #37]	@ 0x25
    hdma->ErrorCode = HAL_DMA_ERROR_NONE;
 80017fa:	2000      	movs	r0, #0
 80017fc:	63e0      	str	r0, [r4, #60]	@ 0x3c
    __HAL_DMA_DISABLE(hdma);
 80017fe:	f8d4 c000 	ldr.w	ip, [r4]
 8001802:	f8dc 0000 	ldr.w	r0, [ip]
 8001806:	f020 0001 	bic.w	r0, r0, #1
 800180a:	f8cc 0000 	str.w	r0, [ip]
    DMA_SetConfig(hdma, SrcAddress, DstAddress, DataLength);
 800180e:	4620      	mov	r0, r4
 8001810:	f7ff fedc 	bl	80015cc <DMA_SetConfig>
    if (NULL != hdma->XferHalfCpltCallback)
 8001814:	6b23      	ldr	r3, [r4, #48]	@ 0x30
 8001816:	b15b      	cbz	r3, 8001830 <HAL_DMA_Start_IT+0x64>
      __HAL_DMA_ENABLE_IT(hdma, (DMA_IT_TC | DMA_IT_HT | DMA_IT_TE));
 8001818:	6822      	ldr	r2, [r4, #0]
 800181a:	6813      	ldr	r3, [r2, #0]
 800181c:	f043 030e 	orr.w	r3, r3, #14
 8001820:	6013      	str	r3, [r2, #0]
    __HAL_DMA_ENABLE(hdma);
 8001822:	6822      	ldr	r2, [r4, #0]
 8001824:	6813      	ldr	r3, [r2, #0]
 8001826:	f043 0301 	orr.w	r3, r3, #1
 800182a:	6013      	str	r3, [r2, #0]
  HAL_StatusTypeDef status = HAL_OK;
 800182c:	2000      	movs	r0, #0
 800182e:	e7e0      	b.n	80017f2 <HAL_DMA_Start_IT+0x26>
      __HAL_DMA_DISABLE_IT(hdma, DMA_IT_HT);
 8001830:	6822      	ldr	r2, [r4, #0]
 8001832:	6813      	ldr	r3, [r2, #0]
 8001834:	f023 0304 	bic.w	r3, r3, #4
 8001838:	6013      	str	r3, [r2, #0]
      __HAL_DMA_ENABLE_IT(hdma, (DMA_IT_TC | DMA_IT_TE));
 800183a:	6822      	ldr	r2, [r4, #0]
 800183c:	6813      	ldr	r3, [r2, #0]
 800183e:	f043 030a 	orr.w	r3, r3, #10
 8001842:	6013      	str	r3, [r2, #0]
 8001844:	e7ed      	b.n	8001822 <HAL_DMA_Start_IT+0x56>
  __HAL_LOCK(hdma);
 8001846:	2002      	movs	r0, #2
 8001848:	e7d3      	b.n	80017f2 <HAL_DMA_Start_IT+0x26>

0800184a <HAL_DMA_Abort>:
  if (NULL == hdma)
 800184a:	4603      	mov	r3, r0
 800184c:	b310      	cbz	r0, 8001894 <HAL_DMA_Abort+0x4a>
  if (hdma->State != HAL_DMA_STATE_BUSY)
 800184e:	f890 2025 	ldrb.w	r2, [r0, #37]	@ 0x25
 8001852:	2a02      	cmp	r2, #2
 8001854:	d006      	beq.n	8001864 <HAL_DMA_Abort+0x1a>
    hdma->ErrorCode = HAL_DMA_ERROR_NO_XFER;
 8001856:	2204      	movs	r2, #4
 8001858:	63c2      	str	r2, [r0, #60]	@ 0x3c
    __HAL_UNLOCK(hdma);
 800185a:	2200      	movs	r2, #0
 800185c:	f880 2024 	strb.w	r2, [r0, #36]	@ 0x24
    return HAL_ERROR;
 8001860:	2001      	movs	r0, #1
 8001862:	4770      	bx	lr
    __HAL_DMA_DISABLE(hdma);
 8001864:	6801      	ldr	r1, [r0, #0]
 8001866:	680a      	ldr	r2, [r1, #0]
 8001868:	f022 0201 	bic.w	r2, r2, #1
 800186c:	600a      	str	r2, [r1, #0]
    __HAL_DMA_DISABLE_IT(hdma, (DMA_IT_TC | DMA_IT_HT | DMA_IT_TE));
 800186e:	6801      	ldr	r1, [r0, #0]
 8001870:	680a      	ldr	r2, [r1, #0]
 8001872:	f022 020e 	bic.w	r2, r2, #14
 8001876:	600a      	str	r2, [r1, #0]
    hdma->DmaBaseAddress->IFCR = (DMA_ISR_GIF1 << (hdma->ChannelIndex & 0x1CU));
 8001878:	6c42      	ldr	r2, [r0, #68]	@ 0x44
 800187a:	f002 021c 	and.w	r2, r2, #28
 800187e:	6c00      	ldr	r0, [r0, #64]	@ 0x40
 8001880:	2101      	movs	r1, #1
 8001882:	fa01 f202 	lsl.w	r2, r1, r2
 8001886:	6042      	str	r2, [r0, #4]
    hdma->State = HAL_DMA_STATE_READY;
 8001888:	f883 1025 	strb.w	r1, [r3, #37]	@ 0x25
    __HAL_UNLOCK(hdma);
 800188c:	2000      	movs	r0, #0
 800188e:	f883 0024 	strb.w	r0, [r3, #36]	@ 0x24
  return HAL_OK;
 8001892:	4770      	bx	lr
    return HAL_ERROR;
 8001894:	2001      	movs	r0, #1
}
 8001896:	4770      	bx	lr

08001898 <HAL_DMA_Abort_IT>:
{
 8001898:	b508      	push	{r3, lr}
  if (hdma->State != HAL_DMA_STATE_BUSY)
 800189a:	f890 3025 	ldrb.w	r3, [r0, #37]	@ 0x25
 800189e:	2b02      	cmp	r3, #2
 80018a0:	d003      	beq.n	80018aa <HAL_DMA_Abort_IT+0x12>
    hdma->ErrorCode = HAL_DMA_ERROR_NO_XFER;
 80018a2:	2304      	movs	r3, #4
 80018a4:	63c3      	str	r3, [r0, #60]	@ 0x3c
    status = HAL_ERROR;
 80018a6:	2001      	movs	r0, #1
}
 80018a8:	bd08      	pop	{r3, pc}
    __HAL_DMA_DISABLE(hdma);
 80018aa:	6802      	ldr	r2, [r0, #0]
 80018ac:	6813      	ldr	r3, [r2, #0]
 80018ae:	f023 0301 	bic.w	r3, r3, #1
 80018b2:	6013      	str	r3, [r2, #0]
    __HAL_DMA_DISABLE_IT(hdma, (DMA_IT_TC | DMA_IT_HT | DMA_IT_TE));
 80018b4:	6802      	ldr	r2, [r0, #0]
 80018b6:	6813      	ldr	r3, [r2, #0]
 80018b8:	f023 030e 	bic.w	r3, r3, #14
 80018bc:	6013      	str	r3, [r2, #0]
    hdma->DmaBaseAddress->IFCR = (DMA_ISR_GIF1 << (hdma->ChannelIndex & 0x1CU));
 80018be:	6c43      	ldr	r3, [r0, #68]	@ 0x44
 80018c0:	f003 031c 	and.w	r3, r3, #28
 80018c4:	6c01      	ldr	r1, [r0, #64]	@ 0x40
 80018c6:	2201      	movs	r2, #1
 80018c8:	fa02 f303 	lsl.w	r3, r2, r3
 80018cc:	604b      	str	r3, [r1, #4]
    hdma->State = HAL_DMA_STATE_READY;
 80018ce:	f880 2025 	strb.w	r2, [r0, #37]	@ 0x25
    __HAL_UNLOCK(hdma);
 80018d2:	2300      	movs	r3, #0
 80018d4:	f880 3024 	strb.w	r3, [r0, #36]	@ 0x24
    if (hdma->XferAbortCallback != NULL)
 80018d8:	6b83      	ldr	r3, [r0, #56]	@ 0x38
 80018da:	b113      	cbz	r3, 80018e2 <HAL_DMA_Abort_IT+0x4a>
      hdma->XferAbortCallback(hdma);
 80018dc:	4798      	blx	r3
  HAL_StatusTypeDef status = HAL_OK;
 80018de:	2000      	movs	r0, #0
 80018e0:	e7e2      	b.n	80018a8 <HAL_DMA_Abort_IT+0x10>
 80018e2:	4618      	mov	r0, r3
 80018e4:	e7e0      	b.n	80018a8 <HAL_DMA_Abort_IT+0x10>
	...

080018e8 <HAL_DMA_IRQHandler>:
{
 80018e8:	b508      	push	{r3, lr}
  uint32_t flag_it = hdma->DmaBaseAddress->ISR;
 80018ea:	6c03      	ldr	r3, [r0, #64]	@ 0x40
 80018ec:	6819      	ldr	r1, [r3, #0]
  uint32_t source_it = hdma->Instance->CCR;
 80018ee:	f8d0 c000 	ldr.w	ip, [r0]
 80018f2:	f8dc e000 	ldr.w	lr, [ip]
  if (((flag_it & (DMA_FLAG_HT1 << (hdma->ChannelIndex & 0x1CU))) != 0U) && ((source_it & DMA_IT_HT) != 0U))
 80018f6:	6c43      	ldr	r3, [r0, #68]	@ 0x44
 80018f8:	f003 031c 	and.w	r3, r3, #28
 80018fc:	2204      	movs	r2, #4
 80018fe:	409a      	lsls	r2, r3
 8001900:	420a      	tst	r2, r1
 8001902:	d018      	beq.n	8001936 <HAL_DMA_IRQHandler+0x4e>
 8001904:	f01e 0f04 	tst.w	lr, #4
 8001908:	d015      	beq.n	8001936 <HAL_DMA_IRQHandler+0x4e>
    if ((hdma->Instance->CCR & DMA_CCR_CIRC) == 0U)
 800190a:	f8dc 3000 	ldr.w	r3, [ip]
 800190e:	f013 0f20 	tst.w	r3, #32
 8001912:	d105      	bne.n	8001920 <HAL_DMA_IRQHandler+0x38>
      __HAL_DMA_DISABLE_IT(hdma, DMA_IT_HT);
 8001914:	f8dc 3000 	ldr.w	r3, [ip]
 8001918:	f023 0304 	bic.w	r3, r3, #4
 800191c:	f8cc 3000 	str.w	r3, [ip]
    hdma->DmaBaseAddress->IFCR = DMA_ISR_HTIF1 << (hdma->ChannelIndex & 0x1CU);
 8001920:	6c43      	ldr	r3, [r0, #68]	@ 0x44
 8001922:	f003 021c 	and.w	r2, r3, #28
 8001926:	6c01      	ldr	r1, [r0, #64]	@ 0x40
 8001928:	2304      	movs	r3, #4
 800192a:	4093      	lsls	r3, r2
 800192c:	604b      	str	r3, [r1, #4]
    if (hdma->XferHalfCpltCallback != NULL)
 800192e:	6b03      	ldr	r3, [r0, #48]	@ 0x30
 8001930:	b103      	cbz	r3, 8001934 <HAL_DMA_IRQHandler+0x4c>
      hdma->XferHalfCpltCallback(hdma);
 8001932:	4798      	blx	r3
}
 8001934:	bd08      	pop	{r3, pc}
  else if ((0U != (flag_it & (DMA_FLAG_TC1 << (hdma->ChannelIndex & 0x1CU)))) && (0U != (source_it & DMA_IT_TC)))
 8001936:	2202      	movs	r2, #2
 8001938:	409a      	lsls	r2, r3
 800193a:	420a      	tst	r2, r1
 800193c:	d02b      	beq.n	8001996 <HAL_DMA_IRQHandler+0xae>
 800193e:	f01e 0f02 	tst.w	lr, #2
 8001942:	d028      	beq.n	8001996 <HAL_DMA_IRQHandler+0xae>
    if ((hdma->Instance->CCR & DMA_CCR_CIRC) == 0U)
 8001944:	f8dc 3000 	ldr.w	r3, [ip]
 8001948:	f013 0f20 	tst.w	r3, #32
 800194c:	d108      	bne.n	8001960 <HAL_DMA_IRQHandler+0x78>
      __HAL_DMA_DISABLE_IT(hdma, DMA_IT_TE | DMA_IT_TC);
 800194e:	f8dc 3000 	ldr.w	r3, [ip]
 8001952:	f023 030a 	bic.w	r3, r3, #10
 8001956:	f8cc 3000 	str.w	r3, [ip]
      hdma->State = HAL_DMA_STATE_READY;
 800195a:	2301      	movs	r3, #1
 800195c:	f880 3025 	strb.w	r3, [r0, #37]	@ 0x25
    __HAL_DMA_CLEAR_FLAG(hdma, (DMA_FLAG_TC1 << (hdma->ChannelIndex & 0x1CU)));
 8001960:	6802      	ldr	r2, [r0, #0]
 8001962:	4b1d      	ldr	r3, [pc, #116]	@ (80019d8 <HAL_DMA_IRQHandler+0xf0>)
 8001964:	429a      	cmp	r2, r3
 8001966:	d90e      	bls.n	8001986 <HAL_DMA_IRQHandler+0x9e>
 8001968:	6c43      	ldr	r3, [r0, #68]	@ 0x44
 800196a:	f003 021c 	and.w	r2, r3, #28
 800196e:	2302      	movs	r3, #2
 8001970:	4093      	lsls	r3, r2
 8001972:	4a1a      	ldr	r2, [pc, #104]	@ (80019dc <HAL_DMA_IRQHandler+0xf4>)
 8001974:	6053      	str	r3, [r2, #4]
    __HAL_UNLOCK(hdma);
 8001976:	2300      	movs	r3, #0
 8001978:	f880 3024 	strb.w	r3, [r0, #36]	@ 0x24
    if (hdma->XferCpltCallback != NULL)
 800197c:	6ac3      	ldr	r3, [r0, #44]	@ 0x2c
 800197e:	2b00      	cmp	r3, #0
 8001980:	d0d8      	beq.n	8001934 <HAL_DMA_IRQHandler+0x4c>
      hdma->XferCpltCallback(hdma);
 8001982:	4798      	blx	r3
 8001984:	e7d6      	b.n	8001934 <HAL_DMA_IRQHandler+0x4c>
    __HAL_DMA_CLEAR_FLAG(hdma, (DMA_FLAG_TC1 << (hdma->ChannelIndex & 0x1CU)));
 8001986:	6c43      	ldr	r3, [r0, #68]	@ 0x44
 8001988:	f003 021c 	and.w	r2, r3, #28
 800198c:	2302      	movs	r3, #2
 800198e:	4093      	lsls	r3, r2
 8001990:	4a13      	ldr	r2, [pc, #76]	@ (80019e0 <HAL_DMA_IRQHandler+0xf8>)
 8001992:	6053      	str	r3, [r2, #4]
 8001994:	e7ef      	b.n	8001976 <HAL_DMA_IRQHandler+0x8e>
  else if (((flag_it & (DMA_FLAG_TE1 << (hdma->ChannelIndex & 0x1CU))) != 0U) && ((source_it & DMA_IT_TE) != 0U))
 8001996:	2208      	movs	r2, #8
 8001998:	fa02 f303 	lsl.w	r3, r2, r3
 800199c:	420b      	tst	r3, r1
 800199e:	d0c9      	beq.n	8001934 <HAL_DMA_IRQHandler+0x4c>
 80019a0:	f01e 0f08 	tst.w	lr, #8
 80019a4:	d0c6      	beq.n	8001934 <HAL_DMA_IRQHandler+0x4c>
    __HAL_DMA_DISABLE_IT(hdma, (DMA_IT_TC | DMA_IT_HT | DMA_IT_TE));
 80019a6:	f8dc 3000 	ldr.w	r3, [ip]
 80019aa:	f023 030e 	bic.w	r3, r3, #14
 80019ae:	f8cc 3000 	str.w	r3, [ip]
    hdma->DmaBaseAddress->IFCR = (DMA_ISR_GIF1 << (hdma->ChannelIndex & 0x1CU));
 80019b2:	6c43      	ldr	r3, [r0, #68]	@ 0x44
 80019b4:	f003 031c 	and.w	r3, r3, #28
 80019b8:	6c01      	ldr	r1, [r0, #64]	@ 0x40
 80019ba:	2201      	movs	r2, #1
 80019bc:	fa02 f303 	lsl.w	r3, r2, r3
 80019c0:	604b      	str	r3, [r1, #4]
    hdma->ErrorCode = HAL_DMA_ERROR_TE;
 80019c2:	63c2      	str	r2, [r0, #60]	@ 0x3c
    hdma->State = HAL_DMA_STATE_READY;
 80019c4:	f880 2025 	strb.w	r2, [r0, #37]	@ 0x25
    __HAL_UNLOCK(hdma);
 80019c8:	2300      	movs	r3, #0
 80019ca:	f880 3024 	strb.w	r3, [r0, #36]	@ 0x24
    if (hdma->XferErrorCallback != NULL)
 80019ce:	6b43      	ldr	r3, [r0, #52]	@ 0x34
 80019d0:	2b00      	cmp	r3, #0
 80019d2:	d0af      	beq.n	8001934 <HAL_DMA_IRQHandler+0x4c>
      hdma->XferErrorCallback(hdma);
 80019d4:	4798      	blx	r3
  return;
 80019d6:	e7ad      	b.n	8001934 <HAL_DMA_IRQHandler+0x4c>
 80019d8:	40020080 	.word	0x40020080
 80019dc:	40020400 	.word	0x40020400
 80019e0:	40020000 	.word	0x40020000

080019e4 <HAL_GPIO_Init>:
  * @param  GPIO_Init pointer to a GPIO_InitTypeDef structure that contains
  *         the configuration information for the specified GPIO peripheral.
  * @retval None
  */
void HAL_GPIO_Init(GPIO_TypeDef  *GPIOx, GPIO_InitTypeDef *GPIO_Init)
{
 80019e4:	b570      	push	{r4, r5, r6, lr}
 80019e6:	b082      	sub	sp, #8
  uint32_t position = 0x00u;
 80019e8:	2300      	movs	r3, #0
  assert_param(IS_GPIO_ALL_INSTANCE(GPIOx));
  assert_param(IS_GPIO_PIN(GPIO_Init->Pin));
  assert_param(IS_GPIO_MODE(GPIO_Init->Mode));

  /* Configure the port pins */
  while (((GPIO_Init->Pin) >> position) != 0x00u)
 80019ea:	e074      	b.n	8001ad6 <HAL_GPIO_Init+0xf2>
      {
        /* Check the Speed parameter */
        assert_param(IS_GPIO_SPEED(GPIO_Init->Speed));

        /* Configure the IO Speed */
        temp = GPIOx->OSPEEDR;
 80019ec:	6885      	ldr	r5, [r0, #8]
        temp &= ~(GPIO_OSPEEDR_OSPEED0 << (position * 2u));
 80019ee:	ea4f 0e43 	mov.w	lr, r3, lsl #1
 80019f2:	2403      	movs	r4, #3
 80019f4:	fa04 f40e 	lsl.w	r4, r4, lr
 80019f8:	ea25 0504 	bic.w	r5, r5, r4
        temp |= (GPIO_Init->Speed << (position * 2u));
 80019fc:	68cc      	ldr	r4, [r1, #12]
 80019fe:	fa04 f40e 	lsl.w	r4, r4, lr
 8001a02:	432c      	orrs	r4, r5
        GPIOx->OSPEEDR = temp;
 8001a04:	6084      	str	r4, [r0, #8]

        /* Configure the IO Output Type */
        temp = GPIOx->OTYPER;
 8001a06:	6844      	ldr	r4, [r0, #4]
        temp &= ~(GPIO_OTYPER_OT0 << position) ;
 8001a08:	ea24 040c 	bic.w	r4, r4, ip
        temp |= (((GPIO_Init->Mode & OUTPUT_TYPE) >> OUTPUT_TYPE_Pos) << position);
 8001a0c:	684d      	ldr	r5, [r1, #4]
 8001a0e:	f3c5 1e00 	ubfx	lr, r5, #4, #1
 8001a12:	fa0e fe03 	lsl.w	lr, lr, r3
 8001a16:	ea4e 0404 	orr.w	r4, lr, r4
        GPIOx->OTYPER = temp;
 8001a1a:	6044      	str	r4, [r0, #4]
 8001a1c:	e070      	b.n	8001b00 <HAL_GPIO_Init+0x11c>

      /* In case of Analog mode, check if ADC control mode is selected */
      if((GPIO_Init->Mode & GPIO_MODE_ANALOG) == GPIO_MODE_ANALOG)
      {
        /* Configure the IO Output Type */
        temp = GPIOx->ASCR;
 8001a1e:	6ac4      	ldr	r4, [r0, #44]	@ 0x2c
        temp &= ~(GPIO_ASCR_ASC0 << position) ;
 8001a20:	ea24 040c 	bic.w	r4, r4, ip
        temp |= (((GPIO_Init->Mode & GPIO_MODE_ANALOG_ADC_CONTROL) >> 3) << position);
 8001a24:	f3c5 0ec0 	ubfx	lr, r5, #3, #1
 8001a28:	fa0e fe03 	lsl.w	lr, lr, r3
 8001a2c:	ea4e 0404 	orr.w	r4, lr, r4
        GPIOx->ASCR = temp;
 8001a30:	62c4      	str	r4, [r0, #44]	@ 0x2c
 8001a32:	e06a      	b.n	8001b0a <HAL_GPIO_Init+0x126>
        /* Check the Alternate function parameters */
        assert_param(IS_GPIO_AF_INSTANCE(GPIOx));
        assert_param(IS_GPIO_AF(GPIO_Init->Alternate));

        /* Configure Alternate function mapped with the current IO */
        temp = GPIOx->AFR[position >> 3u];
 8001a34:	08dd      	lsrs	r5, r3, #3
 8001a36:	3508      	adds	r5, #8
 8001a38:	f850 4025 	ldr.w	r4, [r0, r5, lsl #2]
        temp &= ~(0xFul << ((position & 0x07u) * 4u));
 8001a3c:	f003 0c07 	and.w	ip, r3, #7
 8001a40:	ea4f 0c8c 	mov.w	ip, ip, lsl #2
 8001a44:	f04f 0e0f 	mov.w	lr, #15
 8001a48:	fa0e fe0c 	lsl.w	lr, lr, ip
 8001a4c:	ea24 0e0e 	bic.w	lr, r4, lr
        temp |= ((GPIO_Init->Alternate) << ((position & 0x07u) * 4u));
 8001a50:	690c      	ldr	r4, [r1, #16]
 8001a52:	fa04 f40c 	lsl.w	r4, r4, ip
 8001a56:	ea44 040e 	orr.w	r4, r4, lr
        GPIOx->AFR[position >> 3u] = temp;
 8001a5a:	f840 4025 	str.w	r4, [r0, r5, lsl #2]
 8001a5e:	e06f      	b.n	8001b40 <HAL_GPIO_Init+0x15c>
        /* Enable SYSCFG Clock */
        __HAL_RCC_SYSCFG_CLK_ENABLE();

        temp = SYSCFG->EXTICR[position >> 2u];
        temp &= ~(0x0FuL << (4u * (position & 0x03u)));
        temp |= (GPIO_GET_INDEX(GPIOx) << (4u * (position & 0x03u)));
 8001a60:	2406      	movs	r4, #6
 8001a62:	e000      	b.n	8001a66 <HAL_GPIO_Init+0x82>
 8001a64:	2400      	movs	r4, #0
 8001a66:	fa04 f40e 	lsl.w	r4, r4, lr
 8001a6a:	432c      	orrs	r4, r5
        SYSCFG->EXTICR[position >> 2u] = temp;
 8001a6c:	f10c 0c02 	add.w	ip, ip, #2
 8001a70:	4d5f      	ldr	r5, [pc, #380]	@ (8001bf0 <HAL_GPIO_Init+0x20c>)
 8001a72:	f845 402c 	str.w	r4, [r5, ip, lsl #2]

        /* Clear Rising Falling edge configuration */
        temp = EXTI->RTSR1;
 8001a76:	4c5f      	ldr	r4, [pc, #380]	@ (8001bf4 <HAL_GPIO_Init+0x210>)
 8001a78:	68a4      	ldr	r4, [r4, #8]
        temp &= ~(iocurrent);
 8001a7a:	ea6f 0c02 	mvn.w	ip, r2
 8001a7e:	ea24 0502 	bic.w	r5, r4, r2
        if ((GPIO_Init->Mode & TRIGGER_RISING) != 0x00u)
 8001a82:	684e      	ldr	r6, [r1, #4]
 8001a84:	f416 1f80 	tst.w	r6, #1048576	@ 0x100000
 8001a88:	d001      	beq.n	8001a8e <HAL_GPIO_Init+0xaa>
        {
          temp |= iocurrent;
 8001a8a:	ea42 0504 	orr.w	r5, r2, r4
        }
        EXTI->RTSR1 = temp;
 8001a8e:	4c59      	ldr	r4, [pc, #356]	@ (8001bf4 <HAL_GPIO_Init+0x210>)
 8001a90:	60a5      	str	r5, [r4, #8]

        temp = EXTI->FTSR1;
 8001a92:	68e4      	ldr	r4, [r4, #12]
        temp &= ~(iocurrent);
 8001a94:	ea0c 0504 	and.w	r5, ip, r4
        if ((GPIO_Init->Mode & TRIGGER_FALLING) != 0x00u)
 8001a98:	684e      	ldr	r6, [r1, #4]
 8001a9a:	f416 1f00 	tst.w	r6, #2097152	@ 0x200000
 8001a9e:	d001      	beq.n	8001aa4 <HAL_GPIO_Init+0xc0>
        {
          temp |= iocurrent;
 8001aa0:	ea42 0504 	orr.w	r5, r2, r4
        }
        EXTI->FTSR1 = temp;
 8001aa4:	4c53      	ldr	r4, [pc, #332]	@ (8001bf4 <HAL_GPIO_Init+0x210>)
 8001aa6:	60e5      	str	r5, [r4, #12]

        /* Clear EXTI line configuration */
        temp = EXTI->EMR1;
 8001aa8:	6864      	ldr	r4, [r4, #4]
        temp &= ~(iocurrent);
 8001aaa:	ea0c 0504 	and.w	r5, ip, r4
        if ((GPIO_Init->Mode & EXTI_EVT) != 0x00u)
 8001aae:	684e      	ldr	r6, [r1, #4]
 8001ab0:	f416 3f00 	tst.w	r6, #131072	@ 0x20000
 8001ab4:	d001      	beq.n	8001aba <HAL_GPIO_Init+0xd6>
        {
          temp |= iocurrent;
 8001ab6:	ea42 0504 	orr.w	r5, r2, r4
        }
        EXTI->EMR1 = temp;
 8001aba:	4c4e      	ldr	r4, [pc, #312]	@ (8001bf4 <HAL_GPIO_Init+0x210>)
 8001abc:	6065      	str	r5, [r4, #4]

        temp = EXTI->IMR1;
 8001abe:	6824      	ldr	r4, [r4, #0]
        temp &= ~(iocurrent);
 8001ac0:	ea0c 0504 	and.w	r5, ip, r4
        if ((GPIO_Init->Mode & EXTI_IT) != 0x00u)
 8001ac4:	684e      	ldr	r6, [r1, #4]
 8001ac6:	f416 3f80 	tst.w	r6, #65536	@ 0x10000
 8001aca:	d001      	beq.n	8001ad0 <HAL_GPIO_Init+0xec>
        {
          temp |= iocurrent;
 8001acc:	ea42 0504 	orr.w	r5, r2, r4
        }
        EXTI->IMR1 = temp;
 8001ad0:	4a48      	ldr	r2, [pc, #288]	@ (8001bf4 <HAL_GPIO_Init+0x210>)
 8001ad2:	6015      	str	r5, [r2, #0]
      }
    }

    position++;
 8001ad4:	3301      	adds	r3, #1
  while (((GPIO_Init->Pin) >> position) != 0x00u)
 8001ad6:	680a      	ldr	r2, [r1, #0]
 8001ad8:	fa32 f403 	lsrs.w	r4, r2, r3
 8001adc:	f000 8086 	beq.w	8001bec <HAL_GPIO_Init+0x208>
    iocurrent = (GPIO_Init->Pin) & (1uL << position);
 8001ae0:	f04f 0c01 	mov.w	ip, #1
 8001ae4:	fa0c fc03 	lsl.w	ip, ip, r3
    if (iocurrent != 0x00u)
 8001ae8:	ea1c 0202 	ands.w	r2, ip, r2
 8001aec:	d0f2      	beq.n	8001ad4 <HAL_GPIO_Init+0xf0>
      if (((GPIO_Init->Mode & GPIO_MODE) == MODE_OUTPUT) || ((GPIO_Init->Mode & GPIO_MODE) == MODE_AF))
 8001aee:	684c      	ldr	r4, [r1, #4]
 8001af0:	f004 0e03 	and.w	lr, r4, #3
 8001af4:	f10e 3eff 	add.w	lr, lr, #4294967295	@ 0xffffffff
 8001af8:	f1be 0f01 	cmp.w	lr, #1
 8001afc:	f67f af76 	bls.w	80019ec <HAL_GPIO_Init+0x8>
      if((GPIO_Init->Mode & GPIO_MODE_ANALOG) == GPIO_MODE_ANALOG)
 8001b00:	684d      	ldr	r5, [r1, #4]
 8001b02:	f005 0403 	and.w	r4, r5, #3
 8001b06:	2c03      	cmp	r4, #3
 8001b08:	d089      	beq.n	8001a1e <HAL_GPIO_Init+0x3a>
      if ((GPIO_Init->Mode & GPIO_MODE) != MODE_ANALOG)
 8001b0a:	684c      	ldr	r4, [r1, #4]
 8001b0c:	f004 0c03 	and.w	ip, r4, #3
 8001b10:	f1bc 0f03 	cmp.w	ip, #3
 8001b14:	d00d      	beq.n	8001b32 <HAL_GPIO_Init+0x14e>
        temp = GPIOx->PUPDR;
 8001b16:	68c4      	ldr	r4, [r0, #12]
        temp &= ~(GPIO_PUPDR_PUPD0 << (position * 2U));
 8001b18:	005d      	lsls	r5, r3, #1
 8001b1a:	f04f 0c03 	mov.w	ip, #3
 8001b1e:	fa0c fc05 	lsl.w	ip, ip, r5
 8001b22:	ea24 040c 	bic.w	r4, r4, ip
        temp |= ((GPIO_Init->Pull) << (position * 2U));
 8001b26:	688e      	ldr	r6, [r1, #8]
 8001b28:	fa06 fc05 	lsl.w	ip, r6, r5
 8001b2c:	ea4c 0404 	orr.w	r4, ip, r4
        GPIOx->PUPDR = temp;
 8001b30:	60c4      	str	r4, [r0, #12]
      if ((GPIO_Init->Mode & GPIO_MODE) == MODE_AF)
 8001b32:	684c      	ldr	r4, [r1, #4]
 8001b34:	f004 0c03 	and.w	ip, r4, #3
 8001b38:	f1bc 0f02 	cmp.w	ip, #2
 8001b3c:	f43f af7a 	beq.w	8001a34 <HAL_GPIO_Init+0x50>
      temp = GPIOx->MODER;
 8001b40:	6805      	ldr	r5, [r0, #0]
      temp &= ~(GPIO_MODER_MODE0 << (position * 2u));
 8001b42:	005c      	lsls	r4, r3, #1
 8001b44:	f04f 0c03 	mov.w	ip, #3
 8001b48:	fa0c fc04 	lsl.w	ip, ip, r4
 8001b4c:	ea25 0e0c 	bic.w	lr, r5, ip
      temp |= ((GPIO_Init->Mode & GPIO_MODE) << (position * 2u));
 8001b50:	684d      	ldr	r5, [r1, #4]
 8001b52:	f005 0c03 	and.w	ip, r5, #3
 8001b56:	fa0c fc04 	lsl.w	ip, ip, r4
 8001b5a:	ea4c 040e 	orr.w	r4, ip, lr
      GPIOx->MODER = temp;
 8001b5e:	6004      	str	r4, [r0, #0]
      if ((GPIO_Init->Mode & EXTI_MODE) != 0x00u)
 8001b60:	684c      	ldr	r4, [r1, #4]
 8001b62:	f414 3f40 	tst.w	r4, #196608	@ 0x30000
 8001b66:	d0b5      	beq.n	8001ad4 <HAL_GPIO_Init+0xf0>
        __HAL_RCC_SYSCFG_CLK_ENABLE();
 8001b68:	4c23      	ldr	r4, [pc, #140]	@ (8001bf8 <HAL_GPIO_Init+0x214>)
 8001b6a:	6e25      	ldr	r5, [r4, #96]	@ 0x60
 8001b6c:	f045 0501 	orr.w	r5, r5, #1
 8001b70:	6625      	str	r5, [r4, #96]	@ 0x60
 8001b72:	6e24      	ldr	r4, [r4, #96]	@ 0x60
 8001b74:	f004 0401 	and.w	r4, r4, #1
 8001b78:	9401      	str	r4, [sp, #4]
 8001b7a:	9c01      	ldr	r4, [sp, #4]
        temp = SYSCFG->EXTICR[position >> 2u];
 8001b7c:	ea4f 0c93 	mov.w	ip, r3, lsr #2
 8001b80:	f10c 0502 	add.w	r5, ip, #2
 8001b84:	4c1a      	ldr	r4, [pc, #104]	@ (8001bf0 <HAL_GPIO_Init+0x20c>)
 8001b86:	f854 5025 	ldr.w	r5, [r4, r5, lsl #2]
        temp &= ~(0x0FuL << (4u * (position & 0x03u)));
 8001b8a:	f003 0e03 	and.w	lr, r3, #3
 8001b8e:	ea4f 0e8e 	mov.w	lr, lr, lsl #2
 8001b92:	240f      	movs	r4, #15
 8001b94:	fa04 f40e 	lsl.w	r4, r4, lr
 8001b98:	ea25 0504 	bic.w	r5, r5, r4
        temp |= (GPIO_GET_INDEX(GPIOx) << (4u * (position & 0x03u)));
 8001b9c:	f1b0 4f90 	cmp.w	r0, #1207959552	@ 0x48000000
 8001ba0:	f43f af60 	beq.w	8001a64 <HAL_GPIO_Init+0x80>
 8001ba4:	4c15      	ldr	r4, [pc, #84]	@ (8001bfc <HAL_GPIO_Init+0x218>)
 8001ba6:	42a0      	cmp	r0, r4
 8001ba8:	d016      	beq.n	8001bd8 <HAL_GPIO_Init+0x1f4>
 8001baa:	f504 6480 	add.w	r4, r4, #1024	@ 0x400
 8001bae:	42a0      	cmp	r0, r4
 8001bb0:	d014      	beq.n	8001bdc <HAL_GPIO_Init+0x1f8>
 8001bb2:	f504 6480 	add.w	r4, r4, #1024	@ 0x400
 8001bb6:	42a0      	cmp	r0, r4
 8001bb8:	d012      	beq.n	8001be0 <HAL_GPIO_Init+0x1fc>
 8001bba:	f504 6480 	add.w	r4, r4, #1024	@ 0x400
 8001bbe:	42a0      	cmp	r0, r4
 8001bc0:	d010      	beq.n	8001be4 <HAL_GPIO_Init+0x200>
 8001bc2:	f504 6480 	add.w	r4, r4, #1024	@ 0x400
 8001bc6:	42a0      	cmp	r0, r4
 8001bc8:	d00e      	beq.n	8001be8 <HAL_GPIO_Init+0x204>
 8001bca:	f504 6480 	add.w	r4, r4, #1024	@ 0x400
 8001bce:	42a0      	cmp	r0, r4
 8001bd0:	f43f af46 	beq.w	8001a60 <HAL_GPIO_Init+0x7c>
 8001bd4:	2407      	movs	r4, #7
 8001bd6:	e746      	b.n	8001a66 <HAL_GPIO_Init+0x82>
 8001bd8:	2401      	movs	r4, #1
 8001bda:	e744      	b.n	8001a66 <HAL_GPIO_Init+0x82>
 8001bdc:	2402      	movs	r4, #2
 8001bde:	e742      	b.n	8001a66 <HAL_GPIO_Init+0x82>
 8001be0:	2403      	movs	r4, #3
 8001be2:	e740      	b.n	8001a66 <HAL_GPIO_Init+0x82>
 8001be4:	2404      	movs	r4, #4
 8001be6:	e73e      	b.n	8001a66 <HAL_GPIO_Init+0x82>
 8001be8:	2405      	movs	r4, #5
 8001bea:	e73c      	b.n	8001a66 <HAL_GPIO_Init+0x82>
  }
}
 8001bec:	b002      	add	sp, #8
 8001bee:	bd70      	pop	{r4, r5, r6, pc}
 8001bf0:	40010000 	.word	0x40010000
 8001bf4:	40010400 	.word	0x40010400
 8001bf8:	40021000 	.word	0x40021000
 8001bfc:	48000400 	.word	0x48000400

08001c00 <HAL_GPIO_DeInit>:
  *         This parameter can be any combination of GPIO_PIN_x where x can be (0..15).
  * @retval None
  */
void HAL_GPIO_DeInit(GPIO_TypeDef  *GPIOx, uint32_t GPIO_Pin)
{
  uint32_t position = 0x00u;
 8001c00:	2300      	movs	r3, #0
  /* Check the parameters */
  assert_param(IS_GPIO_ALL_INSTANCE(GPIOx));
  assert_param(IS_GPIO_PIN(GPIO_Pin));

  /* Configure the port pins */
  while ((GPIO_Pin >> position) != 0x00u)
 8001c02:	fa31 f203 	lsrs.w	r2, r1, r3
 8001c06:	f000 808b 	beq.w	8001d20 <HAL_GPIO_DeInit+0x120>
{
 8001c0a:	b5f0      	push	{r4, r5, r6, r7, lr}
 8001c0c:	e032      	b.n	8001c74 <HAL_GPIO_DeInit+0x74>
      /*------------------------- EXTI Mode Configuration --------------------*/
      /* Clear the External Interrupt or Event for the current IO */

      tmp = SYSCFG->EXTICR[position >> 2u];
      tmp &= (0x0FuL << (4u * (position & 0x03u)));
      if (tmp == (GPIO_GET_INDEX(GPIOx) << (4u * (position & 0x03u))))
 8001c0e:	2506      	movs	r5, #6
 8001c10:	e000      	b.n	8001c14 <HAL_GPIO_DeInit+0x14>
 8001c12:	2500      	movs	r5, #0
 8001c14:	fa05 f50c 	lsl.w	r5, r5, ip
 8001c18:	42a5      	cmp	r5, r4
 8001c1a:	d065      	beq.n	8001ce8 <HAL_GPIO_DeInit+0xe8>
        SYSCFG->EXTICR[position >> 2u] &= ~tmp;
      }

      /*------------------------- GPIO Mode Configuration --------------------*/
      /* Configure IO in Analog Mode */
      GPIOx->MODER |= (GPIO_MODER_MODE0 << (position * 2u));
 8001c1c:	6804      	ldr	r4, [r0, #0]
 8001c1e:	005d      	lsls	r5, r3, #1
 8001c20:	f04f 0c03 	mov.w	ip, #3
 8001c24:	fa0c fc05 	lsl.w	ip, ip, r5
 8001c28:	ea44 040c 	orr.w	r4, r4, ip
 8001c2c:	6004      	str	r4, [r0, #0]

      /* Configure the default Alternate Function in current IO */
      GPIOx->AFR[position >> 3u] &= ~(0xFul << ((position & 0x07u) * 4u)) ;
 8001c2e:	ea4f 0ed3 	mov.w	lr, r3, lsr #3
 8001c32:	f10e 0e08 	add.w	lr, lr, #8
 8001c36:	f850 402e 	ldr.w	r4, [r0, lr, lsl #2]
 8001c3a:	f003 0607 	and.w	r6, r3, #7
 8001c3e:	00b6      	lsls	r6, r6, #2
 8001c40:	250f      	movs	r5, #15
 8001c42:	40b5      	lsls	r5, r6
 8001c44:	ea24 0405 	bic.w	r4, r4, r5
 8001c48:	f840 402e 	str.w	r4, [r0, lr, lsl #2]

      /* Configure the default value for IO Speed */
      GPIOx->OSPEEDR &= ~(GPIO_OSPEEDR_OSPEED0 << (position * 2u));
 8001c4c:	6884      	ldr	r4, [r0, #8]
 8001c4e:	ea24 040c 	bic.w	r4, r4, ip
 8001c52:	6084      	str	r4, [r0, #8]

      /* Configure the default value IO Output Type */
      GPIOx->OTYPER  &= ~(GPIO_OTYPER_OT0 << position) ;
 8001c54:	6844      	ldr	r4, [r0, #4]
 8001c56:	ea24 0402 	bic.w	r4, r4, r2
 8001c5a:	6044      	str	r4, [r0, #4]

      /* Deactivate the Pull-up and Pull-down resistor for the current IO */
      GPIOx->PUPDR &= ~(GPIO_PUPDR_PUPD0 << (position * 2u));
 8001c5c:	68c4      	ldr	r4, [r0, #12]
 8001c5e:	ea24 040c 	bic.w	r4, r4, ip
 8001c62:	60c4      	str	r4, [r0, #12]

#if defined(STM32L471xx) || defined(STM32L475xx) || defined(STM32L476xx) || defined(STM32L485xx) || defined(STM32L486xx)
      /* Deactivate the Control bit of Analog mode for the current IO */
      GPIOx->ASCR &= ~(GPIO_ASCR_ASC0<< position);
 8001c64:	6ac4      	ldr	r4, [r0, #44]	@ 0x2c
 8001c66:	ea24 0202 	bic.w	r2, r4, r2
 8001c6a:	62c2      	str	r2, [r0, #44]	@ 0x2c
#endif /* STM32L471xx || STM32L475xx || STM32L476xx || STM32L485xx || STM32L486xx */
    }

    position++;
 8001c6c:	3301      	adds	r3, #1
  while ((GPIO_Pin >> position) != 0x00u)
 8001c6e:	fa31 f203 	lsrs.w	r2, r1, r3
 8001c72:	d054      	beq.n	8001d1e <HAL_GPIO_DeInit+0x11e>
    iocurrent = (GPIO_Pin) & (1uL << position);
 8001c74:	2201      	movs	r2, #1
 8001c76:	409a      	lsls	r2, r3
    if (iocurrent != 0x00u)
 8001c78:	ea12 0701 	ands.w	r7, r2, r1
 8001c7c:	d0f6      	beq.n	8001c6c <HAL_GPIO_DeInit+0x6c>
      tmp = SYSCFG->EXTICR[position >> 2u];
 8001c7e:	ea4f 0e93 	mov.w	lr, r3, lsr #2
 8001c82:	f10e 0502 	add.w	r5, lr, #2
 8001c86:	4c27      	ldr	r4, [pc, #156]	@ (8001d24 <HAL_GPIO_DeInit+0x124>)
 8001c88:	f854 4025 	ldr.w	r4, [r4, r5, lsl #2]
      tmp &= (0x0FuL << (4u * (position & 0x03u)));
 8001c8c:	f003 0c03 	and.w	ip, r3, #3
 8001c90:	ea4f 0c8c 	mov.w	ip, ip, lsl #2
 8001c94:	250f      	movs	r5, #15
 8001c96:	fa05 f60c 	lsl.w	r6, r5, ip
 8001c9a:	4034      	ands	r4, r6
      if (tmp == (GPIO_GET_INDEX(GPIOx) << (4u * (position & 0x03u))))
 8001c9c:	f1b0 4f90 	cmp.w	r0, #1207959552	@ 0x48000000
 8001ca0:	d0b7      	beq.n	8001c12 <HAL_GPIO_DeInit+0x12>
 8001ca2:	4d21      	ldr	r5, [pc, #132]	@ (8001d28 <HAL_GPIO_DeInit+0x128>)
 8001ca4:	42a8      	cmp	r0, r5
 8001ca6:	d015      	beq.n	8001cd4 <HAL_GPIO_DeInit+0xd4>
 8001ca8:	f505 6580 	add.w	r5, r5, #1024	@ 0x400
 8001cac:	42a8      	cmp	r0, r5
 8001cae:	d013      	beq.n	8001cd8 <HAL_GPIO_DeInit+0xd8>
 8001cb0:	f505 6580 	add.w	r5, r5, #1024	@ 0x400
 8001cb4:	42a8      	cmp	r0, r5
 8001cb6:	d011      	beq.n	8001cdc <HAL_GPIO_DeInit+0xdc>
 8001cb8:	f505 6580 	add.w	r5, r5, #1024	@ 0x400
 8001cbc:	42a8      	cmp	r0, r5
 8001cbe:	d00f      	beq.n	8001ce0 <HAL_GPIO_DeInit+0xe0>
 8001cc0:	f505 6580 	add.w	r5, r5, #1024	@ 0x400
 8001cc4:	42a8      	cmp	r0, r5
 8001cc6:	d00d      	beq.n	8001ce4 <HAL_GPIO_DeInit+0xe4>
 8001cc8:	f505 6580 	add.w	r5, r5, #1024	@ 0x400
 8001ccc:	42a8      	cmp	r0, r5
 8001cce:	d09e      	beq.n	8001c0e <HAL_GPIO_DeInit+0xe>
 8001cd0:	2507      	movs	r5, #7
 8001cd2:	e79f      	b.n	8001c14 <HAL_GPIO_DeInit+0x14>
 8001cd4:	2501      	movs	r5, #1
 8001cd6:	e79d      	b.n	8001c14 <HAL_GPIO_DeInit+0x14>
 8001cd8:	2502      	movs	r5, #2
 8001cda:	e79b      	b.n	8001c14 <HAL_GPIO_DeInit+0x14>
 8001cdc:	2503      	movs	r5, #3
 8001cde:	e799      	b.n	8001c14 <HAL_GPIO_DeInit+0x14>
 8001ce0:	2504      	movs	r5, #4
 8001ce2:	e797      	b.n	8001c14 <HAL_GPIO_DeInit+0x14>
 8001ce4:	2505      	movs	r5, #5
 8001ce6:	e795      	b.n	8001c14 <HAL_GPIO_DeInit+0x14>
        EXTI->IMR1 &= ~(iocurrent);
 8001ce8:	4c10      	ldr	r4, [pc, #64]	@ (8001d2c <HAL_GPIO_DeInit+0x12c>)
 8001cea:	6825      	ldr	r5, [r4, #0]
 8001cec:	ea25 0507 	bic.w	r5, r5, r7
 8001cf0:	6025      	str	r5, [r4, #0]
        EXTI->EMR1 &= ~(iocurrent);
 8001cf2:	6865      	ldr	r5, [r4, #4]
 8001cf4:	ea25 0507 	bic.w	r5, r5, r7
 8001cf8:	6065      	str	r5, [r4, #4]
        EXTI->FTSR1 &= ~(iocurrent);
 8001cfa:	68e5      	ldr	r5, [r4, #12]
 8001cfc:	ea25 0507 	bic.w	r5, r5, r7
 8001d00:	60e5      	str	r5, [r4, #12]
        EXTI->RTSR1 &= ~(iocurrent);
 8001d02:	68a5      	ldr	r5, [r4, #8]
 8001d04:	ea25 0507 	bic.w	r5, r5, r7
 8001d08:	60a5      	str	r5, [r4, #8]
        SYSCFG->EXTICR[position >> 2u] &= ~tmp;
 8001d0a:	4f06      	ldr	r7, [pc, #24]	@ (8001d24 <HAL_GPIO_DeInit+0x124>)
 8001d0c:	f10e 0402 	add.w	r4, lr, #2
 8001d10:	f857 5024 	ldr.w	r5, [r7, r4, lsl #2]
 8001d14:	ea25 0506 	bic.w	r5, r5, r6
 8001d18:	f847 5024 	str.w	r5, [r7, r4, lsl #2]
 8001d1c:	e77e      	b.n	8001c1c <HAL_GPIO_DeInit+0x1c>
  }
}
 8001d1e:	bdf0      	pop	{r4, r5, r6, r7, pc}
 8001d20:	4770      	bx	lr
 8001d22:	bf00      	nop
 8001d24:	40010000 	.word	0x40010000
 8001d28:	48000400 	.word	0x48000400
 8001d2c:	40010400 	.word	0x40010400

08001d30 <HAL_GPIO_WritePin>:
{
  /* Check the parameters */
  assert_param(IS_GPIO_PIN(GPIO_Pin));
  assert_param(IS_GPIO_PIN_ACTION(PinState));

  if(PinState != GPIO_PIN_RESET)
 8001d30:	b10a      	cbz	r2, 8001d36 <HAL_GPIO_WritePin+0x6>
  {
    GPIOx->BSRR = (uint32_t)GPIO_Pin;
 8001d32:	6181      	str	r1, [r0, #24]
 8001d34:	4770      	bx	lr
  }
  else
  {
    GPIOx->BRR = (uint32_t)GPIO_Pin;
 8001d36:	6281      	str	r1, [r0, #40]	@ 0x28
  }
}
 8001d38:	4770      	bx	lr

08001d3a <HAL_GPIO_EXTI_Callback>:
  UNUSED(GPIO_Pin);

  /* NOTE: This function should not be modified, when the callback is needed,
           the HAL_GPIO_EXTI_Callback could be implemented in the user file
   */
}
 8001d3a:	4770      	bx	lr

08001d3c <HAL_GPIO_EXTI_IRQHandler>:
{
 8001d3c:	b508      	push	{r3, lr}
  if(__HAL_GPIO_EXTI_GET_IT(GPIO_Pin) != 0x00u)
 8001d3e:	4b05      	ldr	r3, [pc, #20]	@ (8001d54 <HAL_GPIO_EXTI_IRQHandler+0x18>)
 8001d40:	695b      	ldr	r3, [r3, #20]
 8001d42:	4203      	tst	r3, r0
 8001d44:	d100      	bne.n	8001d48 <HAL_GPIO_EXTI_IRQHandler+0xc>
}
 8001d46:	bd08      	pop	{r3, pc}
    __HAL_GPIO_EXTI_CLEAR_IT(GPIO_Pin);
 8001d48:	4b02      	ldr	r3, [pc, #8]	@ (8001d54 <HAL_GPIO_EXTI_IRQHandler+0x18>)
 8001d4a:	6158      	str	r0, [r3, #20]
    HAL_GPIO_EXTI_Callback(GPIO_Pin);
 8001d4c:	f7ff fff5 	bl	8001d3a <HAL_GPIO_EXTI_Callback>
}
 8001d50:	e7f9      	b.n	8001d46 <HAL_GPIO_EXTI_IRQHandler+0xa>
 8001d52:	bf00      	nop
 8001d54:	40010400 	.word	0x40010400

08001d58 <HAL_I2C_Init>:
  * @retval HAL status
  */
HAL_StatusTypeDef HAL_I2C_Init(I2C_HandleTypeDef *hi2c)
{
  /* Check the I2C handle allocation */
  if (hi2c == NULL)
 8001d58:	2800      	cmp	r0, #0
 8001d5a:	d05f      	beq.n	8001e1c <HAL_I2C_Init+0xc4>
{
 8001d5c:	b510      	push	{r4, lr}
 8001d5e:	4604      	mov	r4, r0
  assert_param(IS_I2C_OWN_ADDRESS2(hi2c->Init.OwnAddress2));
  assert_param(IS_I2C_OWN_ADDRESS2_MASK(hi2c->Init.OwnAddress2Masks));
  assert_param(IS_I2C_GENERAL_CALL(hi2c->Init.GeneralCallMode));
  assert_param(IS_I2C_NO_STRETCH(hi2c->Init.NoStretchMode));

  if (hi2c->State == HAL_I2C_STATE_RESET)
 8001d60:	f890 3041 	ldrb.w	r3, [r0, #65]	@ 0x41
 8001d64:	2b00      	cmp	r3, #0
 8001d66:	d048      	beq.n	8001dfa <HAL_I2C_Init+0xa2>
    /* Init the low level hardware : GPIO, CLOCK, CORTEX...etc */
    HAL_I2C_MspInit(hi2c);
#endif /* USE_HAL_I2C_REGISTER_CALLBACKS */
  }

  hi2c->State = HAL_I2C_STATE_BUSY;
 8001d68:	2324      	movs	r3, #36	@ 0x24
 8001d6a:	f884 3041 	strb.w	r3, [r4, #65]	@ 0x41

  /* Disable the selected I2C peripheral */
  __HAL_I2C_DISABLE(hi2c);
 8001d6e:	6822      	ldr	r2, [r4, #0]
 8001d70:	6813      	ldr	r3, [r2, #0]
 8001d72:	f023 0301 	bic.w	r3, r3, #1
 8001d76:	6013      	str	r3, [r2, #0]

  /*---------------------------- I2Cx TIMINGR Configuration ------------------*/
  /* Configure I2Cx: Frequency range */
  hi2c->Instance->TIMINGR = hi2c->Init.Timing & TIMING_CLEAR_MASK;
 8001d78:	6863      	ldr	r3, [r4, #4]
 8001d7a:	6822      	ldr	r2, [r4, #0]
 8001d7c:	f023 6370 	bic.w	r3, r3, #251658240	@ 0xf000000
 8001d80:	6113      	str	r3, [r2, #16]

  /*---------------------------- I2Cx OAR1 Configuration ---------------------*/
  /* Disable Own Address1 before set the Own Address1 configuration */
  hi2c->Instance->OAR1 &= ~I2C_OAR1_OA1EN;
 8001d82:	6822      	ldr	r2, [r4, #0]
 8001d84:	6893      	ldr	r3, [r2, #8]
 8001d86:	f423 4300 	bic.w	r3, r3, #32768	@ 0x8000
 8001d8a:	6093      	str	r3, [r2, #8]

  /* Configure I2Cx: Own Address1 and ack own address1 mode */
  if (hi2c->Init.AddressingMode == I2C_ADDRESSINGMODE_7BIT)
 8001d8c:	68e3      	ldr	r3, [r4, #12]
 8001d8e:	2b01      	cmp	r3, #1
 8001d90:	d038      	beq.n	8001e04 <HAL_I2C_Init+0xac>
  {
    hi2c->Instance->OAR1 = (I2C_OAR1_OA1EN | hi2c->Init.OwnAddress1);
  }
  else /* I2C_ADDRESSINGMODE_10BIT */
  {
    hi2c->Instance->OAR1 = (I2C_OAR1_OA1EN | I2C_OAR1_OA1MODE | hi2c->Init.OwnAddress1);
 8001d92:	68a3      	ldr	r3, [r4, #8]
 8001d94:	6822      	ldr	r2, [r4, #0]
 8001d96:	f443 4304 	orr.w	r3, r3, #33792	@ 0x8400
 8001d9a:	6093      	str	r3, [r2, #8]
  }

  /*---------------------------- I2Cx CR2 Configuration ----------------------*/
  /* Configure I2Cx: Addressing Master mode */
  if (hi2c->Init.AddressingMode == I2C_ADDRESSINGMODE_10BIT)
 8001d9c:	68e3      	ldr	r3, [r4, #12]
 8001d9e:	2b02      	cmp	r3, #2
 8001da0:	d036      	beq.n	8001e10 <HAL_I2C_Init+0xb8>
    SET_BIT(hi2c->Instance->CR2, I2C_CR2_ADD10);
  }
  else
  {
    /* Clear the I2C ADD10 bit */
    CLEAR_BIT(hi2c->Instance->CR2, I2C_CR2_ADD10);
 8001da2:	6822      	ldr	r2, [r4, #0]
 8001da4:	6853      	ldr	r3, [r2, #4]
 8001da6:	f423 6300 	bic.w	r3, r3, #2048	@ 0x800
 8001daa:	6053      	str	r3, [r2, #4]
  }
  /* Enable the AUTOEND by default, and enable NACK (should be disable only during Slave process */
  hi2c->Instance->CR2 |= (I2C_CR2_AUTOEND | I2C_CR2_NACK);
 8001dac:	6822      	ldr	r2, [r4, #0]
 8001dae:	6853      	ldr	r3, [r2, #4]
 8001db0:	f043 7300 	orr.w	r3, r3, #33554432	@ 0x2000000
 8001db4:	f443 4300 	orr.w	r3, r3, #32768	@ 0x8000
 8001db8:	6053      	str	r3, [r2, #4]

  /*---------------------------- I2Cx OAR2 Configuration ---------------------*/
  /* Disable Own Address2 before set the Own Address2 configuration */
  hi2c->Instance->OAR2 &= ~I2C_DUALADDRESS_ENABLE;
 8001dba:	6822      	ldr	r2, [r4, #0]
 8001dbc:	68d3      	ldr	r3, [r2, #12]
 8001dbe:	f423 4300 	bic.w	r3, r3, #32768	@ 0x8000
 8001dc2:	60d3      	str	r3, [r2, #12]

  /* Configure I2Cx: Dual mode and Own Address2 */
  hi2c->Instance->OAR2 = (hi2c->Init.DualAddressMode | hi2c->Init.OwnAddress2 | \
 8001dc4:	6923      	ldr	r3, [r4, #16]
 8001dc6:	6962      	ldr	r2, [r4, #20]
 8001dc8:	4313      	orrs	r3, r2
                          (hi2c->Init.OwnAddress2Masks << 8));
 8001dca:	69a1      	ldr	r1, [r4, #24]
  hi2c->Instance->OAR2 = (hi2c->Init.DualAddressMode | hi2c->Init.OwnAddress2 | \
 8001dcc:	6822      	ldr	r2, [r4, #0]
 8001dce:	ea43 2301 	orr.w	r3, r3, r1, lsl #8
 8001dd2:	60d3      	str	r3, [r2, #12]

  /*---------------------------- I2Cx CR1 Configuration ----------------------*/
  /* Configure I2Cx: Generalcall and NoStretch mode */
  hi2c->Instance->CR1 = (hi2c->Init.GeneralCallMode | hi2c->Init.NoStretchMode);
 8001dd4:	69e3      	ldr	r3, [r4, #28]
 8001dd6:	6a21      	ldr	r1, [r4, #32]
 8001dd8:	6822      	ldr	r2, [r4, #0]
 8001dda:	430b      	orrs	r3, r1
 8001ddc:	6013      	str	r3, [r2, #0]

  /* Enable the selected I2C peripheral */
  __HAL_I2C_ENABLE(hi2c);
 8001dde:	6822      	ldr	r2, [r4, #0]
 8001de0:	6813      	ldr	r3, [r2, #0]
 8001de2:	f043 0301 	orr.w	r3, r3, #1
 8001de6:	6013      	str	r3, [r2, #0]

  hi2c->ErrorCode = HAL_I2C_ERROR_NONE;
 8001de8:	2000      	movs	r0, #0
 8001dea:	6460      	str	r0, [r4, #68]	@ 0x44
  hi2c->State = HAL_I2C_STATE_READY;
 8001dec:	2320      	movs	r3, #32
 8001dee:	f884 3041 	strb.w	r3, [r4, #65]	@ 0x41
  hi2c->PreviousState = I2C_STATE_NONE;
 8001df2:	6320      	str	r0, [r4, #48]	@ 0x30
  hi2c->Mode = HAL_I2C_MODE_NONE;
 8001df4:	f884 0042 	strb.w	r0, [r4, #66]	@ 0x42

  return HAL_OK;
}
 8001df8:	bd10      	pop	{r4, pc}
    hi2c->Lock = HAL_UNLOCKED;
 8001dfa:	f880 3040 	strb.w	r3, [r0, #64]	@ 0x40
    HAL_I2C_MspInit(hi2c);
 8001dfe:	f000 f889 	bl	8001f14 <HAL_I2C_MspInit>
 8001e02:	e7b1      	b.n	8001d68 <HAL_I2C_Init+0x10>
    hi2c->Instance->OAR1 = (I2C_OAR1_OA1EN | hi2c->Init.OwnAddress1);
 8001e04:	68a3      	ldr	r3, [r4, #8]
 8001e06:	6822      	ldr	r2, [r4, #0]
 8001e08:	f443 4300 	orr.w	r3, r3, #32768	@ 0x8000
 8001e0c:	6093      	str	r3, [r2, #8]
 8001e0e:	e7c5      	b.n	8001d9c <HAL_I2C_Init+0x44>
    SET_BIT(hi2c->Instance->CR2, I2C_CR2_ADD10);
 8001e10:	6822      	ldr	r2, [r4, #0]
 8001e12:	6853      	ldr	r3, [r2, #4]
 8001e14:	f443 6300 	orr.w	r3, r3, #2048	@ 0x800
 8001e18:	6053      	str	r3, [r2, #4]
 8001e1a:	e7c7      	b.n	8001dac <HAL_I2C_Init+0x54>
    return HAL_ERROR;
 8001e1c:	2001      	movs	r0, #1
}
 8001e1e:	4770      	bx	lr

08001e20 <HAL_I2CEx_ConfigAnalogFilter>:
  *                the configuration information for the specified I2Cx peripheral.
  * @param  AnalogFilter New state of the Analog filter.
  * @retval HAL status
  */
HAL_StatusTypeDef HAL_I2CEx_ConfigAnalogFilter(I2C_HandleTypeDef *hi2c, uint32_t AnalogFilter)
{
 8001e20:	4603      	mov	r3, r0
  /* Check the parameters */
  assert_param(IS_I2C_ALL_INSTANCE(hi2c->Instance));
  assert_param(IS_I2C_ANALOG_FILTER(AnalogFilter));

  if (hi2c->State == HAL_I2C_STATE_READY)
 8001e22:	f890 2041 	ldrb.w	r2, [r0, #65]	@ 0x41
 8001e26:	2a20      	cmp	r2, #32
 8001e28:	d123      	bne.n	8001e72 <HAL_I2CEx_ConfigAnalogFilter+0x52>
  {
    /* Process Locked */
    __HAL_LOCK(hi2c);
 8001e2a:	f890 2040 	ldrb.w	r2, [r0, #64]	@ 0x40
 8001e2e:	2a01      	cmp	r2, #1
 8001e30:	d021      	beq.n	8001e76 <HAL_I2CEx_ConfigAnalogFilter+0x56>
 8001e32:	2201      	movs	r2, #1
 8001e34:	f880 2040 	strb.w	r2, [r0, #64]	@ 0x40

    hi2c->State = HAL_I2C_STATE_BUSY;
 8001e38:	2224      	movs	r2, #36	@ 0x24
 8001e3a:	f880 2041 	strb.w	r2, [r0, #65]	@ 0x41

    /* Disable the selected I2C peripheral */
    __HAL_I2C_DISABLE(hi2c);
 8001e3e:	6800      	ldr	r0, [r0, #0]
 8001e40:	6802      	ldr	r2, [r0, #0]
 8001e42:	f022 0201 	bic.w	r2, r2, #1
 8001e46:	6002      	str	r2, [r0, #0]

    /* Reset I2Cx ANOFF bit */
    hi2c->Instance->CR1 &= ~(I2C_CR1_ANFOFF);
 8001e48:	6818      	ldr	r0, [r3, #0]
 8001e4a:	6802      	ldr	r2, [r0, #0]
 8001e4c:	f422 5280 	bic.w	r2, r2, #4096	@ 0x1000
 8001e50:	6002      	str	r2, [r0, #0]

    /* Set analog filter bit*/
    hi2c->Instance->CR1 |= AnalogFilter;
 8001e52:	6818      	ldr	r0, [r3, #0]
 8001e54:	6802      	ldr	r2, [r0, #0]
 8001e56:	430a      	orrs	r2, r1
 8001e58:	6002      	str	r2, [r0, #0]

    __HAL_I2C_ENABLE(hi2c);
 8001e5a:	6819      	ldr	r1, [r3, #0]
 8001e5c:	680a      	ldr	r2, [r1, #0]
 8001e5e:	f042 0201 	orr.w	r2, r2, #1
 8001e62:	600a      	str	r2, [r1, #0]

    hi2c->State = HAL_I2C_STATE_READY;
 8001e64:	2220      	movs	r2, #32
 8001e66:	f883 2041 	strb.w	r2, [r3, #65]	@ 0x41

    /* Process Unlocked */
    __HAL_UNLOCK(hi2c);
 8001e6a:	2000      	movs	r0, #0
 8001e6c:	f883 0040 	strb.w	r0, [r3, #64]	@ 0x40

    return HAL_OK;
 8001e70:	4770      	bx	lr
  }
  else
  {
    return HAL_BUSY;
 8001e72:	2002      	movs	r0, #2
 8001e74:	4770      	bx	lr
    __HAL_LOCK(hi2c);
 8001e76:	2002      	movs	r0, #2
  }
}
 8001e78:	4770      	bx	lr

08001e7a <HAL_I2CEx_ConfigDigitalFilter>:
  *                the configuration information for the specified I2Cx peripheral.
  * @param  DigitalFilter Coefficient of digital noise filter between Min_Data=0x00 and Max_Data=0x0F.
  * @retval HAL status
  */
HAL_StatusTypeDef HAL_I2CEx_ConfigDigitalFilter(I2C_HandleTypeDef *hi2c, uint32_t DigitalFilter)
{
 8001e7a:	4603      	mov	r3, r0

  /* Check the parameters */
  assert_param(IS_I2C_ALL_INSTANCE(hi2c->Instance));
  assert_param(IS_I2C_DIGITAL_FILTER(DigitalFilter));

  if (hi2c->State == HAL_I2C_STATE_READY)
 8001e7c:	f890 2041 	ldrb.w	r2, [r0, #65]	@ 0x41
 8001e80:	2a20      	cmp	r2, #32
 8001e82:	d121      	bne.n	8001ec8 <HAL_I2CEx_ConfigDigitalFilter+0x4e>
  {
    /* Process Locked */
    __HAL_LOCK(hi2c);
 8001e84:	f890 2040 	ldrb.w	r2, [r0, #64]	@ 0x40
 8001e88:	2a01      	cmp	r2, #1
 8001e8a:	d01f      	beq.n	8001ecc <HAL_I2CEx_ConfigDigitalFilter+0x52>
 8001e8c:	2201      	movs	r2, #1
 8001e8e:	f880 2040 	strb.w	r2, [r0, #64]	@ 0x40

    hi2c->State = HAL_I2C_STATE_BUSY;
 8001e92:	2224      	movs	r2, #36	@ 0x24
 8001e94:	f880 2041 	strb.w	r2, [r0, #65]	@ 0x41

    /* Disable the selected I2C peripheral */
    __HAL_I2C_DISABLE(hi2c);
 8001e98:	6800      	ldr	r0, [r0, #0]
 8001e9a:	6802      	ldr	r2, [r0, #0]
 8001e9c:	f022 0201 	bic.w	r2, r2, #1
 8001ea0:	6002      	str	r2, [r0, #0]

    /* Get the old register value */
    tmpreg = hi2c->Instance->CR1;
 8001ea2:	6818      	ldr	r0, [r3, #0]
 8001ea4:	6802      	ldr	r2, [r0, #0]

    /* Reset I2Cx DNF bits [11:8] */
    tmpreg &= ~(I2C_CR1_DNF);
 8001ea6:	f422 6270 	bic.w	r2, r2, #3840	@ 0xf00

    /* Set I2Cx DNF coefficient */
    tmpreg |= DigitalFilter << 8U;
 8001eaa:	ea42 2201 	orr.w	r2, r2, r1, lsl #8

    /* Store the new register value */
    hi2c->Instance->CR1 = tmpreg;
 8001eae:	6002      	str	r2, [r0, #0]

    __HAL_I2C_ENABLE(hi2c);
 8001eb0:	6819      	ldr	r1, [r3, #0]
 8001eb2:	680a      	ldr	r2, [r1, #0]
 8001eb4:	f042 0201 	orr.w	r2, r2, #1
 8001eb8:	600a      	str	r2, [r1, #0]

    hi2c->State = HAL_I2C_STATE_READY;
 8001eba:	2220      	movs	r2, #32
 8001ebc:	f883 2041 	strb.w	r2, [r3, #65]	@ 0x41

    /* Process Unlocked */
    __HAL_UNLOCK(hi2c);
 8001ec0:	2000      	movs	r0, #0
 8001ec2:	f883 0040 	strb.w	r0, [r3, #64]	@ 0x40

    return HAL_OK;
 8001ec6:	4770      	bx	lr
  }
  else
  {
    return HAL_BUSY;
 8001ec8:	2002      	movs	r0, #2
 8001eca:	4770      	bx	lr
    __HAL_LOCK(hi2c);
 8001ecc:	2002      	movs	r0, #2
  }
}
 8001ece:	4770      	bx	lr

08001ed0 <HAL_MspInit>:
/* USER CODE END 0 */
/**
  * Initializes the Global MSP.
  */
void HAL_MspInit(void)
{
 8001ed0:	b500      	push	{lr}
 8001ed2:	b083      	sub	sp, #12

  /* USER CODE BEGIN MspInit 0 */

  /* USER CODE END MspInit 0 */

  __HAL_RCC_SYSCFG_CLK_ENABLE();
 8001ed4:	4b0e      	ldr	r3, [pc, #56]	@ (8001f10 <HAL_MspInit+0x40>)
 8001ed6:	6e1a      	ldr	r2, [r3, #96]	@ 0x60
 8001ed8:	f042 0201 	orr.w	r2, r2, #1
 8001edc:	661a      	str	r2, [r3, #96]	@ 0x60
 8001ede:	6e1a      	ldr	r2, [r3, #96]	@ 0x60
 8001ee0:	f002 0201 	and.w	r2, r2, #1
 8001ee4:	9200      	str	r2, [sp, #0]
 8001ee6:	9a00      	ldr	r2, [sp, #0]
  __HAL_RCC_PWR_CLK_ENABLE();
 8001ee8:	6d9a      	ldr	r2, [r3, #88]	@ 0x58
 8001eea:	f042 5280 	orr.w	r2, r2, #268435456	@ 0x10000000
 8001eee:	659a      	str	r2, [r3, #88]	@ 0x58
 8001ef0:	6d9b      	ldr	r3, [r3, #88]	@ 0x58
 8001ef2:	f003 5380 	and.w	r3, r3, #268435456	@ 0x10000000
 8001ef6:	9301      	str	r3, [sp, #4]
 8001ef8:	9b01      	ldr	r3, [sp, #4]

  /* System interrupt init*/

  /* Peripheral interrupt init */
  /* RCC_IRQn interrupt configuration */
  HAL_NVIC_SetPriority(RCC_IRQn, 0, 0);
 8001efa:	2200      	movs	r2, #0
 8001efc:	4611      	mov	r1, r2
 8001efe:	2005      	movs	r0, #5
 8001f00:	f7ff fb38 	bl	8001574 <HAL_NVIC_SetPriority>
  HAL_NVIC_EnableIRQ(RCC_IRQn);
 8001f04:	2005      	movs	r0, #5
 8001f06:	f7ff fb45 	bl	8001594 <HAL_NVIC_EnableIRQ>

  /* USER CODE BEGIN MspInit 1 */

  /* USER CODE END MspInit 1 */
}
 8001f0a:	b003      	add	sp, #12
 8001f0c:	bd00      	pop	{pc}
 8001f0e:	bf00      	nop
 8001f10:	40021000 	.word	0x40021000

08001f14 <HAL_I2C_MspInit>:
  * This function configures the hardware resources used in this example
  * @param hi2c: I2C handle pointer
  * @retval None
  */
void HAL_I2C_MspInit(I2C_HandleTypeDef* hi2c)
{
 8001f14:	b510      	push	{r4, lr}
 8001f16:	b0aa      	sub	sp, #168	@ 0xa8
 8001f18:	4604      	mov	r4, r0
  GPIO_InitTypeDef GPIO_InitStruct = {0};
 8001f1a:	2100      	movs	r1, #0
 8001f1c:	9125      	str	r1, [sp, #148]	@ 0x94
 8001f1e:	9126      	str	r1, [sp, #152]	@ 0x98
 8001f20:	9127      	str	r1, [sp, #156]	@ 0x9c
 8001f22:	9128      	str	r1, [sp, #160]	@ 0xa0
 8001f24:	9129      	str	r1, [sp, #164]	@ 0xa4
  RCC_PeriphCLKInitTypeDef PeriphClkInit = {0};
 8001f26:	2288      	movs	r2, #136	@ 0x88
 8001f28:	a803      	add	r0, sp, #12
 8001f2a:	f004 fe23 	bl	8006b74 <memset>
  if(hi2c->Instance==I2C2)
 8001f2e:	6822      	ldr	r2, [r4, #0]
 8001f30:	4b18      	ldr	r3, [pc, #96]	@ (8001f94 <HAL_I2C_MspInit+0x80>)
 8001f32:	429a      	cmp	r2, r3
 8001f34:	d001      	beq.n	8001f3a <HAL_I2C_MspInit+0x26>

    /* USER CODE END I2C2_MspInit 1 */

  }

}
 8001f36:	b02a      	add	sp, #168	@ 0xa8
 8001f38:	bd10      	pop	{r4, pc}
    PeriphClkInit.PeriphClockSelection = RCC_PERIPHCLK_I2C2;
 8001f3a:	2380      	movs	r3, #128	@ 0x80
 8001f3c:	9303      	str	r3, [sp, #12]
    if (HAL_RCCEx_PeriphCLKConfig(&PeriphClkInit) != HAL_OK)
 8001f3e:	a803      	add	r0, sp, #12
 8001f40:	f001 f9c6 	bl	80032d0 <HAL_RCCEx_PeriphCLKConfig>
 8001f44:	bb10      	cbnz	r0, 8001f8c <HAL_I2C_MspInit+0x78>
    __HAL_RCC_GPIOB_CLK_ENABLE();
 8001f46:	4c14      	ldr	r4, [pc, #80]	@ (8001f98 <HAL_I2C_MspInit+0x84>)
 8001f48:	6ce3      	ldr	r3, [r4, #76]	@ 0x4c
 8001f4a:	f043 0302 	orr.w	r3, r3, #2
 8001f4e:	64e3      	str	r3, [r4, #76]	@ 0x4c
 8001f50:	6ce3      	ldr	r3, [r4, #76]	@ 0x4c
 8001f52:	f003 0302 	and.w	r3, r3, #2
 8001f56:	9301      	str	r3, [sp, #4]
 8001f58:	9b01      	ldr	r3, [sp, #4]
    GPIO_InitStruct.Pin = GPIO_PIN_13|GPIO_PIN_14;
 8001f5a:	f44f 43c0 	mov.w	r3, #24576	@ 0x6000
 8001f5e:	9325      	str	r3, [sp, #148]	@ 0x94
    GPIO_InitStruct.Mode = GPIO_MODE_AF_OD;
 8001f60:	2312      	movs	r3, #18
 8001f62:	9326      	str	r3, [sp, #152]	@ 0x98
    GPIO_InitStruct.Pull = GPIO_NOPULL;
 8001f64:	2300      	movs	r3, #0
 8001f66:	9327      	str	r3, [sp, #156]	@ 0x9c
    GPIO_InitStruct.Speed = GPIO_SPEED_FREQ_VERY_HIGH;
 8001f68:	2303      	movs	r3, #3
 8001f6a:	9328      	str	r3, [sp, #160]	@ 0xa0
    GPIO_InitStruct.Alternate = GPIO_AF4_I2C2;
 8001f6c:	2304      	movs	r3, #4
 8001f6e:	9329      	str	r3, [sp, #164]	@ 0xa4
    HAL_GPIO_Init(GPIOB, &GPIO_InitStruct);
 8001f70:	a925      	add	r1, sp, #148	@ 0x94
 8001f72:	480a      	ldr	r0, [pc, #40]	@ (8001f9c <HAL_I2C_MspInit+0x88>)
 8001f74:	f7ff fd36 	bl	80019e4 <HAL_GPIO_Init>
    __HAL_RCC_I2C2_CLK_ENABLE();
 8001f78:	6da3      	ldr	r3, [r4, #88]	@ 0x58
 8001f7a:	f443 0380 	orr.w	r3, r3, #4194304	@ 0x400000
 8001f7e:	65a3      	str	r3, [r4, #88]	@ 0x58
 8001f80:	6da3      	ldr	r3, [r4, #88]	@ 0x58
 8001f82:	f403 0380 	and.w	r3, r3, #4194304	@ 0x400000
 8001f86:	9302      	str	r3, [sp, #8]
 8001f88:	9b02      	ldr	r3, [sp, #8]
}
 8001f8a:	e7d4      	b.n	8001f36 <HAL_I2C_MspInit+0x22>
      Error_Handler();
 8001f8c:	f7fe fe5a 	bl	8000c44 <Error_Handler>
 8001f90:	e7d9      	b.n	8001f46 <HAL_I2C_MspInit+0x32>
 8001f92:	bf00      	nop
 8001f94:	40005800 	.word	0x40005800
 8001f98:	40021000 	.word	0x40021000
 8001f9c:	48000400 	.word	0x48000400

08001fa0 <HAL_UART_MspInit>:
  * This function configures the hardware resources used in this example
  * @param huart: UART handle pointer
  * @retval None
  */
void HAL_UART_MspInit(UART_HandleTypeDef* huart)
{
 8001fa0:	b570      	push	{r4, r5, r6, lr}
 8001fa2:	b0b0      	sub	sp, #192	@ 0xc0
 8001fa4:	4604      	mov	r4, r0
 8001fa6:	4606      	mov	r6, r0
  GPIO_InitTypeDef GPIO_InitStruct = {0};
 8001fa8:	2100      	movs	r1, #0
 8001faa:	912b      	str	r1, [sp, #172]	@ 0xac
 8001fac:	912c      	str	r1, [sp, #176]	@ 0xb0
 8001fae:	912d      	str	r1, [sp, #180]	@ 0xb4
 8001fb0:	912e      	str	r1, [sp, #184]	@ 0xb8
 8001fb2:	912f      	str	r1, [sp, #188]	@ 0xbc
  RCC_PeriphCLKInitTypeDef PeriphClkInit = {0};
 8001fb4:	2288      	movs	r2, #136	@ 0x88
 8001fb6:	a809      	add	r0, sp, #36	@ 0x24
 8001fb8:	f004 fddc 	bl	8006b74 <memset>
  if(huart->Instance==LPUART1)
 8001fbc:	6823      	ldr	r3, [r4, #0]
 8001fbe:	4a79      	ldr	r2, [pc, #484]	@ (80021a4 <HAL_UART_MspInit+0x204>)
 8001fc0:	4293      	cmp	r3, r2
 8001fc2:	d00c      	beq.n	8001fde <HAL_UART_MspInit+0x3e>
    HAL_NVIC_EnableIRQ(LPUART1_IRQn);
    /* USER CODE BEGIN LPUART1_MspInit 1 */

    /* USER CODE END LPUART1_MspInit 1 */
  }
  else if(huart->Instance==USART1)
 8001fc4:	4a78      	ldr	r2, [pc, #480]	@ (80021a8 <HAL_UART_MspInit+0x208>)
 8001fc6:	4293      	cmp	r3, r2
 8001fc8:	d03e      	beq.n	8002048 <HAL_UART_MspInit+0xa8>
    HAL_NVIC_EnableIRQ(USART1_IRQn);
    /* USER CODE BEGIN USART1_MspInit 1 */

    /* USER CODE END USART1_MspInit 1 */
  }
  else if(huart->Instance==USART2)
 8001fca:	4a78      	ldr	r2, [pc, #480]	@ (80021ac <HAL_UART_MspInit+0x20c>)
 8001fcc:	4293      	cmp	r3, r2
 8001fce:	f000 8089 	beq.w	80020e4 <HAL_UART_MspInit+0x144>
    HAL_NVIC_EnableIRQ(USART2_IRQn);
    /* USER CODE BEGIN USART2_MspInit 1 */

    /* USER CODE END USART2_MspInit 1 */
  }
  else if(huart->Instance==USART3)
 8001fd2:	4a77      	ldr	r2, [pc, #476]	@ (80021b0 <HAL_UART_MspInit+0x210>)
 8001fd4:	4293      	cmp	r3, r2
 8001fd6:	f000 80b9 	beq.w	800214c <HAL_UART_MspInit+0x1ac>
    /* USER CODE BEGIN USART3_MspInit 1 */

    /* USER CODE END USART3_MspInit 1 */
  }

}
 8001fda:	b030      	add	sp, #192	@ 0xc0
 8001fdc:	bd70      	pop	{r4, r5, r6, pc}
    PeriphClkInit.PeriphClockSelection = RCC_PERIPHCLK_LPUART1;
 8001fde:	2320      	movs	r3, #32
 8001fe0:	9309      	str	r3, [sp, #36]	@ 0x24
    PeriphClkInit.Lpuart1ClockSelection = RCC_LPUART1CLKSOURCE_HSI;
 8001fe2:	f44f 6300 	mov.w	r3, #2048	@ 0x800
 8001fe6:	931c      	str	r3, [sp, #112]	@ 0x70
    if (HAL_RCCEx_PeriphCLKConfig(&PeriphClkInit) != HAL_OK)
 8001fe8:	a809      	add	r0, sp, #36	@ 0x24
 8001fea:	f001 f971 	bl	80032d0 <HAL_RCCEx_PeriphCLKConfig>
 8001fee:	bb40      	cbnz	r0, 8002042 <HAL_UART_MspInit+0xa2>
    __HAL_RCC_LPUART1_CLK_ENABLE();
 8001ff0:	4b70      	ldr	r3, [pc, #448]	@ (80021b4 <HAL_UART_MspInit+0x214>)
 8001ff2:	6dda      	ldr	r2, [r3, #92]	@ 0x5c
 8001ff4:	f042 0201 	orr.w	r2, r2, #1
 8001ff8:	65da      	str	r2, [r3, #92]	@ 0x5c
 8001ffa:	6dda      	ldr	r2, [r3, #92]	@ 0x5c
 8001ffc:	f002 0201 	and.w	r2, r2, #1
 8002000:	9201      	str	r2, [sp, #4]
 8002002:	9a01      	ldr	r2, [sp, #4]
    __HAL_RCC_GPIOC_CLK_ENABLE();
 8002004:	6cda      	ldr	r2, [r3, #76]	@ 0x4c
 8002006:	f042 0204 	orr.w	r2, r2, #4
 800200a:	64da      	str	r2, [r3, #76]	@ 0x4c
 800200c:	6cdb      	ldr	r3, [r3, #76]	@ 0x4c
 800200e:	f003 0304 	and.w	r3, r3, #4
 8002012:	9302      	str	r3, [sp, #8]
 8002014:	9b02      	ldr	r3, [sp, #8]
    GPIO_InitStruct.Pin = L0_LPUART1_RX_Pin|L0_LPUART1_TX_Pin;
 8002016:	2303      	movs	r3, #3
 8002018:	932b      	str	r3, [sp, #172]	@ 0xac
    GPIO_InitStruct.Mode = GPIO_MODE_AF_PP;
 800201a:	2202      	movs	r2, #2
 800201c:	922c      	str	r2, [sp, #176]	@ 0xb0
    GPIO_InitStruct.Pull = GPIO_NOPULL;
 800201e:	2200      	movs	r2, #0
 8002020:	922d      	str	r2, [sp, #180]	@ 0xb4
    GPIO_InitStruct.Speed = GPIO_SPEED_FREQ_VERY_HIGH;
 8002022:	932e      	str	r3, [sp, #184]	@ 0xb8
    GPIO_InitStruct.Alternate = GPIO_AF8_LPUART1;
 8002024:	2308      	movs	r3, #8
 8002026:	932f      	str	r3, [sp, #188]	@ 0xbc
    HAL_GPIO_Init(GPIOC, &GPIO_InitStruct);
 8002028:	a92b      	add	r1, sp, #172	@ 0xac
 800202a:	4863      	ldr	r0, [pc, #396]	@ (80021b8 <HAL_UART_MspInit+0x218>)
 800202c:	f7ff fcda 	bl	80019e4 <HAL_GPIO_Init>
    HAL_NVIC_SetPriority(LPUART1_IRQn, 0, 0);
 8002030:	2200      	movs	r2, #0
 8002032:	4611      	mov	r1, r2
 8002034:	2046      	movs	r0, #70	@ 0x46
 8002036:	f7ff fa9d 	bl	8001574 <HAL_NVIC_SetPriority>
    HAL_NVIC_EnableIRQ(LPUART1_IRQn);
 800203a:	2046      	movs	r0, #70	@ 0x46
 800203c:	f7ff faaa 	bl	8001594 <HAL_NVIC_EnableIRQ>
 8002040:	e7cb      	b.n	8001fda <HAL_UART_MspInit+0x3a>
      Error_Handler();
 8002042:	f7fe fdff 	bl	8000c44 <Error_Handler>
 8002046:	e7d3      	b.n	8001ff0 <HAL_UART_MspInit+0x50>
    PeriphClkInit.PeriphClockSelection = RCC_PERIPHCLK_USART1;
 8002048:	2301      	movs	r3, #1
 800204a:	9309      	str	r3, [sp, #36]	@ 0x24
    if (HAL_RCCEx_PeriphCLKConfig(&PeriphClkInit) != HAL_OK)
 800204c:	a809      	add	r0, sp, #36	@ 0x24
 800204e:	f001 f93f 	bl	80032d0 <HAL_RCCEx_PeriphCLKConfig>
 8002052:	2800      	cmp	r0, #0
 8002054:	d140      	bne.n	80020d8 <HAL_UART_MspInit+0x138>
    __HAL_RCC_USART1_CLK_ENABLE();
 8002056:	4b57      	ldr	r3, [pc, #348]	@ (80021b4 <HAL_UART_MspInit+0x214>)
 8002058:	6e1a      	ldr	r2, [r3, #96]	@ 0x60
 800205a:	f442 4280 	orr.w	r2, r2, #16384	@ 0x4000
 800205e:	661a      	str	r2, [r3, #96]	@ 0x60
 8002060:	6e1a      	ldr	r2, [r3, #96]	@ 0x60
 8002062:	f402 4280 	and.w	r2, r2, #16384	@ 0x4000
 8002066:	9203      	str	r2, [sp, #12]
 8002068:	9a03      	ldr	r2, [sp, #12]
    __HAL_RCC_GPIOA_CLK_ENABLE();
 800206a:	6cda      	ldr	r2, [r3, #76]	@ 0x4c
 800206c:	f042 0201 	orr.w	r2, r2, #1
 8002070:	64da      	str	r2, [r3, #76]	@ 0x4c
 8002072:	6cdb      	ldr	r3, [r3, #76]	@ 0x4c
 8002074:	f003 0301 	and.w	r3, r3, #1
 8002078:	9304      	str	r3, [sp, #16]
 800207a:	9b04      	ldr	r3, [sp, #16]
    GPIO_InitStruct.Pin = D_USART_RX_Pin|D_USART_TX_Pin;
 800207c:	f44f 63c0 	mov.w	r3, #1536	@ 0x600
 8002080:	932b      	str	r3, [sp, #172]	@ 0xac
    GPIO_InitStruct.Mode = GPIO_MODE_AF_PP;
 8002082:	2502      	movs	r5, #2
 8002084:	952c      	str	r5, [sp, #176]	@ 0xb0
    GPIO_InitStruct.Pull = GPIO_NOPULL;
 8002086:	2400      	movs	r4, #0
 8002088:	942d      	str	r4, [sp, #180]	@ 0xb4
    GPIO_InitStruct.Speed = GPIO_SPEED_FREQ_VERY_HIGH;
 800208a:	2303      	movs	r3, #3
 800208c:	932e      	str	r3, [sp, #184]	@ 0xb8
    GPIO_InitStruct.Alternate = GPIO_AF7_USART1;
 800208e:	2307      	movs	r3, #7
 8002090:	932f      	str	r3, [sp, #188]	@ 0xbc
    HAL_GPIO_Init(GPIOA, &GPIO_InitStruct);
 8002092:	a92b      	add	r1, sp, #172	@ 0xac
 8002094:	f04f 4090 	mov.w	r0, #1207959552	@ 0x48000000
 8002098:	f7ff fca4 	bl	80019e4 <HAL_GPIO_Init>
    hdma_usart1_rx.Instance = DMA1_Channel5;
 800209c:	4847      	ldr	r0, [pc, #284]	@ (80021bc <HAL_UART_MspInit+0x21c>)
 800209e:	4b48      	ldr	r3, [pc, #288]	@ (80021c0 <HAL_UART_MspInit+0x220>)
 80020a0:	6003      	str	r3, [r0, #0]
    hdma_usart1_rx.Init.Request = DMA_REQUEST_2;
 80020a2:	6045      	str	r5, [r0, #4]
    hdma_usart1_rx.Init.Direction = DMA_PERIPH_TO_MEMORY;
 80020a4:	6084      	str	r4, [r0, #8]
    hdma_usart1_rx.Init.PeriphInc = DMA_PINC_DISABLE;
 80020a6:	60c4      	str	r4, [r0, #12]
    hdma_usart1_rx.Init.MemInc = DMA_MINC_ENABLE;
 80020a8:	2380      	movs	r3, #128	@ 0x80
 80020aa:	6103      	str	r3, [r0, #16]
    hdma_usart1_rx.Init.PeriphDataAlignment = DMA_PDATAALIGN_BYTE;
 80020ac:	6144      	str	r4, [r0, #20]
    hdma_usart1_rx.Init.MemDataAlignment = DMA_MDATAALIGN_BYTE;
 80020ae:	6184      	str	r4, [r0, #24]
    hdma_usart1_rx.Init.Mode = DMA_CIRCULAR;
 80020b0:	2320      	movs	r3, #32
 80020b2:	61c3      	str	r3, [r0, #28]
    hdma_usart1_rx.Init.Priority = DMA_PRIORITY_HIGH;
 80020b4:	f44f 5300 	mov.w	r3, #8192	@ 0x2000
 80020b8:	6203      	str	r3, [r0, #32]
    if (HAL_DMA_Init(&hdma_usart1_rx) != HAL_OK)
 80020ba:	f7ff faa1 	bl	8001600 <HAL_DMA_Init>
 80020be:	b970      	cbnz	r0, 80020de <HAL_UART_MspInit+0x13e>
    __HAL_LINKDMA(huart,hdmarx,hdma_usart1_rx);
 80020c0:	4b3e      	ldr	r3, [pc, #248]	@ (80021bc <HAL_UART_MspInit+0x21c>)
 80020c2:	6773      	str	r3, [r6, #116]	@ 0x74
 80020c4:	629e      	str	r6, [r3, #40]	@ 0x28
    HAL_NVIC_SetPriority(USART1_IRQn, 0, 0);
 80020c6:	2200      	movs	r2, #0
 80020c8:	4611      	mov	r1, r2
 80020ca:	2025      	movs	r0, #37	@ 0x25
 80020cc:	f7ff fa52 	bl	8001574 <HAL_NVIC_SetPriority>
    HAL_NVIC_EnableIRQ(USART1_IRQn);
 80020d0:	2025      	movs	r0, #37	@ 0x25
 80020d2:	f7ff fa5f 	bl	8001594 <HAL_NVIC_EnableIRQ>
 80020d6:	e780      	b.n	8001fda <HAL_UART_MspInit+0x3a>
      Error_Handler();
 80020d8:	f7fe fdb4 	bl	8000c44 <Error_Handler>
 80020dc:	e7bb      	b.n	8002056 <HAL_UART_MspInit+0xb6>
      Error_Handler();
 80020de:	f7fe fdb1 	bl	8000c44 <Error_Handler>
 80020e2:	e7ed      	b.n	80020c0 <HAL_UART_MspInit+0x120>
    PeriphClkInit.PeriphClockSelection = RCC_PERIPHCLK_USART2;
 80020e4:	2302      	movs	r3, #2
 80020e6:	9309      	str	r3, [sp, #36]	@ 0x24
    if (HAL_RCCEx_PeriphCLKConfig(&PeriphClkInit) != HAL_OK)
 80020e8:	a809      	add	r0, sp, #36	@ 0x24
 80020ea:	f001 f8f1 	bl	80032d0 <HAL_RCCEx_PeriphCLKConfig>
 80020ee:	bb50      	cbnz	r0, 8002146 <HAL_UART_MspInit+0x1a6>
    __HAL_RCC_USART2_CLK_ENABLE();
 80020f0:	4b30      	ldr	r3, [pc, #192]	@ (80021b4 <HAL_UART_MspInit+0x214>)
 80020f2:	6d9a      	ldr	r2, [r3, #88]	@ 0x58
 80020f4:	f442 3200 	orr.w	r2, r2, #131072	@ 0x20000
 80020f8:	659a      	str	r2, [r3, #88]	@ 0x58
 80020fa:	6d9a      	ldr	r2, [r3, #88]	@ 0x58
 80020fc:	f402 3200 	and.w	r2, r2, #131072	@ 0x20000
 8002100:	9205      	str	r2, [sp, #20]
 8002102:	9a05      	ldr	r2, [sp, #20]
    __HAL_RCC_GPIOA_CLK_ENABLE();
 8002104:	6cda      	ldr	r2, [r3, #76]	@ 0x4c
 8002106:	f042 0201 	orr.w	r2, r2, #1
 800210a:	64da      	str	r2, [r3, #76]	@ 0x4c
 800210c:	6cdb      	ldr	r3, [r3, #76]	@ 0x4c
 800210e:	f003 0301 	and.w	r3, r3, #1
 8002112:	9306      	str	r3, [sp, #24]
 8002114:	9b06      	ldr	r3, [sp, #24]
    GPIO_InitStruct.Pin = Wi_USART2_TX_Pin|Wi_USART2_RX_Pin;
 8002116:	230c      	movs	r3, #12
 8002118:	932b      	str	r3, [sp, #172]	@ 0xac
    GPIO_InitStruct.Mode = GPIO_MODE_AF_PP;
 800211a:	2302      	movs	r3, #2
 800211c:	932c      	str	r3, [sp, #176]	@ 0xb0
    GPIO_InitStruct.Pull = GPIO_NOPULL;
 800211e:	2300      	movs	r3, #0
 8002120:	932d      	str	r3, [sp, #180]	@ 0xb4
    GPIO_InitStruct.Speed = GPIO_SPEED_FREQ_VERY_HIGH;
 8002122:	2303      	movs	r3, #3
 8002124:	932e      	str	r3, [sp, #184]	@ 0xb8
    GPIO_InitStruct.Alternate = GPIO_AF7_USART2;
 8002126:	2307      	movs	r3, #7
 8002128:	932f      	str	r3, [sp, #188]	@ 0xbc
    HAL_GPIO_Init(GPIOA, &GPIO_InitStruct);
 800212a:	a92b      	add	r1, sp, #172	@ 0xac
 800212c:	f04f 4090 	mov.w	r0, #1207959552	@ 0x48000000
 8002130:	f7ff fc58 	bl	80019e4 <HAL_GPIO_Init>
    HAL_NVIC_SetPriority(USART2_IRQn, 0, 0);
 8002134:	2200      	movs	r2, #0
 8002136:	4611      	mov	r1, r2
 8002138:	2026      	movs	r0, #38	@ 0x26
 800213a:	f7ff fa1b 	bl	8001574 <HAL_NVIC_SetPriority>
    HAL_NVIC_EnableIRQ(USART2_IRQn);
 800213e:	2026      	movs	r0, #38	@ 0x26
 8002140:	f7ff fa28 	bl	8001594 <HAL_NVIC_EnableIRQ>
 8002144:	e749      	b.n	8001fda <HAL_UART_MspInit+0x3a>
      Error_Handler();
 8002146:	f7fe fd7d 	bl	8000c44 <Error_Handler>
 800214a:	e7d1      	b.n	80020f0 <HAL_UART_MspInit+0x150>
    PeriphClkInit.PeriphClockSelection = RCC_PERIPHCLK_USART3;
 800214c:	2304      	movs	r3, #4
 800214e:	9309      	str	r3, [sp, #36]	@ 0x24
    if (HAL_RCCEx_PeriphCLKConfig(&PeriphClkInit) != HAL_OK)
 8002150:	a809      	add	r0, sp, #36	@ 0x24
 8002152:	f001 f8bd 	bl	80032d0 <HAL_RCCEx_PeriphCLKConfig>
 8002156:	bb08      	cbnz	r0, 800219c <HAL_UART_MspInit+0x1fc>
    __HAL_RCC_USART3_CLK_ENABLE();
 8002158:	4b16      	ldr	r3, [pc, #88]	@ (80021b4 <HAL_UART_MspInit+0x214>)
 800215a:	6d9a      	ldr	r2, [r3, #88]	@ 0x58
 800215c:	f442 2280 	orr.w	r2, r2, #262144	@ 0x40000
 8002160:	659a      	str	r2, [r3, #88]	@ 0x58
 8002162:	6d9a      	ldr	r2, [r3, #88]	@ 0x58
 8002164:	f402 2280 	and.w	r2, r2, #262144	@ 0x40000
 8002168:	9207      	str	r2, [sp, #28]
 800216a:	9a07      	ldr	r2, [sp, #28]
    __HAL_RCC_GPIOC_CLK_ENABLE();
 800216c:	6cda      	ldr	r2, [r3, #76]	@ 0x4c
 800216e:	f042 0204 	orr.w	r2, r2, #4
 8002172:	64da      	str	r2, [r3, #76]	@ 0x4c
 8002174:	6cdb      	ldr	r3, [r3, #76]	@ 0x4c
 8002176:	f003 0304 	and.w	r3, r3, #4
 800217a:	9308      	str	r3, [sp, #32]
 800217c:	9b08      	ldr	r3, [sp, #32]
    GPIO_InitStruct.Pin = Wi_USART3_TX_Pin|Wi_USART3_RX_Pin;
 800217e:	2330      	movs	r3, #48	@ 0x30
 8002180:	932b      	str	r3, [sp, #172]	@ 0xac
    GPIO_InitStruct.Mode = GPIO_MODE_AF_PP;
 8002182:	2302      	movs	r3, #2
 8002184:	932c      	str	r3, [sp, #176]	@ 0xb0
    GPIO_InitStruct.Pull = GPIO_NOPULL;
 8002186:	2300      	movs	r3, #0
 8002188:	932d      	str	r3, [sp, #180]	@ 0xb4
    GPIO_InitStruct.Speed = GPIO_SPEED_FREQ_VERY_HIGH;
 800218a:	2303      	movs	r3, #3
 800218c:	932e      	str	r3, [sp, #184]	@ 0xb8
    GPIO_InitStruct.Alternate = GPIO_AF7_USART3;
 800218e:	2307      	movs	r3, #7
 8002190:	932f      	str	r3, [sp, #188]	@ 0xbc
    HAL_GPIO_Init(GPIOC, &GPIO_InitStruct);
 8002192:	a92b      	add	r1, sp, #172	@ 0xac
 8002194:	4808      	ldr	r0, [pc, #32]	@ (80021b8 <HAL_UART_MspInit+0x218>)
 8002196:	f7ff fc25 	bl	80019e4 <HAL_GPIO_Init>
}
 800219a:	e71e      	b.n	8001fda <HAL_UART_MspInit+0x3a>
      Error_Handler();
 800219c:	f7fe fd52 	bl	8000c44 <Error_Handler>
 80021a0:	e7da      	b.n	8002158 <HAL_UART_MspInit+0x1b8>
 80021a2:	bf00      	nop
 80021a4:	40008000 	.word	0x40008000
 80021a8:	40013800 	.word	0x40013800
 80021ac:	40004400 	.word	0x40004400
 80021b0:	40004800 	.word	0x40004800
 80021b4:	40021000 	.word	0x40021000
 80021b8:	48000800 	.word	0x48000800
 80021bc:	20010ebc 	.word	0x20010ebc
 80021c0:	40020058 	.word	0x40020058

080021c4 <HAL_RTC_MspInit>:
  * This function configures the hardware resources used in this example
  * @param hrtc: RTC handle pointer
  * @retval None
  */
void HAL_RTC_MspInit(RTC_HandleTypeDef* hrtc)
{
 80021c4:	b510      	push	{r4, lr}
 80021c6:	b0a2      	sub	sp, #136	@ 0x88
 80021c8:	4604      	mov	r4, r0
  RCC_PeriphCLKInitTypeDef PeriphClkInit = {0};
 80021ca:	2288      	movs	r2, #136	@ 0x88
 80021cc:	2100      	movs	r1, #0
 80021ce:	4668      	mov	r0, sp
 80021d0:	f004 fcd0 	bl	8006b74 <memset>
  if(hrtc->Instance==RTC)
 80021d4:	6822      	ldr	r2, [r4, #0]
 80021d6:	4b11      	ldr	r3, [pc, #68]	@ (800221c <HAL_RTC_MspInit+0x58>)
 80021d8:	429a      	cmp	r2, r3
 80021da:	d001      	beq.n	80021e0 <HAL_RTC_MspInit+0x1c>

    /* USER CODE END RTC_MspInit 1 */

  }

}
 80021dc:	b022      	add	sp, #136	@ 0x88
 80021de:	bd10      	pop	{r4, pc}
    PeriphClkInit.PeriphClockSelection = RCC_PERIPHCLK_RTC;
 80021e0:	f44f 3300 	mov.w	r3, #131072	@ 0x20000
 80021e4:	9300      	str	r3, [sp, #0]
    PeriphClkInit.RTCClockSelection = RCC_RTCCLKSOURCE_LSI;
 80021e6:	f44f 7300 	mov.w	r3, #512	@ 0x200
 80021ea:	9321      	str	r3, [sp, #132]	@ 0x84
    if (HAL_RCCEx_PeriphCLKConfig(&PeriphClkInit) != HAL_OK)
 80021ec:	4668      	mov	r0, sp
 80021ee:	f001 f86f 	bl	80032d0 <HAL_RCCEx_PeriphCLKConfig>
 80021f2:	b978      	cbnz	r0, 8002214 <HAL_RTC_MspInit+0x50>
    __HAL_RCC_RTC_ENABLE();
 80021f4:	4a0a      	ldr	r2, [pc, #40]	@ (8002220 <HAL_RTC_MspInit+0x5c>)
 80021f6:	f8d2 3090 	ldr.w	r3, [r2, #144]	@ 0x90
 80021fa:	f443 4300 	orr.w	r3, r3, #32768	@ 0x8000
 80021fe:	f8c2 3090 	str.w	r3, [r2, #144]	@ 0x90
    HAL_NVIC_SetPriority(RTC_WKUP_IRQn, 0, 0);
 8002202:	2200      	movs	r2, #0
 8002204:	4611      	mov	r1, r2
 8002206:	2003      	movs	r0, #3
 8002208:	f7ff f9b4 	bl	8001574 <HAL_NVIC_SetPriority>
    HAL_NVIC_EnableIRQ(RTC_WKUP_IRQn);
 800220c:	2003      	movs	r0, #3
 800220e:	f7ff f9c1 	bl	8001594 <HAL_NVIC_EnableIRQ>
}
 8002212:	e7e3      	b.n	80021dc <HAL_RTC_MspInit+0x18>
      Error_Handler();
 8002214:	f7fe fd16 	bl	8000c44 <Error_Handler>
 8002218:	e7ec      	b.n	80021f4 <HAL_RTC_MspInit+0x30>
 800221a:	bf00      	nop
 800221c:	40002800 	.word	0x40002800
 8002220:	40021000 	.word	0x40021000

08002224 <HAL_SD_MspInit>:
  * This function configures the hardware resources used in this example
  * @param hsd: SD handle pointer
  * @retval None
  */
void HAL_SD_MspInit(SD_HandleTypeDef* hsd)
{
 8002224:	b5f0      	push	{r4, r5, r6, r7, lr}
 8002226:	b0ab      	sub	sp, #172	@ 0xac
 8002228:	4604      	mov	r4, r0
  GPIO_InitTypeDef GPIO_InitStruct = {0};
 800222a:	2100      	movs	r1, #0
 800222c:	9125      	str	r1, [sp, #148]	@ 0x94
 800222e:	9126      	str	r1, [sp, #152]	@ 0x98
 8002230:	9127      	str	r1, [sp, #156]	@ 0x9c
 8002232:	9128      	str	r1, [sp, #160]	@ 0xa0
 8002234:	9129      	str	r1, [sp, #164]	@ 0xa4
  RCC_PeriphCLKInitTypeDef PeriphClkInit = {0};
 8002236:	2288      	movs	r2, #136	@ 0x88
 8002238:	a803      	add	r0, sp, #12
 800223a:	f004 fc9b 	bl	8006b74 <memset>
  if(hsd->Instance==SDMMC1)
 800223e:	6822      	ldr	r2, [r4, #0]
 8002240:	4b4c      	ldr	r3, [pc, #304]	@ (8002374 <HAL_SD_MspInit+0x150>)
 8002242:	429a      	cmp	r2, r3
 8002244:	d001      	beq.n	800224a <HAL_SD_MspInit+0x26>

    /* USER CODE END SDMMC1_MspInit 1 */

  }

}
 8002246:	b02b      	add	sp, #172	@ 0xac
 8002248:	bdf0      	pop	{r4, r5, r6, r7, pc}
    PeriphClkInit.PeriphClockSelection = RCC_PERIPHCLK_SDMMC1;
 800224a:	f44f 2300 	mov.w	r3, #524288	@ 0x80000
 800224e:	9303      	str	r3, [sp, #12]
    PeriphClkInit.Sdmmc1ClockSelection = RCC_SDMMC1CLKSOURCE_PLLSAI1;
 8002250:	f04f 6380 	mov.w	r3, #67108864	@ 0x4000000
 8002254:	931f      	str	r3, [sp, #124]	@ 0x7c
    PeriphClkInit.PLLSAI1.PLLSAI1Source = RCC_PLLSOURCE_MSI;
 8002256:	2301      	movs	r3, #1
 8002258:	9304      	str	r3, [sp, #16]
    PeriphClkInit.PLLSAI1.PLLSAI1M = 1;
 800225a:	9305      	str	r3, [sp, #20]
    PeriphClkInit.PLLSAI1.PLLSAI1N = 24;
 800225c:	2318      	movs	r3, #24
 800225e:	9306      	str	r3, [sp, #24]
    PeriphClkInit.PLLSAI1.PLLSAI1P = RCC_PLLP_DIV7;
 8002260:	2307      	movs	r3, #7
 8002262:	9307      	str	r3, [sp, #28]
    PeriphClkInit.PLLSAI1.PLLSAI1Q = RCC_PLLQ_DIV2;
 8002264:	2302      	movs	r3, #2
 8002266:	9308      	str	r3, [sp, #32]
    PeriphClkInit.PLLSAI1.PLLSAI1R = RCC_PLLR_DIV2;
 8002268:	9309      	str	r3, [sp, #36]	@ 0x24
    PeriphClkInit.PLLSAI1.PLLSAI1ClockOut = RCC_PLLSAI1_48M2CLK;
 800226a:	f44f 1380 	mov.w	r3, #1048576	@ 0x100000
 800226e:	930a      	str	r3, [sp, #40]	@ 0x28
    if (HAL_RCCEx_PeriphCLKConfig(&PeriphClkInit) != HAL_OK)
 8002270:	a803      	add	r0, sp, #12
 8002272:	f001 f82d 	bl	80032d0 <HAL_RCCEx_PeriphCLKConfig>
 8002276:	2800      	cmp	r0, #0
 8002278:	d172      	bne.n	8002360 <HAL_SD_MspInit+0x13c>
    __HAL_RCC_SDMMC1_CLK_ENABLE();
 800227a:	4b3f      	ldr	r3, [pc, #252]	@ (8002378 <HAL_SD_MspInit+0x154>)
 800227c:	6e1a      	ldr	r2, [r3, #96]	@ 0x60
 800227e:	f442 6280 	orr.w	r2, r2, #1024	@ 0x400
 8002282:	661a      	str	r2, [r3, #96]	@ 0x60
 8002284:	6e1a      	ldr	r2, [r3, #96]	@ 0x60
 8002286:	f402 6280 	and.w	r2, r2, #1024	@ 0x400
 800228a:	9200      	str	r2, [sp, #0]
 800228c:	9a00      	ldr	r2, [sp, #0]
    __HAL_RCC_GPIOC_CLK_ENABLE();
 800228e:	6cda      	ldr	r2, [r3, #76]	@ 0x4c
 8002290:	f042 0204 	orr.w	r2, r2, #4
 8002294:	64da      	str	r2, [r3, #76]	@ 0x4c
 8002296:	6cda      	ldr	r2, [r3, #76]	@ 0x4c
 8002298:	f002 0204 	and.w	r2, r2, #4
 800229c:	9201      	str	r2, [sp, #4]
 800229e:	9a01      	ldr	r2, [sp, #4]
    __HAL_RCC_GPIOD_CLK_ENABLE();
 80022a0:	6cda      	ldr	r2, [r3, #76]	@ 0x4c
 80022a2:	f042 0208 	orr.w	r2, r2, #8
 80022a6:	64da      	str	r2, [r3, #76]	@ 0x4c
 80022a8:	6cdb      	ldr	r3, [r3, #76]	@ 0x4c
 80022aa:	f003 0308 	and.w	r3, r3, #8
 80022ae:	9302      	str	r3, [sp, #8]
 80022b0:	9b02      	ldr	r3, [sp, #8]
    GPIO_InitStruct.Pin = GPIO_PIN_8|GPIO_PIN_9|GPIO_PIN_10|GPIO_PIN_11
 80022b2:	f44f 53f8 	mov.w	r3, #7936	@ 0x1f00
 80022b6:	9325      	str	r3, [sp, #148]	@ 0x94
    GPIO_InitStruct.Mode = GPIO_MODE_AF_PP;
 80022b8:	2602      	movs	r6, #2
 80022ba:	9626      	str	r6, [sp, #152]	@ 0x98
    GPIO_InitStruct.Pull = GPIO_NOPULL;
 80022bc:	2500      	movs	r5, #0
 80022be:	9527      	str	r5, [sp, #156]	@ 0x9c
    GPIO_InitStruct.Speed = GPIO_SPEED_FREQ_VERY_HIGH;
 80022c0:	2703      	movs	r7, #3
 80022c2:	9728      	str	r7, [sp, #160]	@ 0xa0
    GPIO_InitStruct.Alternate = GPIO_AF12_SDMMC1;
 80022c4:	230c      	movs	r3, #12
 80022c6:	9329      	str	r3, [sp, #164]	@ 0xa4
    HAL_GPIO_Init(GPIOC, &GPIO_InitStruct);
 80022c8:	a925      	add	r1, sp, #148	@ 0x94
 80022ca:	482c      	ldr	r0, [pc, #176]	@ (800237c <HAL_SD_MspInit+0x158>)
 80022cc:	f7ff fb8a 	bl	80019e4 <HAL_GPIO_Init>
    GPIO_InitStruct.Pin = GPIO_PIN_2;
 80022d0:	2304      	movs	r3, #4
 80022d2:	9325      	str	r3, [sp, #148]	@ 0x94
    GPIO_InitStruct.Mode = GPIO_MODE_AF_PP;
 80022d4:	9626      	str	r6, [sp, #152]	@ 0x98
    GPIO_InitStruct.Pull = GPIO_NOPULL;
 80022d6:	9527      	str	r5, [sp, #156]	@ 0x9c
    GPIO_InitStruct.Speed = GPIO_SPEED_FREQ_VERY_HIGH;
 80022d8:	9728      	str	r7, [sp, #160]	@ 0xa0
    GPIO_InitStruct.Alternate = GPIO_AF12_SDMMC1;
 80022da:	230c      	movs	r3, #12
 80022dc:	9329      	str	r3, [sp, #164]	@ 0xa4
    HAL_GPIO_Init(GPIOD, &GPIO_InitStruct);
 80022de:	a925      	add	r1, sp, #148	@ 0x94
 80022e0:	4827      	ldr	r0, [pc, #156]	@ (8002380 <HAL_SD_MspInit+0x15c>)
 80022e2:	f7ff fb7f 	bl	80019e4 <HAL_GPIO_Init>
    hdma_sdmmc1_rx.Instance = DMA2_Channel4;
 80022e6:	4827      	ldr	r0, [pc, #156]	@ (8002384 <HAL_SD_MspInit+0x160>)
 80022e8:	4b27      	ldr	r3, [pc, #156]	@ (8002388 <HAL_SD_MspInit+0x164>)
 80022ea:	6003      	str	r3, [r0, #0]
    hdma_sdmmc1_rx.Init.Request = DMA_REQUEST_7;
 80022ec:	2307      	movs	r3, #7
 80022ee:	6043      	str	r3, [r0, #4]
    hdma_sdmmc1_rx.Init.Direction = DMA_PERIPH_TO_MEMORY;
 80022f0:	6085      	str	r5, [r0, #8]
    hdma_sdmmc1_rx.Init.PeriphInc = DMA_PINC_DISABLE;
 80022f2:	60c5      	str	r5, [r0, #12]
    hdma_sdmmc1_rx.Init.MemInc = DMA_MINC_ENABLE;
 80022f4:	2380      	movs	r3, #128	@ 0x80
 80022f6:	6103      	str	r3, [r0, #16]
    hdma_sdmmc1_rx.Init.PeriphDataAlignment = DMA_PDATAALIGN_WORD;
 80022f8:	f44f 7300 	mov.w	r3, #512	@ 0x200
 80022fc:	6143      	str	r3, [r0, #20]
    hdma_sdmmc1_rx.Init.MemDataAlignment = DMA_MDATAALIGN_WORD;
 80022fe:	f44f 6300 	mov.w	r3, #2048	@ 0x800
 8002302:	6183      	str	r3, [r0, #24]
    hdma_sdmmc1_rx.Init.Mode = DMA_NORMAL;
 8002304:	61c5      	str	r5, [r0, #28]
    hdma_sdmmc1_rx.Init.Priority = DMA_PRIORITY_VERY_HIGH;
 8002306:	f44f 5340 	mov.w	r3, #12288	@ 0x3000
 800230a:	6203      	str	r3, [r0, #32]
    if (HAL_DMA_Init(&hdma_sdmmc1_rx) != HAL_OK)
 800230c:	f7ff f978 	bl	8001600 <HAL_DMA_Init>
 8002310:	bb48      	cbnz	r0, 8002366 <HAL_SD_MspInit+0x142>
    __HAL_LINKDMA(hsd,hdmarx,hdma_sdmmc1_rx);
 8002312:	4b1c      	ldr	r3, [pc, #112]	@ (8002384 <HAL_SD_MspInit+0x160>)
 8002314:	6423      	str	r3, [r4, #64]	@ 0x40
 8002316:	629c      	str	r4, [r3, #40]	@ 0x28
    hdma_sdmmc1_tx.Instance = DMA2_Channel5;
 8002318:	481c      	ldr	r0, [pc, #112]	@ (800238c <HAL_SD_MspInit+0x168>)
 800231a:	4b1d      	ldr	r3, [pc, #116]	@ (8002390 <HAL_SD_MspInit+0x16c>)
 800231c:	6003      	str	r3, [r0, #0]
    hdma_sdmmc1_tx.Init.Request = DMA_REQUEST_7;
 800231e:	2307      	movs	r3, #7
 8002320:	6043      	str	r3, [r0, #4]
    hdma_sdmmc1_tx.Init.Direction = DMA_MEMORY_TO_PERIPH;
 8002322:	2310      	movs	r3, #16
 8002324:	6083      	str	r3, [r0, #8]
    hdma_sdmmc1_tx.Init.PeriphInc = DMA_PINC_DISABLE;
 8002326:	2300      	movs	r3, #0
 8002328:	60c3      	str	r3, [r0, #12]
    hdma_sdmmc1_tx.Init.MemInc = DMA_MINC_ENABLE;
 800232a:	2280      	movs	r2, #128	@ 0x80
 800232c:	6102      	str	r2, [r0, #16]
    hdma_sdmmc1_tx.Init.PeriphDataAlignment = DMA_PDATAALIGN_WORD;
 800232e:	f44f 7200 	mov.w	r2, #512	@ 0x200
 8002332:	6142      	str	r2, [r0, #20]
    hdma_sdmmc1_tx.Init.MemDataAlignment = DMA_MDATAALIGN_WORD;
 8002334:	f44f 6200 	mov.w	r2, #2048	@ 0x800
 8002338:	6182      	str	r2, [r0, #24]
    hdma_sdmmc1_tx.Init.Mode = DMA_NORMAL;
 800233a:	61c3      	str	r3, [r0, #28]
    hdma_sdmmc1_tx.Init.Priority = DMA_PRIORITY_VERY_HIGH;
 800233c:	f44f 5340 	mov.w	r3, #12288	@ 0x3000
 8002340:	6203      	str	r3, [r0, #32]
    if (HAL_DMA_Init(&hdma_sdmmc1_tx) != HAL_OK)
 8002342:	f7ff f95d 	bl	8001600 <HAL_DMA_Init>
 8002346:	b988      	cbnz	r0, 800236c <HAL_SD_MspInit+0x148>
    __HAL_LINKDMA(hsd,hdmatx,hdma_sdmmc1_tx);
 8002348:	4b10      	ldr	r3, [pc, #64]	@ (800238c <HAL_SD_MspInit+0x168>)
 800234a:	63e3      	str	r3, [r4, #60]	@ 0x3c
 800234c:	629c      	str	r4, [r3, #40]	@ 0x28
    HAL_NVIC_SetPriority(SDMMC1_IRQn, 0, 0);
 800234e:	2200      	movs	r2, #0
 8002350:	4611      	mov	r1, r2
 8002352:	2031      	movs	r0, #49	@ 0x31
 8002354:	f7ff f90e 	bl	8001574 <HAL_NVIC_SetPriority>
    HAL_NVIC_EnableIRQ(SDMMC1_IRQn);
 8002358:	2031      	movs	r0, #49	@ 0x31
 800235a:	f7ff f91b 	bl	8001594 <HAL_NVIC_EnableIRQ>
}
 800235e:	e772      	b.n	8002246 <HAL_SD_MspInit+0x22>
      Error_Handler();
 8002360:	f7fe fc70 	bl	8000c44 <Error_Handler>
 8002364:	e789      	b.n	800227a <HAL_SD_MspInit+0x56>
      Error_Handler();
 8002366:	f7fe fc6d 	bl	8000c44 <Error_Handler>
 800236a:	e7d2      	b.n	8002312 <HAL_SD_MspInit+0xee>
      Error_Handler();
 800236c:	f7fe fc6a 	bl	8000c44 <Error_Handler>
 8002370:	e7ea      	b.n	8002348 <HAL_SD_MspInit+0x124>
 8002372:	bf00      	nop
 8002374:	40012800 	.word	0x40012800
 8002378:	40021000 	.word	0x40021000
 800237c:	48000800 	.word	0x48000800
 8002380:	48000c00 	.word	0x48000c00
 8002384:	20010dcc 	.word	0x20010dcc
 8002388:	40020444 	.word	0x40020444
 800238c:	20010d84 	.word	0x20010d84
 8002390:	40020458 	.word	0x40020458

08002394 <HAL_SD_MspDeInit>:
  * @param hsd: SD handle pointer
  * @retval None
  */
void HAL_SD_MspDeInit(SD_HandleTypeDef* hsd)
{
  if(hsd->Instance==SDMMC1)
 8002394:	6802      	ldr	r2, [r0, #0]
 8002396:	4b0f      	ldr	r3, [pc, #60]	@ (80023d4 <HAL_SD_MspDeInit+0x40>)
 8002398:	429a      	cmp	r2, r3
 800239a:	d000      	beq.n	800239e <HAL_SD_MspDeInit+0xa>
 800239c:	4770      	bx	lr
{
 800239e:	b510      	push	{r4, lr}
 80023a0:	4604      	mov	r4, r0
  {
    /* USER CODE BEGIN SDMMC1_MspDeInit 0 */

    /* USER CODE END SDMMC1_MspDeInit 0 */
    /* Peripheral clock disable */
    __HAL_RCC_SDMMC1_CLK_DISABLE();
 80023a2:	4a0d      	ldr	r2, [pc, #52]	@ (80023d8 <HAL_SD_MspDeInit+0x44>)
 80023a4:	6e13      	ldr	r3, [r2, #96]	@ 0x60
 80023a6:	f423 6380 	bic.w	r3, r3, #1024	@ 0x400
 80023aa:	6613      	str	r3, [r2, #96]	@ 0x60
    PC10     ------> SDMMC1_D2
    PC11     ------> SDMMC1_D3
    PC12     ------> SDMMC1_CK
    PD2     ------> SDMMC1_CMD
    */
    HAL_GPIO_DeInit(GPIOC, GPIO_PIN_8|GPIO_PIN_9|GPIO_PIN_10|GPIO_PIN_11
 80023ac:	f44f 51f8 	mov.w	r1, #7936	@ 0x1f00
 80023b0:	480a      	ldr	r0, [pc, #40]	@ (80023dc <HAL_SD_MspDeInit+0x48>)
 80023b2:	f7ff fc25 	bl	8001c00 <HAL_GPIO_DeInit>
                          |GPIO_PIN_12);

    HAL_GPIO_DeInit(GPIOD, GPIO_PIN_2);
 80023b6:	2104      	movs	r1, #4
 80023b8:	4809      	ldr	r0, [pc, #36]	@ (80023e0 <HAL_SD_MspDeInit+0x4c>)
 80023ba:	f7ff fc21 	bl	8001c00 <HAL_GPIO_DeInit>

    /* SDMMC1 DMA DeInit */
    HAL_DMA_DeInit(hsd->hdmarx);
 80023be:	6c20      	ldr	r0, [r4, #64]	@ 0x40
 80023c0:	f7ff f9a2 	bl	8001708 <HAL_DMA_DeInit>
    HAL_DMA_DeInit(hsd->hdmatx);
 80023c4:	6be0      	ldr	r0, [r4, #60]	@ 0x3c
 80023c6:	f7ff f99f 	bl	8001708 <HAL_DMA_DeInit>

    /* SDMMC1 interrupt DeInit */
    HAL_NVIC_DisableIRQ(SDMMC1_IRQn);
 80023ca:	2031      	movs	r0, #49	@ 0x31
 80023cc:	f7ff f8e6 	bl	800159c <HAL_NVIC_DisableIRQ>
    /* USER CODE BEGIN SDMMC1_MspDeInit 1 */

    /* USER CODE END SDMMC1_MspDeInit 1 */
  }

}
 80023d0:	bd10      	pop	{r4, pc}
 80023d2:	bf00      	nop
 80023d4:	40012800 	.word	0x40012800
 80023d8:	40021000 	.word	0x40021000
 80023dc:	48000800 	.word	0x48000800
 80023e0:	48000c00 	.word	0x48000c00

080023e4 <HAL_SPI_MspInit>:
  * This function configures the hardware resources used in this example
  * @param hspi: SPI handle pointer
  * @retval None
  */
void HAL_SPI_MspInit(SPI_HandleTypeDef* hspi)
{
 80023e4:	b500      	push	{lr}
 80023e6:	b089      	sub	sp, #36	@ 0x24
  GPIO_InitTypeDef GPIO_InitStruct = {0};
 80023e8:	2300      	movs	r3, #0
 80023ea:	9303      	str	r3, [sp, #12]
 80023ec:	9304      	str	r3, [sp, #16]
 80023ee:	9305      	str	r3, [sp, #20]
 80023f0:	9306      	str	r3, [sp, #24]
 80023f2:	9307      	str	r3, [sp, #28]
  if(hspi->Instance==SPI1)
 80023f4:	6802      	ldr	r2, [r0, #0]
 80023f6:	4b13      	ldr	r3, [pc, #76]	@ (8002444 <HAL_SPI_MspInit+0x60>)
 80023f8:	429a      	cmp	r2, r3
 80023fa:	d001      	beq.n	8002400 <HAL_SPI_MspInit+0x1c>

    /* USER CODE END SPI1_MspInit 1 */

  }

}
 80023fc:	b009      	add	sp, #36	@ 0x24
 80023fe:	bd00      	pop	{pc}
    __HAL_RCC_SPI1_CLK_ENABLE();
 8002400:	f503 4360 	add.w	r3, r3, #57344	@ 0xe000
 8002404:	6e1a      	ldr	r2, [r3, #96]	@ 0x60
 8002406:	f442 5280 	orr.w	r2, r2, #4096	@ 0x1000
 800240a:	661a      	str	r2, [r3, #96]	@ 0x60
 800240c:	6e1a      	ldr	r2, [r3, #96]	@ 0x60
 800240e:	f402 5280 	and.w	r2, r2, #4096	@ 0x1000
 8002412:	9201      	str	r2, [sp, #4]
 8002414:	9a01      	ldr	r2, [sp, #4]
    __HAL_RCC_GPIOA_CLK_ENABLE();
 8002416:	6cda      	ldr	r2, [r3, #76]	@ 0x4c
 8002418:	f042 0201 	orr.w	r2, r2, #1
 800241c:	64da      	str	r2, [r3, #76]	@ 0x4c
 800241e:	6cdb      	ldr	r3, [r3, #76]	@ 0x4c
 8002420:	f003 0301 	and.w	r3, r3, #1
 8002424:	9302      	str	r3, [sp, #8]
 8002426:	9b02      	ldr	r3, [sp, #8]
    GPIO_InitStruct.Pin = SD_SPI1_SCK_Pin|SD_SPI1_MISO_Pin|SD_SPI1_MOSI_Pin;
 8002428:	23e0      	movs	r3, #224	@ 0xe0
 800242a:	9303      	str	r3, [sp, #12]
    GPIO_InitStruct.Mode = GPIO_MODE_AF_PP;
 800242c:	2302      	movs	r3, #2
 800242e:	9304      	str	r3, [sp, #16]
    GPIO_InitStruct.Speed = GPIO_SPEED_FREQ_VERY_HIGH;
 8002430:	2303      	movs	r3, #3
 8002432:	9306      	str	r3, [sp, #24]
    GPIO_InitStruct.Alternate = GPIO_AF5_SPI1;
 8002434:	2305      	movs	r3, #5
 8002436:	9307      	str	r3, [sp, #28]
    HAL_GPIO_Init(GPIOA, &GPIO_InitStruct);
 8002438:	a903      	add	r1, sp, #12
 800243a:	f04f 4090 	mov.w	r0, #1207959552	@ 0x48000000
 800243e:	f7ff fad1 	bl	80019e4 <HAL_GPIO_Init>
}
 8002442:	e7db      	b.n	80023fc <HAL_SPI_MspInit+0x18>
 8002444:	40013000 	.word	0x40013000

08002448 <HAL_PWR_EnterSLEEPMode>:
  * @note  When WFI entry is used, tick interrupt have to be disabled if not desired as
  *        the interrupt wake up source.
  * @retval None
  */
void HAL_PWR_EnterSLEEPMode(uint32_t Regulator, uint8_t SLEEPEntry)
{
 8002448:	b510      	push	{r4, lr}
 800244a:	460c      	mov	r4, r1
  /* Check the parameters */
  assert_param(IS_PWR_REGULATOR(Regulator));
  assert_param(IS_PWR_SLEEP_ENTRY(SLEEPEntry));

  /* Set Regulator parameter */
  if (Regulator == PWR_MAINREGULATOR_ON)
 800244c:	b9a0      	cbnz	r0, 8002478 <HAL_PWR_EnterSLEEPMode+0x30>
  {
    /* If in low-power run mode at this point, exit it */
    if (HAL_IS_BIT_SET(PWR->SR2, PWR_SR2_REGLPF))
 800244e:	4b0f      	ldr	r3, [pc, #60]	@ (800248c <HAL_PWR_EnterSLEEPMode+0x44>)
 8002450:	695b      	ldr	r3, [r3, #20]
 8002452:	f413 7f00 	tst.w	r3, #512	@ 0x200
 8002456:	d10a      	bne.n	800246e <HAL_PWR_EnterSLEEPMode+0x26>
      HAL_PWREx_EnableLowPowerRunMode();
    }
  }

  /* Clear SLEEPDEEP bit of Cortex System Control Register */
  CLEAR_BIT(SCB->SCR, ((uint32_t)SCB_SCR_SLEEPDEEP_Msk));
 8002458:	4a0d      	ldr	r2, [pc, #52]	@ (8002490 <HAL_PWR_EnterSLEEPMode+0x48>)
 800245a:	6913      	ldr	r3, [r2, #16]
 800245c:	f023 0304 	bic.w	r3, r3, #4
 8002460:	6113      	str	r3, [r2, #16]

  /* Select SLEEP mode entry -------------------------------------------------*/
  if(SLEEPEntry == PWR_SLEEPENTRY_WFI)
 8002462:	2c01      	cmp	r4, #1
 8002464:	d010      	beq.n	8002488 <HAL_PWR_EnterSLEEPMode+0x40>
    __WFI();
  }
  else
  {
    /* Request Wait For Event */
    __SEV();
 8002466:	bf40      	sev
    __WFE();
 8002468:	bf20      	wfe
    __WFE();
 800246a:	bf20      	wfe
  }

}
 800246c:	bd10      	pop	{r4, pc}
      if (HAL_PWREx_DisableLowPowerRunMode() != HAL_OK)
 800246e:	f000 f869 	bl	8002544 <HAL_PWREx_DisableLowPowerRunMode>
 8002472:	2800      	cmp	r0, #0
 8002474:	d0f0      	beq.n	8002458 <HAL_PWR_EnterSLEEPMode+0x10>
 8002476:	e7f9      	b.n	800246c <HAL_PWR_EnterSLEEPMode+0x24>
    if (HAL_IS_BIT_SET(PWR->SR2, PWR_SR2_REGLPF) == RESET)
 8002478:	4b04      	ldr	r3, [pc, #16]	@ (800248c <HAL_PWR_EnterSLEEPMode+0x44>)
 800247a:	695b      	ldr	r3, [r3, #20]
 800247c:	f413 7f00 	tst.w	r3, #512	@ 0x200
 8002480:	d1ea      	bne.n	8002458 <HAL_PWR_EnterSLEEPMode+0x10>
      HAL_PWREx_EnableLowPowerRunMode();
 8002482:	f000 f857 	bl	8002534 <HAL_PWREx_EnableLowPowerRunMode>
 8002486:	e7e7      	b.n	8002458 <HAL_PWR_EnterSLEEPMode+0x10>
    __WFI();
 8002488:	bf30      	wfi
 800248a:	e7ef      	b.n	800246c <HAL_PWR_EnterSLEEPMode+0x24>
 800248c:	40007000 	.word	0x40007000
 8002490:	e000ed00 	.word	0xe000ed00

08002494 <HAL_PWREx_GetVoltageRange>:
    else
    {
      return PWR_REGULATOR_VOLTAGE_SCALE1_BOOST;
    }
#else
  return  (PWR->CR1 & PWR_CR1_VOS);
 8002494:	4b02      	ldr	r3, [pc, #8]	@ (80024a0 <HAL_PWREx_GetVoltageRange+0xc>)
 8002496:	6818      	ldr	r0, [r3, #0]
#endif
}
 8002498:	f400 60c0 	and.w	r0, r0, #1536	@ 0x600
 800249c:	4770      	bx	lr
 800249e:	bf00      	nop
 80024a0:	40007000 	.word	0x40007000

080024a4 <HAL_PWREx_ControlVoltageScaling>:
  }

#else

  /* If Set Range 1 */
  if (VoltageScaling == PWR_REGULATOR_VOLTAGE_SCALE1)
 80024a4:	f5b0 7f00 	cmp.w	r0, #512	@ 0x200
 80024a8:	d00f      	beq.n	80024ca <HAL_PWREx_ControlVoltageScaling+0x26>
      }
    }
  }
  else
  {
    if (READ_BIT(PWR->CR1, PWR_CR1_VOS) != PWR_REGULATOR_VOLTAGE_SCALE2)
 80024aa:	4b1f      	ldr	r3, [pc, #124]	@ (8002528 <HAL_PWREx_ControlVoltageScaling+0x84>)
 80024ac:	681b      	ldr	r3, [r3, #0]
 80024ae:	f403 63c0 	and.w	r3, r3, #1536	@ 0x600
 80024b2:	f5b3 6f80 	cmp.w	r3, #1024	@ 0x400
 80024b6:	d034      	beq.n	8002522 <HAL_PWREx_ControlVoltageScaling+0x7e>
    {
      /* Set Range 2 */
      MODIFY_REG(PWR->CR1, PWR_CR1_VOS, PWR_REGULATOR_VOLTAGE_SCALE2);
 80024b8:	4a1b      	ldr	r2, [pc, #108]	@ (8002528 <HAL_PWREx_ControlVoltageScaling+0x84>)
 80024ba:	6813      	ldr	r3, [r2, #0]
 80024bc:	f423 63c0 	bic.w	r3, r3, #1536	@ 0x600
 80024c0:	f443 6380 	orr.w	r3, r3, #1024	@ 0x400
 80024c4:	6013      	str	r3, [r2, #0]
      /* No need to wait for VOSF to be cleared for this transition */
    }
  }
#endif

  return HAL_OK;
 80024c6:	2000      	movs	r0, #0
 80024c8:	4770      	bx	lr
    if (READ_BIT(PWR->CR1, PWR_CR1_VOS) != PWR_REGULATOR_VOLTAGE_SCALE1)
 80024ca:	4b17      	ldr	r3, [pc, #92]	@ (8002528 <HAL_PWREx_ControlVoltageScaling+0x84>)
 80024cc:	681b      	ldr	r3, [r3, #0]
 80024ce:	f403 63c0 	and.w	r3, r3, #1536	@ 0x600
 80024d2:	f5b3 7f00 	cmp.w	r3, #512	@ 0x200
 80024d6:	d020      	beq.n	800251a <HAL_PWREx_ControlVoltageScaling+0x76>
      MODIFY_REG(PWR->CR1, PWR_CR1_VOS, PWR_REGULATOR_VOLTAGE_SCALE1);
 80024d8:	4a13      	ldr	r2, [pc, #76]	@ (8002528 <HAL_PWREx_ControlVoltageScaling+0x84>)
 80024da:	6813      	ldr	r3, [r2, #0]
 80024dc:	f423 63c0 	bic.w	r3, r3, #1536	@ 0x600
 80024e0:	f443 7300 	orr.w	r3, r3, #512	@ 0x200
 80024e4:	6013      	str	r3, [r2, #0]
      wait_loop_index = ((PWR_FLAG_SETTING_DELAY_US * SystemCoreClock) / 1000000U) + 1U;
 80024e6:	4b11      	ldr	r3, [pc, #68]	@ (800252c <HAL_PWREx_ControlVoltageScaling+0x88>)
 80024e8:	681b      	ldr	r3, [r3, #0]
 80024ea:	2232      	movs	r2, #50	@ 0x32
 80024ec:	fb02 f303 	mul.w	r3, r2, r3
 80024f0:	4a0f      	ldr	r2, [pc, #60]	@ (8002530 <HAL_PWREx_ControlVoltageScaling+0x8c>)
 80024f2:	fba2 2303 	umull	r2, r3, r2, r3
 80024f6:	0c9b      	lsrs	r3, r3, #18
 80024f8:	3301      	adds	r3, #1
      while ((HAL_IS_BIT_SET(PWR->SR2, PWR_SR2_VOSF)) && (wait_loop_index != 0U))
 80024fa:	e000      	b.n	80024fe <HAL_PWREx_ControlVoltageScaling+0x5a>
        wait_loop_index--;
 80024fc:	3b01      	subs	r3, #1
      while ((HAL_IS_BIT_SET(PWR->SR2, PWR_SR2_VOSF)) && (wait_loop_index != 0U))
 80024fe:	4a0a      	ldr	r2, [pc, #40]	@ (8002528 <HAL_PWREx_ControlVoltageScaling+0x84>)
 8002500:	6952      	ldr	r2, [r2, #20]
 8002502:	f412 6f80 	tst.w	r2, #1024	@ 0x400
 8002506:	d001      	beq.n	800250c <HAL_PWREx_ControlVoltageScaling+0x68>
 8002508:	2b00      	cmp	r3, #0
 800250a:	d1f7      	bne.n	80024fc <HAL_PWREx_ControlVoltageScaling+0x58>
      if (HAL_IS_BIT_SET(PWR->SR2, PWR_SR2_VOSF))
 800250c:	4b06      	ldr	r3, [pc, #24]	@ (8002528 <HAL_PWREx_ControlVoltageScaling+0x84>)
 800250e:	695b      	ldr	r3, [r3, #20]
 8002510:	f413 6f80 	tst.w	r3, #1024	@ 0x400
 8002514:	d103      	bne.n	800251e <HAL_PWREx_ControlVoltageScaling+0x7a>
  return HAL_OK;
 8002516:	2000      	movs	r0, #0
 8002518:	4770      	bx	lr
 800251a:	2000      	movs	r0, #0
 800251c:	4770      	bx	lr
        return HAL_TIMEOUT;
 800251e:	2003      	movs	r0, #3
 8002520:	4770      	bx	lr
  return HAL_OK;
 8002522:	2000      	movs	r0, #0
}
 8002524:	4770      	bx	lr
 8002526:	bf00      	nop
 8002528:	40007000 	.word	0x40007000
 800252c:	2000000c 	.word	0x2000000c
 8002530:	431bde83 	.word	0x431bde83

08002534 <HAL_PWREx_EnableLowPowerRunMode>:
  * @retval None
  */
void HAL_PWREx_EnableLowPowerRunMode(void)
{
  /* Set Regulator parameter */
  SET_BIT(PWR->CR1, PWR_CR1_LPR);
 8002534:	4a02      	ldr	r2, [pc, #8]	@ (8002540 <HAL_PWREx_EnableLowPowerRunMode+0xc>)
 8002536:	6813      	ldr	r3, [r2, #0]
 8002538:	f443 4380 	orr.w	r3, r3, #16384	@ 0x4000
 800253c:	6013      	str	r3, [r2, #0]
}
 800253e:	4770      	bx	lr
 8002540:	40007000 	.word	0x40007000

08002544 <HAL_PWREx_DisableLowPowerRunMode>:
HAL_StatusTypeDef HAL_PWREx_DisableLowPowerRunMode(void)
{
  uint32_t wait_loop_index;

  /* Clear LPR bit */
  CLEAR_BIT(PWR->CR1, PWR_CR1_LPR);
 8002544:	4a10      	ldr	r2, [pc, #64]	@ (8002588 <HAL_PWREx_DisableLowPowerRunMode+0x44>)
 8002546:	6813      	ldr	r3, [r2, #0]
 8002548:	f423 4380 	bic.w	r3, r3, #16384	@ 0x4000
 800254c:	6013      	str	r3, [r2, #0]

  /* Wait until REGLPF is reset */
  wait_loop_index = ((PWR_FLAG_SETTING_DELAY_US * SystemCoreClock) / 1000000U) + 1U;
 800254e:	4b0f      	ldr	r3, [pc, #60]	@ (800258c <HAL_PWREx_DisableLowPowerRunMode+0x48>)
 8002550:	681b      	ldr	r3, [r3, #0]
 8002552:	2232      	movs	r2, #50	@ 0x32
 8002554:	fb02 f303 	mul.w	r3, r2, r3
 8002558:	4a0d      	ldr	r2, [pc, #52]	@ (8002590 <HAL_PWREx_DisableLowPowerRunMode+0x4c>)
 800255a:	fba2 2303 	umull	r2, r3, r2, r3
 800255e:	0c9b      	lsrs	r3, r3, #18
 8002560:	3301      	adds	r3, #1
  while ((HAL_IS_BIT_SET(PWR->SR2, PWR_SR2_REGLPF)) && (wait_loop_index != 0U))
 8002562:	e000      	b.n	8002566 <HAL_PWREx_DisableLowPowerRunMode+0x22>
  {
    wait_loop_index--;
 8002564:	3b01      	subs	r3, #1
  while ((HAL_IS_BIT_SET(PWR->SR2, PWR_SR2_REGLPF)) && (wait_loop_index != 0U))
 8002566:	4a08      	ldr	r2, [pc, #32]	@ (8002588 <HAL_PWREx_DisableLowPowerRunMode+0x44>)
 8002568:	6952      	ldr	r2, [r2, #20]
 800256a:	f412 7f00 	tst.w	r2, #512	@ 0x200
 800256e:	d001      	beq.n	8002574 <HAL_PWREx_DisableLowPowerRunMode+0x30>
 8002570:	2b00      	cmp	r3, #0
 8002572:	d1f7      	bne.n	8002564 <HAL_PWREx_DisableLowPowerRunMode+0x20>
  }
  if (HAL_IS_BIT_SET(PWR->SR2, PWR_SR2_REGLPF))
 8002574:	4b04      	ldr	r3, [pc, #16]	@ (8002588 <HAL_PWREx_DisableLowPowerRunMode+0x44>)
 8002576:	695b      	ldr	r3, [r3, #20]
 8002578:	f413 7f00 	tst.w	r3, #512	@ 0x200
 800257c:	d101      	bne.n	8002582 <HAL_PWREx_DisableLowPowerRunMode+0x3e>
  {
    return HAL_TIMEOUT;
  }

  return HAL_OK;
 800257e:	2000      	movs	r0, #0
 8002580:	4770      	bx	lr
    return HAL_TIMEOUT;
 8002582:	2003      	movs	r0, #3
}
 8002584:	4770      	bx	lr
 8002586:	bf00      	nop
 8002588:	40007000 	.word	0x40007000
 800258c:	2000000c 	.word	0x2000000c
 8002590:	431bde83 	.word	0x431bde83

08002594 <RCC_SetFlashLatencyFromMSIRange>:
            voltage range.
  * @param  msirange  MSI range value from RCC_MSIRANGE_0 to RCC_MSIRANGE_11
  * @retval HAL status
  */
static HAL_StatusTypeDef RCC_SetFlashLatencyFromMSIRange(uint32_t msirange)
{
 8002594:	b530      	push	{r4, r5, lr}
 8002596:	b083      	sub	sp, #12
 8002598:	4605      	mov	r5, r0
  uint32_t vos;
  uint32_t latency = FLASH_LATENCY_0;  /* default value 0WS */

  if(__HAL_RCC_PWR_IS_CLK_ENABLED())
 800259a:	4b20      	ldr	r3, [pc, #128]	@ (800261c <RCC_SetFlashLatencyFromMSIRange+0x88>)
 800259c:	6d9b      	ldr	r3, [r3, #88]	@ 0x58
 800259e:	f013 5f80 	tst.w	r3, #268435456	@ 0x10000000
 80025a2:	d00b      	beq.n	80025bc <RCC_SetFlashLatencyFromMSIRange+0x28>
  {
    vos = HAL_PWREx_GetVoltageRange();
 80025a4:	f7ff ff76 	bl	8002494 <HAL_PWREx_GetVoltageRange>
    __HAL_RCC_PWR_CLK_ENABLE();
    vos = HAL_PWREx_GetVoltageRange();
    __HAL_RCC_PWR_CLK_DISABLE();
  }

  if(vos == PWR_REGULATOR_VOLTAGE_SCALE1)
 80025a8:	f5b0 7f00 	cmp.w	r0, #512	@ 0x200
 80025ac:	d017      	beq.n	80025de <RCC_SetFlashLatencyFromMSIRange+0x4a>
        latency = FLASH_LATENCY_1; /* 1WS */
      }
      /* else MSI < 8Mhz default FLASH_LATENCY_0 0WS */
    }
#else
    if(msirange > RCC_MSIRANGE_8)
 80025ae:	2d80      	cmp	r5, #128	@ 0x80
 80025b0:	d81f      	bhi.n	80025f2 <RCC_SetFlashLatencyFromMSIRange+0x5e>
      /* MSI > 16Mhz */
      latency = FLASH_LATENCY_3; /* 3WS */
    }
    else
    {
      if(msirange == RCC_MSIRANGE_8)
 80025b2:	d02d      	beq.n	8002610 <RCC_SetFlashLatencyFromMSIRange+0x7c>
      {
        /* MSI 16Mhz */
        latency = FLASH_LATENCY_2; /* 2WS */
      }
      else if(msirange == RCC_MSIRANGE_7)
 80025b4:	2d70      	cmp	r5, #112	@ 0x70
 80025b6:	d02d      	beq.n	8002614 <RCC_SetFlashLatencyFromMSIRange+0x80>
  uint32_t latency = FLASH_LATENCY_0;  /* default value 0WS */
 80025b8:	2100      	movs	r1, #0
 80025ba:	e01b      	b.n	80025f4 <RCC_SetFlashLatencyFromMSIRange+0x60>
    __HAL_RCC_PWR_CLK_ENABLE();
 80025bc:	4c17      	ldr	r4, [pc, #92]	@ (800261c <RCC_SetFlashLatencyFromMSIRange+0x88>)
 80025be:	6da3      	ldr	r3, [r4, #88]	@ 0x58
 80025c0:	f043 5380 	orr.w	r3, r3, #268435456	@ 0x10000000
 80025c4:	65a3      	str	r3, [r4, #88]	@ 0x58
 80025c6:	6da3      	ldr	r3, [r4, #88]	@ 0x58
 80025c8:	f003 5380 	and.w	r3, r3, #268435456	@ 0x10000000
 80025cc:	9301      	str	r3, [sp, #4]
 80025ce:	9b01      	ldr	r3, [sp, #4]
    vos = HAL_PWREx_GetVoltageRange();
 80025d0:	f7ff ff60 	bl	8002494 <HAL_PWREx_GetVoltageRange>
    __HAL_RCC_PWR_CLK_DISABLE();
 80025d4:	6da3      	ldr	r3, [r4, #88]	@ 0x58
 80025d6:	f023 5380 	bic.w	r3, r3, #268435456	@ 0x10000000
 80025da:	65a3      	str	r3, [r4, #88]	@ 0x58
 80025dc:	e7e4      	b.n	80025a8 <RCC_SetFlashLatencyFromMSIRange+0x14>
    if(msirange > RCC_MSIRANGE_8)
 80025de:	2d80      	cmp	r5, #128	@ 0x80
 80025e0:	d903      	bls.n	80025ea <RCC_SetFlashLatencyFromMSIRange+0x56>
      if(msirange > RCC_MSIRANGE_10)
 80025e2:	2da0      	cmp	r5, #160	@ 0xa0
 80025e4:	d903      	bls.n	80025ee <RCC_SetFlashLatencyFromMSIRange+0x5a>
        latency = FLASH_LATENCY_2; /* 2WS */
 80025e6:	2102      	movs	r1, #2
 80025e8:	e004      	b.n	80025f4 <RCC_SetFlashLatencyFromMSIRange+0x60>
  uint32_t latency = FLASH_LATENCY_0;  /* default value 0WS */
 80025ea:	2100      	movs	r1, #0
 80025ec:	e002      	b.n	80025f4 <RCC_SetFlashLatencyFromMSIRange+0x60>
        latency = FLASH_LATENCY_1; /* 1WS */
 80025ee:	2101      	movs	r1, #1
 80025f0:	e000      	b.n	80025f4 <RCC_SetFlashLatencyFromMSIRange+0x60>
      latency = FLASH_LATENCY_3; /* 3WS */
 80025f2:	2103      	movs	r1, #3
      }
    }
#endif
  }

  __HAL_FLASH_SET_LATENCY(latency);
 80025f4:	4a0a      	ldr	r2, [pc, #40]	@ (8002620 <RCC_SetFlashLatencyFromMSIRange+0x8c>)
 80025f6:	6813      	ldr	r3, [r2, #0]
 80025f8:	f023 0307 	bic.w	r3, r3, #7
 80025fc:	430b      	orrs	r3, r1
 80025fe:	6013      	str	r3, [r2, #0]

  /* Check that the new number of wait states is taken into account to access the Flash
     memory by reading the FLASH_ACR register */
  if(__HAL_FLASH_GET_LATENCY() != latency)
 8002600:	6813      	ldr	r3, [r2, #0]
 8002602:	f003 0307 	and.w	r3, r3, #7
 8002606:	428b      	cmp	r3, r1
 8002608:	d106      	bne.n	8002618 <RCC_SetFlashLatencyFromMSIRange+0x84>
  {
    return HAL_ERROR;
  }

  return HAL_OK;
 800260a:	2000      	movs	r0, #0
}
 800260c:	b003      	add	sp, #12
 800260e:	bd30      	pop	{r4, r5, pc}
        latency = FLASH_LATENCY_2; /* 2WS */
 8002610:	2102      	movs	r1, #2
 8002612:	e7ef      	b.n	80025f4 <RCC_SetFlashLatencyFromMSIRange+0x60>
        latency = FLASH_LATENCY_1; /* 1WS */
 8002614:	2101      	movs	r1, #1
 8002616:	e7ed      	b.n	80025f4 <RCC_SetFlashLatencyFromMSIRange+0x60>
    return HAL_ERROR;
 8002618:	2001      	movs	r0, #1
 800261a:	e7f7      	b.n	800260c <RCC_SetFlashLatencyFromMSIRange+0x78>
 800261c:	40021000 	.word	0x40021000
 8002620:	40022000 	.word	0x40022000

08002624 <HAL_RCC_GetSysClockFreq>:
  sysclk_source = __HAL_RCC_GET_SYSCLK_SOURCE();
 8002624:	4a25      	ldr	r2, [pc, #148]	@ (80026bc <HAL_RCC_GetSysClockFreq+0x98>)
 8002626:	6893      	ldr	r3, [r2, #8]
  pll_oscsource = __HAL_RCC_GET_PLL_OSCSOURCE();
 8002628:	68d2      	ldr	r2, [r2, #12]
 800262a:	f002 0203 	and.w	r2, r2, #3
  if((sysclk_source == RCC_CFGR_SWS_MSI) ||
 800262e:	f013 030c 	ands.w	r3, r3, #12
 8002632:	d009      	beq.n	8002648 <HAL_RCC_GetSysClockFreq+0x24>
 8002634:	2b0c      	cmp	r3, #12
 8002636:	d005      	beq.n	8002644 <HAL_RCC_GetSysClockFreq+0x20>
  else if(sysclk_source == RCC_CFGR_SWS_HSI)
 8002638:	2b04      	cmp	r3, #4
 800263a:	d03b      	beq.n	80026b4 <HAL_RCC_GetSysClockFreq+0x90>
  else if(sysclk_source == RCC_CFGR_SWS_HSE)
 800263c:	2b08      	cmp	r3, #8
 800263e:	d03b      	beq.n	80026b8 <HAL_RCC_GetSysClockFreq+0x94>
  uint32_t msirange = 0U, sysclockfreq = 0U;
 8002640:	2000      	movs	r0, #0
 8002642:	e00f      	b.n	8002664 <HAL_RCC_GetSysClockFreq+0x40>
     ((sysclk_source == RCC_CFGR_SWS_PLL) && (pll_oscsource == RCC_PLLSOURCE_MSI)))
 8002644:	2a01      	cmp	r2, #1
 8002646:	d1f7      	bne.n	8002638 <HAL_RCC_GetSysClockFreq+0x14>
    if(READ_BIT(RCC->CR, RCC_CR_MSIRGSEL) == 0U)
 8002648:	4a1c      	ldr	r2, [pc, #112]	@ (80026bc <HAL_RCC_GetSysClockFreq+0x98>)
 800264a:	6812      	ldr	r2, [r2, #0]
 800264c:	f012 0f08 	tst.w	r2, #8
 8002650:	d10c      	bne.n	800266c <HAL_RCC_GetSysClockFreq+0x48>
      msirange = READ_BIT(RCC->CSR, RCC_CSR_MSISRANGE) >> RCC_CSR_MSISRANGE_Pos;
 8002652:	4a1a      	ldr	r2, [pc, #104]	@ (80026bc <HAL_RCC_GetSysClockFreq+0x98>)
 8002654:	f8d2 2094 	ldr.w	r2, [r2, #148]	@ 0x94
 8002658:	f3c2 2203 	ubfx	r2, r2, #8, #4
    msirange = MSIRangeTable[msirange];
 800265c:	4918      	ldr	r1, [pc, #96]	@ (80026c0 <HAL_RCC_GetSysClockFreq+0x9c>)
 800265e:	f851 0022 	ldr.w	r0, [r1, r2, lsl #2]
    if(sysclk_source == RCC_CFGR_SWS_MSI)
 8002662:	b113      	cbz	r3, 800266a <HAL_RCC_GetSysClockFreq+0x46>
  if(sysclk_source == RCC_CFGR_SWS_PLL)
 8002664:	2b0c      	cmp	r3, #12
 8002666:	d006      	beq.n	8002676 <HAL_RCC_GetSysClockFreq+0x52>
 8002668:	2000      	movs	r0, #0
}
 800266a:	4770      	bx	lr
      msirange = READ_BIT(RCC->CR, RCC_CR_MSIRANGE) >> RCC_CR_MSIRANGE_Pos;
 800266c:	4a13      	ldr	r2, [pc, #76]	@ (80026bc <HAL_RCC_GetSysClockFreq+0x98>)
 800266e:	6812      	ldr	r2, [r2, #0]
 8002670:	f3c2 1203 	ubfx	r2, r2, #4, #4
 8002674:	e7f2      	b.n	800265c <HAL_RCC_GetSysClockFreq+0x38>
    pllsource = READ_BIT(RCC->PLLCFGR, RCC_PLLCFGR_PLLSRC);
 8002676:	4b11      	ldr	r3, [pc, #68]	@ (80026bc <HAL_RCC_GetSysClockFreq+0x98>)
 8002678:	68db      	ldr	r3, [r3, #12]
 800267a:	f003 0303 	and.w	r3, r3, #3
    switch (pllsource)
 800267e:	2b02      	cmp	r3, #2
 8002680:	d016      	beq.n	80026b0 <HAL_RCC_GetSysClockFreq+0x8c>
 8002682:	2b03      	cmp	r3, #3
 8002684:	d100      	bne.n	8002688 <HAL_RCC_GetSysClockFreq+0x64>
      pllvco = HSE_VALUE;
 8002686:	480f      	ldr	r0, [pc, #60]	@ (80026c4 <HAL_RCC_GetSysClockFreq+0xa0>)
    pllm = (READ_BIT(RCC->PLLCFGR, RCC_PLLCFGR_PLLM) >> RCC_PLLCFGR_PLLM_Pos) + 1U ;
 8002688:	490c      	ldr	r1, [pc, #48]	@ (80026bc <HAL_RCC_GetSysClockFreq+0x98>)
 800268a:	68ca      	ldr	r2, [r1, #12]
 800268c:	f3c2 1202 	ubfx	r2, r2, #4, #3
 8002690:	3201      	adds	r2, #1
    pllvco = (pllvco * (READ_BIT(RCC->PLLCFGR, RCC_PLLCFGR_PLLN) >> RCC_PLLCFGR_PLLN_Pos)) / pllm;
 8002692:	68cb      	ldr	r3, [r1, #12]
 8002694:	f3c3 2306 	ubfx	r3, r3, #8, #7
 8002698:	fb00 f303 	mul.w	r3, r0, r3
 800269c:	fbb3 f3f2 	udiv	r3, r3, r2
    pllr = ((READ_BIT(RCC->PLLCFGR, RCC_PLLCFGR_PLLR) >> RCC_PLLCFGR_PLLR_Pos) + 1U ) * 2U;
 80026a0:	68c8      	ldr	r0, [r1, #12]
 80026a2:	f3c0 6041 	ubfx	r0, r0, #25, #2
 80026a6:	3001      	adds	r0, #1
 80026a8:	0040      	lsls	r0, r0, #1
    sysclockfreq = pllvco / pllr;
 80026aa:	fbb3 f0f0 	udiv	r0, r3, r0
 80026ae:	4770      	bx	lr
    switch (pllsource)
 80026b0:	4805      	ldr	r0, [pc, #20]	@ (80026c8 <HAL_RCC_GetSysClockFreq+0xa4>)
 80026b2:	e7e9      	b.n	8002688 <HAL_RCC_GetSysClockFreq+0x64>
    sysclockfreq = HSI_VALUE;
 80026b4:	4804      	ldr	r0, [pc, #16]	@ (80026c8 <HAL_RCC_GetSysClockFreq+0xa4>)
 80026b6:	4770      	bx	lr
    sysclockfreq = HSE_VALUE;
 80026b8:	4802      	ldr	r0, [pc, #8]	@ (80026c4 <HAL_RCC_GetSysClockFreq+0xa0>)
 80026ba:	4770      	bx	lr
 80026bc:	40021000 	.word	0x40021000
 80026c0:	08007e68 	.word	0x08007e68
 80026c4:	00b71b00 	.word	0x00b71b00
 80026c8:	00f42400 	.word	0x00f42400

080026cc <HAL_RCC_OscConfig>:
  if(RCC_OscInitStruct == NULL)
 80026cc:	2800      	cmp	r0, #0
 80026ce:	f000 82f3 	beq.w	8002cb8 <HAL_RCC_OscConfig+0x5ec>
{
 80026d2:	b5f0      	push	{r4, r5, r6, r7, lr}
 80026d4:	b083      	sub	sp, #12
 80026d6:	4604      	mov	r4, r0
  sysclk_source = __HAL_RCC_GET_SYSCLK_SOURCE();
 80026d8:	4b96      	ldr	r3, [pc, #600]	@ (8002934 <HAL_RCC_OscConfig+0x268>)
 80026da:	689d      	ldr	r5, [r3, #8]
 80026dc:	f005 050c 	and.w	r5, r5, #12
  pll_config = __HAL_RCC_GET_PLL_OSCSOURCE();
 80026e0:	68db      	ldr	r3, [r3, #12]
 80026e2:	f003 0303 	and.w	r3, r3, #3
 80026e6:	461e      	mov	r6, r3
  if(((RCC_OscInitStruct->OscillatorType) & RCC_OSCILLATORTYPE_MSI) == RCC_OSCILLATORTYPE_MSI)
 80026e8:	6803      	ldr	r3, [r0, #0]
 80026ea:	f013 0f10 	tst.w	r3, #16
 80026ee:	d05a      	beq.n	80027a6 <HAL_RCC_OscConfig+0xda>
    if((sysclk_source == RCC_CFGR_SWS_MSI) ||
 80026f0:	b1e5      	cbz	r5, 800272c <HAL_RCC_OscConfig+0x60>
 80026f2:	2d0c      	cmp	r5, #12
 80026f4:	d018      	beq.n	8002728 <HAL_RCC_OscConfig+0x5c>
      if(RCC_OscInitStruct->MSIState != RCC_MSI_OFF)
 80026f6:	69a3      	ldr	r3, [r4, #24]
 80026f8:	2b00      	cmp	r3, #0
 80026fa:	f000 80bb 	beq.w	8002874 <HAL_RCC_OscConfig+0x1a8>
        __HAL_RCC_MSI_ENABLE();
 80026fe:	4a8d      	ldr	r2, [pc, #564]	@ (8002934 <HAL_RCC_OscConfig+0x268>)
 8002700:	6813      	ldr	r3, [r2, #0]
 8002702:	f043 0301 	orr.w	r3, r3, #1
 8002706:	6013      	str	r3, [r2, #0]
        tickstart = HAL_GetTick();
 8002708:	f7fe fe8a 	bl	8001420 <HAL_GetTick>
 800270c:	4607      	mov	r7, r0
        while(READ_BIT(RCC->CR, RCC_CR_MSIRDY) == 0U)
 800270e:	4b89      	ldr	r3, [pc, #548]	@ (8002934 <HAL_RCC_OscConfig+0x268>)
 8002710:	681b      	ldr	r3, [r3, #0]
 8002712:	f013 0f02 	tst.w	r3, #2
 8002716:	f040 809a 	bne.w	800284e <HAL_RCC_OscConfig+0x182>
          if((HAL_GetTick() - tickstart) > MSI_TIMEOUT_VALUE)
 800271a:	f7fe fe81 	bl	8001420 <HAL_GetTick>
 800271e:	1bc0      	subs	r0, r0, r7
 8002720:	2802      	cmp	r0, #2
 8002722:	d9f4      	bls.n	800270e <HAL_RCC_OscConfig+0x42>
            return HAL_TIMEOUT;
 8002724:	2003      	movs	r0, #3
 8002726:	e2d2      	b.n	8002cce <HAL_RCC_OscConfig+0x602>
       ((sysclk_source == RCC_CFGR_SWS_PLL) && (pll_config == RCC_PLLSOURCE_MSI)))
 8002728:	2e01      	cmp	r6, #1
 800272a:	d1e4      	bne.n	80026f6 <HAL_RCC_OscConfig+0x2a>
      if((READ_BIT(RCC->CR, RCC_CR_MSIRDY) != 0U) && (RCC_OscInitStruct->MSIState == RCC_MSI_OFF))
 800272c:	4b81      	ldr	r3, [pc, #516]	@ (8002934 <HAL_RCC_OscConfig+0x268>)
 800272e:	681b      	ldr	r3, [r3, #0]
 8002730:	f013 0f02 	tst.w	r3, #2
 8002734:	d003      	beq.n	800273e <HAL_RCC_OscConfig+0x72>
 8002736:	69a3      	ldr	r3, [r4, #24]
 8002738:	2b00      	cmp	r3, #0
 800273a:	f000 82bf 	beq.w	8002cbc <HAL_RCC_OscConfig+0x5f0>
        if(RCC_OscInitStruct->MSIClockRange > __HAL_RCC_GET_MSI_RANGE())
 800273e:	6a20      	ldr	r0, [r4, #32]
 8002740:	4b7c      	ldr	r3, [pc, #496]	@ (8002934 <HAL_RCC_OscConfig+0x268>)
 8002742:	681b      	ldr	r3, [r3, #0]
 8002744:	f013 0f08 	tst.w	r3, #8
 8002748:	d05b      	beq.n	8002802 <HAL_RCC_OscConfig+0x136>
 800274a:	4b7a      	ldr	r3, [pc, #488]	@ (8002934 <HAL_RCC_OscConfig+0x268>)
 800274c:	681b      	ldr	r3, [r3, #0]
 800274e:	f003 03f0 	and.w	r3, r3, #240	@ 0xf0
 8002752:	4298      	cmp	r0, r3
 8002754:	d85c      	bhi.n	8002810 <HAL_RCC_OscConfig+0x144>
          __HAL_RCC_MSI_RANGE_CONFIG(RCC_OscInitStruct->MSIClockRange);
 8002756:	4b77      	ldr	r3, [pc, #476]	@ (8002934 <HAL_RCC_OscConfig+0x268>)
 8002758:	681a      	ldr	r2, [r3, #0]
 800275a:	f042 0208 	orr.w	r2, r2, #8
 800275e:	601a      	str	r2, [r3, #0]
 8002760:	681a      	ldr	r2, [r3, #0]
 8002762:	f022 02f0 	bic.w	r2, r2, #240	@ 0xf0
 8002766:	6a21      	ldr	r1, [r4, #32]
 8002768:	430a      	orrs	r2, r1
 800276a:	601a      	str	r2, [r3, #0]
          __HAL_RCC_MSI_CALIBRATIONVALUE_ADJUST(RCC_OscInitStruct->MSICalibrationValue);
 800276c:	685a      	ldr	r2, [r3, #4]
 800276e:	f422 427f 	bic.w	r2, r2, #65280	@ 0xff00
 8002772:	69e1      	ldr	r1, [r4, #28]
 8002774:	ea42 2201 	orr.w	r2, r2, r1, lsl #8
 8002778:	605a      	str	r2, [r3, #4]
          if(sysclk_source == RCC_CFGR_SWS_MSI)
 800277a:	2d00      	cmp	r5, #0
 800277c:	d060      	beq.n	8002840 <HAL_RCC_OscConfig+0x174>
        SystemCoreClock = HAL_RCC_GetSysClockFreq() >> (AHBPrescTable[READ_BIT(RCC->CFGR, RCC_CFGR_HPRE) >> RCC_CFGR_HPRE_Pos] & 0x1FU);
 800277e:	f7ff ff51 	bl	8002624 <HAL_RCC_GetSysClockFreq>
 8002782:	4b6c      	ldr	r3, [pc, #432]	@ (8002934 <HAL_RCC_OscConfig+0x268>)
 8002784:	689b      	ldr	r3, [r3, #8]
 8002786:	f3c3 1303 	ubfx	r3, r3, #4, #4
 800278a:	4a6b      	ldr	r2, [pc, #428]	@ (8002938 <HAL_RCC_OscConfig+0x26c>)
 800278c:	5cd3      	ldrb	r3, [r2, r3]
 800278e:	f003 031f 	and.w	r3, r3, #31
 8002792:	40d8      	lsrs	r0, r3
 8002794:	4b69      	ldr	r3, [pc, #420]	@ (800293c <HAL_RCC_OscConfig+0x270>)
 8002796:	6018      	str	r0, [r3, #0]
        status = HAL_InitTick(uwTickPrio);
 8002798:	4b69      	ldr	r3, [pc, #420]	@ (8002940 <HAL_RCC_OscConfig+0x274>)
 800279a:	6818      	ldr	r0, [r3, #0]
 800279c:	f7fe fdfc 	bl	8001398 <HAL_InitTick>
        if(status != HAL_OK)
 80027a0:	2800      	cmp	r0, #0
 80027a2:	f040 8294 	bne.w	8002cce <HAL_RCC_OscConfig+0x602>
  if(((RCC_OscInitStruct->OscillatorType) & RCC_OSCILLATORTYPE_HSE) == RCC_OSCILLATORTYPE_HSE)
 80027a6:	6823      	ldr	r3, [r4, #0]
 80027a8:	f013 0f01 	tst.w	r3, #1
 80027ac:	f000 8081 	beq.w	80028b2 <HAL_RCC_OscConfig+0x1e6>
    if((sysclk_source == RCC_CFGR_SWS_HSE) ||
 80027b0:	2d08      	cmp	r5, #8
 80027b2:	d075      	beq.n	80028a0 <HAL_RCC_OscConfig+0x1d4>
 80027b4:	2d0c      	cmp	r5, #12
 80027b6:	d071      	beq.n	800289c <HAL_RCC_OscConfig+0x1d0>
      __HAL_RCC_HSE_CONFIG(RCC_OscInitStruct->HSEState);
 80027b8:	6863      	ldr	r3, [r4, #4]
 80027ba:	f5b3 3f80 	cmp.w	r3, #65536	@ 0x10000
 80027be:	f000 8097 	beq.w	80028f0 <HAL_RCC_OscConfig+0x224>
 80027c2:	f5b3 2fa0 	cmp.w	r3, #327680	@ 0x50000
 80027c6:	f000 8099 	beq.w	80028fc <HAL_RCC_OscConfig+0x230>
 80027ca:	4b5a      	ldr	r3, [pc, #360]	@ (8002934 <HAL_RCC_OscConfig+0x268>)
 80027cc:	681a      	ldr	r2, [r3, #0]
 80027ce:	f422 3280 	bic.w	r2, r2, #65536	@ 0x10000
 80027d2:	601a      	str	r2, [r3, #0]
 80027d4:	681a      	ldr	r2, [r3, #0]
 80027d6:	f422 2280 	bic.w	r2, r2, #262144	@ 0x40000
 80027da:	601a      	str	r2, [r3, #0]
      if(RCC_OscInitStruct->HSEState != RCC_HSE_OFF)
 80027dc:	6863      	ldr	r3, [r4, #4]
 80027de:	2b00      	cmp	r3, #0
 80027e0:	f000 8099 	beq.w	8002916 <HAL_RCC_OscConfig+0x24a>
        tickstart = HAL_GetTick();
 80027e4:	f7fe fe1c 	bl	8001420 <HAL_GetTick>
 80027e8:	4607      	mov	r7, r0
        while(READ_BIT(RCC->CR, RCC_CR_HSERDY) == 0U)
 80027ea:	4b52      	ldr	r3, [pc, #328]	@ (8002934 <HAL_RCC_OscConfig+0x268>)
 80027ec:	681b      	ldr	r3, [r3, #0]
 80027ee:	f413 3f00 	tst.w	r3, #131072	@ 0x20000
 80027f2:	d15e      	bne.n	80028b2 <HAL_RCC_OscConfig+0x1e6>
          if((HAL_GetTick() - tickstart) > HSE_TIMEOUT_VALUE)
 80027f4:	f7fe fe14 	bl	8001420 <HAL_GetTick>
 80027f8:	1bc0      	subs	r0, r0, r7
 80027fa:	2864      	cmp	r0, #100	@ 0x64
 80027fc:	d9f5      	bls.n	80027ea <HAL_RCC_OscConfig+0x11e>
            return HAL_TIMEOUT;
 80027fe:	2003      	movs	r0, #3
 8002800:	e265      	b.n	8002cce <HAL_RCC_OscConfig+0x602>
        if(RCC_OscInitStruct->MSIClockRange > __HAL_RCC_GET_MSI_RANGE())
 8002802:	4b4c      	ldr	r3, [pc, #304]	@ (8002934 <HAL_RCC_OscConfig+0x268>)
 8002804:	f8d3 3094 	ldr.w	r3, [r3, #148]	@ 0x94
 8002808:	091b      	lsrs	r3, r3, #4
 800280a:	f003 03f0 	and.w	r3, r3, #240	@ 0xf0
 800280e:	e7a0      	b.n	8002752 <HAL_RCC_OscConfig+0x86>
          if(RCC_SetFlashLatencyFromMSIRange(RCC_OscInitStruct->MSIClockRange) != HAL_OK)
 8002810:	f7ff fec0 	bl	8002594 <RCC_SetFlashLatencyFromMSIRange>
 8002814:	2800      	cmp	r0, #0
 8002816:	f040 8253 	bne.w	8002cc0 <HAL_RCC_OscConfig+0x5f4>
          __HAL_RCC_MSI_RANGE_CONFIG(RCC_OscInitStruct->MSIClockRange);
 800281a:	4b46      	ldr	r3, [pc, #280]	@ (8002934 <HAL_RCC_OscConfig+0x268>)
 800281c:	681a      	ldr	r2, [r3, #0]
 800281e:	f042 0208 	orr.w	r2, r2, #8
 8002822:	601a      	str	r2, [r3, #0]
 8002824:	681a      	ldr	r2, [r3, #0]
 8002826:	f022 02f0 	bic.w	r2, r2, #240	@ 0xf0
 800282a:	6a21      	ldr	r1, [r4, #32]
 800282c:	430a      	orrs	r2, r1
 800282e:	601a      	str	r2, [r3, #0]
          __HAL_RCC_MSI_CALIBRATIONVALUE_ADJUST(RCC_OscInitStruct->MSICalibrationValue);
 8002830:	685a      	ldr	r2, [r3, #4]
 8002832:	f422 427f 	bic.w	r2, r2, #65280	@ 0xff00
 8002836:	69e1      	ldr	r1, [r4, #28]
 8002838:	ea42 2201 	orr.w	r2, r2, r1, lsl #8
 800283c:	605a      	str	r2, [r3, #4]
 800283e:	e79e      	b.n	800277e <HAL_RCC_OscConfig+0xb2>
            if(RCC_SetFlashLatencyFromMSIRange(RCC_OscInitStruct->MSIClockRange) != HAL_OK)
 8002840:	6a20      	ldr	r0, [r4, #32]
 8002842:	f7ff fea7 	bl	8002594 <RCC_SetFlashLatencyFromMSIRange>
 8002846:	2800      	cmp	r0, #0
 8002848:	d099      	beq.n	800277e <HAL_RCC_OscConfig+0xb2>
              return HAL_ERROR;
 800284a:	2001      	movs	r0, #1
 800284c:	e23f      	b.n	8002cce <HAL_RCC_OscConfig+0x602>
        __HAL_RCC_MSI_RANGE_CONFIG(RCC_OscInitStruct->MSIClockRange);
 800284e:	4b39      	ldr	r3, [pc, #228]	@ (8002934 <HAL_RCC_OscConfig+0x268>)
 8002850:	681a      	ldr	r2, [r3, #0]
 8002852:	f042 0208 	orr.w	r2, r2, #8
 8002856:	601a      	str	r2, [r3, #0]
 8002858:	681a      	ldr	r2, [r3, #0]
 800285a:	f022 02f0 	bic.w	r2, r2, #240	@ 0xf0
 800285e:	6a21      	ldr	r1, [r4, #32]
 8002860:	430a      	orrs	r2, r1
 8002862:	601a      	str	r2, [r3, #0]
        __HAL_RCC_MSI_CALIBRATIONVALUE_ADJUST(RCC_OscInitStruct->MSICalibrationValue);
 8002864:	685a      	ldr	r2, [r3, #4]
 8002866:	f422 427f 	bic.w	r2, r2, #65280	@ 0xff00
 800286a:	69e1      	ldr	r1, [r4, #28]
 800286c:	ea42 2201 	orr.w	r2, r2, r1, lsl #8
 8002870:	605a      	str	r2, [r3, #4]
 8002872:	e798      	b.n	80027a6 <HAL_RCC_OscConfig+0xda>
        __HAL_RCC_MSI_DISABLE();
 8002874:	4a2f      	ldr	r2, [pc, #188]	@ (8002934 <HAL_RCC_OscConfig+0x268>)
 8002876:	6813      	ldr	r3, [r2, #0]
 8002878:	f023 0301 	bic.w	r3, r3, #1
 800287c:	6013      	str	r3, [r2, #0]
        tickstart = HAL_GetTick();
 800287e:	f7fe fdcf 	bl	8001420 <HAL_GetTick>
 8002882:	4607      	mov	r7, r0
        while(READ_BIT(RCC->CR, RCC_CR_MSIRDY) != 0U)
 8002884:	4b2b      	ldr	r3, [pc, #172]	@ (8002934 <HAL_RCC_OscConfig+0x268>)
 8002886:	681b      	ldr	r3, [r3, #0]
 8002888:	f013 0f02 	tst.w	r3, #2
 800288c:	d08b      	beq.n	80027a6 <HAL_RCC_OscConfig+0xda>
          if((HAL_GetTick() - tickstart) > MSI_TIMEOUT_VALUE)
 800288e:	f7fe fdc7 	bl	8001420 <HAL_GetTick>
 8002892:	1bc0      	subs	r0, r0, r7
 8002894:	2802      	cmp	r0, #2
 8002896:	d9f5      	bls.n	8002884 <HAL_RCC_OscConfig+0x1b8>
            return HAL_TIMEOUT;
 8002898:	2003      	movs	r0, #3
 800289a:	e218      	b.n	8002cce <HAL_RCC_OscConfig+0x602>
       ((sysclk_source == RCC_CFGR_SWS_PLL) && (pll_config == RCC_PLLSOURCE_HSE)))
 800289c:	2e03      	cmp	r6, #3
 800289e:	d18b      	bne.n	80027b8 <HAL_RCC_OscConfig+0xec>
      if((READ_BIT(RCC->CR, RCC_CR_HSERDY) != 0U) && (RCC_OscInitStruct->HSEState == RCC_HSE_OFF))
 80028a0:	4b24      	ldr	r3, [pc, #144]	@ (8002934 <HAL_RCC_OscConfig+0x268>)
 80028a2:	681b      	ldr	r3, [r3, #0]
 80028a4:	f413 3f00 	tst.w	r3, #131072	@ 0x20000
 80028a8:	d003      	beq.n	80028b2 <HAL_RCC_OscConfig+0x1e6>
 80028aa:	6863      	ldr	r3, [r4, #4]
 80028ac:	2b00      	cmp	r3, #0
 80028ae:	f000 8209 	beq.w	8002cc4 <HAL_RCC_OscConfig+0x5f8>
  if(((RCC_OscInitStruct->OscillatorType) & RCC_OSCILLATORTYPE_HSI) == RCC_OSCILLATORTYPE_HSI)
 80028b2:	6823      	ldr	r3, [r4, #0]
 80028b4:	f013 0f02 	tst.w	r3, #2
 80028b8:	d057      	beq.n	800296a <HAL_RCC_OscConfig+0x29e>
    if((sysclk_source == RCC_CFGR_SWS_HSI) ||
 80028ba:	2d04      	cmp	r5, #4
 80028bc:	d044      	beq.n	8002948 <HAL_RCC_OscConfig+0x27c>
 80028be:	2d0c      	cmp	r5, #12
 80028c0:	d040      	beq.n	8002944 <HAL_RCC_OscConfig+0x278>
      if(RCC_OscInitStruct->HSIState != RCC_HSI_OFF)
 80028c2:	68e3      	ldr	r3, [r4, #12]
 80028c4:	2b00      	cmp	r3, #0
 80028c6:	d076      	beq.n	80029b6 <HAL_RCC_OscConfig+0x2ea>
        __HAL_RCC_HSI_ENABLE();
 80028c8:	4a1a      	ldr	r2, [pc, #104]	@ (8002934 <HAL_RCC_OscConfig+0x268>)
 80028ca:	6813      	ldr	r3, [r2, #0]
 80028cc:	f443 7380 	orr.w	r3, r3, #256	@ 0x100
 80028d0:	6013      	str	r3, [r2, #0]
        tickstart = HAL_GetTick();
 80028d2:	f7fe fda5 	bl	8001420 <HAL_GetTick>
 80028d6:	4606      	mov	r6, r0
        while(READ_BIT(RCC->CR, RCC_CR_HSIRDY) == 0U)
 80028d8:	4b16      	ldr	r3, [pc, #88]	@ (8002934 <HAL_RCC_OscConfig+0x268>)
 80028da:	681b      	ldr	r3, [r3, #0]
 80028dc:	f413 6f80 	tst.w	r3, #1024	@ 0x400
 80028e0:	d160      	bne.n	80029a4 <HAL_RCC_OscConfig+0x2d8>
          if((HAL_GetTick() - tickstart) > HSI_TIMEOUT_VALUE)
 80028e2:	f7fe fd9d 	bl	8001420 <HAL_GetTick>
 80028e6:	1b80      	subs	r0, r0, r6
 80028e8:	2802      	cmp	r0, #2
 80028ea:	d9f5      	bls.n	80028d8 <HAL_RCC_OscConfig+0x20c>
            return HAL_TIMEOUT;
 80028ec:	2003      	movs	r0, #3
 80028ee:	e1ee      	b.n	8002cce <HAL_RCC_OscConfig+0x602>
      __HAL_RCC_HSE_CONFIG(RCC_OscInitStruct->HSEState);
 80028f0:	4a10      	ldr	r2, [pc, #64]	@ (8002934 <HAL_RCC_OscConfig+0x268>)
 80028f2:	6813      	ldr	r3, [r2, #0]
 80028f4:	f443 3380 	orr.w	r3, r3, #65536	@ 0x10000
 80028f8:	6013      	str	r3, [r2, #0]
 80028fa:	e76f      	b.n	80027dc <HAL_RCC_OscConfig+0x110>
 80028fc:	f103 4380 	add.w	r3, r3, #1073741824	@ 0x40000000
 8002900:	f5a3 333c 	sub.w	r3, r3, #192512	@ 0x2f000
 8002904:	681a      	ldr	r2, [r3, #0]
 8002906:	f442 2280 	orr.w	r2, r2, #262144	@ 0x40000
 800290a:	601a      	str	r2, [r3, #0]
 800290c:	681a      	ldr	r2, [r3, #0]
 800290e:	f442 3280 	orr.w	r2, r2, #65536	@ 0x10000
 8002912:	601a      	str	r2, [r3, #0]
 8002914:	e762      	b.n	80027dc <HAL_RCC_OscConfig+0x110>
        tickstart = HAL_GetTick();
 8002916:	f7fe fd83 	bl	8001420 <HAL_GetTick>
 800291a:	4607      	mov	r7, r0
        while(READ_BIT(RCC->CR, RCC_CR_HSERDY) != 0U)
 800291c:	4b05      	ldr	r3, [pc, #20]	@ (8002934 <HAL_RCC_OscConfig+0x268>)
 800291e:	681b      	ldr	r3, [r3, #0]
 8002920:	f413 3f00 	tst.w	r3, #131072	@ 0x20000
 8002924:	d0c5      	beq.n	80028b2 <HAL_RCC_OscConfig+0x1e6>
          if((HAL_GetTick() - tickstart) > HSE_TIMEOUT_VALUE)
 8002926:	f7fe fd7b 	bl	8001420 <HAL_GetTick>
 800292a:	1bc0      	subs	r0, r0, r7
 800292c:	2864      	cmp	r0, #100	@ 0x64
 800292e:	d9f5      	bls.n	800291c <HAL_RCC_OscConfig+0x250>
            return HAL_TIMEOUT;
 8002930:	2003      	movs	r0, #3
 8002932:	e1cc      	b.n	8002cce <HAL_RCC_OscConfig+0x602>
 8002934:	40021000 	.word	0x40021000
 8002938:	08007ea0 	.word	0x08007ea0
 800293c:	2000000c 	.word	0x2000000c
 8002940:	20000008 	.word	0x20000008
       ((sysclk_source == RCC_CFGR_SWS_PLL) && (pll_config == RCC_PLLSOURCE_HSI)))
 8002944:	2e02      	cmp	r6, #2
 8002946:	d1bc      	bne.n	80028c2 <HAL_RCC_OscConfig+0x1f6>
      if((READ_BIT(RCC->CR, RCC_CR_HSIRDY) != 0U) && (RCC_OscInitStruct->HSIState == RCC_HSI_OFF))
 8002948:	4ba4      	ldr	r3, [pc, #656]	@ (8002bdc <HAL_RCC_OscConfig+0x510>)
 800294a:	681b      	ldr	r3, [r3, #0]
 800294c:	f413 6f80 	tst.w	r3, #1024	@ 0x400
 8002950:	d003      	beq.n	800295a <HAL_RCC_OscConfig+0x28e>
 8002952:	68e3      	ldr	r3, [r4, #12]
 8002954:	2b00      	cmp	r3, #0
 8002956:	f000 81b7 	beq.w	8002cc8 <HAL_RCC_OscConfig+0x5fc>
        __HAL_RCC_HSI_CALIBRATIONVALUE_ADJUST(RCC_OscInitStruct->HSICalibrationValue);
 800295a:	4aa0      	ldr	r2, [pc, #640]	@ (8002bdc <HAL_RCC_OscConfig+0x510>)
 800295c:	6853      	ldr	r3, [r2, #4]
 800295e:	f023 53f8 	bic.w	r3, r3, #520093696	@ 0x1f000000
 8002962:	6921      	ldr	r1, [r4, #16]
 8002964:	ea43 6301 	orr.w	r3, r3, r1, lsl #24
 8002968:	6053      	str	r3, [r2, #4]
  if(((RCC_OscInitStruct->OscillatorType) & RCC_OSCILLATORTYPE_LSI) == RCC_OSCILLATORTYPE_LSI)
 800296a:	6823      	ldr	r3, [r4, #0]
 800296c:	f013 0f08 	tst.w	r3, #8
 8002970:	d04c      	beq.n	8002a0c <HAL_RCC_OscConfig+0x340>
    if(RCC_OscInitStruct->LSIState != RCC_LSI_OFF)
 8002972:	6963      	ldr	r3, [r4, #20]
 8002974:	b39b      	cbz	r3, 80029de <HAL_RCC_OscConfig+0x312>
      __HAL_RCC_LSI_ENABLE();
 8002976:	4a99      	ldr	r2, [pc, #612]	@ (8002bdc <HAL_RCC_OscConfig+0x510>)
 8002978:	f8d2 3094 	ldr.w	r3, [r2, #148]	@ 0x94
 800297c:	f043 0301 	orr.w	r3, r3, #1
 8002980:	f8c2 3094 	str.w	r3, [r2, #148]	@ 0x94
      tickstart = HAL_GetTick();
 8002984:	f7fe fd4c 	bl	8001420 <HAL_GetTick>
 8002988:	4606      	mov	r6, r0
      while(READ_BIT(RCC->CSR, RCC_CSR_LSIRDY) == 0U)
 800298a:	4b94      	ldr	r3, [pc, #592]	@ (8002bdc <HAL_RCC_OscConfig+0x510>)
 800298c:	f8d3 3094 	ldr.w	r3, [r3, #148]	@ 0x94
 8002990:	f013 0f02 	tst.w	r3, #2
 8002994:	d13a      	bne.n	8002a0c <HAL_RCC_OscConfig+0x340>
        if((HAL_GetTick() - tickstart) > LSI_TIMEOUT_VALUE)
 8002996:	f7fe fd43 	bl	8001420 <HAL_GetTick>
 800299a:	1b80      	subs	r0, r0, r6
 800299c:	2802      	cmp	r0, #2
 800299e:	d9f4      	bls.n	800298a <HAL_RCC_OscConfig+0x2be>
          return HAL_TIMEOUT;
 80029a0:	2003      	movs	r0, #3
 80029a2:	e194      	b.n	8002cce <HAL_RCC_OscConfig+0x602>
        __HAL_RCC_HSI_CALIBRATIONVALUE_ADJUST(RCC_OscInitStruct->HSICalibrationValue);
 80029a4:	4a8d      	ldr	r2, [pc, #564]	@ (8002bdc <HAL_RCC_OscConfig+0x510>)
 80029a6:	6853      	ldr	r3, [r2, #4]
 80029a8:	f023 53f8 	bic.w	r3, r3, #520093696	@ 0x1f000000
 80029ac:	6921      	ldr	r1, [r4, #16]
 80029ae:	ea43 6301 	orr.w	r3, r3, r1, lsl #24
 80029b2:	6053      	str	r3, [r2, #4]
 80029b4:	e7d9      	b.n	800296a <HAL_RCC_OscConfig+0x29e>
        __HAL_RCC_HSI_DISABLE();
 80029b6:	4a89      	ldr	r2, [pc, #548]	@ (8002bdc <HAL_RCC_OscConfig+0x510>)
 80029b8:	6813      	ldr	r3, [r2, #0]
 80029ba:	f423 7380 	bic.w	r3, r3, #256	@ 0x100
 80029be:	6013      	str	r3, [r2, #0]
        tickstart = HAL_GetTick();
 80029c0:	f7fe fd2e 	bl	8001420 <HAL_GetTick>
 80029c4:	4606      	mov	r6, r0
        while(READ_BIT(RCC->CR, RCC_CR_HSIRDY) != 0U)
 80029c6:	4b85      	ldr	r3, [pc, #532]	@ (8002bdc <HAL_RCC_OscConfig+0x510>)
 80029c8:	681b      	ldr	r3, [r3, #0]
 80029ca:	f413 6f80 	tst.w	r3, #1024	@ 0x400
 80029ce:	d0cc      	beq.n	800296a <HAL_RCC_OscConfig+0x29e>
          if((HAL_GetTick() - tickstart) > HSI_TIMEOUT_VALUE)
 80029d0:	f7fe fd26 	bl	8001420 <HAL_GetTick>
 80029d4:	1b80      	subs	r0, r0, r6
 80029d6:	2802      	cmp	r0, #2
 80029d8:	d9f5      	bls.n	80029c6 <HAL_RCC_OscConfig+0x2fa>
            return HAL_TIMEOUT;
 80029da:	2003      	movs	r0, #3
 80029dc:	e177      	b.n	8002cce <HAL_RCC_OscConfig+0x602>
      __HAL_RCC_LSI_DISABLE();
 80029de:	4a7f      	ldr	r2, [pc, #508]	@ (8002bdc <HAL_RCC_OscConfig+0x510>)
 80029e0:	f8d2 3094 	ldr.w	r3, [r2, #148]	@ 0x94
 80029e4:	f023 0301 	bic.w	r3, r3, #1
 80029e8:	f8c2 3094 	str.w	r3, [r2, #148]	@ 0x94
      tickstart = HAL_GetTick();
 80029ec:	f7fe fd18 	bl	8001420 <HAL_GetTick>
 80029f0:	4606      	mov	r6, r0
      while(READ_BIT(RCC->CSR, RCC_CSR_LSIRDY) != 0U)
 80029f2:	4b7a      	ldr	r3, [pc, #488]	@ (8002bdc <HAL_RCC_OscConfig+0x510>)
 80029f4:	f8d3 3094 	ldr.w	r3, [r3, #148]	@ 0x94
 80029f8:	f013 0f02 	tst.w	r3, #2
 80029fc:	d006      	beq.n	8002a0c <HAL_RCC_OscConfig+0x340>
        if((HAL_GetTick() - tickstart) > LSI_TIMEOUT_VALUE)
 80029fe:	f7fe fd0f 	bl	8001420 <HAL_GetTick>
 8002a02:	1b80      	subs	r0, r0, r6
 8002a04:	2802      	cmp	r0, #2
 8002a06:	d9f4      	bls.n	80029f2 <HAL_RCC_OscConfig+0x326>
          return HAL_TIMEOUT;
 8002a08:	2003      	movs	r0, #3
 8002a0a:	e160      	b.n	8002cce <HAL_RCC_OscConfig+0x602>
  if(((RCC_OscInitStruct->OscillatorType) & RCC_OSCILLATORTYPE_LSE) == RCC_OSCILLATORTYPE_LSE)
 8002a0c:	6823      	ldr	r3, [r4, #0]
 8002a0e:	f013 0f04 	tst.w	r3, #4
 8002a12:	d07c      	beq.n	8002b0e <HAL_RCC_OscConfig+0x442>
    if(HAL_IS_BIT_CLR(RCC->APB1ENR1, RCC_APB1ENR1_PWREN))
 8002a14:	4b71      	ldr	r3, [pc, #452]	@ (8002bdc <HAL_RCC_OscConfig+0x510>)
 8002a16:	6d9b      	ldr	r3, [r3, #88]	@ 0x58
 8002a18:	f013 5f80 	tst.w	r3, #268435456	@ 0x10000000
 8002a1c:	d137      	bne.n	8002a8e <HAL_RCC_OscConfig+0x3c2>
      __HAL_RCC_PWR_CLK_ENABLE();
 8002a1e:	4b6f      	ldr	r3, [pc, #444]	@ (8002bdc <HAL_RCC_OscConfig+0x510>)
 8002a20:	6d9a      	ldr	r2, [r3, #88]	@ 0x58
 8002a22:	f042 5280 	orr.w	r2, r2, #268435456	@ 0x10000000
 8002a26:	659a      	str	r2, [r3, #88]	@ 0x58
 8002a28:	6d9b      	ldr	r3, [r3, #88]	@ 0x58
 8002a2a:	f003 5380 	and.w	r3, r3, #268435456	@ 0x10000000
 8002a2e:	9301      	str	r3, [sp, #4]
 8002a30:	9b01      	ldr	r3, [sp, #4]
      pwrclkchanged = SET;
 8002a32:	2301      	movs	r3, #1
 8002a34:	461f      	mov	r7, r3
    if(HAL_IS_BIT_CLR(PWR->CR1, PWR_CR1_DBP))
 8002a36:	4b6a      	ldr	r3, [pc, #424]	@ (8002be0 <HAL_RCC_OscConfig+0x514>)
 8002a38:	681b      	ldr	r3, [r3, #0]
 8002a3a:	f413 7f80 	tst.w	r3, #256	@ 0x100
 8002a3e:	d029      	beq.n	8002a94 <HAL_RCC_OscConfig+0x3c8>
    __HAL_RCC_LSE_CONFIG(RCC_OscInitStruct->LSEState);
 8002a40:	68a3      	ldr	r3, [r4, #8]
 8002a42:	2b01      	cmp	r3, #1
 8002a44:	d03a      	beq.n	8002abc <HAL_RCC_OscConfig+0x3f0>
 8002a46:	2b05      	cmp	r3, #5
 8002a48:	d040      	beq.n	8002acc <HAL_RCC_OscConfig+0x400>
 8002a4a:	4b64      	ldr	r3, [pc, #400]	@ (8002bdc <HAL_RCC_OscConfig+0x510>)
 8002a4c:	f8d3 2090 	ldr.w	r2, [r3, #144]	@ 0x90
 8002a50:	f022 0201 	bic.w	r2, r2, #1
 8002a54:	f8c3 2090 	str.w	r2, [r3, #144]	@ 0x90
 8002a58:	f8d3 2090 	ldr.w	r2, [r3, #144]	@ 0x90
 8002a5c:	f022 0204 	bic.w	r2, r2, #4
 8002a60:	f8c3 2090 	str.w	r2, [r3, #144]	@ 0x90
    if(RCC_OscInitStruct->LSEState != RCC_LSE_OFF)
 8002a64:	68a3      	ldr	r3, [r4, #8]
 8002a66:	2b00      	cmp	r3, #0
 8002a68:	d03e      	beq.n	8002ae8 <HAL_RCC_OscConfig+0x41c>
      tickstart = HAL_GetTick();
 8002a6a:	f7fe fcd9 	bl	8001420 <HAL_GetTick>
 8002a6e:	4606      	mov	r6, r0
      while(READ_BIT(RCC->BDCR, RCC_BDCR_LSERDY) == 0U)
 8002a70:	4b5a      	ldr	r3, [pc, #360]	@ (8002bdc <HAL_RCC_OscConfig+0x510>)
 8002a72:	f8d3 3090 	ldr.w	r3, [r3, #144]	@ 0x90
 8002a76:	f013 0f02 	tst.w	r3, #2
 8002a7a:	d147      	bne.n	8002b0c <HAL_RCC_OscConfig+0x440>
        if((HAL_GetTick() - tickstart) > RCC_LSE_TIMEOUT_VALUE)
 8002a7c:	f7fe fcd0 	bl	8001420 <HAL_GetTick>
 8002a80:	1b80      	subs	r0, r0, r6
 8002a82:	f241 3388 	movw	r3, #5000	@ 0x1388
 8002a86:	4298      	cmp	r0, r3
 8002a88:	d9f2      	bls.n	8002a70 <HAL_RCC_OscConfig+0x3a4>
          return HAL_TIMEOUT;
 8002a8a:	2003      	movs	r0, #3
 8002a8c:	e11f      	b.n	8002cce <HAL_RCC_OscConfig+0x602>
    FlagStatus       pwrclkchanged = RESET;
 8002a8e:	2300      	movs	r3, #0
 8002a90:	461f      	mov	r7, r3
 8002a92:	e7d0      	b.n	8002a36 <HAL_RCC_OscConfig+0x36a>
      SET_BIT(PWR->CR1, PWR_CR1_DBP);
 8002a94:	4a52      	ldr	r2, [pc, #328]	@ (8002be0 <HAL_RCC_OscConfig+0x514>)
 8002a96:	6813      	ldr	r3, [r2, #0]
 8002a98:	f443 7380 	orr.w	r3, r3, #256	@ 0x100
 8002a9c:	6013      	str	r3, [r2, #0]
      tickstart = HAL_GetTick();
 8002a9e:	f7fe fcbf 	bl	8001420 <HAL_GetTick>
 8002aa2:	4606      	mov	r6, r0
      while(HAL_IS_BIT_CLR(PWR->CR1, PWR_CR1_DBP))
 8002aa4:	4b4e      	ldr	r3, [pc, #312]	@ (8002be0 <HAL_RCC_OscConfig+0x514>)
 8002aa6:	681b      	ldr	r3, [r3, #0]
 8002aa8:	f413 7f80 	tst.w	r3, #256	@ 0x100
 8002aac:	d1c8      	bne.n	8002a40 <HAL_RCC_OscConfig+0x374>
        if((HAL_GetTick() - tickstart) > RCC_DBP_TIMEOUT_VALUE)
 8002aae:	f7fe fcb7 	bl	8001420 <HAL_GetTick>
 8002ab2:	1b80      	subs	r0, r0, r6
 8002ab4:	2802      	cmp	r0, #2
 8002ab6:	d9f5      	bls.n	8002aa4 <HAL_RCC_OscConfig+0x3d8>
          return HAL_TIMEOUT;
 8002ab8:	2003      	movs	r0, #3
 8002aba:	e108      	b.n	8002cce <HAL_RCC_OscConfig+0x602>
    __HAL_RCC_LSE_CONFIG(RCC_OscInitStruct->LSEState);
 8002abc:	4a47      	ldr	r2, [pc, #284]	@ (8002bdc <HAL_RCC_OscConfig+0x510>)
 8002abe:	f8d2 3090 	ldr.w	r3, [r2, #144]	@ 0x90
 8002ac2:	f043 0301 	orr.w	r3, r3, #1
 8002ac6:	f8c2 3090 	str.w	r3, [r2, #144]	@ 0x90
 8002aca:	e7cb      	b.n	8002a64 <HAL_RCC_OscConfig+0x398>
 8002acc:	4b43      	ldr	r3, [pc, #268]	@ (8002bdc <HAL_RCC_OscConfig+0x510>)
 8002ace:	f8d3 2090 	ldr.w	r2, [r3, #144]	@ 0x90
 8002ad2:	f042 0204 	orr.w	r2, r2, #4
 8002ad6:	f8c3 2090 	str.w	r2, [r3, #144]	@ 0x90
 8002ada:	f8d3 2090 	ldr.w	r2, [r3, #144]	@ 0x90
 8002ade:	f042 0201 	orr.w	r2, r2, #1
 8002ae2:	f8c3 2090 	str.w	r2, [r3, #144]	@ 0x90
 8002ae6:	e7bd      	b.n	8002a64 <HAL_RCC_OscConfig+0x398>
      tickstart = HAL_GetTick();
 8002ae8:	f7fe fc9a 	bl	8001420 <HAL_GetTick>
 8002aec:	4606      	mov	r6, r0
      while(READ_BIT(RCC->BDCR, RCC_BDCR_LSERDY) != 0U)
 8002aee:	4b3b      	ldr	r3, [pc, #236]	@ (8002bdc <HAL_RCC_OscConfig+0x510>)
 8002af0:	f8d3 3090 	ldr.w	r3, [r3, #144]	@ 0x90
 8002af4:	f013 0f02 	tst.w	r3, #2
 8002af8:	d008      	beq.n	8002b0c <HAL_RCC_OscConfig+0x440>
        if((HAL_GetTick() - tickstart) > RCC_LSE_TIMEOUT_VALUE)
 8002afa:	f7fe fc91 	bl	8001420 <HAL_GetTick>
 8002afe:	1b80      	subs	r0, r0, r6
 8002b00:	f241 3388 	movw	r3, #5000	@ 0x1388
 8002b04:	4298      	cmp	r0, r3
 8002b06:	d9f2      	bls.n	8002aee <HAL_RCC_OscConfig+0x422>
          return HAL_TIMEOUT;
 8002b08:	2003      	movs	r0, #3
 8002b0a:	e0e0      	b.n	8002cce <HAL_RCC_OscConfig+0x602>
    if(pwrclkchanged == SET)
 8002b0c:	b9ef      	cbnz	r7, 8002b4a <HAL_RCC_OscConfig+0x47e>
  if(RCC_OscInitStruct->PLL.PLLState != RCC_PLL_NONE)
 8002b0e:	6aa3      	ldr	r3, [r4, #40]	@ 0x28
 8002b10:	2b00      	cmp	r3, #0
 8002b12:	f000 80db 	beq.w	8002ccc <HAL_RCC_OscConfig+0x600>
    if(RCC_OscInitStruct->PLL.PLLState == RCC_PLL_ON)
 8002b16:	2b02      	cmp	r3, #2
 8002b18:	d01d      	beq.n	8002b56 <HAL_RCC_OscConfig+0x48a>
      if(sysclk_source != RCC_CFGR_SWS_PLL)
 8002b1a:	2d0c      	cmp	r5, #12
 8002b1c:	f000 80dd 	beq.w	8002cda <HAL_RCC_OscConfig+0x60e>
        __HAL_RCC_PLL_DISABLE();
 8002b20:	4a2e      	ldr	r2, [pc, #184]	@ (8002bdc <HAL_RCC_OscConfig+0x510>)
 8002b22:	6813      	ldr	r3, [r2, #0]
 8002b24:	f023 7380 	bic.w	r3, r3, #16777216	@ 0x1000000
 8002b28:	6013      	str	r3, [r2, #0]
        tickstart = HAL_GetTick();
 8002b2a:	f7fe fc79 	bl	8001420 <HAL_GetTick>
 8002b2e:	4604      	mov	r4, r0
        while(READ_BIT(RCC->CR, RCC_CR_PLLRDY) != 0U)
 8002b30:	4b2a      	ldr	r3, [pc, #168]	@ (8002bdc <HAL_RCC_OscConfig+0x510>)
 8002b32:	681b      	ldr	r3, [r3, #0]
 8002b34:	f013 7f00 	tst.w	r3, #33554432	@ 0x2000000
 8002b38:	f000 80b7 	beq.w	8002caa <HAL_RCC_OscConfig+0x5de>
          if((HAL_GetTick() - tickstart) > PLL_TIMEOUT_VALUE)
 8002b3c:	f7fe fc70 	bl	8001420 <HAL_GetTick>
 8002b40:	1b00      	subs	r0, r0, r4
 8002b42:	2802      	cmp	r0, #2
 8002b44:	d9f4      	bls.n	8002b30 <HAL_RCC_OscConfig+0x464>
            return HAL_TIMEOUT;
 8002b46:	2003      	movs	r0, #3
 8002b48:	e0c1      	b.n	8002cce <HAL_RCC_OscConfig+0x602>
      __HAL_RCC_PWR_CLK_DISABLE();
 8002b4a:	4a24      	ldr	r2, [pc, #144]	@ (8002bdc <HAL_RCC_OscConfig+0x510>)
 8002b4c:	6d93      	ldr	r3, [r2, #88]	@ 0x58
 8002b4e:	f023 5380 	bic.w	r3, r3, #268435456	@ 0x10000000
 8002b52:	6593      	str	r3, [r2, #88]	@ 0x58
 8002b54:	e7db      	b.n	8002b0e <HAL_RCC_OscConfig+0x442>
      pll_config = RCC->PLLCFGR;
 8002b56:	4b21      	ldr	r3, [pc, #132]	@ (8002bdc <HAL_RCC_OscConfig+0x510>)
 8002b58:	68db      	ldr	r3, [r3, #12]
      if((READ_BIT(pll_config, RCC_PLLCFGR_PLLSRC)  != RCC_OscInitStruct->PLL.PLLSource) ||
 8002b5a:	f003 0103 	and.w	r1, r3, #3
 8002b5e:	6ae2      	ldr	r2, [r4, #44]	@ 0x2c
 8002b60:	4291      	cmp	r1, r2
 8002b62:	d00f      	beq.n	8002b84 <HAL_RCC_OscConfig+0x4b8>
        if(sysclk_source != RCC_CFGR_SWS_PLL)
 8002b64:	2d0c      	cmp	r5, #12
 8002b66:	f000 80b4 	beq.w	8002cd2 <HAL_RCC_OscConfig+0x606>
          if((READ_BIT(RCC->CR, RCC_CR_PLLSAI1ON) != 0U)
 8002b6a:	4b1c      	ldr	r3, [pc, #112]	@ (8002bdc <HAL_RCC_OscConfig+0x510>)
 8002b6c:	681b      	ldr	r3, [r3, #0]
 8002b6e:	f013 6f80 	tst.w	r3, #67108864	@ 0x4000000
 8002b72:	f040 80b0 	bne.w	8002cd6 <HAL_RCC_OscConfig+0x60a>
             || (READ_BIT(RCC->CR, RCC_CR_PLLSAI2ON) != 0U)
 8002b76:	4b19      	ldr	r3, [pc, #100]	@ (8002bdc <HAL_RCC_OscConfig+0x510>)
 8002b78:	681b      	ldr	r3, [r3, #0]
 8002b7a:	f013 5f80 	tst.w	r3, #268435456	@ 0x10000000
 8002b7e:	d031      	beq.n	8002be4 <HAL_RCC_OscConfig+0x518>
            return HAL_ERROR;
 8002b80:	2001      	movs	r0, #1
 8002b82:	e0a4      	b.n	8002cce <HAL_RCC_OscConfig+0x602>
         (READ_BIT(pll_config, RCC_PLLCFGR_PLLM)    != ((RCC_OscInitStruct->PLL.PLLM - 1U) << RCC_PLLCFGR_PLLM_Pos)) ||
 8002b84:	f003 0270 	and.w	r2, r3, #112	@ 0x70
 8002b88:	6b21      	ldr	r1, [r4, #48]	@ 0x30
 8002b8a:	3901      	subs	r1, #1
      if((READ_BIT(pll_config, RCC_PLLCFGR_PLLSRC)  != RCC_OscInitStruct->PLL.PLLSource) ||
 8002b8c:	ebb2 1f01 	cmp.w	r2, r1, lsl #4
 8002b90:	d1e8      	bne.n	8002b64 <HAL_RCC_OscConfig+0x498>
         (READ_BIT(pll_config, RCC_PLLCFGR_PLLN)    != (RCC_OscInitStruct->PLL.PLLN << RCC_PLLCFGR_PLLN_Pos)) ||
 8002b92:	f403 42fe 	and.w	r2, r3, #32512	@ 0x7f00
 8002b96:	6b61      	ldr	r1, [r4, #52]	@ 0x34
         (READ_BIT(pll_config, RCC_PLLCFGR_PLLM)    != ((RCC_OscInitStruct->PLL.PLLM - 1U) << RCC_PLLCFGR_PLLM_Pos)) ||
 8002b98:	ebb2 2f01 	cmp.w	r2, r1, lsl #8
 8002b9c:	d1e2      	bne.n	8002b64 <HAL_RCC_OscConfig+0x498>
         (READ_BIT(pll_config, RCC_PLLCFGR_PLLP)    != ((RCC_OscInitStruct->PLL.PLLP == RCC_PLLP_DIV7) ? 0U : 1U)) ||
 8002b9e:	f403 3100 	and.w	r1, r3, #131072	@ 0x20000
 8002ba2:	6ba2      	ldr	r2, [r4, #56]	@ 0x38
 8002ba4:	3a07      	subs	r2, #7
 8002ba6:	bf18      	it	ne
 8002ba8:	2201      	movne	r2, #1
         (READ_BIT(pll_config, RCC_PLLCFGR_PLLN)    != (RCC_OscInitStruct->PLL.PLLN << RCC_PLLCFGR_PLLN_Pos)) ||
 8002baa:	4291      	cmp	r1, r2
 8002bac:	d1da      	bne.n	8002b64 <HAL_RCC_OscConfig+0x498>
         (READ_BIT(pll_config, RCC_PLLCFGR_PLLQ)    != ((((RCC_OscInitStruct->PLL.PLLQ) >> 1U) - 1U) << RCC_PLLCFGR_PLLQ_Pos)) ||
 8002bae:	f403 01c0 	and.w	r1, r3, #6291456	@ 0x600000
 8002bb2:	6be2      	ldr	r2, [r4, #60]	@ 0x3c
 8002bb4:	0852      	lsrs	r2, r2, #1
 8002bb6:	3a01      	subs	r2, #1
         (READ_BIT(pll_config, RCC_PLLCFGR_PLLP)    != ((RCC_OscInitStruct->PLL.PLLP == RCC_PLLP_DIV7) ? 0U : 1U)) ||
 8002bb8:	ebb1 5f42 	cmp.w	r1, r2, lsl #21
 8002bbc:	d1d2      	bne.n	8002b64 <HAL_RCC_OscConfig+0x498>
         (READ_BIT(pll_config, RCC_PLLCFGR_PLLR)    != ((((RCC_OscInitStruct->PLL.PLLR) >> 1U) - 1U) << RCC_PLLCFGR_PLLR_Pos)))
 8002bbe:	f003 63c0 	and.w	r3, r3, #100663296	@ 0x6000000
 8002bc2:	6c22      	ldr	r2, [r4, #64]	@ 0x40
 8002bc4:	0852      	lsrs	r2, r2, #1
 8002bc6:	3a01      	subs	r2, #1
         (READ_BIT(pll_config, RCC_PLLCFGR_PLLQ)    != ((((RCC_OscInitStruct->PLL.PLLQ) >> 1U) - 1U) << RCC_PLLCFGR_PLLQ_Pos)) ||
 8002bc8:	ebb3 6f42 	cmp.w	r3, r2, lsl #25
 8002bcc:	d1ca      	bne.n	8002b64 <HAL_RCC_OscConfig+0x498>
        if(READ_BIT(RCC->CR, RCC_CR_PLLRDY) == 0U)
 8002bce:	4b03      	ldr	r3, [pc, #12]	@ (8002bdc <HAL_RCC_OscConfig+0x510>)
 8002bd0:	681b      	ldr	r3, [r3, #0]
 8002bd2:	f013 7f00 	tst.w	r3, #33554432	@ 0x2000000
 8002bd6:	d04e      	beq.n	8002c76 <HAL_RCC_OscConfig+0x5aa>
  return HAL_OK;
 8002bd8:	2000      	movs	r0, #0
 8002bda:	e078      	b.n	8002cce <HAL_RCC_OscConfig+0x602>
 8002bdc:	40021000 	.word	0x40021000
 8002be0:	40007000 	.word	0x40007000
            __HAL_RCC_PLL_DISABLE();
 8002be4:	4a3e      	ldr	r2, [pc, #248]	@ (8002ce0 <HAL_RCC_OscConfig+0x614>)
 8002be6:	6813      	ldr	r3, [r2, #0]
 8002be8:	f023 7380 	bic.w	r3, r3, #16777216	@ 0x1000000
 8002bec:	6013      	str	r3, [r2, #0]
            tickstart = HAL_GetTick();
 8002bee:	f7fe fc17 	bl	8001420 <HAL_GetTick>
 8002bf2:	4605      	mov	r5, r0
            while(READ_BIT(RCC->CR, RCC_CR_PLLRDY) != 0U)
 8002bf4:	4b3a      	ldr	r3, [pc, #232]	@ (8002ce0 <HAL_RCC_OscConfig+0x614>)
 8002bf6:	681b      	ldr	r3, [r3, #0]
 8002bf8:	f013 7f00 	tst.w	r3, #33554432	@ 0x2000000
 8002bfc:	d006      	beq.n	8002c0c <HAL_RCC_OscConfig+0x540>
              if((HAL_GetTick() - tickstart) > PLL_TIMEOUT_VALUE)
 8002bfe:	f7fe fc0f 	bl	8001420 <HAL_GetTick>
 8002c02:	1b40      	subs	r0, r0, r5
 8002c04:	2802      	cmp	r0, #2
 8002c06:	d9f5      	bls.n	8002bf4 <HAL_RCC_OscConfig+0x528>
                return HAL_TIMEOUT;
 8002c08:	2003      	movs	r0, #3
 8002c0a:	e060      	b.n	8002cce <HAL_RCC_OscConfig+0x602>
            __HAL_RCC_PLL_CONFIG(RCC_OscInitStruct->PLL.PLLSource,
 8002c0c:	4a34      	ldr	r2, [pc, #208]	@ (8002ce0 <HAL_RCC_OscConfig+0x614>)
 8002c0e:	68d3      	ldr	r3, [r2, #12]
 8002c10:	4934      	ldr	r1, [pc, #208]	@ (8002ce4 <HAL_RCC_OscConfig+0x618>)
 8002c12:	4019      	ands	r1, r3
 8002c14:	6ae3      	ldr	r3, [r4, #44]	@ 0x2c
 8002c16:	6b20      	ldr	r0, [r4, #48]	@ 0x30
 8002c18:	3801      	subs	r0, #1
 8002c1a:	ea43 1300 	orr.w	r3, r3, r0, lsl #4
 8002c1e:	6b60      	ldr	r0, [r4, #52]	@ 0x34
 8002c20:	ea43 2300 	orr.w	r3, r3, r0, lsl #8
 8002c24:	6be0      	ldr	r0, [r4, #60]	@ 0x3c
 8002c26:	0840      	lsrs	r0, r0, #1
 8002c28:	3801      	subs	r0, #1
 8002c2a:	ea43 5340 	orr.w	r3, r3, r0, lsl #21
 8002c2e:	6c20      	ldr	r0, [r4, #64]	@ 0x40
 8002c30:	0840      	lsrs	r0, r0, #1
 8002c32:	3801      	subs	r0, #1
 8002c34:	ea43 6340 	orr.w	r3, r3, r0, lsl #25
 8002c38:	6ba0      	ldr	r0, [r4, #56]	@ 0x38
 8002c3a:	0900      	lsrs	r0, r0, #4
 8002c3c:	ea43 4340 	orr.w	r3, r3, r0, lsl #17
 8002c40:	4319      	orrs	r1, r3
 8002c42:	60d1      	str	r1, [r2, #12]
            __HAL_RCC_PLL_ENABLE();
 8002c44:	6813      	ldr	r3, [r2, #0]
 8002c46:	f043 7380 	orr.w	r3, r3, #16777216	@ 0x1000000
 8002c4a:	6013      	str	r3, [r2, #0]
            __HAL_RCC_PLLCLKOUT_ENABLE(RCC_PLL_SYSCLK);
 8002c4c:	68d3      	ldr	r3, [r2, #12]
 8002c4e:	f043 7380 	orr.w	r3, r3, #16777216	@ 0x1000000
 8002c52:	60d3      	str	r3, [r2, #12]
            tickstart = HAL_GetTick();
 8002c54:	f7fe fbe4 	bl	8001420 <HAL_GetTick>
 8002c58:	4604      	mov	r4, r0
            while(READ_BIT(RCC->CR, RCC_CR_PLLRDY) == 0U)
 8002c5a:	4b21      	ldr	r3, [pc, #132]	@ (8002ce0 <HAL_RCC_OscConfig+0x614>)
 8002c5c:	681b      	ldr	r3, [r3, #0]
 8002c5e:	f013 7f00 	tst.w	r3, #33554432	@ 0x2000000
 8002c62:	d106      	bne.n	8002c72 <HAL_RCC_OscConfig+0x5a6>
              if((HAL_GetTick() - tickstart) > PLL_TIMEOUT_VALUE)
 8002c64:	f7fe fbdc 	bl	8001420 <HAL_GetTick>
 8002c68:	1b00      	subs	r0, r0, r4
 8002c6a:	2802      	cmp	r0, #2
 8002c6c:	d9f5      	bls.n	8002c5a <HAL_RCC_OscConfig+0x58e>
                return HAL_TIMEOUT;
 8002c6e:	2003      	movs	r0, #3
 8002c70:	e02d      	b.n	8002cce <HAL_RCC_OscConfig+0x602>
  return HAL_OK;
 8002c72:	2000      	movs	r0, #0
 8002c74:	e02b      	b.n	8002cce <HAL_RCC_OscConfig+0x602>
          __HAL_RCC_PLL_ENABLE();
 8002c76:	4b1a      	ldr	r3, [pc, #104]	@ (8002ce0 <HAL_RCC_OscConfig+0x614>)
 8002c78:	681a      	ldr	r2, [r3, #0]
 8002c7a:	f042 7280 	orr.w	r2, r2, #16777216	@ 0x1000000
 8002c7e:	601a      	str	r2, [r3, #0]
          __HAL_RCC_PLLCLKOUT_ENABLE(RCC_PLL_SYSCLK);
 8002c80:	68da      	ldr	r2, [r3, #12]
 8002c82:	f042 7280 	orr.w	r2, r2, #16777216	@ 0x1000000
 8002c86:	60da      	str	r2, [r3, #12]
          tickstart = HAL_GetTick();
 8002c88:	f7fe fbca 	bl	8001420 <HAL_GetTick>
 8002c8c:	4604      	mov	r4, r0
          while(READ_BIT(RCC->CR, RCC_CR_PLLRDY) == 0U)
 8002c8e:	4b14      	ldr	r3, [pc, #80]	@ (8002ce0 <HAL_RCC_OscConfig+0x614>)
 8002c90:	681b      	ldr	r3, [r3, #0]
 8002c92:	f013 7f00 	tst.w	r3, #33554432	@ 0x2000000
 8002c96:	d106      	bne.n	8002ca6 <HAL_RCC_OscConfig+0x5da>
            if((HAL_GetTick() - tickstart) > PLL_TIMEOUT_VALUE)
 8002c98:	f7fe fbc2 	bl	8001420 <HAL_GetTick>
 8002c9c:	1b03      	subs	r3, r0, r4
 8002c9e:	2b02      	cmp	r3, #2
 8002ca0:	d9f5      	bls.n	8002c8e <HAL_RCC_OscConfig+0x5c2>
              return HAL_TIMEOUT;
 8002ca2:	2003      	movs	r0, #3
 8002ca4:	e013      	b.n	8002cce <HAL_RCC_OscConfig+0x602>
  return HAL_OK;
 8002ca6:	2000      	movs	r0, #0
 8002ca8:	e011      	b.n	8002cce <HAL_RCC_OscConfig+0x602>
        RCC->PLLCFGR &= ~(RCC_PLLCFGR_PLLSRC | RCC_PLL_SYSCLK | RCC_PLL_48M1CLK | RCC_PLL_SAI3CLK);
 8002caa:	4a0d      	ldr	r2, [pc, #52]	@ (8002ce0 <HAL_RCC_OscConfig+0x614>)
 8002cac:	68d1      	ldr	r1, [r2, #12]
 8002cae:	4b0e      	ldr	r3, [pc, #56]	@ (8002ce8 <HAL_RCC_OscConfig+0x61c>)
 8002cb0:	400b      	ands	r3, r1
 8002cb2:	60d3      	str	r3, [r2, #12]
  return HAL_OK;
 8002cb4:	2000      	movs	r0, #0
 8002cb6:	e00a      	b.n	8002cce <HAL_RCC_OscConfig+0x602>
    return HAL_ERROR;
 8002cb8:	2001      	movs	r0, #1
}
 8002cba:	4770      	bx	lr
        return HAL_ERROR;
 8002cbc:	2001      	movs	r0, #1
 8002cbe:	e006      	b.n	8002cce <HAL_RCC_OscConfig+0x602>
            return HAL_ERROR;
 8002cc0:	2001      	movs	r0, #1
 8002cc2:	e004      	b.n	8002cce <HAL_RCC_OscConfig+0x602>
        return HAL_ERROR;
 8002cc4:	2001      	movs	r0, #1
 8002cc6:	e002      	b.n	8002cce <HAL_RCC_OscConfig+0x602>
        return HAL_ERROR;
 8002cc8:	2001      	movs	r0, #1
 8002cca:	e000      	b.n	8002cce <HAL_RCC_OscConfig+0x602>
  return HAL_OK;
 8002ccc:	4618      	mov	r0, r3
}
 8002cce:	b003      	add	sp, #12
 8002cd0:	bdf0      	pop	{r4, r5, r6, r7, pc}
          return HAL_ERROR;
 8002cd2:	2001      	movs	r0, #1
 8002cd4:	e7fb      	b.n	8002cce <HAL_RCC_OscConfig+0x602>
            return HAL_ERROR;
 8002cd6:	2001      	movs	r0, #1
 8002cd8:	e7f9      	b.n	8002cce <HAL_RCC_OscConfig+0x602>
        return HAL_ERROR;
 8002cda:	2001      	movs	r0, #1
 8002cdc:	e7f7      	b.n	8002cce <HAL_RCC_OscConfig+0x602>
 8002cde:	bf00      	nop
 8002ce0:	40021000 	.word	0x40021000
 8002ce4:	f99d808c 	.word	0xf99d808c
 8002ce8:	feeefffc 	.word	0xfeeefffc

08002cec <HAL_RCC_ClockConfig>:
  if(RCC_ClkInitStruct == NULL)
 8002cec:	2800      	cmp	r0, #0
 8002cee:	f000 80af 	beq.w	8002e50 <HAL_RCC_ClockConfig+0x164>
{
 8002cf2:	b570      	push	{r4, r5, r6, lr}
 8002cf4:	460d      	mov	r5, r1
 8002cf6:	4604      	mov	r4, r0
  if(FLatency > __HAL_FLASH_GET_LATENCY())
 8002cf8:	4b59      	ldr	r3, [pc, #356]	@ (8002e60 <HAL_RCC_ClockConfig+0x174>)
 8002cfa:	681b      	ldr	r3, [r3, #0]
 8002cfc:	f003 0307 	and.w	r3, r3, #7
 8002d00:	428b      	cmp	r3, r1
 8002d02:	d20b      	bcs.n	8002d1c <HAL_RCC_ClockConfig+0x30>
    __HAL_FLASH_SET_LATENCY(FLatency);
 8002d04:	4a56      	ldr	r2, [pc, #344]	@ (8002e60 <HAL_RCC_ClockConfig+0x174>)
 8002d06:	6813      	ldr	r3, [r2, #0]
 8002d08:	f023 0307 	bic.w	r3, r3, #7
 8002d0c:	430b      	orrs	r3, r1
 8002d0e:	6013      	str	r3, [r2, #0]
    if(__HAL_FLASH_GET_LATENCY() != FLatency)
 8002d10:	6813      	ldr	r3, [r2, #0]
 8002d12:	f003 0307 	and.w	r3, r3, #7
 8002d16:	428b      	cmp	r3, r1
 8002d18:	f040 809c 	bne.w	8002e54 <HAL_RCC_ClockConfig+0x168>
  if(((RCC_ClkInitStruct->ClockType) & RCC_CLOCKTYPE_HCLK) == RCC_CLOCKTYPE_HCLK)
 8002d1c:	6823      	ldr	r3, [r4, #0]
 8002d1e:	f013 0f02 	tst.w	r3, #2
 8002d22:	d00c      	beq.n	8002d3e <HAL_RCC_ClockConfig+0x52>
    if(RCC_ClkInitStruct->AHBCLKDivider > READ_BIT(RCC->CFGR, RCC_CFGR_HPRE))
 8002d24:	68a2      	ldr	r2, [r4, #8]
 8002d26:	4b4f      	ldr	r3, [pc, #316]	@ (8002e64 <HAL_RCC_ClockConfig+0x178>)
 8002d28:	689b      	ldr	r3, [r3, #8]
 8002d2a:	f003 03f0 	and.w	r3, r3, #240	@ 0xf0
 8002d2e:	429a      	cmp	r2, r3
 8002d30:	d905      	bls.n	8002d3e <HAL_RCC_ClockConfig+0x52>
      MODIFY_REG(RCC->CFGR, RCC_CFGR_HPRE, RCC_ClkInitStruct->AHBCLKDivider);
 8002d32:	494c      	ldr	r1, [pc, #304]	@ (8002e64 <HAL_RCC_ClockConfig+0x178>)
 8002d34:	688b      	ldr	r3, [r1, #8]
 8002d36:	f023 03f0 	bic.w	r3, r3, #240	@ 0xf0
 8002d3a:	431a      	orrs	r2, r3
 8002d3c:	608a      	str	r2, [r1, #8]
  if(((RCC_ClkInitStruct->ClockType) & RCC_CLOCKTYPE_SYSCLK) == RCC_CLOCKTYPE_SYSCLK)
 8002d3e:	6823      	ldr	r3, [r4, #0]
 8002d40:	f013 0f01 	tst.w	r3, #1
 8002d44:	d039      	beq.n	8002dba <HAL_RCC_ClockConfig+0xce>
    if(RCC_ClkInitStruct->SYSCLKSource == RCC_SYSCLKSOURCE_PLLCLK)
 8002d46:	6863      	ldr	r3, [r4, #4]
 8002d48:	2b03      	cmp	r3, #3
 8002d4a:	d009      	beq.n	8002d60 <HAL_RCC_ClockConfig+0x74>
      if(RCC_ClkInitStruct->SYSCLKSource == RCC_SYSCLKSOURCE_HSE)
 8002d4c:	2b02      	cmp	r3, #2
 8002d4e:	d026      	beq.n	8002d9e <HAL_RCC_ClockConfig+0xb2>
      else if(RCC_ClkInitStruct->SYSCLKSource == RCC_SYSCLKSOURCE_MSI)
 8002d50:	bb63      	cbnz	r3, 8002dac <HAL_RCC_ClockConfig+0xc0>
        if(READ_BIT(RCC->CR, RCC_CR_MSIRDY) == 0U)
 8002d52:	4a44      	ldr	r2, [pc, #272]	@ (8002e64 <HAL_RCC_ClockConfig+0x178>)
 8002d54:	6812      	ldr	r2, [r2, #0]
 8002d56:	f012 0f02 	tst.w	r2, #2
 8002d5a:	d106      	bne.n	8002d6a <HAL_RCC_ClockConfig+0x7e>
          return HAL_ERROR;
 8002d5c:	2001      	movs	r0, #1
 8002d5e:	e076      	b.n	8002e4e <HAL_RCC_ClockConfig+0x162>
      if(READ_BIT(RCC->CR, RCC_CR_PLLRDY) == 0U)
 8002d60:	4a40      	ldr	r2, [pc, #256]	@ (8002e64 <HAL_RCC_ClockConfig+0x178>)
 8002d62:	6812      	ldr	r2, [r2, #0]
 8002d64:	f012 7f00 	tst.w	r2, #33554432	@ 0x2000000
 8002d68:	d076      	beq.n	8002e58 <HAL_RCC_ClockConfig+0x16c>
    MODIFY_REG(RCC->CFGR, RCC_CFGR_SW, RCC_ClkInitStruct->SYSCLKSource);
 8002d6a:	493e      	ldr	r1, [pc, #248]	@ (8002e64 <HAL_RCC_ClockConfig+0x178>)
 8002d6c:	688a      	ldr	r2, [r1, #8]
 8002d6e:	f022 0203 	bic.w	r2, r2, #3
 8002d72:	4313      	orrs	r3, r2
 8002d74:	608b      	str	r3, [r1, #8]
    tickstart = HAL_GetTick();
 8002d76:	f7fe fb53 	bl	8001420 <HAL_GetTick>
 8002d7a:	4606      	mov	r6, r0
    while(__HAL_RCC_GET_SYSCLK_SOURCE() != (RCC_ClkInitStruct->SYSCLKSource << RCC_CFGR_SWS_Pos))
 8002d7c:	4b39      	ldr	r3, [pc, #228]	@ (8002e64 <HAL_RCC_ClockConfig+0x178>)
 8002d7e:	689b      	ldr	r3, [r3, #8]
 8002d80:	f003 030c 	and.w	r3, r3, #12
 8002d84:	6862      	ldr	r2, [r4, #4]
 8002d86:	ebb3 0f82 	cmp.w	r3, r2, lsl #2
 8002d8a:	d016      	beq.n	8002dba <HAL_RCC_ClockConfig+0xce>
      if((HAL_GetTick() - tickstart) > CLOCKSWITCH_TIMEOUT_VALUE)
 8002d8c:	f7fe fb48 	bl	8001420 <HAL_GetTick>
 8002d90:	1b80      	subs	r0, r0, r6
 8002d92:	f241 3388 	movw	r3, #5000	@ 0x1388
 8002d96:	4298      	cmp	r0, r3
 8002d98:	d9f0      	bls.n	8002d7c <HAL_RCC_ClockConfig+0x90>
        return HAL_TIMEOUT;
 8002d9a:	2003      	movs	r0, #3
 8002d9c:	e057      	b.n	8002e4e <HAL_RCC_ClockConfig+0x162>
        if(READ_BIT(RCC->CR, RCC_CR_HSERDY) == 0U)
 8002d9e:	4a31      	ldr	r2, [pc, #196]	@ (8002e64 <HAL_RCC_ClockConfig+0x178>)
 8002da0:	6812      	ldr	r2, [r2, #0]
 8002da2:	f412 3f00 	tst.w	r2, #131072	@ 0x20000
 8002da6:	d1e0      	bne.n	8002d6a <HAL_RCC_ClockConfig+0x7e>
          return HAL_ERROR;
 8002da8:	2001      	movs	r0, #1
 8002daa:	e050      	b.n	8002e4e <HAL_RCC_ClockConfig+0x162>
        if(READ_BIT(RCC->CR, RCC_CR_HSIRDY) == 0U)
 8002dac:	4a2d      	ldr	r2, [pc, #180]	@ (8002e64 <HAL_RCC_ClockConfig+0x178>)
 8002dae:	6812      	ldr	r2, [r2, #0]
 8002db0:	f412 6f80 	tst.w	r2, #1024	@ 0x400
 8002db4:	d1d9      	bne.n	8002d6a <HAL_RCC_ClockConfig+0x7e>
          return HAL_ERROR;
 8002db6:	2001      	movs	r0, #1
 8002db8:	e049      	b.n	8002e4e <HAL_RCC_ClockConfig+0x162>
  if(((RCC_ClkInitStruct->ClockType) & RCC_CLOCKTYPE_HCLK) == RCC_CLOCKTYPE_HCLK)
 8002dba:	6823      	ldr	r3, [r4, #0]
 8002dbc:	f013 0f02 	tst.w	r3, #2
 8002dc0:	d00c      	beq.n	8002ddc <HAL_RCC_ClockConfig+0xf0>
    if(RCC_ClkInitStruct->AHBCLKDivider < READ_BIT(RCC->CFGR, RCC_CFGR_HPRE))
 8002dc2:	68a2      	ldr	r2, [r4, #8]
 8002dc4:	4b27      	ldr	r3, [pc, #156]	@ (8002e64 <HAL_RCC_ClockConfig+0x178>)
 8002dc6:	689b      	ldr	r3, [r3, #8]
 8002dc8:	f003 03f0 	and.w	r3, r3, #240	@ 0xf0
 8002dcc:	429a      	cmp	r2, r3
 8002dce:	d205      	bcs.n	8002ddc <HAL_RCC_ClockConfig+0xf0>
      MODIFY_REG(RCC->CFGR, RCC_CFGR_HPRE, RCC_ClkInitStruct->AHBCLKDivider);
 8002dd0:	4924      	ldr	r1, [pc, #144]	@ (8002e64 <HAL_RCC_ClockConfig+0x178>)
 8002dd2:	688b      	ldr	r3, [r1, #8]
 8002dd4:	f023 03f0 	bic.w	r3, r3, #240	@ 0xf0
 8002dd8:	431a      	orrs	r2, r3
 8002dda:	608a      	str	r2, [r1, #8]
  if(FLatency < __HAL_FLASH_GET_LATENCY())
 8002ddc:	4b20      	ldr	r3, [pc, #128]	@ (8002e60 <HAL_RCC_ClockConfig+0x174>)
 8002dde:	681b      	ldr	r3, [r3, #0]
 8002de0:	f003 0307 	and.w	r3, r3, #7
 8002de4:	42ab      	cmp	r3, r5
 8002de6:	d90a      	bls.n	8002dfe <HAL_RCC_ClockConfig+0x112>
    __HAL_FLASH_SET_LATENCY(FLatency);
 8002de8:	4a1d      	ldr	r2, [pc, #116]	@ (8002e60 <HAL_RCC_ClockConfig+0x174>)
 8002dea:	6813      	ldr	r3, [r2, #0]
 8002dec:	f023 0307 	bic.w	r3, r3, #7
 8002df0:	432b      	orrs	r3, r5
 8002df2:	6013      	str	r3, [r2, #0]
    if(__HAL_FLASH_GET_LATENCY() != FLatency)
 8002df4:	6813      	ldr	r3, [r2, #0]
 8002df6:	f003 0307 	and.w	r3, r3, #7
 8002dfa:	42ab      	cmp	r3, r5
 8002dfc:	d12e      	bne.n	8002e5c <HAL_RCC_ClockConfig+0x170>
  if(((RCC_ClkInitStruct->ClockType) & RCC_CLOCKTYPE_PCLK1) == RCC_CLOCKTYPE_PCLK1)
 8002dfe:	6823      	ldr	r3, [r4, #0]
 8002e00:	f013 0f04 	tst.w	r3, #4
 8002e04:	d006      	beq.n	8002e14 <HAL_RCC_ClockConfig+0x128>
    MODIFY_REG(RCC->CFGR, RCC_CFGR_PPRE1, RCC_ClkInitStruct->APB1CLKDivider);
 8002e06:	4a17      	ldr	r2, [pc, #92]	@ (8002e64 <HAL_RCC_ClockConfig+0x178>)
 8002e08:	6893      	ldr	r3, [r2, #8]
 8002e0a:	f423 63e0 	bic.w	r3, r3, #1792	@ 0x700
 8002e0e:	68e1      	ldr	r1, [r4, #12]
 8002e10:	430b      	orrs	r3, r1
 8002e12:	6093      	str	r3, [r2, #8]
  if(((RCC_ClkInitStruct->ClockType) & RCC_CLOCKTYPE_PCLK2) == RCC_CLOCKTYPE_PCLK2)
 8002e14:	6823      	ldr	r3, [r4, #0]
 8002e16:	f013 0f08 	tst.w	r3, #8
 8002e1a:	d007      	beq.n	8002e2c <HAL_RCC_ClockConfig+0x140>
    MODIFY_REG(RCC->CFGR, RCC_CFGR_PPRE2, ((RCC_ClkInitStruct->APB2CLKDivider) << 3U));
 8002e1c:	4a11      	ldr	r2, [pc, #68]	@ (8002e64 <HAL_RCC_ClockConfig+0x178>)
 8002e1e:	6893      	ldr	r3, [r2, #8]
 8002e20:	f423 5360 	bic.w	r3, r3, #14336	@ 0x3800
 8002e24:	6921      	ldr	r1, [r4, #16]
 8002e26:	ea43 03c1 	orr.w	r3, r3, r1, lsl #3
 8002e2a:	6093      	str	r3, [r2, #8]
  SystemCoreClock = HAL_RCC_GetSysClockFreq() >> (AHBPrescTable[READ_BIT(RCC->CFGR, RCC_CFGR_HPRE) >> RCC_CFGR_HPRE_Pos] & 0x1FU);
 8002e2c:	f7ff fbfa 	bl	8002624 <HAL_RCC_GetSysClockFreq>
 8002e30:	4b0c      	ldr	r3, [pc, #48]	@ (8002e64 <HAL_RCC_ClockConfig+0x178>)
 8002e32:	689b      	ldr	r3, [r3, #8]
 8002e34:	f3c3 1303 	ubfx	r3, r3, #4, #4
 8002e38:	4a0b      	ldr	r2, [pc, #44]	@ (8002e68 <HAL_RCC_ClockConfig+0x17c>)
 8002e3a:	5cd3      	ldrb	r3, [r2, r3]
 8002e3c:	f003 031f 	and.w	r3, r3, #31
 8002e40:	40d8      	lsrs	r0, r3
 8002e42:	4b0a      	ldr	r3, [pc, #40]	@ (8002e6c <HAL_RCC_ClockConfig+0x180>)
 8002e44:	6018      	str	r0, [r3, #0]
  status = HAL_InitTick(uwTickPrio);
 8002e46:	4b0a      	ldr	r3, [pc, #40]	@ (8002e70 <HAL_RCC_ClockConfig+0x184>)
 8002e48:	6818      	ldr	r0, [r3, #0]
 8002e4a:	f7fe faa5 	bl	8001398 <HAL_InitTick>
}
 8002e4e:	bd70      	pop	{r4, r5, r6, pc}
    return HAL_ERROR;
 8002e50:	2001      	movs	r0, #1
}
 8002e52:	4770      	bx	lr
      return HAL_ERROR;
 8002e54:	2001      	movs	r0, #1
 8002e56:	e7fa      	b.n	8002e4e <HAL_RCC_ClockConfig+0x162>
        return HAL_ERROR;
 8002e58:	2001      	movs	r0, #1
 8002e5a:	e7f8      	b.n	8002e4e <HAL_RCC_ClockConfig+0x162>
      return HAL_ERROR;
 8002e5c:	2001      	movs	r0, #1
 8002e5e:	e7f6      	b.n	8002e4e <HAL_RCC_ClockConfig+0x162>
 8002e60:	40022000 	.word	0x40022000
 8002e64:	40021000 	.word	0x40021000
 8002e68:	08007ea0 	.word	0x08007ea0
 8002e6c:	2000000c 	.word	0x2000000c
 8002e70:	20000008 	.word	0x20000008

08002e74 <HAL_RCC_GetHCLKFreq>:
}
 8002e74:	4b01      	ldr	r3, [pc, #4]	@ (8002e7c <HAL_RCC_GetHCLKFreq+0x8>)
 8002e76:	6818      	ldr	r0, [r3, #0]
 8002e78:	4770      	bx	lr
 8002e7a:	bf00      	nop
 8002e7c:	2000000c 	.word	0x2000000c

08002e80 <HAL_RCC_GetPCLK1Freq>:
{
 8002e80:	b508      	push	{r3, lr}
  return (HAL_RCC_GetHCLKFreq() >> (APBPrescTable[READ_BIT(RCC->CFGR, RCC_CFGR_PPRE1) >> RCC_CFGR_PPRE1_Pos] & 0x1FU));
 8002e82:	f7ff fff7 	bl	8002e74 <HAL_RCC_GetHCLKFreq>
 8002e86:	4b05      	ldr	r3, [pc, #20]	@ (8002e9c <HAL_RCC_GetPCLK1Freq+0x1c>)
 8002e88:	689b      	ldr	r3, [r3, #8]
 8002e8a:	f3c3 2302 	ubfx	r3, r3, #8, #3
 8002e8e:	4a04      	ldr	r2, [pc, #16]	@ (8002ea0 <HAL_RCC_GetPCLK1Freq+0x20>)
 8002e90:	5cd3      	ldrb	r3, [r2, r3]
 8002e92:	f003 031f 	and.w	r3, r3, #31
}
 8002e96:	40d8      	lsrs	r0, r3
 8002e98:	bd08      	pop	{r3, pc}
 8002e9a:	bf00      	nop
 8002e9c:	40021000 	.word	0x40021000
 8002ea0:	08007e98 	.word	0x08007e98

08002ea4 <HAL_RCC_GetPCLK2Freq>:
{
 8002ea4:	b508      	push	{r3, lr}
  return (HAL_RCC_GetHCLKFreq()>> (APBPrescTable[READ_BIT(RCC->CFGR, RCC_CFGR_PPRE2) >> RCC_CFGR_PPRE2_Pos] & 0x1FU));
 8002ea6:	f7ff ffe5 	bl	8002e74 <HAL_RCC_GetHCLKFreq>
 8002eaa:	4b05      	ldr	r3, [pc, #20]	@ (8002ec0 <HAL_RCC_GetPCLK2Freq+0x1c>)
 8002eac:	689b      	ldr	r3, [r3, #8]
 8002eae:	f3c3 23c2 	ubfx	r3, r3, #11, #3
 8002eb2:	4a04      	ldr	r2, [pc, #16]	@ (8002ec4 <HAL_RCC_GetPCLK2Freq+0x20>)
 8002eb4:	5cd3      	ldrb	r3, [r2, r3]
 8002eb6:	f003 031f 	and.w	r3, r3, #31
}
 8002eba:	40d8      	lsrs	r0, r3
 8002ebc:	bd08      	pop	{r3, pc}
 8002ebe:	bf00      	nop
 8002ec0:	40021000 	.word	0x40021000
 8002ec4:	08007e98 	.word	0x08007e98

08002ec8 <RCCEx_GetSAIxPeriphCLKFreq>:
#if defined(RCC_PLLP_SUPPORT)
  uint32_t pllp = 0U;
#endif /* RCC_PLLP_SUPPORT */

  /* Handle SAIs */
  if(PeriphClk == RCC_PERIPHCLK_SAI1)
 8002ec8:	f5b0 6f00 	cmp.w	r0, #2048	@ 0x800
 8002ecc:	d02b      	beq.n	8002f26 <RCCEx_GetSAIxPeriphCLKFreq+0x5e>
    /* Else, PLL clock output to check below */
  }
#if defined(SAI2)
  else
  {
    if(PeriphClk == RCC_PERIPHCLK_SAI2)
 8002ece:	f5b0 5f80 	cmp.w	r0, #4096	@ 0x1000
 8002ed2:	d032      	beq.n	8002f3a <RCCEx_GetSAIxPeriphCLKFreq+0x72>
  uint32_t srcclk = 0U;
 8002ed4:	2300      	movs	r3, #0
  if(frequency == 0U)
  {
    pllvco = InputFrequency;

#if defined(SAI2)
    if((srcclk == RCC_SAI1CLKSOURCE_PLL) || (srcclk == RCC_SAI2CLKSOURCE_PLL))
 8002ed6:	f5b3 0f00 	cmp.w	r3, #8388608	@ 0x800000
 8002eda:	d038      	beq.n	8002f4e <RCCEx_GetSAIxPeriphCLKFreq+0x86>
 8002edc:	f1b3 7f00 	cmp.w	r3, #33554432	@ 0x2000000
 8002ee0:	d035      	beq.n	8002f4e <RCCEx_GetSAIxPeriphCLKFreq+0x86>
          }
        }
        frequency = (pllvco * plln) / pllp;
      }
    }
    else if(srcclk == 0U)  /* RCC_SAI1CLKSOURCE_PLLSAI1 || RCC_SAI2CLKSOURCE_PLLSAI1 */
 8002ee2:	2b00      	cmp	r3, #0
 8002ee4:	d154      	bne.n	8002f90 <RCCEx_GetSAIxPeriphCLKFreq+0xc8>
    {
      if(HAL_IS_BIT_SET(RCC->CR, RCC_CR_PLLSAI1RDY) && (__HAL_RCC_GET_PLLSAI1CLKOUT_CONFIG(RCC_PLLSAI1_SAI1CLK) != 0U))
 8002ee6:	f103 4380 	add.w	r3, r3, #1073741824	@ 0x40000000
 8002eea:	f503 3304 	add.w	r3, r3, #135168	@ 0x21000
 8002eee:	6818      	ldr	r0, [r3, #0]
 8002ef0:	f010 6000 	ands.w	r0, r0, #134217728	@ 0x8000000
 8002ef4:	d053      	beq.n	8002f9e <RCCEx_GetSAIxPeriphCLKFreq+0xd6>
 8002ef6:	6918      	ldr	r0, [r3, #16]
 8002ef8:	f410 3080 	ands.w	r0, r0, #65536	@ 0x10000
 8002efc:	d04f      	beq.n	8002f9e <RCCEx_GetSAIxPeriphCLKFreq+0xd6>
        /* PLLSAI1M exists: apply PLLSAI1M divider for PLLSAI1 output computation */
        /* f(PLLSAI1 Source) / PLLSAI1M */
        pllvco = (pllvco / ((READ_BIT(RCC->PLLSAI1CFGR, RCC_PLLSAI1CFGR_PLLSAI1M) >> RCC_PLLSAI1CFGR_PLLSAI1M_Pos) + 1U));
#else
        /* f(PLL Source) / PLLM */
        pllvco = (pllvco / ((READ_BIT(RCC->PLLCFGR, RCC_PLLCFGR_PLLM) >> RCC_PLLCFGR_PLLM_Pos) + 1U));
 8002efe:	461a      	mov	r2, r3
 8002f00:	68d8      	ldr	r0, [r3, #12]
 8002f02:	f3c0 1002 	ubfx	r0, r0, #4, #3
 8002f06:	3001      	adds	r0, #1
 8002f08:	fbb1 f1f0 	udiv	r1, r1, r0
#endif
        /* f(PLLSAI1CLK) = f(VCOSAI1 input) * PLLSAI1N / PLLSAI1P */
        plln = READ_BIT(RCC->PLLSAI1CFGR, RCC_PLLSAI1CFGR_PLLSAI1N) >> RCC_PLLSAI1CFGR_PLLSAI1N_Pos;
 8002f0c:	691b      	ldr	r3, [r3, #16]
 8002f0e:	f3c3 2306 	ubfx	r3, r3, #8, #7
#if defined(RCC_PLLSAI1P_DIV_2_31_SUPPORT)
        pllp = READ_BIT(RCC->PLLSAI1CFGR, RCC_PLLSAI1CFGR_PLLSAI1PDIV) >> RCC_PLLSAI1CFGR_PLLSAI1PDIV_Pos;
#endif
        if(pllp == 0U)
        {
          if(READ_BIT(RCC->PLLSAI1CFGR, RCC_PLLSAI1CFGR_PLLSAI1P) != 0U)
 8002f12:	6912      	ldr	r2, [r2, #16]
 8002f14:	f412 3f00 	tst.w	r2, #131072	@ 0x20000
 8002f18:	d038      	beq.n	8002f8c <RCCEx_GetSAIxPeriphCLKFreq+0xc4>
          {
            pllp = 17U;
 8002f1a:	2211      	movs	r2, #17
          else
          {
            pllp = 7U;
          }
        }
        frequency = (pllvco * plln) / pllp;
 8002f1c:	fb03 f001 	mul.w	r0, r3, r1
 8002f20:	fbb0 f0f2 	udiv	r0, r0, r2
 8002f24:	4770      	bx	lr
    srcclk = __HAL_RCC_GET_SAI1_SOURCE();
 8002f26:	4b2e      	ldr	r3, [pc, #184]	@ (8002fe0 <RCCEx_GetSAIxPeriphCLKFreq+0x118>)
 8002f28:	f8d3 3088 	ldr.w	r3, [r3, #136]	@ 0x88
 8002f2c:	f403 0340 	and.w	r3, r3, #12582912	@ 0xc00000
    if(srcclk == RCC_SAI1CLKSOURCE_PIN)
 8002f30:	f5b3 0f40 	cmp.w	r3, #12582912	@ 0xc00000
 8002f34:	d1cf      	bne.n	8002ed6 <RCCEx_GetSAIxPeriphCLKFreq+0xe>
      frequency = EXTERNAL_SAI1_CLOCK_VALUE;
 8002f36:	482b      	ldr	r0, [pc, #172]	@ (8002fe4 <RCCEx_GetSAIxPeriphCLKFreq+0x11c>)
 8002f38:	4770      	bx	lr
      srcclk = __HAL_RCC_GET_SAI2_SOURCE();
 8002f3a:	4b29      	ldr	r3, [pc, #164]	@ (8002fe0 <RCCEx_GetSAIxPeriphCLKFreq+0x118>)
 8002f3c:	f8d3 3088 	ldr.w	r3, [r3, #136]	@ 0x88
 8002f40:	f003 7340 	and.w	r3, r3, #50331648	@ 0x3000000
      if(srcclk == RCC_SAI2CLKSOURCE_PIN)
 8002f44:	f1b3 7f40 	cmp.w	r3, #50331648	@ 0x3000000
 8002f48:	d1c5      	bne.n	8002ed6 <RCCEx_GetSAIxPeriphCLKFreq+0xe>
        frequency = EXTERNAL_SAI2_CLOCK_VALUE;
 8002f4a:	4826      	ldr	r0, [pc, #152]	@ (8002fe4 <RCCEx_GetSAIxPeriphCLKFreq+0x11c>)
 8002f4c:	4770      	bx	lr
      if(HAL_IS_BIT_SET(RCC->CR, RCC_CR_PLLRDY) && (__HAL_RCC_GET_PLLCLKOUT_CONFIG(RCC_PLL_SAI3CLK) != 0U))
 8002f4e:	4b24      	ldr	r3, [pc, #144]	@ (8002fe0 <RCCEx_GetSAIxPeriphCLKFreq+0x118>)
 8002f50:	6818      	ldr	r0, [r3, #0]
 8002f52:	f010 7000 	ands.w	r0, r0, #33554432	@ 0x2000000
 8002f56:	d022      	beq.n	8002f9e <RCCEx_GetSAIxPeriphCLKFreq+0xd6>
 8002f58:	68d8      	ldr	r0, [r3, #12]
 8002f5a:	f410 3080 	ands.w	r0, r0, #65536	@ 0x10000
 8002f5e:	d01e      	beq.n	8002f9e <RCCEx_GetSAIxPeriphCLKFreq+0xd6>
        pllvco = (pllvco / ((READ_BIT(RCC->PLLCFGR, RCC_PLLCFGR_PLLM) >> RCC_PLLCFGR_PLLM_Pos) + 1U));
 8002f60:	461a      	mov	r2, r3
 8002f62:	68d8      	ldr	r0, [r3, #12]
 8002f64:	f3c0 1002 	ubfx	r0, r0, #4, #3
 8002f68:	3001      	adds	r0, #1
 8002f6a:	fbb1 f1f0 	udiv	r1, r1, r0
        plln = READ_BIT(RCC->PLLCFGR, RCC_PLLCFGR_PLLN) >> RCC_PLLCFGR_PLLN_Pos;
 8002f6e:	68db      	ldr	r3, [r3, #12]
 8002f70:	f3c3 2306 	ubfx	r3, r3, #8, #7
          if(READ_BIT(RCC->PLLCFGR, RCC_PLLCFGR_PLLP) != 0U)
 8002f74:	68d2      	ldr	r2, [r2, #12]
 8002f76:	f412 3f00 	tst.w	r2, #131072	@ 0x20000
 8002f7a:	d005      	beq.n	8002f88 <RCCEx_GetSAIxPeriphCLKFreq+0xc0>
            pllp = 17U;
 8002f7c:	2211      	movs	r2, #17
        frequency = (pllvco * plln) / pllp;
 8002f7e:	fb03 f001 	mul.w	r0, r3, r1
 8002f82:	fbb0 f0f2 	udiv	r0, r0, r2
 8002f86:	4770      	bx	lr
            pllp = 7U;
 8002f88:	2207      	movs	r2, #7
 8002f8a:	e7f8      	b.n	8002f7e <RCCEx_GetSAIxPeriphCLKFreq+0xb6>
            pllp = 7U;
 8002f8c:	2207      	movs	r2, #7
 8002f8e:	e7c5      	b.n	8002f1c <RCCEx_GetSAIxPeriphCLKFreq+0x54>
    }
#endif /* SAI2 */

#if defined(RCC_PLLSAI2_SUPPORT)

    else if((srcclk == RCC_SAI1CLKSOURCE_PLLSAI2) || (srcclk == RCC_SAI2CLKSOURCE_PLLSAI2))
 8002f90:	f5b3 0f80 	cmp.w	r3, #4194304	@ 0x400000
 8002f94:	d004      	beq.n	8002fa0 <RCCEx_GetSAIxPeriphCLKFreq+0xd8>
 8002f96:	f1b3 7f80 	cmp.w	r3, #16777216	@ 0x1000000
 8002f9a:	d001      	beq.n	8002fa0 <RCCEx_GetSAIxPeriphCLKFreq+0xd8>
 8002f9c:	2000      	movs	r0, #0
    }
  }


  return frequency;
}
 8002f9e:	4770      	bx	lr
      if(HAL_IS_BIT_SET(RCC->CR, RCC_CR_PLLSAI2RDY) && (__HAL_RCC_GET_PLLSAI2CLKOUT_CONFIG(RCC_PLLSAI2_SAI2CLK) != 0U))
 8002fa0:	4b0f      	ldr	r3, [pc, #60]	@ (8002fe0 <RCCEx_GetSAIxPeriphCLKFreq+0x118>)
 8002fa2:	6818      	ldr	r0, [r3, #0]
 8002fa4:	f010 5000 	ands.w	r0, r0, #536870912	@ 0x20000000
 8002fa8:	d0f9      	beq.n	8002f9e <RCCEx_GetSAIxPeriphCLKFreq+0xd6>
 8002faa:	6958      	ldr	r0, [r3, #20]
 8002fac:	f410 3080 	ands.w	r0, r0, #65536	@ 0x10000
 8002fb0:	d0f5      	beq.n	8002f9e <RCCEx_GetSAIxPeriphCLKFreq+0xd6>
        pllvco = (pllvco / ((READ_BIT(RCC->PLLCFGR, RCC_PLLCFGR_PLLM) >> RCC_PLLCFGR_PLLM_Pos) + 1U));
 8002fb2:	461a      	mov	r2, r3
 8002fb4:	68d8      	ldr	r0, [r3, #12]
 8002fb6:	f3c0 1002 	ubfx	r0, r0, #4, #3
 8002fba:	3001      	adds	r0, #1
 8002fbc:	fbb1 f1f0 	udiv	r1, r1, r0
        plln = READ_BIT(RCC->PLLSAI2CFGR, RCC_PLLSAI2CFGR_PLLSAI2N) >> RCC_PLLSAI2CFGR_PLLSAI2N_Pos;
 8002fc0:	695b      	ldr	r3, [r3, #20]
 8002fc2:	f3c3 2306 	ubfx	r3, r3, #8, #7
          if(READ_BIT(RCC->PLLSAI2CFGR, RCC_PLLSAI2CFGR_PLLSAI2P) != 0U)
 8002fc6:	6952      	ldr	r2, [r2, #20]
 8002fc8:	f412 3f00 	tst.w	r2, #131072	@ 0x20000
 8002fcc:	d005      	beq.n	8002fda <RCCEx_GetSAIxPeriphCLKFreq+0x112>
            pllp = 17U;
 8002fce:	2211      	movs	r2, #17
        frequency = (pllvco * plln) / pllp;
 8002fd0:	fb03 f001 	mul.w	r0, r3, r1
 8002fd4:	fbb0 f0f2 	udiv	r0, r0, r2
 8002fd8:	4770      	bx	lr
            pllp = 7U;
 8002fda:	2207      	movs	r2, #7
 8002fdc:	e7f8      	b.n	8002fd0 <RCCEx_GetSAIxPeriphCLKFreq+0x108>
 8002fde:	bf00      	nop
 8002fe0:	40021000 	.word	0x40021000
 8002fe4:	001fff68 	.word	0x001fff68

08002fe8 <RCCEx_PLLSAI1_Config>:
{
 8002fe8:	b5f8      	push	{r3, r4, r5, r6, r7, lr}
 8002fea:	4604      	mov	r4, r0
 8002fec:	460f      	mov	r7, r1
  if(__HAL_RCC_GET_PLL_OSCSOURCE() != RCC_PLLSOURCE_NONE)
 8002fee:	4b5f      	ldr	r3, [pc, #380]	@ (800316c <RCCEx_PLLSAI1_Config+0x184>)
 8002ff0:	68db      	ldr	r3, [r3, #12]
 8002ff2:	f013 0f03 	tst.w	r3, #3
 8002ff6:	d01b      	beq.n	8003030 <RCCEx_PLLSAI1_Config+0x48>
    if((__HAL_RCC_GET_PLL_OSCSOURCE() != PllSai1->PLLSAI1Source)
 8002ff8:	4b5c      	ldr	r3, [pc, #368]	@ (800316c <RCCEx_PLLSAI1_Config+0x184>)
 8002ffa:	68db      	ldr	r3, [r3, #12]
 8002ffc:	f003 0303 	and.w	r3, r3, #3
 8003000:	6802      	ldr	r2, [r0, #0]
 8003002:	4293      	cmp	r3, r2
 8003004:	d003      	beq.n	800300e <RCCEx_PLLSAI1_Config+0x26>
      status = HAL_ERROR;
 8003006:	2301      	movs	r3, #1
 8003008:	461d      	mov	r5, r3
}
 800300a:	4628      	mov	r0, r5
 800300c:	bdf8      	pop	{r3, r4, r5, r6, r7, pc}
       ||
 800300e:	2a00      	cmp	r2, #0
 8003010:	f000 80a5 	beq.w	800315e <RCCEx_PLLSAI1_Config+0x176>
       (((READ_BIT(RCC->PLLCFGR, RCC_PLLCFGR_PLLM) >> RCC_PLLCFGR_PLLM_Pos) + 1U) != PllSai1->PLLSAI1M)
 8003014:	4b55      	ldr	r3, [pc, #340]	@ (800316c <RCCEx_PLLSAI1_Config+0x184>)
 8003016:	68db      	ldr	r3, [r3, #12]
 8003018:	f3c3 1302 	ubfx	r3, r3, #4, #3
 800301c:	3301      	adds	r3, #1
 800301e:	6842      	ldr	r2, [r0, #4]
       ||
 8003020:	4293      	cmp	r3, r2
 8003022:	d002      	beq.n	800302a <RCCEx_PLLSAI1_Config+0x42>
      status = HAL_ERROR;
 8003024:	2301      	movs	r3, #1
 8003026:	461d      	mov	r5, r3
 8003028:	e7ef      	b.n	800300a <RCCEx_PLLSAI1_Config+0x22>
  HAL_StatusTypeDef status = HAL_OK;
 800302a:	2300      	movs	r3, #0
 800302c:	461d      	mov	r5, r3
 800302e:	e01a      	b.n	8003066 <RCCEx_PLLSAI1_Config+0x7e>
    switch(PllSai1->PLLSAI1Source)
 8003030:	6803      	ldr	r3, [r0, #0]
 8003032:	2b02      	cmp	r3, #2
 8003034:	d059      	beq.n	80030ea <RCCEx_PLLSAI1_Config+0x102>
 8003036:	2b03      	cmp	r3, #3
 8003038:	d05f      	beq.n	80030fa <RCCEx_PLLSAI1_Config+0x112>
 800303a:	2b01      	cmp	r3, #1
 800303c:	f040 8092 	bne.w	8003164 <RCCEx_PLLSAI1_Config+0x17c>
      if(HAL_IS_BIT_CLR(RCC->CR, RCC_CR_MSIRDY))
 8003040:	4a4a      	ldr	r2, [pc, #296]	@ (800316c <RCCEx_PLLSAI1_Config+0x184>)
 8003042:	6812      	ldr	r2, [r2, #0]
 8003044:	f012 0f02 	tst.w	r2, #2
 8003048:	d064      	beq.n	8003114 <RCCEx_PLLSAI1_Config+0x12c>
      MODIFY_REG(RCC->PLLCFGR, RCC_PLLCFGR_PLLSRC | RCC_PLLCFGR_PLLM, PllSai1->PLLSAI1Source | (PllSai1->PLLSAI1M - 1U) << RCC_PLLCFGR_PLLM_Pos);
 800304a:	4848      	ldr	r0, [pc, #288]	@ (800316c <RCCEx_PLLSAI1_Config+0x184>)
 800304c:	68c2      	ldr	r2, [r0, #12]
 800304e:	f022 0273 	bic.w	r2, r2, #115	@ 0x73
 8003052:	6861      	ldr	r1, [r4, #4]
 8003054:	3901      	subs	r1, #1
 8003056:	ea43 1301 	orr.w	r3, r3, r1, lsl #4
 800305a:	4313      	orrs	r3, r2
 800305c:	60c3      	str	r3, [r0, #12]
 800305e:	2300      	movs	r3, #0
 8003060:	461d      	mov	r5, r3
  if(status == HAL_OK)
 8003062:	2d00      	cmp	r5, #0
 8003064:	d1d1      	bne.n	800300a <RCCEx_PLLSAI1_Config+0x22>
    __HAL_RCC_PLLSAI1_DISABLE();
 8003066:	4a41      	ldr	r2, [pc, #260]	@ (800316c <RCCEx_PLLSAI1_Config+0x184>)
 8003068:	6813      	ldr	r3, [r2, #0]
 800306a:	f023 6380 	bic.w	r3, r3, #67108864	@ 0x4000000
 800306e:	6013      	str	r3, [r2, #0]
    tickstart = HAL_GetTick();
 8003070:	f7fe f9d6 	bl	8001420 <HAL_GetTick>
 8003074:	4606      	mov	r6, r0
    while(READ_BIT(RCC->CR, RCC_CR_PLLSAI1RDY) != 0U)
 8003076:	4b3d      	ldr	r3, [pc, #244]	@ (800316c <RCCEx_PLLSAI1_Config+0x184>)
 8003078:	681b      	ldr	r3, [r3, #0]
 800307a:	f013 6f00 	tst.w	r3, #134217728	@ 0x8000000
 800307e:	d006      	beq.n	800308e <RCCEx_PLLSAI1_Config+0xa6>
      if((HAL_GetTick() - tickstart) > PLLSAI1_TIMEOUT_VALUE)
 8003080:	f7fe f9ce 	bl	8001420 <HAL_GetTick>
 8003084:	1b83      	subs	r3, r0, r6
 8003086:	2b02      	cmp	r3, #2
 8003088:	d9f5      	bls.n	8003076 <RCCEx_PLLSAI1_Config+0x8e>
        status = HAL_TIMEOUT;
 800308a:	2303      	movs	r3, #3
 800308c:	461d      	mov	r5, r3
    if(status == HAL_OK)
 800308e:	2d00      	cmp	r5, #0
 8003090:	d1bb      	bne.n	800300a <RCCEx_PLLSAI1_Config+0x22>
      if(Divider == DIVIDER_P_UPDATE)
 8003092:	2f00      	cmp	r7, #0
 8003094:	d141      	bne.n	800311a <RCCEx_PLLSAI1_Config+0x132>
        MODIFY_REG(RCC->PLLSAI1CFGR,
 8003096:	4935      	ldr	r1, [pc, #212]	@ (800316c <RCCEx_PLLSAI1_Config+0x184>)
 8003098:	690b      	ldr	r3, [r1, #16]
 800309a:	f423 331f 	bic.w	r3, r3, #162816	@ 0x27c00
 800309e:	f423 7340 	bic.w	r3, r3, #768	@ 0x300
 80030a2:	68a0      	ldr	r0, [r4, #8]
 80030a4:	68e2      	ldr	r2, [r4, #12]
 80030a6:	0912      	lsrs	r2, r2, #4
 80030a8:	0452      	lsls	r2, r2, #17
 80030aa:	ea42 2200 	orr.w	r2, r2, r0, lsl #8
 80030ae:	4313      	orrs	r3, r2
 80030b0:	610b      	str	r3, [r1, #16]
      __HAL_RCC_PLLSAI1_ENABLE();
 80030b2:	4a2e      	ldr	r2, [pc, #184]	@ (800316c <RCCEx_PLLSAI1_Config+0x184>)
 80030b4:	6813      	ldr	r3, [r2, #0]
 80030b6:	f043 6380 	orr.w	r3, r3, #67108864	@ 0x4000000
 80030ba:	6013      	str	r3, [r2, #0]
      tickstart = HAL_GetTick();
 80030bc:	f7fe f9b0 	bl	8001420 <HAL_GetTick>
 80030c0:	4606      	mov	r6, r0
      while(READ_BIT(RCC->CR, RCC_CR_PLLSAI1RDY) == 0U)
 80030c2:	4b2a      	ldr	r3, [pc, #168]	@ (800316c <RCCEx_PLLSAI1_Config+0x184>)
 80030c4:	681b      	ldr	r3, [r3, #0]
 80030c6:	f013 6f00 	tst.w	r3, #134217728	@ 0x8000000
 80030ca:	d106      	bne.n	80030da <RCCEx_PLLSAI1_Config+0xf2>
        if((HAL_GetTick() - tickstart) > PLLSAI1_TIMEOUT_VALUE)
 80030cc:	f7fe f9a8 	bl	8001420 <HAL_GetTick>
 80030d0:	1b80      	subs	r0, r0, r6
 80030d2:	2802      	cmp	r0, #2
 80030d4:	d9f5      	bls.n	80030c2 <RCCEx_PLLSAI1_Config+0xda>
          status = HAL_TIMEOUT;
 80030d6:	2303      	movs	r3, #3
 80030d8:	461d      	mov	r5, r3
      if(status == HAL_OK)
 80030da:	2d00      	cmp	r5, #0
 80030dc:	d195      	bne.n	800300a <RCCEx_PLLSAI1_Config+0x22>
        __HAL_RCC_PLLSAI1CLKOUT_ENABLE(PllSai1->PLLSAI1ClockOut);
 80030de:	4a23      	ldr	r2, [pc, #140]	@ (800316c <RCCEx_PLLSAI1_Config+0x184>)
 80030e0:	6913      	ldr	r3, [r2, #16]
 80030e2:	69a1      	ldr	r1, [r4, #24]
 80030e4:	430b      	orrs	r3, r1
 80030e6:	6113      	str	r3, [r2, #16]
 80030e8:	e78f      	b.n	800300a <RCCEx_PLLSAI1_Config+0x22>
      if(HAL_IS_BIT_CLR(RCC->CR, RCC_CR_HSIRDY))
 80030ea:	4a20      	ldr	r2, [pc, #128]	@ (800316c <RCCEx_PLLSAI1_Config+0x184>)
 80030ec:	6812      	ldr	r2, [r2, #0]
 80030ee:	f412 6f80 	tst.w	r2, #1024	@ 0x400
 80030f2:	d1aa      	bne.n	800304a <RCCEx_PLLSAI1_Config+0x62>
 80030f4:	2301      	movs	r3, #1
 80030f6:	461d      	mov	r5, r3
 80030f8:	e787      	b.n	800300a <RCCEx_PLLSAI1_Config+0x22>
      if(HAL_IS_BIT_CLR(RCC->CR, RCC_CR_HSERDY))
 80030fa:	4a1c      	ldr	r2, [pc, #112]	@ (800316c <RCCEx_PLLSAI1_Config+0x184>)
 80030fc:	6812      	ldr	r2, [r2, #0]
 80030fe:	f412 3f00 	tst.w	r2, #131072	@ 0x20000
 8003102:	d1a2      	bne.n	800304a <RCCEx_PLLSAI1_Config+0x62>
        if(HAL_IS_BIT_CLR(RCC->CR, RCC_CR_HSEBYP))
 8003104:	4a19      	ldr	r2, [pc, #100]	@ (800316c <RCCEx_PLLSAI1_Config+0x184>)
 8003106:	6812      	ldr	r2, [r2, #0]
 8003108:	f412 2f80 	tst.w	r2, #262144	@ 0x40000
 800310c:	d19d      	bne.n	800304a <RCCEx_PLLSAI1_Config+0x62>
 800310e:	2301      	movs	r3, #1
 8003110:	461d      	mov	r5, r3
 8003112:	e77a      	b.n	800300a <RCCEx_PLLSAI1_Config+0x22>
        status = HAL_ERROR;
 8003114:	2301      	movs	r3, #1
 8003116:	461d      	mov	r5, r3
 8003118:	e7a3      	b.n	8003062 <RCCEx_PLLSAI1_Config+0x7a>
      else if(Divider == DIVIDER_Q_UPDATE)
 800311a:	2f01      	cmp	r7, #1
 800311c:	d00f      	beq.n	800313e <RCCEx_PLLSAI1_Config+0x156>
        MODIFY_REG(RCC->PLLSAI1CFGR,
 800311e:	4813      	ldr	r0, [pc, #76]	@ (800316c <RCCEx_PLLSAI1_Config+0x184>)
 8003120:	6902      	ldr	r2, [r0, #16]
 8003122:	f022 62c0 	bic.w	r2, r2, #100663296	@ 0x6000000
 8003126:	f422 42fe 	bic.w	r2, r2, #32512	@ 0x7f00
 800312a:	68a1      	ldr	r1, [r4, #8]
 800312c:	6963      	ldr	r3, [r4, #20]
 800312e:	085b      	lsrs	r3, r3, #1
 8003130:	3b01      	subs	r3, #1
 8003132:	065b      	lsls	r3, r3, #25
 8003134:	ea43 2301 	orr.w	r3, r3, r1, lsl #8
 8003138:	431a      	orrs	r2, r3
 800313a:	6102      	str	r2, [r0, #16]
 800313c:	e7b9      	b.n	80030b2 <RCCEx_PLLSAI1_Config+0xca>
        MODIFY_REG(RCC->PLLSAI1CFGR,
 800313e:	480b      	ldr	r0, [pc, #44]	@ (800316c <RCCEx_PLLSAI1_Config+0x184>)
 8003140:	6902      	ldr	r2, [r0, #16]
 8003142:	f422 02c0 	bic.w	r2, r2, #6291456	@ 0x600000
 8003146:	f422 42fe 	bic.w	r2, r2, #32512	@ 0x7f00
 800314a:	68a1      	ldr	r1, [r4, #8]
 800314c:	6923      	ldr	r3, [r4, #16]
 800314e:	085b      	lsrs	r3, r3, #1
 8003150:	3b01      	subs	r3, #1
 8003152:	055b      	lsls	r3, r3, #21
 8003154:	ea43 2301 	orr.w	r3, r3, r1, lsl #8
 8003158:	431a      	orrs	r2, r3
 800315a:	6102      	str	r2, [r0, #16]
 800315c:	e7a9      	b.n	80030b2 <RCCEx_PLLSAI1_Config+0xca>
      status = HAL_ERROR;
 800315e:	2301      	movs	r3, #1
 8003160:	461d      	mov	r5, r3
 8003162:	e752      	b.n	800300a <RCCEx_PLLSAI1_Config+0x22>
    switch(PllSai1->PLLSAI1Source)
 8003164:	2301      	movs	r3, #1
 8003166:	461d      	mov	r5, r3
 8003168:	e74f      	b.n	800300a <RCCEx_PLLSAI1_Config+0x22>
 800316a:	bf00      	nop
 800316c:	40021000 	.word	0x40021000

08003170 <RCCEx_PLLSAI2_Config>:
{
 8003170:	b5f8      	push	{r3, r4, r5, r6, r7, lr}
 8003172:	4604      	mov	r4, r0
 8003174:	460f      	mov	r7, r1
  if(__HAL_RCC_GET_PLL_OSCSOURCE() != RCC_PLLSOURCE_NONE)
 8003176:	4b55      	ldr	r3, [pc, #340]	@ (80032cc <RCCEx_PLLSAI2_Config+0x15c>)
 8003178:	68db      	ldr	r3, [r3, #12]
 800317a:	f013 0f03 	tst.w	r3, #3
 800317e:	d01b      	beq.n	80031b8 <RCCEx_PLLSAI2_Config+0x48>
    if((__HAL_RCC_GET_PLL_OSCSOURCE() != PllSai2->PLLSAI2Source)
 8003180:	4b52      	ldr	r3, [pc, #328]	@ (80032cc <RCCEx_PLLSAI2_Config+0x15c>)
 8003182:	68db      	ldr	r3, [r3, #12]
 8003184:	f003 0303 	and.w	r3, r3, #3
 8003188:	6802      	ldr	r2, [r0, #0]
 800318a:	4293      	cmp	r3, r2
 800318c:	d003      	beq.n	8003196 <RCCEx_PLLSAI2_Config+0x26>
      status = HAL_ERROR;
 800318e:	2301      	movs	r3, #1
 8003190:	461d      	mov	r5, r3
}
 8003192:	4628      	mov	r0, r5
 8003194:	bdf8      	pop	{r3, r4, r5, r6, r7, pc}
       ||
 8003196:	2a00      	cmp	r2, #0
 8003198:	f000 8092 	beq.w	80032c0 <RCCEx_PLLSAI2_Config+0x150>
       (((READ_BIT(RCC->PLLCFGR, RCC_PLLCFGR_PLLM) >> RCC_PLLCFGR_PLLM_Pos) + 1U) != PllSai2->PLLSAI2M)
 800319c:	4b4b      	ldr	r3, [pc, #300]	@ (80032cc <RCCEx_PLLSAI2_Config+0x15c>)
 800319e:	68db      	ldr	r3, [r3, #12]
 80031a0:	f3c3 1302 	ubfx	r3, r3, #4, #3
 80031a4:	3301      	adds	r3, #1
 80031a6:	6842      	ldr	r2, [r0, #4]
       ||
 80031a8:	4293      	cmp	r3, r2
 80031aa:	d002      	beq.n	80031b2 <RCCEx_PLLSAI2_Config+0x42>
      status = HAL_ERROR;
 80031ac:	2301      	movs	r3, #1
 80031ae:	461d      	mov	r5, r3
 80031b0:	e7ef      	b.n	8003192 <RCCEx_PLLSAI2_Config+0x22>
  HAL_StatusTypeDef status = HAL_OK;
 80031b2:	2300      	movs	r3, #0
 80031b4:	461d      	mov	r5, r3
 80031b6:	e019      	b.n	80031ec <RCCEx_PLLSAI2_Config+0x7c>
    switch(PllSai2->PLLSAI2Source)
 80031b8:	6803      	ldr	r3, [r0, #0]
 80031ba:	2b02      	cmp	r3, #2
 80031bc:	d058      	beq.n	8003270 <RCCEx_PLLSAI2_Config+0x100>
 80031be:	2b03      	cmp	r3, #3
 80031c0:	d05e      	beq.n	8003280 <RCCEx_PLLSAI2_Config+0x110>
 80031c2:	2b01      	cmp	r3, #1
 80031c4:	d17f      	bne.n	80032c6 <RCCEx_PLLSAI2_Config+0x156>
      if(HAL_IS_BIT_CLR(RCC->CR, RCC_CR_MSIRDY))
 80031c6:	4a41      	ldr	r2, [pc, #260]	@ (80032cc <RCCEx_PLLSAI2_Config+0x15c>)
 80031c8:	6812      	ldr	r2, [r2, #0]
 80031ca:	f012 0f02 	tst.w	r2, #2
 80031ce:	d064      	beq.n	800329a <RCCEx_PLLSAI2_Config+0x12a>
      MODIFY_REG(RCC->PLLCFGR, RCC_PLLCFGR_PLLSRC | RCC_PLLCFGR_PLLM, PllSai2->PLLSAI2Source | (PllSai2->PLLSAI2M - 1U) << RCC_PLLCFGR_PLLM_Pos);
 80031d0:	483e      	ldr	r0, [pc, #248]	@ (80032cc <RCCEx_PLLSAI2_Config+0x15c>)
 80031d2:	68c2      	ldr	r2, [r0, #12]
 80031d4:	f022 0273 	bic.w	r2, r2, #115	@ 0x73
 80031d8:	6861      	ldr	r1, [r4, #4]
 80031da:	3901      	subs	r1, #1
 80031dc:	ea43 1301 	orr.w	r3, r3, r1, lsl #4
 80031e0:	4313      	orrs	r3, r2
 80031e2:	60c3      	str	r3, [r0, #12]
 80031e4:	2300      	movs	r3, #0
 80031e6:	461d      	mov	r5, r3
  if(status == HAL_OK)
 80031e8:	2d00      	cmp	r5, #0
 80031ea:	d1d2      	bne.n	8003192 <RCCEx_PLLSAI2_Config+0x22>
    __HAL_RCC_PLLSAI2_DISABLE();
 80031ec:	4a37      	ldr	r2, [pc, #220]	@ (80032cc <RCCEx_PLLSAI2_Config+0x15c>)
 80031ee:	6813      	ldr	r3, [r2, #0]
 80031f0:	f023 5380 	bic.w	r3, r3, #268435456	@ 0x10000000
 80031f4:	6013      	str	r3, [r2, #0]
    tickstart = HAL_GetTick();
 80031f6:	f7fe f913 	bl	8001420 <HAL_GetTick>
 80031fa:	4606      	mov	r6, r0
    while(READ_BIT(RCC->CR, RCC_CR_PLLSAI2RDY) != 0U)
 80031fc:	4b33      	ldr	r3, [pc, #204]	@ (80032cc <RCCEx_PLLSAI2_Config+0x15c>)
 80031fe:	681b      	ldr	r3, [r3, #0]
 8003200:	f013 5f00 	tst.w	r3, #536870912	@ 0x20000000
 8003204:	d006      	beq.n	8003214 <RCCEx_PLLSAI2_Config+0xa4>
      if((HAL_GetTick() - tickstart) > PLLSAI2_TIMEOUT_VALUE)
 8003206:	f7fe f90b 	bl	8001420 <HAL_GetTick>
 800320a:	1b83      	subs	r3, r0, r6
 800320c:	2b02      	cmp	r3, #2
 800320e:	d9f5      	bls.n	80031fc <RCCEx_PLLSAI2_Config+0x8c>
        status = HAL_TIMEOUT;
 8003210:	2303      	movs	r3, #3
 8003212:	461d      	mov	r5, r3
    if(status == HAL_OK)
 8003214:	2d00      	cmp	r5, #0
 8003216:	d1bc      	bne.n	8003192 <RCCEx_PLLSAI2_Config+0x22>
      if(Divider == DIVIDER_P_UPDATE)
 8003218:	2f00      	cmp	r7, #0
 800321a:	d141      	bne.n	80032a0 <RCCEx_PLLSAI2_Config+0x130>
        MODIFY_REG(RCC->PLLSAI2CFGR,
 800321c:	492b      	ldr	r1, [pc, #172]	@ (80032cc <RCCEx_PLLSAI2_Config+0x15c>)
 800321e:	694b      	ldr	r3, [r1, #20]
 8003220:	f423 331f 	bic.w	r3, r3, #162816	@ 0x27c00
 8003224:	f423 7340 	bic.w	r3, r3, #768	@ 0x300
 8003228:	68a0      	ldr	r0, [r4, #8]
 800322a:	68e2      	ldr	r2, [r4, #12]
 800322c:	0912      	lsrs	r2, r2, #4
 800322e:	0452      	lsls	r2, r2, #17
 8003230:	ea42 2200 	orr.w	r2, r2, r0, lsl #8
 8003234:	4313      	orrs	r3, r2
 8003236:	614b      	str	r3, [r1, #20]
      __HAL_RCC_PLLSAI2_ENABLE();
 8003238:	4a24      	ldr	r2, [pc, #144]	@ (80032cc <RCCEx_PLLSAI2_Config+0x15c>)
 800323a:	6813      	ldr	r3, [r2, #0]
 800323c:	f043 5380 	orr.w	r3, r3, #268435456	@ 0x10000000
 8003240:	6013      	str	r3, [r2, #0]
      tickstart = HAL_GetTick();
 8003242:	f7fe f8ed 	bl	8001420 <HAL_GetTick>
 8003246:	4606      	mov	r6, r0
      while(READ_BIT(RCC->CR, RCC_CR_PLLSAI2RDY) == 0U)
 8003248:	4b20      	ldr	r3, [pc, #128]	@ (80032cc <RCCEx_PLLSAI2_Config+0x15c>)
 800324a:	681b      	ldr	r3, [r3, #0]
 800324c:	f013 5f00 	tst.w	r3, #536870912	@ 0x20000000
 8003250:	d106      	bne.n	8003260 <RCCEx_PLLSAI2_Config+0xf0>
        if((HAL_GetTick() - tickstart) > PLLSAI2_TIMEOUT_VALUE)
 8003252:	f7fe f8e5 	bl	8001420 <HAL_GetTick>
 8003256:	1b80      	subs	r0, r0, r6
 8003258:	2802      	cmp	r0, #2
 800325a:	d9f5      	bls.n	8003248 <RCCEx_PLLSAI2_Config+0xd8>
          status = HAL_TIMEOUT;
 800325c:	2303      	movs	r3, #3
 800325e:	461d      	mov	r5, r3
      if(status == HAL_OK)
 8003260:	2d00      	cmp	r5, #0
 8003262:	d196      	bne.n	8003192 <RCCEx_PLLSAI2_Config+0x22>
        __HAL_RCC_PLLSAI2CLKOUT_ENABLE(PllSai2->PLLSAI2ClockOut);
 8003264:	4a19      	ldr	r2, [pc, #100]	@ (80032cc <RCCEx_PLLSAI2_Config+0x15c>)
 8003266:	6953      	ldr	r3, [r2, #20]
 8003268:	6961      	ldr	r1, [r4, #20]
 800326a:	430b      	orrs	r3, r1
 800326c:	6153      	str	r3, [r2, #20]
 800326e:	e790      	b.n	8003192 <RCCEx_PLLSAI2_Config+0x22>
      if(HAL_IS_BIT_CLR(RCC->CR, RCC_CR_HSIRDY))
 8003270:	4a16      	ldr	r2, [pc, #88]	@ (80032cc <RCCEx_PLLSAI2_Config+0x15c>)
 8003272:	6812      	ldr	r2, [r2, #0]
 8003274:	f412 6f80 	tst.w	r2, #1024	@ 0x400
 8003278:	d1aa      	bne.n	80031d0 <RCCEx_PLLSAI2_Config+0x60>
 800327a:	2301      	movs	r3, #1
 800327c:	461d      	mov	r5, r3
 800327e:	e788      	b.n	8003192 <RCCEx_PLLSAI2_Config+0x22>
      if(HAL_IS_BIT_CLR(RCC->CR, RCC_CR_HSERDY))
 8003280:	4a12      	ldr	r2, [pc, #72]	@ (80032cc <RCCEx_PLLSAI2_Config+0x15c>)
 8003282:	6812      	ldr	r2, [r2, #0]
 8003284:	f412 3f00 	tst.w	r2, #131072	@ 0x20000
 8003288:	d1a2      	bne.n	80031d0 <RCCEx_PLLSAI2_Config+0x60>
        if(HAL_IS_BIT_CLR(RCC->CR, RCC_CR_HSEBYP))
 800328a:	4a10      	ldr	r2, [pc, #64]	@ (80032cc <RCCEx_PLLSAI2_Config+0x15c>)
 800328c:	6812      	ldr	r2, [r2, #0]
 800328e:	f412 2f80 	tst.w	r2, #262144	@ 0x40000
 8003292:	d19d      	bne.n	80031d0 <RCCEx_PLLSAI2_Config+0x60>
 8003294:	2301      	movs	r3, #1
 8003296:	461d      	mov	r5, r3
 8003298:	e77b      	b.n	8003192 <RCCEx_PLLSAI2_Config+0x22>
        status = HAL_ERROR;
 800329a:	2301      	movs	r3, #1
 800329c:	461d      	mov	r5, r3
 800329e:	e7a3      	b.n	80031e8 <RCCEx_PLLSAI2_Config+0x78>
        MODIFY_REG(RCC->PLLSAI2CFGR,
 80032a0:	480a      	ldr	r0, [pc, #40]	@ (80032cc <RCCEx_PLLSAI2_Config+0x15c>)
 80032a2:	6942      	ldr	r2, [r0, #20]
 80032a4:	f022 62c0 	bic.w	r2, r2, #100663296	@ 0x6000000
 80032a8:	f422 42fe 	bic.w	r2, r2, #32512	@ 0x7f00
 80032ac:	68a1      	ldr	r1, [r4, #8]
 80032ae:	6923      	ldr	r3, [r4, #16]
 80032b0:	085b      	lsrs	r3, r3, #1
 80032b2:	3b01      	subs	r3, #1
 80032b4:	065b      	lsls	r3, r3, #25
 80032b6:	ea43 2301 	orr.w	r3, r3, r1, lsl #8
 80032ba:	431a      	orrs	r2, r3
 80032bc:	6142      	str	r2, [r0, #20]
 80032be:	e7bb      	b.n	8003238 <RCCEx_PLLSAI2_Config+0xc8>
      status = HAL_ERROR;
 80032c0:	2301      	movs	r3, #1
 80032c2:	461d      	mov	r5, r3
 80032c4:	e765      	b.n	8003192 <RCCEx_PLLSAI2_Config+0x22>
    switch(PllSai2->PLLSAI2Source)
 80032c6:	2301      	movs	r3, #1
 80032c8:	461d      	mov	r5, r3
 80032ca:	e762      	b.n	8003192 <RCCEx_PLLSAI2_Config+0x22>
 80032cc:	40021000 	.word	0x40021000

080032d0 <HAL_RCCEx_PeriphCLKConfig>:
{
 80032d0:	e92d 41f0 	stmdb	sp!, {r4, r5, r6, r7, r8, lr}
 80032d4:	b082      	sub	sp, #8
 80032d6:	4604      	mov	r4, r0
  if((((PeriphClkInit->PeriphClockSelection) & RCC_PERIPHCLK_SAI1) == RCC_PERIPHCLK_SAI1))
 80032d8:	6803      	ldr	r3, [r0, #0]
 80032da:	f413 6f00 	tst.w	r3, #2048	@ 0x800
 80032de:	d038      	beq.n	8003352 <HAL_RCCEx_PeriphCLKConfig+0x82>
    switch(PeriphClkInit->Sai1ClockSelection)
 80032e0:	6e43      	ldr	r3, [r0, #100]	@ 0x64
 80032e2:	f5b3 0f00 	cmp.w	r3, #8388608	@ 0x800000
 80032e6:	d018      	beq.n	800331a <HAL_RCCEx_PeriphCLKConfig+0x4a>
 80032e8:	d80d      	bhi.n	8003306 <HAL_RCCEx_PeriphCLKConfig+0x36>
 80032ea:	b34b      	cbz	r3, 8003340 <HAL_RCCEx_PeriphCLKConfig+0x70>
 80032ec:	f5b3 0f80 	cmp.w	r3, #4194304	@ 0x400000
 80032f0:	d105      	bne.n	80032fe <HAL_RCCEx_PeriphCLKConfig+0x2e>
      ret = RCCEx_PLLSAI2_Config(&(PeriphClkInit->PLLSAI2), DIVIDER_P_UPDATE);
 80032f2:	2100      	movs	r1, #0
 80032f4:	3020      	adds	r0, #32
 80032f6:	f7ff ff3b 	bl	8003170 <RCCEx_PLLSAI2_Config>
 80032fa:	4606      	mov	r6, r0
      break;
 80032fc:	e025      	b.n	800334a <HAL_RCCEx_PeriphCLKConfig+0x7a>
    switch(PeriphClkInit->Sai1ClockSelection)
 80032fe:	2301      	movs	r3, #1
 8003300:	461f      	mov	r7, r3
 8003302:	461e      	mov	r6, r3
 8003304:	e028      	b.n	8003358 <HAL_RCCEx_PeriphCLKConfig+0x88>
 8003306:	f5b3 0f40 	cmp.w	r3, #12582912	@ 0xc00000
 800330a:	d102      	bne.n	8003312 <HAL_RCCEx_PeriphCLKConfig+0x42>
 800330c:	2300      	movs	r3, #0
 800330e:	461e      	mov	r6, r3
 8003310:	e00a      	b.n	8003328 <HAL_RCCEx_PeriphCLKConfig+0x58>
 8003312:	2301      	movs	r3, #1
 8003314:	461f      	mov	r7, r3
 8003316:	461e      	mov	r6, r3
 8003318:	e01e      	b.n	8003358 <HAL_RCCEx_PeriphCLKConfig+0x88>
      __HAL_RCC_PLLCLKOUT_ENABLE(RCC_PLL_SAI3CLK);
 800331a:	4a64      	ldr	r2, [pc, #400]	@ (80034ac <HAL_RCCEx_PeriphCLKConfig+0x1dc>)
 800331c:	68d3      	ldr	r3, [r2, #12]
 800331e:	f443 3380 	orr.w	r3, r3, #65536	@ 0x10000
 8003322:	60d3      	str	r3, [r2, #12]
  HAL_StatusTypeDef ret = HAL_OK;      /* Intermediate status */
 8003324:	2300      	movs	r3, #0
 8003326:	461e      	mov	r6, r3
      __HAL_RCC_SAI1_CONFIG(PeriphClkInit->Sai1ClockSelection);
 8003328:	4a60      	ldr	r2, [pc, #384]	@ (80034ac <HAL_RCCEx_PeriphCLKConfig+0x1dc>)
 800332a:	f8d2 3088 	ldr.w	r3, [r2, #136]	@ 0x88
 800332e:	f423 0340 	bic.w	r3, r3, #12582912	@ 0xc00000
 8003332:	6e61      	ldr	r1, [r4, #100]	@ 0x64
 8003334:	430b      	orrs	r3, r1
 8003336:	f8c2 3088 	str.w	r3, [r2, #136]	@ 0x88
  HAL_StatusTypeDef status = HAL_OK;   /* Final status */
 800333a:	2300      	movs	r3, #0
 800333c:	461f      	mov	r7, r3
 800333e:	e00b      	b.n	8003358 <HAL_RCCEx_PeriphCLKConfig+0x88>
      ret = RCCEx_PLLSAI1_Config(&(PeriphClkInit->PLLSAI1), DIVIDER_P_UPDATE);
 8003340:	4619      	mov	r1, r3
 8003342:	3004      	adds	r0, #4
 8003344:	f7ff fe50 	bl	8002fe8 <RCCEx_PLLSAI1_Config>
 8003348:	4606      	mov	r6, r0
    if(ret == HAL_OK)
 800334a:	2e00      	cmp	r6, #0
 800334c:	d0ec      	beq.n	8003328 <HAL_RCCEx_PeriphCLKConfig+0x58>
      status = ret;
 800334e:	4637      	mov	r7, r6
 8003350:	e002      	b.n	8003358 <HAL_RCCEx_PeriphCLKConfig+0x88>
  HAL_StatusTypeDef status = HAL_OK;   /* Final status */
 8003352:	2300      	movs	r3, #0
 8003354:	461f      	mov	r7, r3
  HAL_StatusTypeDef ret = HAL_OK;      /* Intermediate status */
 8003356:	461e      	mov	r6, r3
  if((((PeriphClkInit->PeriphClockSelection) & RCC_PERIPHCLK_SAI2) == RCC_PERIPHCLK_SAI2))
 8003358:	6823      	ldr	r3, [r4, #0]
 800335a:	f413 5f80 	tst.w	r3, #4096	@ 0x1000
 800335e:	d032      	beq.n	80033c6 <HAL_RCCEx_PeriphCLKConfig+0xf6>
    switch(PeriphClkInit->Sai2ClockSelection)
 8003360:	6ea3      	ldr	r3, [r4, #104]	@ 0x68
 8003362:	f1b3 7f00 	cmp.w	r3, #33554432	@ 0x2000000
 8003366:	d021      	beq.n	80033ac <HAL_RCCEx_PeriphCLKConfig+0xdc>
 8003368:	d80e      	bhi.n	8003388 <HAL_RCCEx_PeriphCLKConfig+0xb8>
 800336a:	b32b      	cbz	r3, 80033b8 <HAL_RCCEx_PeriphCLKConfig+0xe8>
 800336c:	f1b3 7f80 	cmp.w	r3, #16777216	@ 0x1000000
 8003370:	d106      	bne.n	8003380 <HAL_RCCEx_PeriphCLKConfig+0xb0>
      ret = RCCEx_PLLSAI2_Config(&(PeriphClkInit->PLLSAI2), DIVIDER_P_UPDATE);
 8003372:	2100      	movs	r1, #0
 8003374:	f104 0020 	add.w	r0, r4, #32
 8003378:	f7ff fefa 	bl	8003170 <RCCEx_PLLSAI2_Config>
 800337c:	4606      	mov	r6, r0
      break;
 800337e:	e006      	b.n	800338e <HAL_RCCEx_PeriphCLKConfig+0xbe>
    switch(PeriphClkInit->Sai2ClockSelection)
 8003380:	2301      	movs	r3, #1
 8003382:	461f      	mov	r7, r3
 8003384:	461e      	mov	r6, r3
 8003386:	e01e      	b.n	80033c6 <HAL_RCCEx_PeriphCLKConfig+0xf6>
 8003388:	f1b3 7f40 	cmp.w	r3, #50331648	@ 0x3000000
 800338c:	d10a      	bne.n	80033a4 <HAL_RCCEx_PeriphCLKConfig+0xd4>
    if(ret == HAL_OK)
 800338e:	b9ce      	cbnz	r6, 80033c4 <HAL_RCCEx_PeriphCLKConfig+0xf4>
      __HAL_RCC_SAI2_CONFIG(PeriphClkInit->Sai2ClockSelection);
 8003390:	4a46      	ldr	r2, [pc, #280]	@ (80034ac <HAL_RCCEx_PeriphCLKConfig+0x1dc>)
 8003392:	f8d2 3088 	ldr.w	r3, [r2, #136]	@ 0x88
 8003396:	f023 7340 	bic.w	r3, r3, #50331648	@ 0x3000000
 800339a:	6ea1      	ldr	r1, [r4, #104]	@ 0x68
 800339c:	430b      	orrs	r3, r1
 800339e:	f8c2 3088 	str.w	r3, [r2, #136]	@ 0x88
 80033a2:	e010      	b.n	80033c6 <HAL_RCCEx_PeriphCLKConfig+0xf6>
    switch(PeriphClkInit->Sai2ClockSelection)
 80033a4:	2301      	movs	r3, #1
 80033a6:	461f      	mov	r7, r3
 80033a8:	461e      	mov	r6, r3
 80033aa:	e00c      	b.n	80033c6 <HAL_RCCEx_PeriphCLKConfig+0xf6>
      __HAL_RCC_PLLCLKOUT_ENABLE(RCC_PLL_SAI3CLK);
 80033ac:	4a3f      	ldr	r2, [pc, #252]	@ (80034ac <HAL_RCCEx_PeriphCLKConfig+0x1dc>)
 80033ae:	68d3      	ldr	r3, [r2, #12]
 80033b0:	f443 3380 	orr.w	r3, r3, #65536	@ 0x10000
 80033b4:	60d3      	str	r3, [r2, #12]
      break;
 80033b6:	e7ea      	b.n	800338e <HAL_RCCEx_PeriphCLKConfig+0xbe>
      ret = RCCEx_PLLSAI1_Config(&(PeriphClkInit->PLLSAI1), DIVIDER_P_UPDATE);
 80033b8:	4619      	mov	r1, r3
 80033ba:	1d20      	adds	r0, r4, #4
 80033bc:	f7ff fe14 	bl	8002fe8 <RCCEx_PLLSAI1_Config>
 80033c0:	4606      	mov	r6, r0
      break;
 80033c2:	e7e4      	b.n	800338e <HAL_RCCEx_PeriphCLKConfig+0xbe>
      status = ret;
 80033c4:	4637      	mov	r7, r6
  if((PeriphClkInit->PeriphClockSelection & RCC_PERIPHCLK_RTC) == RCC_PERIPHCLK_RTC)
 80033c6:	6823      	ldr	r3, [r4, #0]
 80033c8:	f413 3f00 	tst.w	r3, #131072	@ 0x20000
 80033cc:	d077      	beq.n	80034be <HAL_RCCEx_PeriphCLKConfig+0x1ee>
    if(__HAL_RCC_PWR_IS_CLK_DISABLED() != 0U)
 80033ce:	4b37      	ldr	r3, [pc, #220]	@ (80034ac <HAL_RCCEx_PeriphCLKConfig+0x1dc>)
 80033d0:	6d9b      	ldr	r3, [r3, #88]	@ 0x58
 80033d2:	f013 5f80 	tst.w	r3, #268435456	@ 0x10000000
 80033d6:	d152      	bne.n	800347e <HAL_RCCEx_PeriphCLKConfig+0x1ae>
      __HAL_RCC_PWR_CLK_ENABLE();
 80033d8:	4b34      	ldr	r3, [pc, #208]	@ (80034ac <HAL_RCCEx_PeriphCLKConfig+0x1dc>)
 80033da:	6d9a      	ldr	r2, [r3, #88]	@ 0x58
 80033dc:	f042 5280 	orr.w	r2, r2, #268435456	@ 0x10000000
 80033e0:	659a      	str	r2, [r3, #88]	@ 0x58
 80033e2:	6d9b      	ldr	r3, [r3, #88]	@ 0x58
 80033e4:	f003 5380 	and.w	r3, r3, #268435456	@ 0x10000000
 80033e8:	9301      	str	r3, [sp, #4]
 80033ea:	9b01      	ldr	r3, [sp, #4]
      pwrclkchanged = SET;
 80033ec:	2301      	movs	r3, #1
 80033ee:	4698      	mov	r8, r3
    SET_BIT(PWR->CR1, PWR_CR1_DBP);
 80033f0:	4a2f      	ldr	r2, [pc, #188]	@ (80034b0 <HAL_RCCEx_PeriphCLKConfig+0x1e0>)
 80033f2:	6813      	ldr	r3, [r2, #0]
 80033f4:	f443 7380 	orr.w	r3, r3, #256	@ 0x100
 80033f8:	6013      	str	r3, [r2, #0]
    tickstart = HAL_GetTick();
 80033fa:	f7fe f811 	bl	8001420 <HAL_GetTick>
 80033fe:	4605      	mov	r5, r0
    while(READ_BIT(PWR->CR1, PWR_CR1_DBP) == 0U)
 8003400:	4b2b      	ldr	r3, [pc, #172]	@ (80034b0 <HAL_RCCEx_PeriphCLKConfig+0x1e0>)
 8003402:	681b      	ldr	r3, [r3, #0]
 8003404:	f413 7f80 	tst.w	r3, #256	@ 0x100
 8003408:	d106      	bne.n	8003418 <HAL_RCCEx_PeriphCLKConfig+0x148>
      if((HAL_GetTick() - tickstart) > RCC_DBP_TIMEOUT_VALUE)
 800340a:	f7fe f809 	bl	8001420 <HAL_GetTick>
 800340e:	1b40      	subs	r0, r0, r5
 8003410:	2802      	cmp	r0, #2
 8003412:	d9f5      	bls.n	8003400 <HAL_RCCEx_PeriphCLKConfig+0x130>
        ret = HAL_TIMEOUT;
 8003414:	2303      	movs	r3, #3
 8003416:	461e      	mov	r6, r3
    if(ret == HAL_OK)
 8003418:	2e00      	cmp	r6, #0
 800341a:	d14b      	bne.n	80034b4 <HAL_RCCEx_PeriphCLKConfig+0x1e4>
      tmpregister = READ_BIT(RCC->BDCR, RCC_BDCR_RTCSEL);
 800341c:	f106 4380 	add.w	r3, r6, #1073741824	@ 0x40000000
 8003420:	f503 3304 	add.w	r3, r3, #135168	@ 0x21000
 8003424:	f8d3 3090 	ldr.w	r3, [r3, #144]	@ 0x90
      if((tmpregister != RCC_RTCCLKSOURCE_NONE) && (tmpregister != PeriphClkInit->RTCClockSelection))
 8003428:	f413 7340 	ands.w	r3, r3, #768	@ 0x300
 800342c:	d019      	beq.n	8003462 <HAL_RCCEx_PeriphCLKConfig+0x192>
 800342e:	f8d4 2084 	ldr.w	r2, [r4, #132]	@ 0x84
 8003432:	429a      	cmp	r2, r3
 8003434:	d012      	beq.n	800345c <HAL_RCCEx_PeriphCLKConfig+0x18c>
        tmpregister = READ_BIT(RCC->BDCR, ~(RCC_BDCR_RTCSEL));
 8003436:	4a1d      	ldr	r2, [pc, #116]	@ (80034ac <HAL_RCCEx_PeriphCLKConfig+0x1dc>)
 8003438:	f8d2 3090 	ldr.w	r3, [r2, #144]	@ 0x90
 800343c:	f423 7340 	bic.w	r3, r3, #768	@ 0x300
        __HAL_RCC_BACKUPRESET_FORCE();
 8003440:	f8d2 1090 	ldr.w	r1, [r2, #144]	@ 0x90
 8003444:	f441 3180 	orr.w	r1, r1, #65536	@ 0x10000
 8003448:	f8c2 1090 	str.w	r1, [r2, #144]	@ 0x90
        __HAL_RCC_BACKUPRESET_RELEASE();
 800344c:	f8d2 1090 	ldr.w	r1, [r2, #144]	@ 0x90
 8003450:	f421 3180 	bic.w	r1, r1, #65536	@ 0x10000
 8003454:	f8c2 1090 	str.w	r1, [r2, #144]	@ 0x90
        RCC->BDCR = tmpregister;
 8003458:	f8c2 3090 	str.w	r3, [r2, #144]	@ 0x90
      if (HAL_IS_BIT_SET(tmpregister, RCC_BDCR_LSEON))
 800345c:	f013 0f01 	tst.w	r3, #1
 8003460:	d110      	bne.n	8003484 <HAL_RCCEx_PeriphCLKConfig+0x1b4>
      if(ret == HAL_OK)
 8003462:	2e00      	cmp	r6, #0
 8003464:	f040 8129 	bne.w	80036ba <HAL_RCCEx_PeriphCLKConfig+0x3ea>
        __HAL_RCC_RTC_CONFIG(PeriphClkInit->RTCClockSelection);
 8003468:	4a10      	ldr	r2, [pc, #64]	@ (80034ac <HAL_RCCEx_PeriphCLKConfig+0x1dc>)
 800346a:	f8d2 3090 	ldr.w	r3, [r2, #144]	@ 0x90
 800346e:	f423 7340 	bic.w	r3, r3, #768	@ 0x300
 8003472:	f8d4 1084 	ldr.w	r1, [r4, #132]	@ 0x84
 8003476:	430b      	orrs	r3, r1
 8003478:	f8c2 3090 	str.w	r3, [r2, #144]	@ 0x90
 800347c:	e01b      	b.n	80034b6 <HAL_RCCEx_PeriphCLKConfig+0x1e6>
    FlagStatus       pwrclkchanged = RESET;
 800347e:	2300      	movs	r3, #0
 8003480:	4698      	mov	r8, r3
 8003482:	e7b5      	b.n	80033f0 <HAL_RCCEx_PeriphCLKConfig+0x120>
        tickstart = HAL_GetTick();
 8003484:	f7fd ffcc 	bl	8001420 <HAL_GetTick>
 8003488:	4605      	mov	r5, r0
        while(READ_BIT(RCC->BDCR, RCC_BDCR_LSERDY) == 0U)
 800348a:	4b08      	ldr	r3, [pc, #32]	@ (80034ac <HAL_RCCEx_PeriphCLKConfig+0x1dc>)
 800348c:	f8d3 3090 	ldr.w	r3, [r3, #144]	@ 0x90
 8003490:	f013 0f02 	tst.w	r3, #2
 8003494:	d1e5      	bne.n	8003462 <HAL_RCCEx_PeriphCLKConfig+0x192>
          if((HAL_GetTick() - tickstart) > RCC_LSE_TIMEOUT_VALUE)
 8003496:	f7fd ffc3 	bl	8001420 <HAL_GetTick>
 800349a:	1b40      	subs	r0, r0, r5
 800349c:	f241 3388 	movw	r3, #5000	@ 0x1388
 80034a0:	4298      	cmp	r0, r3
 80034a2:	d9f2      	bls.n	800348a <HAL_RCCEx_PeriphCLKConfig+0x1ba>
            ret = HAL_TIMEOUT;
 80034a4:	2303      	movs	r3, #3
 80034a6:	461e      	mov	r6, r3
 80034a8:	e7db      	b.n	8003462 <HAL_RCCEx_PeriphCLKConfig+0x192>
 80034aa:	bf00      	nop
 80034ac:	40021000 	.word	0x40021000
 80034b0:	40007000 	.word	0x40007000
      status = ret;
 80034b4:	4637      	mov	r7, r6
    if(pwrclkchanged == SET)
 80034b6:	4643      	mov	r3, r8
 80034b8:	2b00      	cmp	r3, #0
 80034ba:	f040 8100 	bne.w	80036be <HAL_RCCEx_PeriphCLKConfig+0x3ee>
  if(((PeriphClkInit->PeriphClockSelection) & RCC_PERIPHCLK_USART1) == RCC_PERIPHCLK_USART1)
 80034be:	6823      	ldr	r3, [r4, #0]
 80034c0:	f013 0f01 	tst.w	r3, #1
 80034c4:	d008      	beq.n	80034d8 <HAL_RCCEx_PeriphCLKConfig+0x208>
    __HAL_RCC_USART1_CONFIG(PeriphClkInit->Usart1ClockSelection);
 80034c6:	4a9d      	ldr	r2, [pc, #628]	@ (800373c <HAL_RCCEx_PeriphCLKConfig+0x46c>)
 80034c8:	f8d2 3088 	ldr.w	r3, [r2, #136]	@ 0x88
 80034cc:	f023 0303 	bic.w	r3, r3, #3
 80034d0:	6ba1      	ldr	r1, [r4, #56]	@ 0x38
 80034d2:	430b      	orrs	r3, r1
 80034d4:	f8c2 3088 	str.w	r3, [r2, #136]	@ 0x88
  if(((PeriphClkInit->PeriphClockSelection) & RCC_PERIPHCLK_USART2) == RCC_PERIPHCLK_USART2)
 80034d8:	6823      	ldr	r3, [r4, #0]
 80034da:	f013 0f02 	tst.w	r3, #2
 80034de:	d008      	beq.n	80034f2 <HAL_RCCEx_PeriphCLKConfig+0x222>
    __HAL_RCC_USART2_CONFIG(PeriphClkInit->Usart2ClockSelection);
 80034e0:	4a96      	ldr	r2, [pc, #600]	@ (800373c <HAL_RCCEx_PeriphCLKConfig+0x46c>)
 80034e2:	f8d2 3088 	ldr.w	r3, [r2, #136]	@ 0x88
 80034e6:	f023 030c 	bic.w	r3, r3, #12
 80034ea:	6be1      	ldr	r1, [r4, #60]	@ 0x3c
 80034ec:	430b      	orrs	r3, r1
 80034ee:	f8c2 3088 	str.w	r3, [r2, #136]	@ 0x88
  if(((PeriphClkInit->PeriphClockSelection) & RCC_PERIPHCLK_USART3) == RCC_PERIPHCLK_USART3)
 80034f2:	6823      	ldr	r3, [r4, #0]
 80034f4:	f013 0f04 	tst.w	r3, #4
 80034f8:	d008      	beq.n	800350c <HAL_RCCEx_PeriphCLKConfig+0x23c>
    __HAL_RCC_USART3_CONFIG(PeriphClkInit->Usart3ClockSelection);
 80034fa:	4a90      	ldr	r2, [pc, #576]	@ (800373c <HAL_RCCEx_PeriphCLKConfig+0x46c>)
 80034fc:	f8d2 3088 	ldr.w	r3, [r2, #136]	@ 0x88
 8003500:	f023 0330 	bic.w	r3, r3, #48	@ 0x30
 8003504:	6c21      	ldr	r1, [r4, #64]	@ 0x40
 8003506:	430b      	orrs	r3, r1
 8003508:	f8c2 3088 	str.w	r3, [r2, #136]	@ 0x88
  if(((PeriphClkInit->PeriphClockSelection) & RCC_PERIPHCLK_UART4) == RCC_PERIPHCLK_UART4)
 800350c:	6823      	ldr	r3, [r4, #0]
 800350e:	f013 0f08 	tst.w	r3, #8
 8003512:	d008      	beq.n	8003526 <HAL_RCCEx_PeriphCLKConfig+0x256>
    __HAL_RCC_UART4_CONFIG(PeriphClkInit->Uart4ClockSelection);
 8003514:	4a89      	ldr	r2, [pc, #548]	@ (800373c <HAL_RCCEx_PeriphCLKConfig+0x46c>)
 8003516:	f8d2 3088 	ldr.w	r3, [r2, #136]	@ 0x88
 800351a:	f023 03c0 	bic.w	r3, r3, #192	@ 0xc0
 800351e:	6c61      	ldr	r1, [r4, #68]	@ 0x44
 8003520:	430b      	orrs	r3, r1
 8003522:	f8c2 3088 	str.w	r3, [r2, #136]	@ 0x88
  if(((PeriphClkInit->PeriphClockSelection) & RCC_PERIPHCLK_UART5) == RCC_PERIPHCLK_UART5)
 8003526:	6823      	ldr	r3, [r4, #0]
 8003528:	f013 0f10 	tst.w	r3, #16
 800352c:	d008      	beq.n	8003540 <HAL_RCCEx_PeriphCLKConfig+0x270>
    __HAL_RCC_UART5_CONFIG(PeriphClkInit->Uart5ClockSelection);
 800352e:	4a83      	ldr	r2, [pc, #524]	@ (800373c <HAL_RCCEx_PeriphCLKConfig+0x46c>)
 8003530:	f8d2 3088 	ldr.w	r3, [r2, #136]	@ 0x88
 8003534:	f423 7340 	bic.w	r3, r3, #768	@ 0x300
 8003538:	6ca1      	ldr	r1, [r4, #72]	@ 0x48
 800353a:	430b      	orrs	r3, r1
 800353c:	f8c2 3088 	str.w	r3, [r2, #136]	@ 0x88
  if(((PeriphClkInit->PeriphClockSelection) & RCC_PERIPHCLK_LPUART1) == RCC_PERIPHCLK_LPUART1)
 8003540:	6823      	ldr	r3, [r4, #0]
 8003542:	f013 0f20 	tst.w	r3, #32
 8003546:	d008      	beq.n	800355a <HAL_RCCEx_PeriphCLKConfig+0x28a>
    __HAL_RCC_LPUART1_CONFIG(PeriphClkInit->Lpuart1ClockSelection);
 8003548:	4a7c      	ldr	r2, [pc, #496]	@ (800373c <HAL_RCCEx_PeriphCLKConfig+0x46c>)
 800354a:	f8d2 3088 	ldr.w	r3, [r2, #136]	@ 0x88
 800354e:	f423 6340 	bic.w	r3, r3, #3072	@ 0xc00
 8003552:	6ce1      	ldr	r1, [r4, #76]	@ 0x4c
 8003554:	430b      	orrs	r3, r1
 8003556:	f8c2 3088 	str.w	r3, [r2, #136]	@ 0x88
  if(((PeriphClkInit->PeriphClockSelection) & RCC_PERIPHCLK_LPTIM1) == (RCC_PERIPHCLK_LPTIM1))
 800355a:	6823      	ldr	r3, [r4, #0]
 800355c:	f413 7f00 	tst.w	r3, #512	@ 0x200
 8003560:	d008      	beq.n	8003574 <HAL_RCCEx_PeriphCLKConfig+0x2a4>
    __HAL_RCC_LPTIM1_CONFIG(PeriphClkInit->Lptim1ClockSelection);
 8003562:	4a76      	ldr	r2, [pc, #472]	@ (800373c <HAL_RCCEx_PeriphCLKConfig+0x46c>)
 8003564:	f8d2 3088 	ldr.w	r3, [r2, #136]	@ 0x88
 8003568:	f423 2340 	bic.w	r3, r3, #786432	@ 0xc0000
 800356c:	6de1      	ldr	r1, [r4, #92]	@ 0x5c
 800356e:	430b      	orrs	r3, r1
 8003570:	f8c2 3088 	str.w	r3, [r2, #136]	@ 0x88
  if(((PeriphClkInit->PeriphClockSelection) & RCC_PERIPHCLK_LPTIM2) == (RCC_PERIPHCLK_LPTIM2))
 8003574:	6823      	ldr	r3, [r4, #0]
 8003576:	f413 6f80 	tst.w	r3, #1024	@ 0x400
 800357a:	d008      	beq.n	800358e <HAL_RCCEx_PeriphCLKConfig+0x2be>
    __HAL_RCC_LPTIM2_CONFIG(PeriphClkInit->Lptim2ClockSelection);
 800357c:	4a6f      	ldr	r2, [pc, #444]	@ (800373c <HAL_RCCEx_PeriphCLKConfig+0x46c>)
 800357e:	f8d2 3088 	ldr.w	r3, [r2, #136]	@ 0x88
 8003582:	f423 1340 	bic.w	r3, r3, #3145728	@ 0x300000
 8003586:	6e21      	ldr	r1, [r4, #96]	@ 0x60
 8003588:	430b      	orrs	r3, r1
 800358a:	f8c2 3088 	str.w	r3, [r2, #136]	@ 0x88
  if(((PeriphClkInit->PeriphClockSelection) & RCC_PERIPHCLK_I2C1) == RCC_PERIPHCLK_I2C1)
 800358e:	6823      	ldr	r3, [r4, #0]
 8003590:	f013 0f40 	tst.w	r3, #64	@ 0x40
 8003594:	d008      	beq.n	80035a8 <HAL_RCCEx_PeriphCLKConfig+0x2d8>
    __HAL_RCC_I2C1_CONFIG(PeriphClkInit->I2c1ClockSelection);
 8003596:	4a69      	ldr	r2, [pc, #420]	@ (800373c <HAL_RCCEx_PeriphCLKConfig+0x46c>)
 8003598:	f8d2 3088 	ldr.w	r3, [r2, #136]	@ 0x88
 800359c:	f423 5340 	bic.w	r3, r3, #12288	@ 0x3000
 80035a0:	6d21      	ldr	r1, [r4, #80]	@ 0x50
 80035a2:	430b      	orrs	r3, r1
 80035a4:	f8c2 3088 	str.w	r3, [r2, #136]	@ 0x88
  if(((PeriphClkInit->PeriphClockSelection) & RCC_PERIPHCLK_I2C2) == RCC_PERIPHCLK_I2C2)
 80035a8:	6823      	ldr	r3, [r4, #0]
 80035aa:	f013 0f80 	tst.w	r3, #128	@ 0x80
 80035ae:	d008      	beq.n	80035c2 <HAL_RCCEx_PeriphCLKConfig+0x2f2>
    __HAL_RCC_I2C2_CONFIG(PeriphClkInit->I2c2ClockSelection);
 80035b0:	4a62      	ldr	r2, [pc, #392]	@ (800373c <HAL_RCCEx_PeriphCLKConfig+0x46c>)
 80035b2:	f8d2 3088 	ldr.w	r3, [r2, #136]	@ 0x88
 80035b6:	f423 4340 	bic.w	r3, r3, #49152	@ 0xc000
 80035ba:	6d61      	ldr	r1, [r4, #84]	@ 0x54
 80035bc:	430b      	orrs	r3, r1
 80035be:	f8c2 3088 	str.w	r3, [r2, #136]	@ 0x88
  if(((PeriphClkInit->PeriphClockSelection) & RCC_PERIPHCLK_I2C3) == RCC_PERIPHCLK_I2C3)
 80035c2:	6823      	ldr	r3, [r4, #0]
 80035c4:	f413 7f80 	tst.w	r3, #256	@ 0x100
 80035c8:	d008      	beq.n	80035dc <HAL_RCCEx_PeriphCLKConfig+0x30c>
    __HAL_RCC_I2C3_CONFIG(PeriphClkInit->I2c3ClockSelection);
 80035ca:	4a5c      	ldr	r2, [pc, #368]	@ (800373c <HAL_RCCEx_PeriphCLKConfig+0x46c>)
 80035cc:	f8d2 3088 	ldr.w	r3, [r2, #136]	@ 0x88
 80035d0:	f423 3340 	bic.w	r3, r3, #196608	@ 0x30000
 80035d4:	6da1      	ldr	r1, [r4, #88]	@ 0x58
 80035d6:	430b      	orrs	r3, r1
 80035d8:	f8c2 3088 	str.w	r3, [r2, #136]	@ 0x88
  if(((PeriphClkInit->PeriphClockSelection) & RCC_PERIPHCLK_USB) == (RCC_PERIPHCLK_USB))
 80035dc:	6823      	ldr	r3, [r4, #0]
 80035de:	f413 5f00 	tst.w	r3, #8192	@ 0x2000
 80035e2:	d00f      	beq.n	8003604 <HAL_RCCEx_PeriphCLKConfig+0x334>
    __HAL_RCC_USB_CONFIG(PeriphClkInit->UsbClockSelection);
 80035e4:	4a55      	ldr	r2, [pc, #340]	@ (800373c <HAL_RCCEx_PeriphCLKConfig+0x46c>)
 80035e6:	f8d2 3088 	ldr.w	r3, [r2, #136]	@ 0x88
 80035ea:	f023 6340 	bic.w	r3, r3, #201326592	@ 0xc000000
 80035ee:	6ee1      	ldr	r1, [r4, #108]	@ 0x6c
 80035f0:	430b      	orrs	r3, r1
 80035f2:	f8c2 3088 	str.w	r3, [r2, #136]	@ 0x88
    if(PeriphClkInit->UsbClockSelection == RCC_USBCLKSOURCE_PLL)
 80035f6:	6ee3      	ldr	r3, [r4, #108]	@ 0x6c
 80035f8:	f1b3 6f00 	cmp.w	r3, #134217728	@ 0x8000000
 80035fc:	d065      	beq.n	80036ca <HAL_RCCEx_PeriphCLKConfig+0x3fa>
      if(PeriphClkInit->UsbClockSelection == RCC_USBCLKSOURCE_PLLSAI1)
 80035fe:	f1b3 6f80 	cmp.w	r3, #67108864	@ 0x4000000
 8003602:	d067      	beq.n	80036d4 <HAL_RCCEx_PeriphCLKConfig+0x404>
  if(((PeriphClkInit->PeriphClockSelection) & RCC_PERIPHCLK_SDMMC1) == (RCC_PERIPHCLK_SDMMC1))
 8003604:	6823      	ldr	r3, [r4, #0]
 8003606:	f413 2f00 	tst.w	r3, #524288	@ 0x80000
 800360a:	d00f      	beq.n	800362c <HAL_RCCEx_PeriphCLKConfig+0x35c>
    __HAL_RCC_SDMMC1_CONFIG(PeriphClkInit->Sdmmc1ClockSelection);
 800360c:	4a4b      	ldr	r2, [pc, #300]	@ (800373c <HAL_RCCEx_PeriphCLKConfig+0x46c>)
 800360e:	f8d2 3088 	ldr.w	r3, [r2, #136]	@ 0x88
 8003612:	f023 6340 	bic.w	r3, r3, #201326592	@ 0xc000000
 8003616:	6f21      	ldr	r1, [r4, #112]	@ 0x70
 8003618:	430b      	orrs	r3, r1
 800361a:	f8c2 3088 	str.w	r3, [r2, #136]	@ 0x88
    if(PeriphClkInit->Sdmmc1ClockSelection == RCC_SDMMC1CLKSOURCE_PLL)   /* PLL "Q" ? */
 800361e:	6f23      	ldr	r3, [r4, #112]	@ 0x70
 8003620:	f1b3 6f00 	cmp.w	r3, #134217728	@ 0x8000000
 8003624:	d05e      	beq.n	80036e4 <HAL_RCCEx_PeriphCLKConfig+0x414>
    else if(PeriphClkInit->Sdmmc1ClockSelection == RCC_SDMMC1CLKSOURCE_PLLSAI1)
 8003626:	f1b3 6f80 	cmp.w	r3, #67108864	@ 0x4000000
 800362a:	d060      	beq.n	80036ee <HAL_RCCEx_PeriphCLKConfig+0x41e>
  if(((PeriphClkInit->PeriphClockSelection) & RCC_PERIPHCLK_RNG) == (RCC_PERIPHCLK_RNG))
 800362c:	6823      	ldr	r3, [r4, #0]
 800362e:	f413 2f80 	tst.w	r3, #262144	@ 0x40000
 8003632:	d00f      	beq.n	8003654 <HAL_RCCEx_PeriphCLKConfig+0x384>
    __HAL_RCC_RNG_CONFIG(PeriphClkInit->RngClockSelection);
 8003634:	4a41      	ldr	r2, [pc, #260]	@ (800373c <HAL_RCCEx_PeriphCLKConfig+0x46c>)
 8003636:	f8d2 3088 	ldr.w	r3, [r2, #136]	@ 0x88
 800363a:	f023 6340 	bic.w	r3, r3, #201326592	@ 0xc000000
 800363e:	6f61      	ldr	r1, [r4, #116]	@ 0x74
 8003640:	430b      	orrs	r3, r1
 8003642:	f8c2 3088 	str.w	r3, [r2, #136]	@ 0x88
    if(PeriphClkInit->RngClockSelection == RCC_RNGCLKSOURCE_PLL)
 8003646:	6f63      	ldr	r3, [r4, #116]	@ 0x74
 8003648:	f1b3 6f00 	cmp.w	r3, #134217728	@ 0x8000000
 800364c:	d057      	beq.n	80036fe <HAL_RCCEx_PeriphCLKConfig+0x42e>
    else if(PeriphClkInit->RngClockSelection == RCC_RNGCLKSOURCE_PLLSAI1)
 800364e:	f1b3 6f80 	cmp.w	r3, #67108864	@ 0x4000000
 8003652:	d059      	beq.n	8003708 <HAL_RCCEx_PeriphCLKConfig+0x438>
  if(((PeriphClkInit->PeriphClockSelection) & RCC_PERIPHCLK_ADC) == RCC_PERIPHCLK_ADC)
 8003654:	6823      	ldr	r3, [r4, #0]
 8003656:	f413 4f80 	tst.w	r3, #16384	@ 0x4000
 800365a:	d00f      	beq.n	800367c <HAL_RCCEx_PeriphCLKConfig+0x3ac>
    __HAL_RCC_ADC_CONFIG(PeriphClkInit->AdcClockSelection);
 800365c:	4a37      	ldr	r2, [pc, #220]	@ (800373c <HAL_RCCEx_PeriphCLKConfig+0x46c>)
 800365e:	f8d2 3088 	ldr.w	r3, [r2, #136]	@ 0x88
 8003662:	f023 5340 	bic.w	r3, r3, #805306368	@ 0x30000000
 8003666:	6fa1      	ldr	r1, [r4, #120]	@ 0x78
 8003668:	430b      	orrs	r3, r1
 800366a:	f8c2 3088 	str.w	r3, [r2, #136]	@ 0x88
    if(PeriphClkInit->AdcClockSelection == RCC_ADCCLKSOURCE_PLLSAI1)
 800366e:	6fa3      	ldr	r3, [r4, #120]	@ 0x78
 8003670:	f1b3 5f80 	cmp.w	r3, #268435456	@ 0x10000000
 8003674:	d050      	beq.n	8003718 <HAL_RCCEx_PeriphCLKConfig+0x448>
    else if(PeriphClkInit->AdcClockSelection == RCC_ADCCLKSOURCE_PLLSAI2)
 8003676:	f1b3 5f00 	cmp.w	r3, #536870912	@ 0x20000000
 800367a:	d055      	beq.n	8003728 <HAL_RCCEx_PeriphCLKConfig+0x458>
  if(((PeriphClkInit->PeriphClockSelection) & RCC_PERIPHCLK_SWPMI1) == RCC_PERIPHCLK_SWPMI1)
 800367c:	6823      	ldr	r3, [r4, #0]
 800367e:	f413 4f00 	tst.w	r3, #32768	@ 0x8000
 8003682:	d008      	beq.n	8003696 <HAL_RCCEx_PeriphCLKConfig+0x3c6>
    __HAL_RCC_SWPMI1_CONFIG(PeriphClkInit->Swpmi1ClockSelection);
 8003684:	4a2d      	ldr	r2, [pc, #180]	@ (800373c <HAL_RCCEx_PeriphCLKConfig+0x46c>)
 8003686:	f8d2 3088 	ldr.w	r3, [r2, #136]	@ 0x88
 800368a:	f023 4380 	bic.w	r3, r3, #1073741824	@ 0x40000000
 800368e:	6fe1      	ldr	r1, [r4, #124]	@ 0x7c
 8003690:	430b      	orrs	r3, r1
 8003692:	f8c2 3088 	str.w	r3, [r2, #136]	@ 0x88
  if(((PeriphClkInit->PeriphClockSelection) & RCC_PERIPHCLK_DFSDM1) == RCC_PERIPHCLK_DFSDM1)
 8003696:	6823      	ldr	r3, [r4, #0]
 8003698:	f413 3f80 	tst.w	r3, #65536	@ 0x10000
 800369c:	d009      	beq.n	80036b2 <HAL_RCCEx_PeriphCLKConfig+0x3e2>
    __HAL_RCC_DFSDM1_CONFIG(PeriphClkInit->Dfsdm1ClockSelection);
 800369e:	4a27      	ldr	r2, [pc, #156]	@ (800373c <HAL_RCCEx_PeriphCLKConfig+0x46c>)
 80036a0:	f8d2 3088 	ldr.w	r3, [r2, #136]	@ 0x88
 80036a4:	f023 4300 	bic.w	r3, r3, #2147483648	@ 0x80000000
 80036a8:	f8d4 1080 	ldr.w	r1, [r4, #128]	@ 0x80
 80036ac:	430b      	orrs	r3, r1
 80036ae:	f8c2 3088 	str.w	r3, [r2, #136]	@ 0x88
}
 80036b2:	4638      	mov	r0, r7
 80036b4:	b002      	add	sp, #8
 80036b6:	e8bd 81f0 	ldmia.w	sp!, {r4, r5, r6, r7, r8, pc}
        status = ret;
 80036ba:	4637      	mov	r7, r6
 80036bc:	e6fb      	b.n	80034b6 <HAL_RCCEx_PeriphCLKConfig+0x1e6>
      __HAL_RCC_PWR_CLK_DISABLE();
 80036be:	4a1f      	ldr	r2, [pc, #124]	@ (800373c <HAL_RCCEx_PeriphCLKConfig+0x46c>)
 80036c0:	6d93      	ldr	r3, [r2, #88]	@ 0x58
 80036c2:	f023 5380 	bic.w	r3, r3, #268435456	@ 0x10000000
 80036c6:	6593      	str	r3, [r2, #88]	@ 0x58
 80036c8:	e6f9      	b.n	80034be <HAL_RCCEx_PeriphCLKConfig+0x1ee>
      __HAL_RCC_PLLCLKOUT_ENABLE(RCC_PLL_48M1CLK);
 80036ca:	68d3      	ldr	r3, [r2, #12]
 80036cc:	f443 1380 	orr.w	r3, r3, #1048576	@ 0x100000
 80036d0:	60d3      	str	r3, [r2, #12]
 80036d2:	e797      	b.n	8003604 <HAL_RCCEx_PeriphCLKConfig+0x334>
        ret = RCCEx_PLLSAI1_Config(&(PeriphClkInit->PLLSAI1), DIVIDER_Q_UPDATE);
 80036d4:	2101      	movs	r1, #1
 80036d6:	1d20      	adds	r0, r4, #4
 80036d8:	f7ff fc86 	bl	8002fe8 <RCCEx_PLLSAI1_Config>
        if(ret != HAL_OK)
 80036dc:	2800      	cmp	r0, #0
 80036de:	d091      	beq.n	8003604 <HAL_RCCEx_PeriphCLKConfig+0x334>
          status = ret;
 80036e0:	4607      	mov	r7, r0
 80036e2:	e78f      	b.n	8003604 <HAL_RCCEx_PeriphCLKConfig+0x334>
      __HAL_RCC_PLLCLKOUT_ENABLE(RCC_PLL_48M1CLK);
 80036e4:	68d3      	ldr	r3, [r2, #12]
 80036e6:	f443 1380 	orr.w	r3, r3, #1048576	@ 0x100000
 80036ea:	60d3      	str	r3, [r2, #12]
 80036ec:	e79e      	b.n	800362c <HAL_RCCEx_PeriphCLKConfig+0x35c>
      ret = RCCEx_PLLSAI1_Config(&(PeriphClkInit->PLLSAI1), DIVIDER_Q_UPDATE);
 80036ee:	2101      	movs	r1, #1
 80036f0:	1d20      	adds	r0, r4, #4
 80036f2:	f7ff fc79 	bl	8002fe8 <RCCEx_PLLSAI1_Config>
      if(ret != HAL_OK)
 80036f6:	2800      	cmp	r0, #0
 80036f8:	d098      	beq.n	800362c <HAL_RCCEx_PeriphCLKConfig+0x35c>
        status = ret;
 80036fa:	4607      	mov	r7, r0
 80036fc:	e796      	b.n	800362c <HAL_RCCEx_PeriphCLKConfig+0x35c>
      __HAL_RCC_PLLCLKOUT_ENABLE(RCC_PLL_48M1CLK);
 80036fe:	68d3      	ldr	r3, [r2, #12]
 8003700:	f443 1380 	orr.w	r3, r3, #1048576	@ 0x100000
 8003704:	60d3      	str	r3, [r2, #12]
 8003706:	e7a5      	b.n	8003654 <HAL_RCCEx_PeriphCLKConfig+0x384>
      ret = RCCEx_PLLSAI1_Config(&(PeriphClkInit->PLLSAI1), DIVIDER_Q_UPDATE);
 8003708:	2101      	movs	r1, #1
 800370a:	1d20      	adds	r0, r4, #4
 800370c:	f7ff fc6c 	bl	8002fe8 <RCCEx_PLLSAI1_Config>
      if(ret != HAL_OK)
 8003710:	2800      	cmp	r0, #0
 8003712:	d09f      	beq.n	8003654 <HAL_RCCEx_PeriphCLKConfig+0x384>
        status = ret;
 8003714:	4607      	mov	r7, r0
 8003716:	e79d      	b.n	8003654 <HAL_RCCEx_PeriphCLKConfig+0x384>
      ret = RCCEx_PLLSAI1_Config(&(PeriphClkInit->PLLSAI1), DIVIDER_R_UPDATE);
 8003718:	2102      	movs	r1, #2
 800371a:	1d20      	adds	r0, r4, #4
 800371c:	f7ff fc64 	bl	8002fe8 <RCCEx_PLLSAI1_Config>
      if(ret != HAL_OK)
 8003720:	2800      	cmp	r0, #0
 8003722:	d0ab      	beq.n	800367c <HAL_RCCEx_PeriphCLKConfig+0x3ac>
        status = ret;
 8003724:	4607      	mov	r7, r0
 8003726:	e7a9      	b.n	800367c <HAL_RCCEx_PeriphCLKConfig+0x3ac>
      ret = RCCEx_PLLSAI2_Config(&(PeriphClkInit->PLLSAI2), DIVIDER_R_UPDATE);
 8003728:	2102      	movs	r1, #2
 800372a:	f104 0020 	add.w	r0, r4, #32
 800372e:	f7ff fd1f 	bl	8003170 <RCCEx_PLLSAI2_Config>
      if(ret != HAL_OK)
 8003732:	2800      	cmp	r0, #0
 8003734:	d0a2      	beq.n	800367c <HAL_RCCEx_PeriphCLKConfig+0x3ac>
        status = ret;
 8003736:	4607      	mov	r7, r0
 8003738:	e7a0      	b.n	800367c <HAL_RCCEx_PeriphCLKConfig+0x3ac>
 800373a:	bf00      	nop
 800373c:	40021000 	.word	0x40021000

08003740 <HAL_RCCEx_GetPeriphCLKFreq>:
{
 8003740:	b508      	push	{r3, lr}
  if(PeriphClk == RCC_PERIPHCLK_RTC)
 8003742:	f5b0 3f00 	cmp.w	r0, #131072	@ 0x20000
 8003746:	d01a      	beq.n	800377e <HAL_RCCEx_GetPeriphCLKFreq+0x3e>
    pll_oscsource = __HAL_RCC_GET_PLL_OSCSOURCE();
 8003748:	4ba5      	ldr	r3, [pc, #660]	@ (80039e0 <HAL_RCCEx_GetPeriphCLKFreq+0x2a0>)
 800374a:	68db      	ldr	r3, [r3, #12]
 800374c:	f003 0303 	and.w	r3, r3, #3
    switch(pll_oscsource)
 8003750:	2b02      	cmp	r3, #2
 8003752:	d045      	beq.n	80037e0 <HAL_RCCEx_GetPeriphCLKFreq+0xa0>
 8003754:	2b03      	cmp	r3, #3
 8003756:	d04a      	beq.n	80037ee <HAL_RCCEx_GetPeriphCLKFreq+0xae>
 8003758:	2b01      	cmp	r3, #1
 800375a:	d14f      	bne.n	80037fc <HAL_RCCEx_GetPeriphCLKFreq+0xbc>
      if(HAL_IS_BIT_SET(RCC->CR, RCC_CR_MSIRDY))
 800375c:	4ba0      	ldr	r3, [pc, #640]	@ (80039e0 <HAL_RCCEx_GetPeriphCLKFreq+0x2a0>)
 800375e:	6819      	ldr	r1, [r3, #0]
 8003760:	f011 0102 	ands.w	r1, r1, #2
 8003764:	d04b      	beq.n	80037fe <HAL_RCCEx_GetPeriphCLKFreq+0xbe>
        pllvco = MSIRangeTable[(__HAL_RCC_GET_MSI_RANGE() >> 4U)];
 8003766:	681b      	ldr	r3, [r3, #0]
 8003768:	f013 0f08 	tst.w	r3, #8
 800376c:	d032      	beq.n	80037d4 <HAL_RCCEx_GetPeriphCLKFreq+0x94>
 800376e:	4b9c      	ldr	r3, [pc, #624]	@ (80039e0 <HAL_RCCEx_GetPeriphCLKFreq+0x2a0>)
 8003770:	681b      	ldr	r3, [r3, #0]
 8003772:	f3c3 1303 	ubfx	r3, r3, #4, #4
 8003776:	4a9b      	ldr	r2, [pc, #620]	@ (80039e4 <HAL_RCCEx_GetPeriphCLKFreq+0x2a4>)
 8003778:	f852 1023 	ldr.w	r1, [r2, r3, lsl #2]
 800377c:	e03f      	b.n	80037fe <HAL_RCCEx_GetPeriphCLKFreq+0xbe>
    srcclk = __HAL_RCC_GET_RTC_SOURCE();
 800377e:	4b98      	ldr	r3, [pc, #608]	@ (80039e0 <HAL_RCCEx_GetPeriphCLKFreq+0x2a0>)
 8003780:	f8d3 3090 	ldr.w	r3, [r3, #144]	@ 0x90
 8003784:	f403 7340 	and.w	r3, r3, #768	@ 0x300
    switch(srcclk)
 8003788:	f5b3 7f00 	cmp.w	r3, #512	@ 0x200
 800378c:	d010      	beq.n	80037b0 <HAL_RCCEx_GetPeriphCLKFreq+0x70>
 800378e:	f5b3 7f40 	cmp.w	r3, #768	@ 0x300
 8003792:	d017      	beq.n	80037c4 <HAL_RCCEx_GetPeriphCLKFreq+0x84>
 8003794:	f5b3 7f80 	cmp.w	r3, #256	@ 0x100
 8003798:	f040 8330 	bne.w	8003dfc <HAL_RCCEx_GetPeriphCLKFreq+0x6bc>
      if(HAL_IS_BIT_SET(RCC->BDCR, RCC_BDCR_LSERDY))
 800379c:	4b90      	ldr	r3, [pc, #576]	@ (80039e0 <HAL_RCCEx_GetPeriphCLKFreq+0x2a0>)
 800379e:	f8d3 0090 	ldr.w	r0, [r3, #144]	@ 0x90
 80037a2:	f010 0002 	ands.w	r0, r0, #2
 80037a6:	f000 832a 	beq.w	8003dfe <HAL_RCCEx_GetPeriphCLKFreq+0x6be>
        frequency = LSE_VALUE;
 80037aa:	f44f 4000 	mov.w	r0, #32768	@ 0x8000
 80037ae:	e326      	b.n	8003dfe <HAL_RCCEx_GetPeriphCLKFreq+0x6be>
      if(HAL_IS_BIT_SET(RCC->CSR, RCC_CSR_LSIRDY))
 80037b0:	4b8b      	ldr	r3, [pc, #556]	@ (80039e0 <HAL_RCCEx_GetPeriphCLKFreq+0x2a0>)
 80037b2:	f8d3 0094 	ldr.w	r0, [r3, #148]	@ 0x94
 80037b6:	f010 0002 	ands.w	r0, r0, #2
 80037ba:	f000 8320 	beq.w	8003dfe <HAL_RCCEx_GetPeriphCLKFreq+0x6be>
          frequency = LSI_VALUE;
 80037be:	f44f 40fa 	mov.w	r0, #32000	@ 0x7d00
 80037c2:	e31c      	b.n	8003dfe <HAL_RCCEx_GetPeriphCLKFreq+0x6be>
      if(HAL_IS_BIT_SET(RCC->CR, RCC_CR_HSERDY))
 80037c4:	4b86      	ldr	r3, [pc, #536]	@ (80039e0 <HAL_RCCEx_GetPeriphCLKFreq+0x2a0>)
 80037c6:	6818      	ldr	r0, [r3, #0]
 80037c8:	f410 3000 	ands.w	r0, r0, #131072	@ 0x20000
 80037cc:	f000 8317 	beq.w	8003dfe <HAL_RCCEx_GetPeriphCLKFreq+0x6be>
        frequency = HSE_VALUE / 32U;
 80037d0:	4885      	ldr	r0, [pc, #532]	@ (80039e8 <HAL_RCCEx_GetPeriphCLKFreq+0x2a8>)
 80037d2:	e314      	b.n	8003dfe <HAL_RCCEx_GetPeriphCLKFreq+0x6be>
        pllvco = MSIRangeTable[(__HAL_RCC_GET_MSI_RANGE() >> 4U)];
 80037d4:	4b82      	ldr	r3, [pc, #520]	@ (80039e0 <HAL_RCCEx_GetPeriphCLKFreq+0x2a0>)
 80037d6:	f8d3 3094 	ldr.w	r3, [r3, #148]	@ 0x94
 80037da:	f3c3 2303 	ubfx	r3, r3, #8, #4
 80037de:	e7ca      	b.n	8003776 <HAL_RCCEx_GetPeriphCLKFreq+0x36>
      if(HAL_IS_BIT_SET(RCC->CR, RCC_CR_HSIRDY))
 80037e0:	4b7f      	ldr	r3, [pc, #508]	@ (80039e0 <HAL_RCCEx_GetPeriphCLKFreq+0x2a0>)
 80037e2:	6819      	ldr	r1, [r3, #0]
 80037e4:	f411 6180 	ands.w	r1, r1, #1024	@ 0x400
 80037e8:	d009      	beq.n	80037fe <HAL_RCCEx_GetPeriphCLKFreq+0xbe>
        pllvco = HSI_VALUE;
 80037ea:	4980      	ldr	r1, [pc, #512]	@ (80039ec <HAL_RCCEx_GetPeriphCLKFreq+0x2ac>)
 80037ec:	e007      	b.n	80037fe <HAL_RCCEx_GetPeriphCLKFreq+0xbe>
      if(HAL_IS_BIT_SET(RCC->CR, RCC_CR_HSERDY))
 80037ee:	4b7c      	ldr	r3, [pc, #496]	@ (80039e0 <HAL_RCCEx_GetPeriphCLKFreq+0x2a0>)
 80037f0:	6819      	ldr	r1, [r3, #0]
 80037f2:	f411 3100 	ands.w	r1, r1, #131072	@ 0x20000
 80037f6:	d002      	beq.n	80037fe <HAL_RCCEx_GetPeriphCLKFreq+0xbe>
        pllvco = HSE_VALUE;
 80037f8:	497d      	ldr	r1, [pc, #500]	@ (80039f0 <HAL_RCCEx_GetPeriphCLKFreq+0x2b0>)
 80037fa:	e000      	b.n	80037fe <HAL_RCCEx_GetPeriphCLKFreq+0xbe>
    switch(pll_oscsource)
 80037fc:	2100      	movs	r1, #0
    switch(PeriphClk)
 80037fe:	f5b0 7f80 	cmp.w	r0, #256	@ 0x100
 8003802:	f000 8284 	beq.w	8003d0e <HAL_RCCEx_GetPeriphCLKFreq+0x5ce>
 8003806:	d857      	bhi.n	80038b8 <HAL_RCCEx_GetPeriphCLKFreq+0x178>
 8003808:	2810      	cmp	r0, #16
 800380a:	f000 81b9 	beq.w	8003b80 <HAL_RCCEx_GetPeriphCLKFreq+0x440>
 800380e:	d834      	bhi.n	800387a <HAL_RCCEx_GetPeriphCLKFreq+0x13a>
 8003810:	2804      	cmp	r0, #4
 8003812:	f000 8171 	beq.w	8003af8 <HAL_RCCEx_GetPeriphCLKFreq+0x3b8>
 8003816:	d819      	bhi.n	800384c <HAL_RCCEx_GetPeriphCLKFreq+0x10c>
 8003818:	2801      	cmp	r0, #1
 800381a:	f000 8129 	beq.w	8003a70 <HAL_RCCEx_GetPeriphCLKFreq+0x330>
 800381e:	2802      	cmp	r0, #2
 8003820:	d112      	bne.n	8003848 <HAL_RCCEx_GetPeriphCLKFreq+0x108>
        srcclk = __HAL_RCC_GET_USART2_SOURCE();
 8003822:	4b6f      	ldr	r3, [pc, #444]	@ (80039e0 <HAL_RCCEx_GetPeriphCLKFreq+0x2a0>)
 8003824:	f8d3 3088 	ldr.w	r3, [r3, #136]	@ 0x88
 8003828:	f003 030c 	and.w	r3, r3, #12
        switch(srcclk)
 800382c:	2b08      	cmp	r3, #8
 800382e:	f000 815b 	beq.w	8003ae8 <HAL_RCCEx_GetPeriphCLKFreq+0x3a8>
 8003832:	f200 8148 	bhi.w	8003ac6 <HAL_RCCEx_GetPeriphCLKFreq+0x386>
 8003836:	2b00      	cmp	r3, #0
 8003838:	f000 8153 	beq.w	8003ae2 <HAL_RCCEx_GetPeriphCLKFreq+0x3a2>
 800383c:	2b04      	cmp	r3, #4
 800383e:	f040 8140 	bne.w	8003ac2 <HAL_RCCEx_GetPeriphCLKFreq+0x382>
          frequency = HAL_RCC_GetSysClockFreq();
 8003842:	f7fe feef 	bl	8002624 <HAL_RCC_GetSysClockFreq>
          break;
 8003846:	e2da      	b.n	8003dfe <HAL_RCCEx_GetPeriphCLKFreq+0x6be>
    switch(PeriphClk)
 8003848:	2000      	movs	r0, #0
 800384a:	e2d8      	b.n	8003dfe <HAL_RCCEx_GetPeriphCLKFreq+0x6be>
 800384c:	2808      	cmp	r0, #8
 800384e:	d112      	bne.n	8003876 <HAL_RCCEx_GetPeriphCLKFreq+0x136>
        srcclk = __HAL_RCC_GET_UART4_SOURCE();
 8003850:	4b63      	ldr	r3, [pc, #396]	@ (80039e0 <HAL_RCCEx_GetPeriphCLKFreq+0x2a0>)
 8003852:	f8d3 3088 	ldr.w	r3, [r3, #136]	@ 0x88
 8003856:	f003 03c0 	and.w	r3, r3, #192	@ 0xc0
        switch(srcclk)
 800385a:	2b80      	cmp	r3, #128	@ 0x80
 800385c:	f000 8188 	beq.w	8003b70 <HAL_RCCEx_GetPeriphCLKFreq+0x430>
 8003860:	f200 8175 	bhi.w	8003b4e <HAL_RCCEx_GetPeriphCLKFreq+0x40e>
 8003864:	2b00      	cmp	r3, #0
 8003866:	f000 8180 	beq.w	8003b6a <HAL_RCCEx_GetPeriphCLKFreq+0x42a>
 800386a:	2b40      	cmp	r3, #64	@ 0x40
 800386c:	f040 816d 	bne.w	8003b4a <HAL_RCCEx_GetPeriphCLKFreq+0x40a>
          frequency = HAL_RCC_GetSysClockFreq();
 8003870:	f7fe fed8 	bl	8002624 <HAL_RCC_GetSysClockFreq>
          break;
 8003874:	e2c3      	b.n	8003dfe <HAL_RCCEx_GetPeriphCLKFreq+0x6be>
    switch(PeriphClk)
 8003876:	2000      	movs	r0, #0
 8003878:	e2c1      	b.n	8003dfe <HAL_RCCEx_GetPeriphCLKFreq+0x6be>
 800387a:	2840      	cmp	r0, #64	@ 0x40
 800387c:	f000 8210 	beq.w	8003ca0 <HAL_RCCEx_GetPeriphCLKFreq+0x560>
 8003880:	2880      	cmp	r0, #128	@ 0x80
 8003882:	f000 8229 	beq.w	8003cd8 <HAL_RCCEx_GetPeriphCLKFreq+0x598>
 8003886:	2820      	cmp	r0, #32
 8003888:	d114      	bne.n	80038b4 <HAL_RCCEx_GetPeriphCLKFreq+0x174>
        srcclk = __HAL_RCC_GET_LPUART1_SOURCE();
 800388a:	4b55      	ldr	r3, [pc, #340]	@ (80039e0 <HAL_RCCEx_GetPeriphCLKFreq+0x2a0>)
 800388c:	f8d3 3088 	ldr.w	r3, [r3, #136]	@ 0x88
 8003890:	f403 6340 	and.w	r3, r3, #3072	@ 0xc00
        switch(srcclk)
 8003894:	f5b3 6f00 	cmp.w	r3, #2048	@ 0x800
 8003898:	f000 81b2 	beq.w	8003c00 <HAL_RCCEx_GetPeriphCLKFreq+0x4c0>
 800389c:	f200 819e 	bhi.w	8003bdc <HAL_RCCEx_GetPeriphCLKFreq+0x49c>
 80038a0:	2b00      	cmp	r3, #0
 80038a2:	f000 81aa 	beq.w	8003bfa <HAL_RCCEx_GetPeriphCLKFreq+0x4ba>
 80038a6:	f5b3 6f80 	cmp.w	r3, #1024	@ 0x400
 80038aa:	f040 8195 	bne.w	8003bd8 <HAL_RCCEx_GetPeriphCLKFreq+0x498>
          frequency = HAL_RCC_GetSysClockFreq();
 80038ae:	f7fe feb9 	bl	8002624 <HAL_RCC_GetSysClockFreq>
          break;
 80038b2:	e2a4      	b.n	8003dfe <HAL_RCCEx_GetPeriphCLKFreq+0x6be>
    switch(PeriphClk)
 80038b4:	2000      	movs	r0, #0
 80038b6:	e2a2      	b.n	8003dfe <HAL_RCCEx_GetPeriphCLKFreq+0x6be>
 80038b8:	f5b0 5f80 	cmp.w	r0, #4096	@ 0x1000
 80038bc:	d073      	beq.n	80039a6 <HAL_RCCEx_GetPeriphCLKFreq+0x266>
 80038be:	d910      	bls.n	80038e2 <HAL_RCCEx_GetPeriphCLKFreq+0x1a2>
 80038c0:	f5b0 4f00 	cmp.w	r0, #32768	@ 0x8000
 80038c4:	f000 8287 	beq.w	8003dd6 <HAL_RCCEx_GetPeriphCLKFreq+0x696>
 80038c8:	d933      	bls.n	8003932 <HAL_RCCEx_GetPeriphCLKFreq+0x1f2>
 80038ca:	f5b0 3f80 	cmp.w	r0, #65536	@ 0x10000
 80038ce:	d14b      	bne.n	8003968 <HAL_RCCEx_GetPeriphCLKFreq+0x228>
        srcclk = __HAL_RCC_GET_DFSDM1_SOURCE();
 80038d0:	4b43      	ldr	r3, [pc, #268]	@ (80039e0 <HAL_RCCEx_GetPeriphCLKFreq+0x2a0>)
 80038d2:	f8d3 3088 	ldr.w	r3, [r3, #136]	@ 0x88
        if(srcclk == RCC_DFSDM1CLKSOURCE_PCLK2)
 80038d6:	2b00      	cmp	r3, #0
 80038d8:	f2c0 81db 	blt.w	8003c92 <HAL_RCCEx_GetPeriphCLKFreq+0x552>
          frequency = HAL_RCC_GetPCLK2Freq();
 80038dc:	f7ff fae2 	bl	8002ea4 <HAL_RCC_GetPCLK2Freq>
 80038e0:	e28d      	b.n	8003dfe <HAL_RCCEx_GetPeriphCLKFreq+0x6be>
    switch(PeriphClk)
 80038e2:	f5b0 6f80 	cmp.w	r0, #1024	@ 0x400
 80038e6:	f000 8246 	beq.w	8003d76 <HAL_RCCEx_GetPeriphCLKFreq+0x636>
 80038ea:	f5b0 6f00 	cmp.w	r0, #2048	@ 0x800
 80038ee:	d055      	beq.n	800399c <HAL_RCCEx_GetPeriphCLKFreq+0x25c>
 80038f0:	f5b0 7f00 	cmp.w	r0, #512	@ 0x200
 80038f4:	d11b      	bne.n	800392e <HAL_RCCEx_GetPeriphCLKFreq+0x1ee>
        srcclk = __HAL_RCC_GET_LPTIM1_SOURCE();
 80038f6:	4b3a      	ldr	r3, [pc, #232]	@ (80039e0 <HAL_RCCEx_GetPeriphCLKFreq+0x2a0>)
 80038f8:	f8d3 3088 	ldr.w	r3, [r3, #136]	@ 0x88
 80038fc:	f403 2340 	and.w	r3, r3, #786432	@ 0xc0000
        switch(srcclk)
 8003900:	f5b3 2f00 	cmp.w	r3, #524288	@ 0x80000
 8003904:	f000 8230 	beq.w	8003d68 <HAL_RCCEx_GetPeriphCLKFreq+0x628>
 8003908:	f200 821d 	bhi.w	8003d46 <HAL_RCCEx_GetPeriphCLKFreq+0x606>
 800390c:	2b00      	cmp	r3, #0
 800390e:	f000 8228 	beq.w	8003d62 <HAL_RCCEx_GetPeriphCLKFreq+0x622>
 8003912:	f5b3 2f80 	cmp.w	r3, #262144	@ 0x40000
 8003916:	f040 8214 	bne.w	8003d42 <HAL_RCCEx_GetPeriphCLKFreq+0x602>
          if(HAL_IS_BIT_SET(RCC->CSR, RCC_CSR_LSIRDY))
 800391a:	4b31      	ldr	r3, [pc, #196]	@ (80039e0 <HAL_RCCEx_GetPeriphCLKFreq+0x2a0>)
 800391c:	f8d3 0094 	ldr.w	r0, [r3, #148]	@ 0x94
 8003920:	f010 0002 	ands.w	r0, r0, #2
 8003924:	f000 826b 	beq.w	8003dfe <HAL_RCCEx_GetPeriphCLKFreq+0x6be>
              frequency = LSI_VALUE;
 8003928:	f44f 40fa 	mov.w	r0, #32000	@ 0x7d00
 800392c:	e267      	b.n	8003dfe <HAL_RCCEx_GetPeriphCLKFreq+0x6be>
    switch(PeriphClk)
 800392e:	2000      	movs	r0, #0
 8003930:	e265      	b.n	8003dfe <HAL_RCCEx_GetPeriphCLKFreq+0x6be>
 8003932:	f5b0 5f00 	cmp.w	r0, #8192	@ 0x2000
 8003936:	d01f      	beq.n	8003978 <HAL_RCCEx_GetPeriphCLKFreq+0x238>
 8003938:	f5b0 4f80 	cmp.w	r0, #16384	@ 0x4000
 800393c:	d112      	bne.n	8003964 <HAL_RCCEx_GetPeriphCLKFreq+0x224>
        srcclk = __HAL_RCC_GET_ADC_SOURCE();
 800393e:	4b28      	ldr	r3, [pc, #160]	@ (80039e0 <HAL_RCCEx_GetPeriphCLKFreq+0x2a0>)
 8003940:	f8d3 3088 	ldr.w	r3, [r3, #136]	@ 0x88
 8003944:	f003 5340 	and.w	r3, r3, #805306368	@ 0x30000000
        switch(srcclk)
 8003948:	f1b3 5f00 	cmp.w	r3, #536870912	@ 0x20000000
 800394c:	f000 8182 	beq.w	8003c54 <HAL_RCCEx_GetPeriphCLKFreq+0x514>
 8003950:	f1b3 5f40 	cmp.w	r3, #805306368	@ 0x30000000
 8003954:	f000 815c 	beq.w	8003c10 <HAL_RCCEx_GetPeriphCLKFreq+0x4d0>
 8003958:	f1b3 5f80 	cmp.w	r3, #268435456	@ 0x10000000
 800395c:	f000 815b 	beq.w	8003c16 <HAL_RCCEx_GetPeriphCLKFreq+0x4d6>
 8003960:	2000      	movs	r0, #0
 8003962:	e24c      	b.n	8003dfe <HAL_RCCEx_GetPeriphCLKFreq+0x6be>
    switch(PeriphClk)
 8003964:	2000      	movs	r0, #0
 8003966:	e24a      	b.n	8003dfe <HAL_RCCEx_GetPeriphCLKFreq+0x6be>
 8003968:	f0c0 824a 	bcc.w	8003e00 <HAL_RCCEx_GetPeriphCLKFreq+0x6c0>
 800396c:	f5b0 2f80 	cmp.w	r0, #262144	@ 0x40000
 8003970:	d002      	beq.n	8003978 <HAL_RCCEx_GetPeriphCLKFreq+0x238>
 8003972:	f5b0 2f00 	cmp.w	r0, #524288	@ 0x80000
 8003976:	d10f      	bne.n	8003998 <HAL_RCCEx_GetPeriphCLKFreq+0x258>
        srcclk = READ_BIT(RCC->CCIPR, RCC_CCIPR_CLK48SEL);
 8003978:	4b19      	ldr	r3, [pc, #100]	@ (80039e0 <HAL_RCCEx_GetPeriphCLKFreq+0x2a0>)
 800397a:	f8d3 3088 	ldr.w	r3, [r3, #136]	@ 0x88
 800397e:	f003 6340 	and.w	r3, r3, #201326592	@ 0xc000000
        switch(srcclk)
 8003982:	f1b3 6f00 	cmp.w	r3, #134217728	@ 0x8000000
 8003986:	d035      	beq.n	80039f4 <HAL_RCCEx_GetPeriphCLKFreq+0x2b4>
 8003988:	f1b3 6f40 	cmp.w	r3, #201326592	@ 0xc000000
 800398c:	d010      	beq.n	80039b0 <HAL_RCCEx_GetPeriphCLKFreq+0x270>
 800398e:	f1b3 6f80 	cmp.w	r3, #67108864	@ 0x4000000
 8003992:	d04e      	beq.n	8003a32 <HAL_RCCEx_GetPeriphCLKFreq+0x2f2>
 8003994:	2000      	movs	r0, #0
 8003996:	e232      	b.n	8003dfe <HAL_RCCEx_GetPeriphCLKFreq+0x6be>
    switch(PeriphClk)
 8003998:	2000      	movs	r0, #0
 800399a:	e230      	b.n	8003dfe <HAL_RCCEx_GetPeriphCLKFreq+0x6be>
      frequency = RCCEx_GetSAIxPeriphCLKFreq(RCC_PERIPHCLK_SAI1, pllvco);
 800399c:	f44f 6000 	mov.w	r0, #2048	@ 0x800
 80039a0:	f7ff fa92 	bl	8002ec8 <RCCEx_GetSAIxPeriphCLKFreq>
      break;
 80039a4:	e22b      	b.n	8003dfe <HAL_RCCEx_GetPeriphCLKFreq+0x6be>
      frequency = RCCEx_GetSAIxPeriphCLKFreq(RCC_PERIPHCLK_SAI2, pllvco);
 80039a6:	f44f 5080 	mov.w	r0, #4096	@ 0x1000
 80039aa:	f7ff fa8d 	bl	8002ec8 <RCCEx_GetSAIxPeriphCLKFreq>
      break;
 80039ae:	e226      	b.n	8003dfe <HAL_RCCEx_GetPeriphCLKFreq+0x6be>
          if(HAL_IS_BIT_SET(RCC->CR, RCC_CR_MSIRDY))
 80039b0:	4b0b      	ldr	r3, [pc, #44]	@ (80039e0 <HAL_RCCEx_GetPeriphCLKFreq+0x2a0>)
 80039b2:	6818      	ldr	r0, [r3, #0]
 80039b4:	f010 0002 	ands.w	r0, r0, #2
 80039b8:	f000 8221 	beq.w	8003dfe <HAL_RCCEx_GetPeriphCLKFreq+0x6be>
            frequency = MSIRangeTable[(__HAL_RCC_GET_MSI_RANGE() >> 4U)];
 80039bc:	681b      	ldr	r3, [r3, #0]
 80039be:	f013 0f08 	tst.w	r3, #8
 80039c2:	d007      	beq.n	80039d4 <HAL_RCCEx_GetPeriphCLKFreq+0x294>
 80039c4:	4b06      	ldr	r3, [pc, #24]	@ (80039e0 <HAL_RCCEx_GetPeriphCLKFreq+0x2a0>)
 80039c6:	681b      	ldr	r3, [r3, #0]
 80039c8:	f3c3 1303 	ubfx	r3, r3, #4, #4
 80039cc:	4a05      	ldr	r2, [pc, #20]	@ (80039e4 <HAL_RCCEx_GetPeriphCLKFreq+0x2a4>)
 80039ce:	f852 0023 	ldr.w	r0, [r2, r3, lsl #2]
 80039d2:	e214      	b.n	8003dfe <HAL_RCCEx_GetPeriphCLKFreq+0x6be>
 80039d4:	4b02      	ldr	r3, [pc, #8]	@ (80039e0 <HAL_RCCEx_GetPeriphCLKFreq+0x2a0>)
 80039d6:	f8d3 3094 	ldr.w	r3, [r3, #148]	@ 0x94
 80039da:	f3c3 2303 	ubfx	r3, r3, #8, #4
 80039de:	e7f5      	b.n	80039cc <HAL_RCCEx_GetPeriphCLKFreq+0x28c>
 80039e0:	40021000 	.word	0x40021000
 80039e4:	08007e68 	.word	0x08007e68
 80039e8:	0005b8d8 	.word	0x0005b8d8
 80039ec:	00f42400 	.word	0x00f42400
 80039f0:	00b71b00 	.word	0x00b71b00
          if(HAL_IS_BIT_SET(RCC->CR, RCC_CR_PLLRDY))
 80039f4:	4ba8      	ldr	r3, [pc, #672]	@ (8003c98 <HAL_RCCEx_GetPeriphCLKFreq+0x558>)
 80039f6:	6818      	ldr	r0, [r3, #0]
 80039f8:	f010 7000 	ands.w	r0, r0, #33554432	@ 0x2000000
 80039fc:	f000 81ff 	beq.w	8003dfe <HAL_RCCEx_GetPeriphCLKFreq+0x6be>
            if(HAL_IS_BIT_SET(RCC->PLLCFGR, RCC_PLLCFGR_PLLQEN))
 8003a00:	68d8      	ldr	r0, [r3, #12]
 8003a02:	f410 1080 	ands.w	r0, r0, #1048576	@ 0x100000
 8003a06:	f000 81fa 	beq.w	8003dfe <HAL_RCCEx_GetPeriphCLKFreq+0x6be>
              plln = READ_BIT(RCC->PLLCFGR, RCC_PLLCFGR_PLLN) >> RCC_PLLCFGR_PLLN_Pos;
 8003a0a:	461a      	mov	r2, r3
 8003a0c:	68db      	ldr	r3, [r3, #12]
 8003a0e:	f3c3 2306 	ubfx	r3, r3, #8, #7
              pllvco = ((pllvco * plln) / ((READ_BIT(RCC->PLLCFGR, RCC_PLLCFGR_PLLM) >> RCC_PLLCFGR_PLLM_Pos) + 1U));
 8003a12:	fb03 f001 	mul.w	r0, r3, r1
 8003a16:	68d3      	ldr	r3, [r2, #12]
 8003a18:	f3c3 1302 	ubfx	r3, r3, #4, #3
 8003a1c:	3301      	adds	r3, #1
 8003a1e:	fbb0 f0f3 	udiv	r0, r0, r3
              frequency = (pllvco / (((READ_BIT(RCC->PLLCFGR, RCC_PLLCFGR_PLLQ) >> RCC_PLLCFGR_PLLQ_Pos) + 1U) << 1U));
 8003a22:	68d3      	ldr	r3, [r2, #12]
 8003a24:	f3c3 5341 	ubfx	r3, r3, #21, #2
 8003a28:	3301      	adds	r3, #1
 8003a2a:	005b      	lsls	r3, r3, #1
 8003a2c:	fbb0 f0f3 	udiv	r0, r0, r3
 8003a30:	e1e5      	b.n	8003dfe <HAL_RCCEx_GetPeriphCLKFreq+0x6be>
          if(HAL_IS_BIT_SET(RCC->CR, RCC_CR_PLLSAI1RDY))
 8003a32:	4b99      	ldr	r3, [pc, #612]	@ (8003c98 <HAL_RCCEx_GetPeriphCLKFreq+0x558>)
 8003a34:	6818      	ldr	r0, [r3, #0]
 8003a36:	f010 6000 	ands.w	r0, r0, #134217728	@ 0x8000000
 8003a3a:	f000 81e0 	beq.w	8003dfe <HAL_RCCEx_GetPeriphCLKFreq+0x6be>
            if(HAL_IS_BIT_SET(RCC->PLLSAI1CFGR, RCC_PLLSAI1CFGR_PLLSAI1QEN))
 8003a3e:	6918      	ldr	r0, [r3, #16]
 8003a40:	f410 1080 	ands.w	r0, r0, #1048576	@ 0x100000
 8003a44:	f000 81db 	beq.w	8003dfe <HAL_RCCEx_GetPeriphCLKFreq+0x6be>
              plln = READ_BIT(RCC->PLLSAI1CFGR, RCC_PLLSAI1CFGR_PLLSAI1N) >> RCC_PLLSAI1CFGR_PLLSAI1N_Pos;
 8003a48:	461a      	mov	r2, r3
 8003a4a:	691b      	ldr	r3, [r3, #16]
 8003a4c:	f3c3 2306 	ubfx	r3, r3, #8, #7
              pllvco = ((pllvco * plln) / ((READ_BIT(RCC->PLLCFGR, RCC_PLLCFGR_PLLM) >> RCC_PLLCFGR_PLLM_Pos) + 1U));
 8003a50:	fb03 f001 	mul.w	r0, r3, r1
 8003a54:	68d3      	ldr	r3, [r2, #12]
 8003a56:	f3c3 1302 	ubfx	r3, r3, #4, #3
 8003a5a:	3301      	adds	r3, #1
 8003a5c:	fbb0 f0f3 	udiv	r0, r0, r3
              frequency = (pllvco / (((READ_BIT(RCC->PLLSAI1CFGR, RCC_PLLSAI1CFGR_PLLSAI1Q) >> RCC_PLLSAI1CFGR_PLLSAI1Q_Pos) + 1U) << 1U));
 8003a60:	6913      	ldr	r3, [r2, #16]
 8003a62:	f3c3 5341 	ubfx	r3, r3, #21, #2
 8003a66:	3301      	adds	r3, #1
 8003a68:	005b      	lsls	r3, r3, #1
 8003a6a:	fbb0 f0f3 	udiv	r0, r0, r3
 8003a6e:	e1c6      	b.n	8003dfe <HAL_RCCEx_GetPeriphCLKFreq+0x6be>
        srcclk = __HAL_RCC_GET_USART1_SOURCE();
 8003a70:	4b89      	ldr	r3, [pc, #548]	@ (8003c98 <HAL_RCCEx_GetPeriphCLKFreq+0x558>)
 8003a72:	f8d3 3088 	ldr.w	r3, [r3, #136]	@ 0x88
 8003a76:	f003 0303 	and.w	r3, r3, #3
        switch(srcclk)
 8003a7a:	2b02      	cmp	r3, #2
 8003a7c:	d019      	beq.n	8003ab2 <HAL_RCCEx_GetPeriphCLKFreq+0x372>
 8003a7e:	d807      	bhi.n	8003a90 <HAL_RCCEx_GetPeriphCLKFreq+0x350>
 8003a80:	b1a3      	cbz	r3, 8003aac <HAL_RCCEx_GetPeriphCLKFreq+0x36c>
 8003a82:	2b01      	cmp	r3, #1
 8003a84:	d102      	bne.n	8003a8c <HAL_RCCEx_GetPeriphCLKFreq+0x34c>
          frequency = HAL_RCC_GetSysClockFreq();
 8003a86:	f7fe fdcd 	bl	8002624 <HAL_RCC_GetSysClockFreq>
          break;
 8003a8a:	e1b8      	b.n	8003dfe <HAL_RCCEx_GetPeriphCLKFreq+0x6be>
        switch(srcclk)
 8003a8c:	2000      	movs	r0, #0
 8003a8e:	e1b6      	b.n	8003dfe <HAL_RCCEx_GetPeriphCLKFreq+0x6be>
 8003a90:	2b03      	cmp	r3, #3
 8003a92:	d109      	bne.n	8003aa8 <HAL_RCCEx_GetPeriphCLKFreq+0x368>
          if(HAL_IS_BIT_SET(RCC->BDCR, RCC_BDCR_LSERDY))
 8003a94:	4b80      	ldr	r3, [pc, #512]	@ (8003c98 <HAL_RCCEx_GetPeriphCLKFreq+0x558>)
 8003a96:	f8d3 0090 	ldr.w	r0, [r3, #144]	@ 0x90
 8003a9a:	f010 0002 	ands.w	r0, r0, #2
 8003a9e:	f000 81ae 	beq.w	8003dfe <HAL_RCCEx_GetPeriphCLKFreq+0x6be>
            frequency = LSE_VALUE;
 8003aa2:	f44f 4000 	mov.w	r0, #32768	@ 0x8000
 8003aa6:	e1aa      	b.n	8003dfe <HAL_RCCEx_GetPeriphCLKFreq+0x6be>
        switch(srcclk)
 8003aa8:	2000      	movs	r0, #0
 8003aaa:	e1a8      	b.n	8003dfe <HAL_RCCEx_GetPeriphCLKFreq+0x6be>
          frequency = HAL_RCC_GetPCLK2Freq();
 8003aac:	f7ff f9fa 	bl	8002ea4 <HAL_RCC_GetPCLK2Freq>
          break;
 8003ab0:	e1a5      	b.n	8003dfe <HAL_RCCEx_GetPeriphCLKFreq+0x6be>
          if(HAL_IS_BIT_SET(RCC->CR, RCC_CR_HSIRDY))
 8003ab2:	4b79      	ldr	r3, [pc, #484]	@ (8003c98 <HAL_RCCEx_GetPeriphCLKFreq+0x558>)
 8003ab4:	6818      	ldr	r0, [r3, #0]
 8003ab6:	f410 6080 	ands.w	r0, r0, #1024	@ 0x400
 8003aba:	f000 81a0 	beq.w	8003dfe <HAL_RCCEx_GetPeriphCLKFreq+0x6be>
            frequency = HSI_VALUE;
 8003abe:	4877      	ldr	r0, [pc, #476]	@ (8003c9c <HAL_RCCEx_GetPeriphCLKFreq+0x55c>)
 8003ac0:	e19d      	b.n	8003dfe <HAL_RCCEx_GetPeriphCLKFreq+0x6be>
        switch(srcclk)
 8003ac2:	2000      	movs	r0, #0
 8003ac4:	e19b      	b.n	8003dfe <HAL_RCCEx_GetPeriphCLKFreq+0x6be>
 8003ac6:	2b0c      	cmp	r3, #12
 8003ac8:	d109      	bne.n	8003ade <HAL_RCCEx_GetPeriphCLKFreq+0x39e>
          if(HAL_IS_BIT_SET(RCC->BDCR, RCC_BDCR_LSERDY))
 8003aca:	4b73      	ldr	r3, [pc, #460]	@ (8003c98 <HAL_RCCEx_GetPeriphCLKFreq+0x558>)
 8003acc:	f8d3 0090 	ldr.w	r0, [r3, #144]	@ 0x90
 8003ad0:	f010 0002 	ands.w	r0, r0, #2
 8003ad4:	f000 8193 	beq.w	8003dfe <HAL_RCCEx_GetPeriphCLKFreq+0x6be>
            frequency = LSE_VALUE;
 8003ad8:	f44f 4000 	mov.w	r0, #32768	@ 0x8000
 8003adc:	e18f      	b.n	8003dfe <HAL_RCCEx_GetPeriphCLKFreq+0x6be>
        switch(srcclk)
 8003ade:	2000      	movs	r0, #0
 8003ae0:	e18d      	b.n	8003dfe <HAL_RCCEx_GetPeriphCLKFreq+0x6be>
          frequency = HAL_RCC_GetPCLK1Freq();
 8003ae2:	f7ff f9cd 	bl	8002e80 <HAL_RCC_GetPCLK1Freq>
          break;
 8003ae6:	e18a      	b.n	8003dfe <HAL_RCCEx_GetPeriphCLKFreq+0x6be>
          if(HAL_IS_BIT_SET(RCC->CR, RCC_CR_HSIRDY))
 8003ae8:	4b6b      	ldr	r3, [pc, #428]	@ (8003c98 <HAL_RCCEx_GetPeriphCLKFreq+0x558>)
 8003aea:	6818      	ldr	r0, [r3, #0]
 8003aec:	f410 6080 	ands.w	r0, r0, #1024	@ 0x400
 8003af0:	f000 8185 	beq.w	8003dfe <HAL_RCCEx_GetPeriphCLKFreq+0x6be>
            frequency = HSI_VALUE;
 8003af4:	4869      	ldr	r0, [pc, #420]	@ (8003c9c <HAL_RCCEx_GetPeriphCLKFreq+0x55c>)
 8003af6:	e182      	b.n	8003dfe <HAL_RCCEx_GetPeriphCLKFreq+0x6be>
        srcclk = __HAL_RCC_GET_USART3_SOURCE();
 8003af8:	4b67      	ldr	r3, [pc, #412]	@ (8003c98 <HAL_RCCEx_GetPeriphCLKFreq+0x558>)
 8003afa:	f8d3 3088 	ldr.w	r3, [r3, #136]	@ 0x88
 8003afe:	f003 0330 	and.w	r3, r3, #48	@ 0x30
        switch(srcclk)
 8003b02:	2b20      	cmp	r3, #32
 8003b04:	d019      	beq.n	8003b3a <HAL_RCCEx_GetPeriphCLKFreq+0x3fa>
 8003b06:	d807      	bhi.n	8003b18 <HAL_RCCEx_GetPeriphCLKFreq+0x3d8>
 8003b08:	b1a3      	cbz	r3, 8003b34 <HAL_RCCEx_GetPeriphCLKFreq+0x3f4>
 8003b0a:	2b10      	cmp	r3, #16
 8003b0c:	d102      	bne.n	8003b14 <HAL_RCCEx_GetPeriphCLKFreq+0x3d4>
          frequency = HAL_RCC_GetSysClockFreq();
 8003b0e:	f7fe fd89 	bl	8002624 <HAL_RCC_GetSysClockFreq>
          break;
 8003b12:	e174      	b.n	8003dfe <HAL_RCCEx_GetPeriphCLKFreq+0x6be>
        switch(srcclk)
 8003b14:	2000      	movs	r0, #0
 8003b16:	e172      	b.n	8003dfe <HAL_RCCEx_GetPeriphCLKFreq+0x6be>
 8003b18:	2b30      	cmp	r3, #48	@ 0x30
 8003b1a:	d109      	bne.n	8003b30 <HAL_RCCEx_GetPeriphCLKFreq+0x3f0>
          if(HAL_IS_BIT_SET(RCC->BDCR, RCC_BDCR_LSERDY))
 8003b1c:	4b5e      	ldr	r3, [pc, #376]	@ (8003c98 <HAL_RCCEx_GetPeriphCLKFreq+0x558>)
 8003b1e:	f8d3 0090 	ldr.w	r0, [r3, #144]	@ 0x90
 8003b22:	f010 0002 	ands.w	r0, r0, #2
 8003b26:	f000 816a 	beq.w	8003dfe <HAL_RCCEx_GetPeriphCLKFreq+0x6be>
            frequency = LSE_VALUE;
 8003b2a:	f44f 4000 	mov.w	r0, #32768	@ 0x8000
 8003b2e:	e166      	b.n	8003dfe <HAL_RCCEx_GetPeriphCLKFreq+0x6be>
        switch(srcclk)
 8003b30:	2000      	movs	r0, #0
 8003b32:	e164      	b.n	8003dfe <HAL_RCCEx_GetPeriphCLKFreq+0x6be>
          frequency = HAL_RCC_GetPCLK1Freq();
 8003b34:	f7ff f9a4 	bl	8002e80 <HAL_RCC_GetPCLK1Freq>
          break;
 8003b38:	e161      	b.n	8003dfe <HAL_RCCEx_GetPeriphCLKFreq+0x6be>
          if(HAL_IS_BIT_SET(RCC->CR, RCC_CR_HSIRDY))
 8003b3a:	4b57      	ldr	r3, [pc, #348]	@ (8003c98 <HAL_RCCEx_GetPeriphCLKFreq+0x558>)
 8003b3c:	6818      	ldr	r0, [r3, #0]
 8003b3e:	f410 6080 	ands.w	r0, r0, #1024	@ 0x400
 8003b42:	f000 815c 	beq.w	8003dfe <HAL_RCCEx_GetPeriphCLKFreq+0x6be>
            frequency = HSI_VALUE;
 8003b46:	4855      	ldr	r0, [pc, #340]	@ (8003c9c <HAL_RCCEx_GetPeriphCLKFreq+0x55c>)
 8003b48:	e159      	b.n	8003dfe <HAL_RCCEx_GetPeriphCLKFreq+0x6be>
        switch(srcclk)
 8003b4a:	2000      	movs	r0, #0
 8003b4c:	e157      	b.n	8003dfe <HAL_RCCEx_GetPeriphCLKFreq+0x6be>
 8003b4e:	2bc0      	cmp	r3, #192	@ 0xc0
 8003b50:	d109      	bne.n	8003b66 <HAL_RCCEx_GetPeriphCLKFreq+0x426>
          if(HAL_IS_BIT_SET(RCC->BDCR, RCC_BDCR_LSERDY))
 8003b52:	4b51      	ldr	r3, [pc, #324]	@ (8003c98 <HAL_RCCEx_GetPeriphCLKFreq+0x558>)
 8003b54:	f8d3 0090 	ldr.w	r0, [r3, #144]	@ 0x90
 8003b58:	f010 0002 	ands.w	r0, r0, #2
 8003b5c:	f000 814f 	beq.w	8003dfe <HAL_RCCEx_GetPeriphCLKFreq+0x6be>
            frequency = LSE_VALUE;
 8003b60:	f44f 4000 	mov.w	r0, #32768	@ 0x8000
 8003b64:	e14b      	b.n	8003dfe <HAL_RCCEx_GetPeriphCLKFreq+0x6be>
        switch(srcclk)
 8003b66:	2000      	movs	r0, #0
 8003b68:	e149      	b.n	8003dfe <HAL_RCCEx_GetPeriphCLKFreq+0x6be>
          frequency = HAL_RCC_GetPCLK1Freq();
 8003b6a:	f7ff f989 	bl	8002e80 <HAL_RCC_GetPCLK1Freq>
          break;
 8003b6e:	e146      	b.n	8003dfe <HAL_RCCEx_GetPeriphCLKFreq+0x6be>
          if(HAL_IS_BIT_SET(RCC->CR, RCC_CR_HSIRDY))
 8003b70:	4b49      	ldr	r3, [pc, #292]	@ (8003c98 <HAL_RCCEx_GetPeriphCLKFreq+0x558>)
 8003b72:	6818      	ldr	r0, [r3, #0]
 8003b74:	f410 6080 	ands.w	r0, r0, #1024	@ 0x400
 8003b78:	f000 8141 	beq.w	8003dfe <HAL_RCCEx_GetPeriphCLKFreq+0x6be>
            frequency = HSI_VALUE;
 8003b7c:	4847      	ldr	r0, [pc, #284]	@ (8003c9c <HAL_RCCEx_GetPeriphCLKFreq+0x55c>)
 8003b7e:	e13e      	b.n	8003dfe <HAL_RCCEx_GetPeriphCLKFreq+0x6be>
        srcclk = __HAL_RCC_GET_UART5_SOURCE();
 8003b80:	4b45      	ldr	r3, [pc, #276]	@ (8003c98 <HAL_RCCEx_GetPeriphCLKFreq+0x558>)
 8003b82:	f8d3 3088 	ldr.w	r3, [r3, #136]	@ 0x88
 8003b86:	f403 7340 	and.w	r3, r3, #768	@ 0x300
        switch(srcclk)
 8003b8a:	f5b3 7f00 	cmp.w	r3, #512	@ 0x200
 8003b8e:	d01b      	beq.n	8003bc8 <HAL_RCCEx_GetPeriphCLKFreq+0x488>
 8003b90:	d808      	bhi.n	8003ba4 <HAL_RCCEx_GetPeriphCLKFreq+0x464>
 8003b92:	b1b3      	cbz	r3, 8003bc2 <HAL_RCCEx_GetPeriphCLKFreq+0x482>
 8003b94:	f5b3 7f80 	cmp.w	r3, #256	@ 0x100
 8003b98:	d102      	bne.n	8003ba0 <HAL_RCCEx_GetPeriphCLKFreq+0x460>
          frequency = HAL_RCC_GetSysClockFreq();
 8003b9a:	f7fe fd43 	bl	8002624 <HAL_RCC_GetSysClockFreq>
          break;
 8003b9e:	e12e      	b.n	8003dfe <HAL_RCCEx_GetPeriphCLKFreq+0x6be>
        switch(srcclk)
 8003ba0:	2000      	movs	r0, #0
 8003ba2:	e12c      	b.n	8003dfe <HAL_RCCEx_GetPeriphCLKFreq+0x6be>
 8003ba4:	f5b3 7f40 	cmp.w	r3, #768	@ 0x300
 8003ba8:	d109      	bne.n	8003bbe <HAL_RCCEx_GetPeriphCLKFreq+0x47e>
          if(HAL_IS_BIT_SET(RCC->BDCR, RCC_BDCR_LSERDY))
 8003baa:	4b3b      	ldr	r3, [pc, #236]	@ (8003c98 <HAL_RCCEx_GetPeriphCLKFreq+0x558>)
 8003bac:	f8d3 0090 	ldr.w	r0, [r3, #144]	@ 0x90
 8003bb0:	f010 0002 	ands.w	r0, r0, #2
 8003bb4:	f000 8123 	beq.w	8003dfe <HAL_RCCEx_GetPeriphCLKFreq+0x6be>
            frequency = LSE_VALUE;
 8003bb8:	f44f 4000 	mov.w	r0, #32768	@ 0x8000
 8003bbc:	e11f      	b.n	8003dfe <HAL_RCCEx_GetPeriphCLKFreq+0x6be>
        switch(srcclk)
 8003bbe:	2000      	movs	r0, #0
 8003bc0:	e11d      	b.n	8003dfe <HAL_RCCEx_GetPeriphCLKFreq+0x6be>
          frequency = HAL_RCC_GetPCLK1Freq();
 8003bc2:	f7ff f95d 	bl	8002e80 <HAL_RCC_GetPCLK1Freq>
          break;
 8003bc6:	e11a      	b.n	8003dfe <HAL_RCCEx_GetPeriphCLKFreq+0x6be>
          if(HAL_IS_BIT_SET(RCC->CR, RCC_CR_HSIRDY))
 8003bc8:	4b33      	ldr	r3, [pc, #204]	@ (8003c98 <HAL_RCCEx_GetPeriphCLKFreq+0x558>)
 8003bca:	6818      	ldr	r0, [r3, #0]
 8003bcc:	f410 6080 	ands.w	r0, r0, #1024	@ 0x400
 8003bd0:	f000 8115 	beq.w	8003dfe <HAL_RCCEx_GetPeriphCLKFreq+0x6be>
            frequency = HSI_VALUE;
 8003bd4:	4831      	ldr	r0, [pc, #196]	@ (8003c9c <HAL_RCCEx_GetPeriphCLKFreq+0x55c>)
 8003bd6:	e112      	b.n	8003dfe <HAL_RCCEx_GetPeriphCLKFreq+0x6be>
        switch(srcclk)
 8003bd8:	2000      	movs	r0, #0
 8003bda:	e110      	b.n	8003dfe <HAL_RCCEx_GetPeriphCLKFreq+0x6be>
 8003bdc:	f5b3 6f40 	cmp.w	r3, #3072	@ 0xc00
 8003be0:	d109      	bne.n	8003bf6 <HAL_RCCEx_GetPeriphCLKFreq+0x4b6>
          if(HAL_IS_BIT_SET(RCC->BDCR, RCC_BDCR_LSERDY))
 8003be2:	4b2d      	ldr	r3, [pc, #180]	@ (8003c98 <HAL_RCCEx_GetPeriphCLKFreq+0x558>)
 8003be4:	f8d3 0090 	ldr.w	r0, [r3, #144]	@ 0x90
 8003be8:	f010 0002 	ands.w	r0, r0, #2
 8003bec:	f000 8107 	beq.w	8003dfe <HAL_RCCEx_GetPeriphCLKFreq+0x6be>
            frequency = LSE_VALUE;
 8003bf0:	f44f 4000 	mov.w	r0, #32768	@ 0x8000
 8003bf4:	e103      	b.n	8003dfe <HAL_RCCEx_GetPeriphCLKFreq+0x6be>
        switch(srcclk)
 8003bf6:	2000      	movs	r0, #0
 8003bf8:	e101      	b.n	8003dfe <HAL_RCCEx_GetPeriphCLKFreq+0x6be>
          frequency = HAL_RCC_GetPCLK1Freq();
 8003bfa:	f7ff f941 	bl	8002e80 <HAL_RCC_GetPCLK1Freq>
          break;
 8003bfe:	e0fe      	b.n	8003dfe <HAL_RCCEx_GetPeriphCLKFreq+0x6be>
          if(HAL_IS_BIT_SET(RCC->CR, RCC_CR_HSIRDY))
 8003c00:	4b25      	ldr	r3, [pc, #148]	@ (8003c98 <HAL_RCCEx_GetPeriphCLKFreq+0x558>)
 8003c02:	6818      	ldr	r0, [r3, #0]
 8003c04:	f410 6080 	ands.w	r0, r0, #1024	@ 0x400
 8003c08:	f000 80f9 	beq.w	8003dfe <HAL_RCCEx_GetPeriphCLKFreq+0x6be>
            frequency = HSI_VALUE;
 8003c0c:	4823      	ldr	r0, [pc, #140]	@ (8003c9c <HAL_RCCEx_GetPeriphCLKFreq+0x55c>)
 8003c0e:	e0f6      	b.n	8003dfe <HAL_RCCEx_GetPeriphCLKFreq+0x6be>
          frequency = HAL_RCC_GetSysClockFreq();
 8003c10:	f7fe fd08 	bl	8002624 <HAL_RCC_GetSysClockFreq>
          break;
 8003c14:	e0f3      	b.n	8003dfe <HAL_RCCEx_GetPeriphCLKFreq+0x6be>
          if(HAL_IS_BIT_SET(RCC->CR, RCC_CR_PLLSAI1RDY) && (__HAL_RCC_GET_PLLSAI1CLKOUT_CONFIG(RCC_PLLSAI1_ADC1CLK) != 0U))
 8003c16:	4b20      	ldr	r3, [pc, #128]	@ (8003c98 <HAL_RCCEx_GetPeriphCLKFreq+0x558>)
 8003c18:	6818      	ldr	r0, [r3, #0]
 8003c1a:	f010 6000 	ands.w	r0, r0, #134217728	@ 0x8000000
 8003c1e:	f000 80ee 	beq.w	8003dfe <HAL_RCCEx_GetPeriphCLKFreq+0x6be>
 8003c22:	6918      	ldr	r0, [r3, #16]
 8003c24:	f010 7080 	ands.w	r0, r0, #16777216	@ 0x1000000
 8003c28:	f000 80e9 	beq.w	8003dfe <HAL_RCCEx_GetPeriphCLKFreq+0x6be>
            plln = READ_BIT(RCC->PLLSAI1CFGR, RCC_PLLSAI1CFGR_PLLSAI1N) >> RCC_PLLSAI1CFGR_PLLSAI1N_Pos;
 8003c2c:	461a      	mov	r2, r3
 8003c2e:	691b      	ldr	r3, [r3, #16]
 8003c30:	f3c3 2306 	ubfx	r3, r3, #8, #7
            pllvco = ((pllvco * plln) / ((READ_BIT(RCC->PLLCFGR, RCC_PLLCFGR_PLLM) >> RCC_PLLCFGR_PLLM_Pos) + 1U));
 8003c34:	fb03 f001 	mul.w	r0, r3, r1
 8003c38:	68d3      	ldr	r3, [r2, #12]
 8003c3a:	f3c3 1302 	ubfx	r3, r3, #4, #3
 8003c3e:	3301      	adds	r3, #1
 8003c40:	fbb0 f0f3 	udiv	r0, r0, r3
            frequency = (pllvco / (((READ_BIT(RCC->PLLSAI1CFGR, RCC_PLLSAI1CFGR_PLLSAI1R) >> RCC_PLLSAI1CFGR_PLLSAI1R_Pos) + 1U) << 1U));
 8003c44:	6913      	ldr	r3, [r2, #16]
 8003c46:	f3c3 6341 	ubfx	r3, r3, #25, #2
 8003c4a:	3301      	adds	r3, #1
 8003c4c:	005b      	lsls	r3, r3, #1
 8003c4e:	fbb0 f0f3 	udiv	r0, r0, r3
 8003c52:	e0d4      	b.n	8003dfe <HAL_RCCEx_GetPeriphCLKFreq+0x6be>
          if(HAL_IS_BIT_SET(RCC->CR, RCC_CR_PLLSAI2RDY) && (__HAL_RCC_GET_PLLSAI2CLKOUT_CONFIG(RCC_PLLSAI2_ADC2CLK) != 0U))
 8003c54:	4b10      	ldr	r3, [pc, #64]	@ (8003c98 <HAL_RCCEx_GetPeriphCLKFreq+0x558>)
 8003c56:	6818      	ldr	r0, [r3, #0]
 8003c58:	f010 5000 	ands.w	r0, r0, #536870912	@ 0x20000000
 8003c5c:	f000 80cf 	beq.w	8003dfe <HAL_RCCEx_GetPeriphCLKFreq+0x6be>
 8003c60:	6958      	ldr	r0, [r3, #20]
 8003c62:	f010 7080 	ands.w	r0, r0, #16777216	@ 0x1000000
 8003c66:	f000 80ca 	beq.w	8003dfe <HAL_RCCEx_GetPeriphCLKFreq+0x6be>
            plln = READ_BIT(RCC->PLLSAI2CFGR, RCC_PLLSAI2CFGR_PLLSAI2N) >> RCC_PLLSAI2CFGR_PLLSAI2N_Pos;
 8003c6a:	4618      	mov	r0, r3
 8003c6c:	695b      	ldr	r3, [r3, #20]
 8003c6e:	f3c3 2306 	ubfx	r3, r3, #8, #7
            pllvco = ((pllvco * plln) / ((READ_BIT(RCC->PLLCFGR, RCC_PLLCFGR_PLLM) >> RCC_PLLCFGR_PLLM_Pos) + 1U));
 8003c72:	fb01 f303 	mul.w	r3, r1, r3
 8003c76:	68c2      	ldr	r2, [r0, #12]
 8003c78:	f3c2 1202 	ubfx	r2, r2, #4, #3
 8003c7c:	3201      	adds	r2, #1
 8003c7e:	fbb3 f3f2 	udiv	r3, r3, r2
            frequency = (pllvco / (((READ_BIT(RCC->PLLSAI2CFGR, RCC_PLLSAI2CFGR_PLLSAI2R) >> RCC_PLLSAI2CFGR_PLLSAI2R_Pos) + 1U) << 1U));
 8003c82:	6940      	ldr	r0, [r0, #20]
 8003c84:	f3c0 6041 	ubfx	r0, r0, #25, #2
 8003c88:	3001      	adds	r0, #1
 8003c8a:	0040      	lsls	r0, r0, #1
 8003c8c:	fbb3 f0f0 	udiv	r0, r3, r0
 8003c90:	e0b5      	b.n	8003dfe <HAL_RCCEx_GetPeriphCLKFreq+0x6be>
          frequency = HAL_RCC_GetSysClockFreq();
 8003c92:	f7fe fcc7 	bl	8002624 <HAL_RCC_GetSysClockFreq>
 8003c96:	e0b2      	b.n	8003dfe <HAL_RCCEx_GetPeriphCLKFreq+0x6be>
 8003c98:	40021000 	.word	0x40021000
 8003c9c:	00f42400 	.word	0x00f42400
        srcclk = __HAL_RCC_GET_I2C1_SOURCE();
 8003ca0:	4b5b      	ldr	r3, [pc, #364]	@ (8003e10 <HAL_RCCEx_GetPeriphCLKFreq+0x6d0>)
 8003ca2:	f8d3 3088 	ldr.w	r3, [r3, #136]	@ 0x88
 8003ca6:	f403 5340 	and.w	r3, r3, #12288	@ 0x3000
        switch(srcclk)
 8003caa:	f5b3 5f80 	cmp.w	r3, #4096	@ 0x1000
 8003cae:	d008      	beq.n	8003cc2 <HAL_RCCEx_GetPeriphCLKFreq+0x582>
 8003cb0:	f5b3 5f00 	cmp.w	r3, #8192	@ 0x2000
 8003cb4:	d008      	beq.n	8003cc8 <HAL_RCCEx_GetPeriphCLKFreq+0x588>
 8003cb6:	2b00      	cmp	r3, #0
 8003cb8:	f040 80a4 	bne.w	8003e04 <HAL_RCCEx_GetPeriphCLKFreq+0x6c4>
          frequency = HAL_RCC_GetPCLK1Freq();
 8003cbc:	f7ff f8e0 	bl	8002e80 <HAL_RCC_GetPCLK1Freq>
          break;
 8003cc0:	e09d      	b.n	8003dfe <HAL_RCCEx_GetPeriphCLKFreq+0x6be>
          frequency = HAL_RCC_GetSysClockFreq();
 8003cc2:	f7fe fcaf 	bl	8002624 <HAL_RCC_GetSysClockFreq>
          break;
 8003cc6:	e09a      	b.n	8003dfe <HAL_RCCEx_GetPeriphCLKFreq+0x6be>
          if(HAL_IS_BIT_SET(RCC->CR, RCC_CR_HSIRDY))
 8003cc8:	4b51      	ldr	r3, [pc, #324]	@ (8003e10 <HAL_RCCEx_GetPeriphCLKFreq+0x6d0>)
 8003cca:	6818      	ldr	r0, [r3, #0]
 8003ccc:	f410 6080 	ands.w	r0, r0, #1024	@ 0x400
 8003cd0:	f000 8095 	beq.w	8003dfe <HAL_RCCEx_GetPeriphCLKFreq+0x6be>
            frequency = HSI_VALUE;
 8003cd4:	484f      	ldr	r0, [pc, #316]	@ (8003e14 <HAL_RCCEx_GetPeriphCLKFreq+0x6d4>)
 8003cd6:	e092      	b.n	8003dfe <HAL_RCCEx_GetPeriphCLKFreq+0x6be>
        srcclk = __HAL_RCC_GET_I2C2_SOURCE();
 8003cd8:	4b4d      	ldr	r3, [pc, #308]	@ (8003e10 <HAL_RCCEx_GetPeriphCLKFreq+0x6d0>)
 8003cda:	f8d3 3088 	ldr.w	r3, [r3, #136]	@ 0x88
 8003cde:	f403 4340 	and.w	r3, r3, #49152	@ 0xc000
        switch(srcclk)
 8003ce2:	f5b3 4f80 	cmp.w	r3, #16384	@ 0x4000
 8003ce6:	d008      	beq.n	8003cfa <HAL_RCCEx_GetPeriphCLKFreq+0x5ba>
 8003ce8:	f5b3 4f00 	cmp.w	r3, #32768	@ 0x8000
 8003cec:	d008      	beq.n	8003d00 <HAL_RCCEx_GetPeriphCLKFreq+0x5c0>
 8003cee:	2b00      	cmp	r3, #0
 8003cf0:	f040 808a 	bne.w	8003e08 <HAL_RCCEx_GetPeriphCLKFreq+0x6c8>
          frequency = HAL_RCC_GetPCLK1Freq();
 8003cf4:	f7ff f8c4 	bl	8002e80 <HAL_RCC_GetPCLK1Freq>
          break;
 8003cf8:	e081      	b.n	8003dfe <HAL_RCCEx_GetPeriphCLKFreq+0x6be>
          frequency = HAL_RCC_GetSysClockFreq();
 8003cfa:	f7fe fc93 	bl	8002624 <HAL_RCC_GetSysClockFreq>
          break;
 8003cfe:	e07e      	b.n	8003dfe <HAL_RCCEx_GetPeriphCLKFreq+0x6be>
          if(HAL_IS_BIT_SET(RCC->CR, RCC_CR_HSIRDY))
 8003d00:	4b43      	ldr	r3, [pc, #268]	@ (8003e10 <HAL_RCCEx_GetPeriphCLKFreq+0x6d0>)
 8003d02:	6818      	ldr	r0, [r3, #0]
 8003d04:	f410 6080 	ands.w	r0, r0, #1024	@ 0x400
 8003d08:	d079      	beq.n	8003dfe <HAL_RCCEx_GetPeriphCLKFreq+0x6be>
            frequency = HSI_VALUE;
 8003d0a:	4842      	ldr	r0, [pc, #264]	@ (8003e14 <HAL_RCCEx_GetPeriphCLKFreq+0x6d4>)
 8003d0c:	e077      	b.n	8003dfe <HAL_RCCEx_GetPeriphCLKFreq+0x6be>
        srcclk = __HAL_RCC_GET_I2C3_SOURCE();
 8003d0e:	4b40      	ldr	r3, [pc, #256]	@ (8003e10 <HAL_RCCEx_GetPeriphCLKFreq+0x6d0>)
 8003d10:	f8d3 3088 	ldr.w	r3, [r3, #136]	@ 0x88
 8003d14:	f403 3340 	and.w	r3, r3, #196608	@ 0x30000
        switch(srcclk)
 8003d18:	f5b3 3f80 	cmp.w	r3, #65536	@ 0x10000
 8003d1c:	d007      	beq.n	8003d2e <HAL_RCCEx_GetPeriphCLKFreq+0x5ee>
 8003d1e:	f5b3 3f00 	cmp.w	r3, #131072	@ 0x20000
 8003d22:	d007      	beq.n	8003d34 <HAL_RCCEx_GetPeriphCLKFreq+0x5f4>
 8003d24:	2b00      	cmp	r3, #0
 8003d26:	d171      	bne.n	8003e0c <HAL_RCCEx_GetPeriphCLKFreq+0x6cc>
          frequency = HAL_RCC_GetPCLK1Freq();
 8003d28:	f7ff f8aa 	bl	8002e80 <HAL_RCC_GetPCLK1Freq>
          break;
 8003d2c:	e067      	b.n	8003dfe <HAL_RCCEx_GetPeriphCLKFreq+0x6be>
          frequency = HAL_RCC_GetSysClockFreq();
 8003d2e:	f7fe fc79 	bl	8002624 <HAL_RCC_GetSysClockFreq>
          break;
 8003d32:	e064      	b.n	8003dfe <HAL_RCCEx_GetPeriphCLKFreq+0x6be>
          if(HAL_IS_BIT_SET(RCC->CR, RCC_CR_HSIRDY))
 8003d34:	4b36      	ldr	r3, [pc, #216]	@ (8003e10 <HAL_RCCEx_GetPeriphCLKFreq+0x6d0>)
 8003d36:	6818      	ldr	r0, [r3, #0]
 8003d38:	f410 6080 	ands.w	r0, r0, #1024	@ 0x400
 8003d3c:	d05f      	beq.n	8003dfe <HAL_RCCEx_GetPeriphCLKFreq+0x6be>
            frequency = HSI_VALUE;
 8003d3e:	4835      	ldr	r0, [pc, #212]	@ (8003e14 <HAL_RCCEx_GetPeriphCLKFreq+0x6d4>)
 8003d40:	e05d      	b.n	8003dfe <HAL_RCCEx_GetPeriphCLKFreq+0x6be>
        switch(srcclk)
 8003d42:	2000      	movs	r0, #0
 8003d44:	e05b      	b.n	8003dfe <HAL_RCCEx_GetPeriphCLKFreq+0x6be>
 8003d46:	f5b3 2f40 	cmp.w	r3, #786432	@ 0xc0000
 8003d4a:	d108      	bne.n	8003d5e <HAL_RCCEx_GetPeriphCLKFreq+0x61e>
          if(HAL_IS_BIT_SET(RCC->BDCR, RCC_BDCR_LSERDY))
 8003d4c:	4b30      	ldr	r3, [pc, #192]	@ (8003e10 <HAL_RCCEx_GetPeriphCLKFreq+0x6d0>)
 8003d4e:	f8d3 0090 	ldr.w	r0, [r3, #144]	@ 0x90
 8003d52:	f010 0002 	ands.w	r0, r0, #2
 8003d56:	d052      	beq.n	8003dfe <HAL_RCCEx_GetPeriphCLKFreq+0x6be>
            frequency = LSE_VALUE;
 8003d58:	f44f 4000 	mov.w	r0, #32768	@ 0x8000
 8003d5c:	e04f      	b.n	8003dfe <HAL_RCCEx_GetPeriphCLKFreq+0x6be>
        switch(srcclk)
 8003d5e:	2000      	movs	r0, #0
 8003d60:	e04d      	b.n	8003dfe <HAL_RCCEx_GetPeriphCLKFreq+0x6be>
          frequency = HAL_RCC_GetPCLK1Freq();
 8003d62:	f7ff f88d 	bl	8002e80 <HAL_RCC_GetPCLK1Freq>
          break;
 8003d66:	e04a      	b.n	8003dfe <HAL_RCCEx_GetPeriphCLKFreq+0x6be>
          if(HAL_IS_BIT_SET(RCC->CR, RCC_CR_HSIRDY))
 8003d68:	4b29      	ldr	r3, [pc, #164]	@ (8003e10 <HAL_RCCEx_GetPeriphCLKFreq+0x6d0>)
 8003d6a:	6818      	ldr	r0, [r3, #0]
 8003d6c:	f410 6080 	ands.w	r0, r0, #1024	@ 0x400
 8003d70:	d045      	beq.n	8003dfe <HAL_RCCEx_GetPeriphCLKFreq+0x6be>
            frequency = HSI_VALUE;
 8003d72:	4828      	ldr	r0, [pc, #160]	@ (8003e14 <HAL_RCCEx_GetPeriphCLKFreq+0x6d4>)
 8003d74:	e043      	b.n	8003dfe <HAL_RCCEx_GetPeriphCLKFreq+0x6be>
       srcclk = __HAL_RCC_GET_LPTIM2_SOURCE();
 8003d76:	4b26      	ldr	r3, [pc, #152]	@ (8003e10 <HAL_RCCEx_GetPeriphCLKFreq+0x6d0>)
 8003d78:	f8d3 3088 	ldr.w	r3, [r3, #136]	@ 0x88
 8003d7c:	f403 1340 	and.w	r3, r3, #3145728	@ 0x300000
        switch(srcclk)
 8003d80:	f5b3 1f00 	cmp.w	r3, #2097152	@ 0x200000
 8003d84:	d020      	beq.n	8003dc8 <HAL_RCCEx_GetPeriphCLKFreq+0x688>
 8003d86:	d80e      	bhi.n	8003da6 <HAL_RCCEx_GetPeriphCLKFreq+0x666>
 8003d88:	b1db      	cbz	r3, 8003dc2 <HAL_RCCEx_GetPeriphCLKFreq+0x682>
 8003d8a:	f5b3 1f80 	cmp.w	r3, #1048576	@ 0x100000
 8003d8e:	d108      	bne.n	8003da2 <HAL_RCCEx_GetPeriphCLKFreq+0x662>
          if(HAL_IS_BIT_SET(RCC->CSR, RCC_CSR_LSIRDY))
 8003d90:	4b1f      	ldr	r3, [pc, #124]	@ (8003e10 <HAL_RCCEx_GetPeriphCLKFreq+0x6d0>)
 8003d92:	f8d3 0094 	ldr.w	r0, [r3, #148]	@ 0x94
 8003d96:	f010 0002 	ands.w	r0, r0, #2
 8003d9a:	d030      	beq.n	8003dfe <HAL_RCCEx_GetPeriphCLKFreq+0x6be>
              frequency = LSI_VALUE;
 8003d9c:	f44f 40fa 	mov.w	r0, #32000	@ 0x7d00
 8003da0:	e02d      	b.n	8003dfe <HAL_RCCEx_GetPeriphCLKFreq+0x6be>
        switch(srcclk)
 8003da2:	2000      	movs	r0, #0
 8003da4:	e02b      	b.n	8003dfe <HAL_RCCEx_GetPeriphCLKFreq+0x6be>
 8003da6:	f5b3 1f40 	cmp.w	r3, #3145728	@ 0x300000
 8003daa:	d108      	bne.n	8003dbe <HAL_RCCEx_GetPeriphCLKFreq+0x67e>
          if(HAL_IS_BIT_SET(RCC->BDCR, RCC_BDCR_LSERDY))
 8003dac:	4b18      	ldr	r3, [pc, #96]	@ (8003e10 <HAL_RCCEx_GetPeriphCLKFreq+0x6d0>)
 8003dae:	f8d3 0090 	ldr.w	r0, [r3, #144]	@ 0x90
 8003db2:	f010 0002 	ands.w	r0, r0, #2
 8003db6:	d022      	beq.n	8003dfe <HAL_RCCEx_GetPeriphCLKFreq+0x6be>
            frequency = LSE_VALUE;
 8003db8:	f44f 4000 	mov.w	r0, #32768	@ 0x8000
 8003dbc:	e01f      	b.n	8003dfe <HAL_RCCEx_GetPeriphCLKFreq+0x6be>
        switch(srcclk)
 8003dbe:	2000      	movs	r0, #0
 8003dc0:	e01d      	b.n	8003dfe <HAL_RCCEx_GetPeriphCLKFreq+0x6be>
          frequency = HAL_RCC_GetPCLK1Freq();
 8003dc2:	f7ff f85d 	bl	8002e80 <HAL_RCC_GetPCLK1Freq>
          break;
 8003dc6:	e01a      	b.n	8003dfe <HAL_RCCEx_GetPeriphCLKFreq+0x6be>
          if(HAL_IS_BIT_SET(RCC->CR, RCC_CR_HSIRDY))
 8003dc8:	4b11      	ldr	r3, [pc, #68]	@ (8003e10 <HAL_RCCEx_GetPeriphCLKFreq+0x6d0>)
 8003dca:	6818      	ldr	r0, [r3, #0]
 8003dcc:	f410 6080 	ands.w	r0, r0, #1024	@ 0x400
 8003dd0:	d015      	beq.n	8003dfe <HAL_RCCEx_GetPeriphCLKFreq+0x6be>
            frequency = HSI_VALUE;
 8003dd2:	4810      	ldr	r0, [pc, #64]	@ (8003e14 <HAL_RCCEx_GetPeriphCLKFreq+0x6d4>)
 8003dd4:	e013      	b.n	8003dfe <HAL_RCCEx_GetPeriphCLKFreq+0x6be>
        srcclk = __HAL_RCC_GET_SWPMI1_SOURCE();
 8003dd6:	4b0e      	ldr	r3, [pc, #56]	@ (8003e10 <HAL_RCCEx_GetPeriphCLKFreq+0x6d0>)
 8003dd8:	f8d3 3088 	ldr.w	r3, [r3, #136]	@ 0x88
        switch(srcclk)
 8003ddc:	f013 4380 	ands.w	r3, r3, #1073741824	@ 0x40000000
 8003de0:	d002      	beq.n	8003de8 <HAL_RCCEx_GetPeriphCLKFreq+0x6a8>
 8003de2:	b923      	cbnz	r3, 8003dee <HAL_RCCEx_GetPeriphCLKFreq+0x6ae>
 8003de4:	4618      	mov	r0, r3
 8003de6:	e00a      	b.n	8003dfe <HAL_RCCEx_GetPeriphCLKFreq+0x6be>
          frequency = HAL_RCC_GetPCLK1Freq();
 8003de8:	f7ff f84a 	bl	8002e80 <HAL_RCC_GetPCLK1Freq>
          break;
 8003dec:	e007      	b.n	8003dfe <HAL_RCCEx_GetPeriphCLKFreq+0x6be>
          if(HAL_IS_BIT_SET(RCC->CR, RCC_CR_HSIRDY))
 8003dee:	4b08      	ldr	r3, [pc, #32]	@ (8003e10 <HAL_RCCEx_GetPeriphCLKFreq+0x6d0>)
 8003df0:	6818      	ldr	r0, [r3, #0]
 8003df2:	f410 6080 	ands.w	r0, r0, #1024	@ 0x400
 8003df6:	d002      	beq.n	8003dfe <HAL_RCCEx_GetPeriphCLKFreq+0x6be>
            frequency = HSI_VALUE;
 8003df8:	4806      	ldr	r0, [pc, #24]	@ (8003e14 <HAL_RCCEx_GetPeriphCLKFreq+0x6d4>)
  return(frequency);
 8003dfa:	e000      	b.n	8003dfe <HAL_RCCEx_GetPeriphCLKFreq+0x6be>
    switch(srcclk)
 8003dfc:	2000      	movs	r0, #0
}
 8003dfe:	bd08      	pop	{r3, pc}
    switch(PeriphClk)
 8003e00:	2000      	movs	r0, #0
 8003e02:	e7fc      	b.n	8003dfe <HAL_RCCEx_GetPeriphCLKFreq+0x6be>
        switch(srcclk)
 8003e04:	2000      	movs	r0, #0
 8003e06:	e7fa      	b.n	8003dfe <HAL_RCCEx_GetPeriphCLKFreq+0x6be>
        switch(srcclk)
 8003e08:	2000      	movs	r0, #0
 8003e0a:	e7f8      	b.n	8003dfe <HAL_RCCEx_GetPeriphCLKFreq+0x6be>
        switch(srcclk)
 8003e0c:	2000      	movs	r0, #0
 8003e0e:	e7f6      	b.n	8003dfe <HAL_RCCEx_GetPeriphCLKFreq+0x6be>
 8003e10:	40021000 	.word	0x40021000
 8003e14:	00f42400 	.word	0x00f42400

08003e18 <HAL_RTC_WaitForSynchro>:
  *         correctly copied into the RTC_TR and RTC_DR shadow registers.
  * @param  hrtc RTC handle
  * @retval HAL status
  */
HAL_StatusTypeDef HAL_RTC_WaitForSynchro(RTC_HandleTypeDef *hrtc)
{
 8003e18:	b538      	push	{r3, r4, r5, lr}
 8003e1a:	4604      	mov	r4, r0
#elif defined (STM32L4P5xx) || defined (STM32L4Q5xx)
  /* Clear RSF flag (use a read-modify-write sequence to preserve the other read-write bits) */
  hrtc->Instance->ICSR &= (uint32_t)RTC_RSF_MASK;
#else
  /* Clear RSF flag, keep reserved bits at reset values (setting other flags has no effect) */
  hrtc->Instance->ISR = ((uint32_t)(RTC_RSF_MASK & RTC_ISR_RESERVED_MASK));
 8003e1c:	6803      	ldr	r3, [r0, #0]
 8003e1e:	4a0a      	ldr	r2, [pc, #40]	@ (8003e48 <HAL_RTC_WaitForSynchro+0x30>)
 8003e20:	60da      	str	r2, [r3, #12]
#endif

  tickstart = HAL_GetTick();
 8003e22:	f7fd fafd 	bl	8001420 <HAL_GetTick>
 8003e26:	4605      	mov	r5, r0

  /* Wait the registers to be synchronised */
#if defined(STM32L412xx) || defined(STM32L422xx) || defined (STM32L4P5xx) || defined (STM32L4Q5xx)
  while ((hrtc->Instance->ICSR & RTC_ICSR_RSF) == 0U)
#else
  while ((hrtc->Instance->ISR & RTC_ISR_RSF) == 0U)
 8003e28:	6823      	ldr	r3, [r4, #0]
 8003e2a:	68db      	ldr	r3, [r3, #12]
 8003e2c:	f013 0f20 	tst.w	r3, #32
 8003e30:	d107      	bne.n	8003e42 <HAL_RTC_WaitForSynchro+0x2a>
#endif
  {
    if ((HAL_GetTick() - tickstart) > RTC_TIMEOUT_VALUE)
 8003e32:	f7fd faf5 	bl	8001420 <HAL_GetTick>
 8003e36:	1b40      	subs	r0, r0, r5
 8003e38:	f5b0 7f7a 	cmp.w	r0, #1000	@ 0x3e8
 8003e3c:	d9f4      	bls.n	8003e28 <HAL_RTC_WaitForSynchro+0x10>
    {
      return HAL_TIMEOUT;
 8003e3e:	2003      	movs	r0, #3
 8003e40:	e000      	b.n	8003e44 <HAL_RTC_WaitForSynchro+0x2c>
    }
  }

  return HAL_OK;
 8003e42:	2000      	movs	r0, #0
}
 8003e44:	bd38      	pop	{r3, r4, r5, pc}
 8003e46:	bf00      	nop
 8003e48:	0003ff5f 	.word	0x0003ff5f

08003e4c <RTC_EnterInitMode>:
  *         __HAL_RTC_WRITEPROTECTION_DISABLE() before calling this function.
  * @param  hrtc RTC handle
  * @retval HAL status
  */
HAL_StatusTypeDef RTC_EnterInitMode(RTC_HandleTypeDef *hrtc)
{
 8003e4c:	b570      	push	{r4, r5, r6, lr}
        hrtc->State = HAL_RTC_STATE_TIMEOUT;
      }
    }
  }
#else /* #if defined(STM32L412xx) || defined(STM32L422xx) || defined (STM32L4P5xx) || defined (STM32L4Q5xx) */
  if ((hrtc->Instance->ISR & RTC_ISR_INITF) == 0U)
 8003e4e:	6803      	ldr	r3, [r0, #0]
 8003e50:	68da      	ldr	r2, [r3, #12]
 8003e52:	f012 0f40 	tst.w	r2, #64	@ 0x40
 8003e56:	d002      	beq.n	8003e5e <RTC_EnterInitMode+0x12>
  HAL_StatusTypeDef status = HAL_OK;
 8003e58:	2500      	movs	r5, #0
    }
  }
#endif /* #if defined(STM32L412xx) || defined(STM32L422xx) || defined (STM32L4P5xx) || defined (STM32L4Q5xx) */

  return status;
}
 8003e5a:	4628      	mov	r0, r5
 8003e5c:	bd70      	pop	{r4, r5, r6, pc}
 8003e5e:	4604      	mov	r4, r0
    hrtc->Instance->ISR = (uint32_t)RTC_INIT_MASK;
 8003e60:	f04f 32ff 	mov.w	r2, #4294967295	@ 0xffffffff
 8003e64:	60da      	str	r2, [r3, #12]
    tickstart = HAL_GetTick();
 8003e66:	f7fd fadb 	bl	8001420 <HAL_GetTick>
 8003e6a:	4606      	mov	r6, r0
  HAL_StatusTypeDef status = HAL_OK;
 8003e6c:	2500      	movs	r5, #0
    while ((READ_BIT(hrtc->Instance->ISR, RTC_ISR_INITF) == 0U) && (status != HAL_TIMEOUT))
 8003e6e:	6823      	ldr	r3, [r4, #0]
 8003e70:	68db      	ldr	r3, [r3, #12]
 8003e72:	f013 0f40 	tst.w	r3, #64	@ 0x40
 8003e76:	d1f0      	bne.n	8003e5a <RTC_EnterInitMode+0xe>
 8003e78:	2d03      	cmp	r5, #3
 8003e7a:	d0ee      	beq.n	8003e5a <RTC_EnterInitMode+0xe>
      if ((HAL_GetTick()  - tickstart) > RTC_TIMEOUT_VALUE)
 8003e7c:	f7fd fad0 	bl	8001420 <HAL_GetTick>
 8003e80:	1b83      	subs	r3, r0, r6
 8003e82:	f5b3 7f7a 	cmp.w	r3, #1000	@ 0x3e8
 8003e86:	d9f2      	bls.n	8003e6e <RTC_EnterInitMode+0x22>
        hrtc->State = HAL_RTC_STATE_TIMEOUT;
 8003e88:	2503      	movs	r5, #3
 8003e8a:	f884 5021 	strb.w	r5, [r4, #33]	@ 0x21
 8003e8e:	e7ee      	b.n	8003e6e <RTC_EnterInitMode+0x22>

08003e90 <RTC_ExitInitMode>:
  * @brief  Exit the RTC Initialization mode.
  * @param  hrtc RTC handle
  * @retval HAL status
  */
HAL_StatusTypeDef RTC_ExitInitMode(RTC_HandleTypeDef *hrtc)
{
 8003e90:	b510      	push	{r4, lr}
 8003e92:	4604      	mov	r4, r0
  /* Exit Initialization mode */
#if defined(STM32L412xx) || defined(STM32L422xx) || defined(STM32L4P5xx) || defined(STM32L4Q5xx)
  CLEAR_BIT(RTC->ICSR, RTC_ICSR_INIT);
#else
  /* Exit Initialization mode */
  CLEAR_BIT(RTC->ISR, RTC_ISR_INIT);
 8003e94:	4b10      	ldr	r3, [pc, #64]	@ (8003ed8 <RTC_ExitInitMode+0x48>)
 8003e96:	68da      	ldr	r2, [r3, #12]
 8003e98:	f022 0280 	bic.w	r2, r2, #128	@ 0x80
 8003e9c:	60da      	str	r2, [r3, #12]
#endif

  /* If CR_BYPSHAD bit = 0, wait for synchro */
  if (READ_BIT(RTC->CR, RTC_CR_BYPSHAD) == 0U)
 8003e9e:	689b      	ldr	r3, [r3, #8]
 8003ea0:	f013 0f20 	tst.w	r3, #32
 8003ea4:	d106      	bne.n	8003eb4 <RTC_ExitInitMode+0x24>
  {
    if (HAL_RTC_WaitForSynchro(hrtc) != HAL_OK)
 8003ea6:	f7ff ffb7 	bl	8003e18 <HAL_RTC_WaitForSynchro>
 8003eaa:	b198      	cbz	r0, 8003ed4 <RTC_ExitInitMode+0x44>
    {
      hrtc->State = HAL_RTC_STATE_TIMEOUT;
 8003eac:	2003      	movs	r0, #3
 8003eae:	f884 0021 	strb.w	r0, [r4, #33]	@ 0x21
      status = HAL_TIMEOUT;
 8003eb2:	e00f      	b.n	8003ed4 <RTC_ExitInitMode+0x44>
    }
  }
  else /* WA 2.9.6 Calendar initialization may fail in case of consecutive INIT mode entry */
  {
    /* Clear BYPSHAD bit */
    CLEAR_BIT(RTC->CR, RTC_CR_BYPSHAD);
 8003eb4:	4a08      	ldr	r2, [pc, #32]	@ (8003ed8 <RTC_ExitInitMode+0x48>)
 8003eb6:	6893      	ldr	r3, [r2, #8]
 8003eb8:	f023 0320 	bic.w	r3, r3, #32
 8003ebc:	6093      	str	r3, [r2, #8]
    if (HAL_RTC_WaitForSynchro(hrtc) != HAL_OK)
 8003ebe:	f7ff ffab 	bl	8003e18 <HAL_RTC_WaitForSynchro>
 8003ec2:	b110      	cbz	r0, 8003eca <RTC_ExitInitMode+0x3a>
    {
      hrtc->State = HAL_RTC_STATE_TIMEOUT;
 8003ec4:	2003      	movs	r0, #3
 8003ec6:	f884 0021 	strb.w	r0, [r4, #33]	@ 0x21
      status = HAL_TIMEOUT;
    }
    /* Restore BYPSHAD bit */
    SET_BIT(RTC->CR, RTC_CR_BYPSHAD);
 8003eca:	4a03      	ldr	r2, [pc, #12]	@ (8003ed8 <RTC_ExitInitMode+0x48>)
 8003ecc:	6893      	ldr	r3, [r2, #8]
 8003ece:	f043 0320 	orr.w	r3, r3, #32
 8003ed2:	6093      	str	r3, [r2, #8]
  }

  return status;
}
 8003ed4:	bd10      	pop	{r4, pc}
 8003ed6:	bf00      	nop
 8003ed8:	40002800 	.word	0x40002800

08003edc <HAL_RTC_Init>:
  if (hrtc != NULL)
 8003edc:	2800      	cmp	r0, #0
 8003ede:	d04e      	beq.n	8003f7e <HAL_RTC_Init+0xa2>
{
 8003ee0:	b538      	push	{r3, r4, r5, lr}
 8003ee2:	4604      	mov	r4, r0
    if (hrtc->State == HAL_RTC_STATE_RESET)
 8003ee4:	f890 3021 	ldrb.w	r3, [r0, #33]	@ 0x21
 8003ee8:	b163      	cbz	r3, 8003f04 <HAL_RTC_Init+0x28>
    hrtc->State = HAL_RTC_STATE_BUSY;
 8003eea:	2302      	movs	r3, #2
 8003eec:	f884 3021 	strb.w	r3, [r4, #33]	@ 0x21
    if (__HAL_RTC_IS_CALENDAR_INITIALIZED(hrtc) == 0U)
 8003ef0:	6823      	ldr	r3, [r4, #0]
 8003ef2:	68da      	ldr	r2, [r3, #12]
 8003ef4:	f012 0f10 	tst.w	r2, #16
 8003ef8:	d009      	beq.n	8003f0e <HAL_RTC_Init+0x32>
      status = HAL_OK;
 8003efa:	2000      	movs	r0, #0
        hrtc->State = HAL_RTC_STATE_READY;
 8003efc:	2301      	movs	r3, #1
 8003efe:	f884 3021 	strb.w	r3, [r4, #33]	@ 0x21
}
 8003f02:	bd38      	pop	{r3, r4, r5, pc}
      hrtc->Lock = HAL_UNLOCKED;
 8003f04:	f880 3020 	strb.w	r3, [r0, #32]
      HAL_RTC_MspInit(hrtc);
 8003f08:	f7fe f95c 	bl	80021c4 <HAL_RTC_MspInit>
 8003f0c:	e7ed      	b.n	8003eea <HAL_RTC_Init+0xe>
      __HAL_RTC_WRITEPROTECTION_DISABLE(hrtc);
 8003f0e:	22ca      	movs	r2, #202	@ 0xca
 8003f10:	625a      	str	r2, [r3, #36]	@ 0x24
 8003f12:	6823      	ldr	r3, [r4, #0]
 8003f14:	2253      	movs	r2, #83	@ 0x53
 8003f16:	625a      	str	r2, [r3, #36]	@ 0x24
      status = RTC_EnterInitMode(hrtc);
 8003f18:	4620      	mov	r0, r4
 8003f1a:	f7ff ff97 	bl	8003e4c <RTC_EnterInitMode>
      if (status == HAL_OK)
 8003f1e:	b9c0      	cbnz	r0, 8003f52 <HAL_RTC_Init+0x76>
        hrtc->Instance->CR &= ~(RTC_CR_FMT | RTC_CR_OSEL | RTC_CR_POL);
 8003f20:	6822      	ldr	r2, [r4, #0]
 8003f22:	6893      	ldr	r3, [r2, #8]
 8003f24:	f423 03e0 	bic.w	r3, r3, #7340032	@ 0x700000
 8003f28:	f023 0340 	bic.w	r3, r3, #64	@ 0x40
 8003f2c:	6093      	str	r3, [r2, #8]
        hrtc->Instance->CR |= (hrtc->Init.HourFormat | hrtc->Init.OutPut | hrtc->Init.OutPutPolarity);
 8003f2e:	6821      	ldr	r1, [r4, #0]
 8003f30:	688a      	ldr	r2, [r1, #8]
 8003f32:	6863      	ldr	r3, [r4, #4]
 8003f34:	6920      	ldr	r0, [r4, #16]
 8003f36:	4303      	orrs	r3, r0
 8003f38:	69a0      	ldr	r0, [r4, #24]
 8003f3a:	4303      	orrs	r3, r0
 8003f3c:	4313      	orrs	r3, r2
 8003f3e:	608b      	str	r3, [r1, #8]
        hrtc->Instance->PRER = (hrtc->Init.SynchPrediv);
 8003f40:	6823      	ldr	r3, [r4, #0]
 8003f42:	68e2      	ldr	r2, [r4, #12]
 8003f44:	611a      	str	r2, [r3, #16]
        hrtc->Instance->PRER |= (hrtc->Init.AsynchPrediv << RTC_PRER_PREDIV_A_Pos);
 8003f46:	6822      	ldr	r2, [r4, #0]
 8003f48:	6913      	ldr	r3, [r2, #16]
 8003f4a:	68a1      	ldr	r1, [r4, #8]
 8003f4c:	ea43 4301 	orr.w	r3, r3, r1, lsl #16
 8003f50:	6113      	str	r3, [r2, #16]
      status = RTC_ExitInitMode(hrtc);
 8003f52:	4620      	mov	r0, r4
 8003f54:	f7ff ff9c 	bl	8003e90 <RTC_ExitInitMode>
      if (status == HAL_OK)
 8003f58:	b958      	cbnz	r0, 8003f72 <HAL_RTC_Init+0x96>
        hrtc->Instance->OR &= ~(RTC_OR_ALARMOUTTYPE | RTC_OR_OUT_RMP);
 8003f5a:	6822      	ldr	r2, [r4, #0]
 8003f5c:	6cd3      	ldr	r3, [r2, #76]	@ 0x4c
 8003f5e:	f023 0303 	bic.w	r3, r3, #3
 8003f62:	64d3      	str	r3, [r2, #76]	@ 0x4c
        hrtc->Instance->OR |= (hrtc->Init.OutPutType | hrtc->Init.OutPutRemap);
 8003f64:	6821      	ldr	r1, [r4, #0]
 8003f66:	6ccb      	ldr	r3, [r1, #76]	@ 0x4c
 8003f68:	69e2      	ldr	r2, [r4, #28]
 8003f6a:	6965      	ldr	r5, [r4, #20]
 8003f6c:	432a      	orrs	r2, r5
 8003f6e:	4313      	orrs	r3, r2
 8003f70:	64cb      	str	r3, [r1, #76]	@ 0x4c
      __HAL_RTC_WRITEPROTECTION_ENABLE(hrtc);
 8003f72:	6823      	ldr	r3, [r4, #0]
 8003f74:	22ff      	movs	r2, #255	@ 0xff
 8003f76:	625a      	str	r2, [r3, #36]	@ 0x24
    if (status == HAL_OK)
 8003f78:	2800      	cmp	r0, #0
 8003f7a:	d1c2      	bne.n	8003f02 <HAL_RTC_Init+0x26>
 8003f7c:	e7be      	b.n	8003efc <HAL_RTC_Init+0x20>
  HAL_StatusTypeDef status = HAL_ERROR;
 8003f7e:	2001      	movs	r0, #1
}
 8003f80:	4770      	bx	lr

08003f82 <RTC_ByteToBcd2>:
  * @param  Value Byte to be converted
  * @retval Converted byte
  */
uint8_t RTC_ByteToBcd2(uint8_t Value)
{
  uint32_t bcdhigh = 0U;
 8003f82:	2300      	movs	r3, #0
  uint8_t temp = Value;

  while (temp >= 10U)
 8003f84:	e002      	b.n	8003f8c <RTC_ByteToBcd2+0xa>
  {
    bcdhigh++;
 8003f86:	3301      	adds	r3, #1
    temp -= 10U;
 8003f88:	380a      	subs	r0, #10
 8003f8a:	b2c0      	uxtb	r0, r0
  while (temp >= 10U)
 8003f8c:	2809      	cmp	r0, #9
 8003f8e:	d8fa      	bhi.n	8003f86 <RTC_ByteToBcd2+0x4>
  }

  return ((uint8_t)(bcdhigh << 4U) | temp);
 8003f90:	011b      	lsls	r3, r3, #4
 8003f92:	b2db      	uxtb	r3, r3
}
 8003f94:	4318      	orrs	r0, r3
 8003f96:	4770      	bx	lr

08003f98 <HAL_RTC_SetTime>:
  __HAL_LOCK(hrtc);
 8003f98:	f890 3020 	ldrb.w	r3, [r0, #32]
 8003f9c:	2b01      	cmp	r3, #1
 8003f9e:	d061      	beq.n	8004064 <HAL_RTC_SetTime+0xcc>
{
 8003fa0:	b570      	push	{r4, r5, r6, lr}
 8003fa2:	4604      	mov	r4, r0
 8003fa4:	460d      	mov	r5, r1
 8003fa6:	4616      	mov	r6, r2
  __HAL_LOCK(hrtc);
 8003fa8:	2301      	movs	r3, #1
 8003faa:	f880 3020 	strb.w	r3, [r0, #32]
  hrtc->State = HAL_RTC_STATE_BUSY;
 8003fae:	2302      	movs	r3, #2
 8003fb0:	f880 3021 	strb.w	r3, [r0, #33]	@ 0x21
  __HAL_RTC_WRITEPROTECTION_DISABLE(hrtc);
 8003fb4:	6803      	ldr	r3, [r0, #0]
 8003fb6:	22ca      	movs	r2, #202	@ 0xca
 8003fb8:	625a      	str	r2, [r3, #36]	@ 0x24
 8003fba:	6803      	ldr	r3, [r0, #0]
 8003fbc:	2253      	movs	r2, #83	@ 0x53
 8003fbe:	625a      	str	r2, [r3, #36]	@ 0x24
  status = RTC_EnterInitMode(hrtc);
 8003fc0:	f7ff ff44 	bl	8003e4c <RTC_EnterInitMode>
  if (status == HAL_OK)
 8003fc4:	2800      	cmp	r0, #0
 8003fc6:	d130      	bne.n	800402a <HAL_RTC_SetTime+0x92>
    if (Format == RTC_FORMAT_BIN)
 8003fc8:	2e00      	cmp	r6, #0
 8003fca:	d139      	bne.n	8004040 <HAL_RTC_SetTime+0xa8>
      if ((hrtc->Instance->CR & RTC_CR_FMT) != 0U)
 8003fcc:	6823      	ldr	r3, [r4, #0]
 8003fce:	689b      	ldr	r3, [r3, #8]
 8003fd0:	f013 0f40 	tst.w	r3, #64	@ 0x40
 8003fd4:	d101      	bne.n	8003fda <HAL_RTC_SetTime+0x42>
        sTime->TimeFormat = 0x00U;
 8003fd6:	2300      	movs	r3, #0
 8003fd8:	70eb      	strb	r3, [r5, #3]
      tmpreg = (uint32_t)(((uint32_t)RTC_ByteToBcd2(sTime->Hours) << RTC_TR_HU_Pos) | \
 8003fda:	7828      	ldrb	r0, [r5, #0]
 8003fdc:	f7ff ffd1 	bl	8003f82 <RTC_ByteToBcd2>
 8003fe0:	0403      	lsls	r3, r0, #16
 8003fe2:	461e      	mov	r6, r3
                          ((uint32_t)RTC_ByteToBcd2(sTime->Minutes) << RTC_TR_MNU_Pos) | \
 8003fe4:	7868      	ldrb	r0, [r5, #1]
 8003fe6:	f7ff ffcc 	bl	8003f82 <RTC_ByteToBcd2>
      tmpreg = (uint32_t)(((uint32_t)RTC_ByteToBcd2(sTime->Hours) << RTC_TR_HU_Pos) | \
 8003fea:	ea46 2300 	orr.w	r3, r6, r0, lsl #8
 8003fee:	461e      	mov	r6, r3
                          ((uint32_t)RTC_ByteToBcd2(sTime->Seconds) << RTC_TR_SU_Pos) | \
 8003ff0:	78a8      	ldrb	r0, [r5, #2]
 8003ff2:	f7ff ffc6 	bl	8003f82 <RTC_ByteToBcd2>
                          ((uint32_t)RTC_ByteToBcd2(sTime->Minutes) << RTC_TR_MNU_Pos) | \
 8003ff6:	4633      	mov	r3, r6
 8003ff8:	4303      	orrs	r3, r0
                          (((uint32_t)sTime->TimeFormat) << RTC_TR_PM_Pos));
 8003ffa:	78ea      	ldrb	r2, [r5, #3]
      tmpreg = (uint32_t)(((uint32_t)RTC_ByteToBcd2(sTime->Hours) << RTC_TR_HU_Pos) | \
 8003ffc:	ea43 5382 	orr.w	r3, r3, r2, lsl #22
    hrtc->Instance->TR = (uint32_t)(tmpreg & RTC_TR_RESERVED_MASK);
 8004000:	6822      	ldr	r2, [r4, #0]
 8004002:	f003 337f 	and.w	r3, r3, #2139062143	@ 0x7f7f7f7f
 8004006:	f023 43fe 	bic.w	r3, r3, #2130706432	@ 0x7f000000
 800400a:	6013      	str	r3, [r2, #0]
    hrtc->Instance->CR &= ((uint32_t)~RTC_CR_BKP);
 800400c:	6822      	ldr	r2, [r4, #0]
 800400e:	6893      	ldr	r3, [r2, #8]
 8004010:	f423 2380 	bic.w	r3, r3, #262144	@ 0x40000
 8004014:	6093      	str	r3, [r2, #8]
    hrtc->Instance->CR |= (uint32_t)(sTime->DayLightSaving | sTime->StoreOperation);
 8004016:	6821      	ldr	r1, [r4, #0]
 8004018:	688b      	ldr	r3, [r1, #8]
 800401a:	68ea      	ldr	r2, [r5, #12]
 800401c:	6928      	ldr	r0, [r5, #16]
 800401e:	4302      	orrs	r2, r0
 8004020:	4313      	orrs	r3, r2
 8004022:	608b      	str	r3, [r1, #8]
    status = RTC_ExitInitMode(hrtc);
 8004024:	4620      	mov	r0, r4
 8004026:	f7ff ff33 	bl	8003e90 <RTC_ExitInitMode>
  __HAL_RTC_WRITEPROTECTION_ENABLE(hrtc);
 800402a:	6823      	ldr	r3, [r4, #0]
 800402c:	22ff      	movs	r2, #255	@ 0xff
 800402e:	625a      	str	r2, [r3, #36]	@ 0x24
  if (status == HAL_OK)
 8004030:	b910      	cbnz	r0, 8004038 <HAL_RTC_SetTime+0xa0>
    hrtc->State = HAL_RTC_STATE_READY;
 8004032:	2301      	movs	r3, #1
 8004034:	f884 3021 	strb.w	r3, [r4, #33]	@ 0x21
  __HAL_UNLOCK(hrtc);
 8004038:	2300      	movs	r3, #0
 800403a:	f884 3020 	strb.w	r3, [r4, #32]
}
 800403e:	bd70      	pop	{r4, r5, r6, pc}
      if ((hrtc->Instance->CR & RTC_CR_FMT) != 0U)
 8004040:	6823      	ldr	r3, [r4, #0]
 8004042:	689b      	ldr	r3, [r3, #8]
 8004044:	f013 0f40 	tst.w	r3, #64	@ 0x40
 8004048:	d101      	bne.n	800404e <HAL_RTC_SetTime+0xb6>
        sTime->TimeFormat = 0x00U;
 800404a:	2300      	movs	r3, #0
 800404c:	70eb      	strb	r3, [r5, #3]
      tmpreg = (((uint32_t)(sTime->Hours) << RTC_TR_HU_Pos) | \
 800404e:	782a      	ldrb	r2, [r5, #0]
                ((uint32_t)(sTime->Minutes) << RTC_TR_MNU_Pos) | \
 8004050:	786b      	ldrb	r3, [r5, #1]
 8004052:	021b      	lsls	r3, r3, #8
      tmpreg = (((uint32_t)(sTime->Hours) << RTC_TR_HU_Pos) | \
 8004054:	ea43 4302 	orr.w	r3, r3, r2, lsl #16
                ((uint32_t)(sTime->Seconds) << RTC_TR_SU_Pos) | \
 8004058:	78aa      	ldrb	r2, [r5, #2]
                ((uint32_t)(sTime->Minutes) << RTC_TR_MNU_Pos) | \
 800405a:	4313      	orrs	r3, r2
                ((uint32_t)(sTime->TimeFormat) << RTC_TR_PM_Pos));
 800405c:	78ea      	ldrb	r2, [r5, #3]
      tmpreg = (((uint32_t)(sTime->Hours) << RTC_TR_HU_Pos) | \
 800405e:	ea43 5382 	orr.w	r3, r3, r2, lsl #22
 8004062:	e7cd      	b.n	8004000 <HAL_RTC_SetTime+0x68>
  __HAL_LOCK(hrtc);
 8004064:	2002      	movs	r0, #2
}
 8004066:	4770      	bx	lr

08004068 <HAL_RTC_SetDate>:
  __HAL_LOCK(hrtc);
 8004068:	f890 3020 	ldrb.w	r3, [r0, #32]
 800406c:	2b01      	cmp	r3, #1
 800406e:	d04d      	beq.n	800410c <HAL_RTC_SetDate+0xa4>
{
 8004070:	b570      	push	{r4, r5, r6, lr}
 8004072:	4604      	mov	r4, r0
 8004074:	460d      	mov	r5, r1
  __HAL_LOCK(hrtc);
 8004076:	2301      	movs	r3, #1
 8004078:	f880 3020 	strb.w	r3, [r0, #32]
  hrtc->State = HAL_RTC_STATE_BUSY;
 800407c:	2302      	movs	r3, #2
 800407e:	f880 3021 	strb.w	r3, [r0, #33]	@ 0x21
  if ((Format == RTC_FORMAT_BIN) && ((sDate->Month & 0x10U) == 0x10U))
 8004082:	b1f2      	cbz	r2, 80040c2 <HAL_RTC_SetDate+0x5a>
    datetmpreg = ((((uint32_t)sDate->Year) << RTC_DR_YU_Pos) | \
 8004084:	78ca      	ldrb	r2, [r1, #3]
                  (((uint32_t)sDate->Month) << RTC_DR_MU_Pos) | \
 8004086:	784b      	ldrb	r3, [r1, #1]
 8004088:	021b      	lsls	r3, r3, #8
    datetmpreg = ((((uint32_t)sDate->Year) << RTC_DR_YU_Pos) | \
 800408a:	ea43 4302 	orr.w	r3, r3, r2, lsl #16
                  (((uint32_t)sDate->Date) << RTC_DR_DU_Pos) | \
 800408e:	788a      	ldrb	r2, [r1, #2]
                  (((uint32_t)sDate->Month) << RTC_DR_MU_Pos) | \
 8004090:	4313      	orrs	r3, r2
                  (((uint32_t)sDate->WeekDay) << RTC_DR_WDU_Pos));
 8004092:	780a      	ldrb	r2, [r1, #0]
    datetmpreg = ((((uint32_t)sDate->Year) << RTC_DR_YU_Pos) | \
 8004094:	ea43 3542 	orr.w	r5, r3, r2, lsl #13
  __HAL_RTC_WRITEPROTECTION_DISABLE(hrtc);
 8004098:	6823      	ldr	r3, [r4, #0]
 800409a:	22ca      	movs	r2, #202	@ 0xca
 800409c:	625a      	str	r2, [r3, #36]	@ 0x24
 800409e:	6823      	ldr	r3, [r4, #0]
 80040a0:	2253      	movs	r2, #83	@ 0x53
 80040a2:	625a      	str	r2, [r3, #36]	@ 0x24
  status = RTC_EnterInitMode(hrtc);
 80040a4:	4620      	mov	r0, r4
 80040a6:	f7ff fed1 	bl	8003e4c <RTC_EnterInitMode>
  if (status == HAL_OK)
 80040aa:	b328      	cbz	r0, 80040f8 <HAL_RTC_SetDate+0x90>
  __HAL_RTC_WRITEPROTECTION_ENABLE(hrtc);
 80040ac:	6823      	ldr	r3, [r4, #0]
 80040ae:	22ff      	movs	r2, #255	@ 0xff
 80040b0:	625a      	str	r2, [r3, #36]	@ 0x24
  if (status == HAL_OK)
 80040b2:	b910      	cbnz	r0, 80040ba <HAL_RTC_SetDate+0x52>
    hrtc->State = HAL_RTC_STATE_READY ;
 80040b4:	2301      	movs	r3, #1
 80040b6:	f884 3021 	strb.w	r3, [r4, #33]	@ 0x21
  __HAL_UNLOCK(hrtc);
 80040ba:	2300      	movs	r3, #0
 80040bc:	f884 3020 	strb.w	r3, [r4, #32]
}
 80040c0:	bd70      	pop	{r4, r5, r6, pc}
  if ((Format == RTC_FORMAT_BIN) && ((sDate->Month & 0x10U) == 0x10U))
 80040c2:	784b      	ldrb	r3, [r1, #1]
 80040c4:	f013 0f10 	tst.w	r3, #16
 80040c8:	d003      	beq.n	80040d2 <HAL_RTC_SetDate+0x6a>
    sDate->Month = (uint8_t)((sDate->Month & (uint8_t)~(0x10U)) + (uint8_t)0x0AU);
 80040ca:	f003 03ef 	and.w	r3, r3, #239	@ 0xef
 80040ce:	330a      	adds	r3, #10
 80040d0:	704b      	strb	r3, [r1, #1]
    datetmpreg = (((uint32_t)RTC_ByteToBcd2(sDate->Year) << RTC_DR_YU_Pos) | \
 80040d2:	78e8      	ldrb	r0, [r5, #3]
 80040d4:	f7ff ff55 	bl	8003f82 <RTC_ByteToBcd2>
 80040d8:	0403      	lsls	r3, r0, #16
 80040da:	461e      	mov	r6, r3
                  ((uint32_t)RTC_ByteToBcd2(sDate->Month) << RTC_DR_MU_Pos) | \
 80040dc:	7868      	ldrb	r0, [r5, #1]
 80040de:	f7ff ff50 	bl	8003f82 <RTC_ByteToBcd2>
    datetmpreg = (((uint32_t)RTC_ByteToBcd2(sDate->Year) << RTC_DR_YU_Pos) | \
 80040e2:	ea46 2300 	orr.w	r3, r6, r0, lsl #8
 80040e6:	461e      	mov	r6, r3
                  ((uint32_t)RTC_ByteToBcd2(sDate->Date) << RTC_DR_DU_Pos) | \
 80040e8:	78a8      	ldrb	r0, [r5, #2]
 80040ea:	f7ff ff4a 	bl	8003f82 <RTC_ByteToBcd2>
                  ((uint32_t)RTC_ByteToBcd2(sDate->Month) << RTC_DR_MU_Pos) | \
 80040ee:	4330      	orrs	r0, r6
                  ((uint32_t)sDate->WeekDay << RTC_DR_WDU_Pos));
 80040f0:	782b      	ldrb	r3, [r5, #0]
    datetmpreg = (((uint32_t)RTC_ByteToBcd2(sDate->Year) << RTC_DR_YU_Pos) | \
 80040f2:	ea40 3543 	orr.w	r5, r0, r3, lsl #13
 80040f6:	e7cf      	b.n	8004098 <HAL_RTC_SetDate+0x30>
    hrtc->Instance->DR = (uint32_t)(datetmpreg & RTC_DR_RESERVED_MASK);
 80040f8:	6822      	ldr	r2, [r4, #0]
 80040fa:	f025 437f 	bic.w	r3, r5, #4278190080	@ 0xff000000
 80040fe:	f023 03c0 	bic.w	r3, r3, #192	@ 0xc0
 8004102:	6053      	str	r3, [r2, #4]
    status = RTC_ExitInitMode(hrtc);
 8004104:	4620      	mov	r0, r4
 8004106:	f7ff fec3 	bl	8003e90 <RTC_ExitInitMode>
 800410a:	e7cf      	b.n	80040ac <HAL_RTC_SetDate+0x44>
  __HAL_LOCK(hrtc);
 800410c:	2002      	movs	r0, #2
}
 800410e:	4770      	bx	lr

08004110 <HAL_RTCEx_SetWakeUpTimer_IT>:
#if defined(STM32L412xx) || defined(STM32L422xx) || defined (STM32L4P5xx) || defined (STM32L4Q5xx)
HAL_StatusTypeDef HAL_RTCEx_SetWakeUpTimer_IT(RTC_HandleTypeDef *hrtc, uint32_t WakeUpCounter, uint32_t WakeUpClock, uint32_t WakeUpAutoClr)
#else
HAL_StatusTypeDef HAL_RTCEx_SetWakeUpTimer_IT(RTC_HandleTypeDef *hrtc, uint32_t WakeUpCounter, uint32_t WakeUpClock)
#endif
{
 8004110:	b5f8      	push	{r3, r4, r5, r6, r7, lr}
  /* (0x0000<=WUTOCLR<=WUT) */
  assert_param(WakeUpAutoClr <= WakeUpCounter);
#endif

  /* Process Locked */
  __HAL_LOCK(hrtc);
 8004112:	f890 3020 	ldrb.w	r3, [r0, #32]
 8004116:	2b01      	cmp	r3, #1
 8004118:	d05b      	beq.n	80041d2 <HAL_RTCEx_SetWakeUpTimer_IT+0xc2>
 800411a:	4604      	mov	r4, r0
 800411c:	460e      	mov	r6, r1
 800411e:	4617      	mov	r7, r2
 8004120:	2301      	movs	r3, #1
 8004122:	f880 3020 	strb.w	r3, [r0, #32]

  hrtc->State = HAL_RTC_STATE_BUSY;
 8004126:	2302      	movs	r3, #2
 8004128:	f880 3021 	strb.w	r3, [r0, #33]	@ 0x21

  /* Disable the write protection for RTC registers */
  __HAL_RTC_WRITEPROTECTION_DISABLE(hrtc);
 800412c:	6803      	ldr	r3, [r0, #0]
 800412e:	22ca      	movs	r2, #202	@ 0xca
 8004130:	625a      	str	r2, [r3, #36]	@ 0x24
 8004132:	6803      	ldr	r3, [r0, #0]
 8004134:	2253      	movs	r2, #83	@ 0x53
 8004136:	625a      	str	r2, [r3, #36]	@ 0x24

  /* Clear WUTE in RTC_CR to disable the wakeup timer */
  CLEAR_BIT(hrtc->Instance->CR, RTC_CR_WUTE);
 8004138:	6802      	ldr	r2, [r0, #0]
 800413a:	6893      	ldr	r3, [r2, #8]
 800413c:	f423 6380 	bic.w	r3, r3, #1024	@ 0x400
 8004140:	6093      	str	r3, [r2, #8]

  /* Clear flag Wake-Up */
  __HAL_RTC_WAKEUPTIMER_CLEAR_FLAG(hrtc, RTC_FLAG_WUTF);
 8004142:	6802      	ldr	r2, [r0, #0]
 8004144:	68d3      	ldr	r3, [r2, #12]
 8004146:	b2db      	uxtb	r3, r3
 8004148:	f463 6390 	orn	r3, r3, #1152	@ 0x480
 800414c:	60d3      	str	r3, [r2, #12]
     counter and to WUCKSEL[2:0] bits is allowed. This step must be skipped in
     calendar initialization mode. */
#if defined(STM32L412xx) || defined(STM32L422xx) || defined (STM32L4P5xx) || defined (STM32L4Q5xx)
  if (READ_BIT(hrtc->Instance->ICSR, RTC_ICSR_INITF) == 0U)
#else
  if (READ_BIT(hrtc->Instance->ISR, RTC_ISR_INITF) == 0U)
 800414e:	6803      	ldr	r3, [r0, #0]
 8004150:	68db      	ldr	r3, [r3, #12]
 8004152:	f013 0f40 	tst.w	r3, #64	@ 0x40
 8004156:	d024      	beq.n	80041a2 <HAL_RTCEx_SetWakeUpTimer_IT+0x92>
#if defined(STM32L412xx) || defined(STM32L422xx) || defined (STM32L4P5xx) || defined (STM32L4Q5xx)
  /* Configure the Wakeup Timer counter and auto clear value */
  hrtc->Instance->WUTR = (uint32_t)(WakeUpCounter | (WakeUpAutoClr << RTC_WUTR_WUTOCLR_Pos));
#else
  /* Configure the Wakeup Timer counter */
  hrtc->Instance->WUTR = (uint32_t)WakeUpCounter;
 8004158:	6823      	ldr	r3, [r4, #0]
 800415a:	615e      	str	r6, [r3, #20]
#endif

  /* Configure the clock source */
  MODIFY_REG(hrtc->Instance->CR, RTC_CR_WUCKSEL, (uint32_t)WakeUpClock);
 800415c:	6822      	ldr	r2, [r4, #0]
 800415e:	6893      	ldr	r3, [r2, #8]
 8004160:	f023 0307 	bic.w	r3, r3, #7
 8004164:	433b      	orrs	r3, r7
 8004166:	6093      	str	r3, [r2, #8]
  {
    /* RTC WakeUpTimer EXTI Configuration: Interrupt configuration */
    __HAL_RTC_WAKEUPTIMER_EXTI_ENABLE_IT();
  }
#else /* defined(STM32L412xx) || defined(STM32L422xx) || defined (STM32L4P5xx) || defined (STM32L4Q5xx) */
  __HAL_RTC_WAKEUPTIMER_EXTI_ENABLE_IT();
 8004168:	4b1b      	ldr	r3, [pc, #108]	@ (80041d8 <HAL_RTCEx_SetWakeUpTimer_IT+0xc8>)
 800416a:	681a      	ldr	r2, [r3, #0]
 800416c:	f442 1280 	orr.w	r2, r2, #1048576	@ 0x100000
 8004170:	601a      	str	r2, [r3, #0]
#endif /* defined(STM32L412xx) || defined(STM32L422xx) || defined (STM32L4P5xx) || defined (STM32L4Q5xx) */

  __HAL_RTC_WAKEUPTIMER_EXTI_ENABLE_RISING_EDGE();
 8004172:	689a      	ldr	r2, [r3, #8]
 8004174:	f442 1280 	orr.w	r2, r2, #1048576	@ 0x100000
 8004178:	609a      	str	r2, [r3, #8]

  /* Configure the Interrupt in the RTC_CR register */
  __HAL_RTC_WAKEUPTIMER_ENABLE_IT(hrtc, RTC_IT_WUT);
 800417a:	6822      	ldr	r2, [r4, #0]
 800417c:	6893      	ldr	r3, [r2, #8]
 800417e:	f443 4380 	orr.w	r3, r3, #16384	@ 0x4000
 8004182:	6093      	str	r3, [r2, #8]

  /* Enable the Wakeup Timer */
  __HAL_RTC_WAKEUPTIMER_ENABLE(hrtc);
 8004184:	6822      	ldr	r2, [r4, #0]
 8004186:	6893      	ldr	r3, [r2, #8]
 8004188:	f443 6380 	orr.w	r3, r3, #1024	@ 0x400
 800418c:	6093      	str	r3, [r2, #8]

  /* Enable the write protection for RTC registers */
  __HAL_RTC_WRITEPROTECTION_ENABLE(hrtc);
 800418e:	6823      	ldr	r3, [r4, #0]
 8004190:	22ff      	movs	r2, #255	@ 0xff
 8004192:	625a      	str	r2, [r3, #36]	@ 0x24

  hrtc->State = HAL_RTC_STATE_READY;
 8004194:	2301      	movs	r3, #1
 8004196:	f884 3021 	strb.w	r3, [r4, #33]	@ 0x21

  /* Process Unlocked */
  __HAL_UNLOCK(hrtc);
 800419a:	2000      	movs	r0, #0
 800419c:	f884 0020 	strb.w	r0, [r4, #32]

  return HAL_OK;
}
 80041a0:	bdf8      	pop	{r3, r4, r5, r6, r7, pc}
    tickstart = HAL_GetTick();
 80041a2:	f7fd f93d 	bl	8001420 <HAL_GetTick>
 80041a6:	4605      	mov	r5, r0
    while (READ_BIT(hrtc->Instance->ISR, RTC_ISR_WUTWF) == 0U)
 80041a8:	6823      	ldr	r3, [r4, #0]
 80041aa:	68db      	ldr	r3, [r3, #12]
 80041ac:	f013 0f04 	tst.w	r3, #4
 80041b0:	d1d2      	bne.n	8004158 <HAL_RTCEx_SetWakeUpTimer_IT+0x48>
      if ((HAL_GetTick() - tickstart) > RTC_TIMEOUT_VALUE)
 80041b2:	f7fd f935 	bl	8001420 <HAL_GetTick>
 80041b6:	1b40      	subs	r0, r0, r5
 80041b8:	f5b0 7f7a 	cmp.w	r0, #1000	@ 0x3e8
 80041bc:	d9f4      	bls.n	80041a8 <HAL_RTCEx_SetWakeUpTimer_IT+0x98>
        __HAL_RTC_WRITEPROTECTION_ENABLE(hrtc);
 80041be:	6823      	ldr	r3, [r4, #0]
 80041c0:	22ff      	movs	r2, #255	@ 0xff
 80041c2:	625a      	str	r2, [r3, #36]	@ 0x24
        hrtc->State = HAL_RTC_STATE_TIMEOUT;
 80041c4:	2003      	movs	r0, #3
 80041c6:	f884 0021 	strb.w	r0, [r4, #33]	@ 0x21
        __HAL_UNLOCK(hrtc);
 80041ca:	2300      	movs	r3, #0
 80041cc:	f884 3020 	strb.w	r3, [r4, #32]
        return HAL_TIMEOUT;
 80041d0:	e7e6      	b.n	80041a0 <HAL_RTCEx_SetWakeUpTimer_IT+0x90>
  __HAL_LOCK(hrtc);
 80041d2:	2002      	movs	r0, #2
 80041d4:	e7e4      	b.n	80041a0 <HAL_RTCEx_SetWakeUpTimer_IT+0x90>
 80041d6:	bf00      	nop
 80041d8:	40010400 	.word	0x40010400

080041dc <HAL_RTCEx_WakeUpTimerEventCallback>:
  UNUSED(hrtc);

  /* NOTE : This function should not be modified, when the callback is needed,
            the HAL_RTCEx_WakeUpTimerEventCallback could be implemented in the user file
   */
}
 80041dc:	4770      	bx	lr
	...

080041e0 <HAL_RTCEx_WakeUpTimerIRQHandler>:
{
 80041e0:	b510      	push	{r4, lr}
 80041e2:	4604      	mov	r4, r0
  __HAL_RTC_WAKEUPTIMER_EXTI_CLEAR_FLAG();
 80041e4:	4b0a      	ldr	r3, [pc, #40]	@ (8004210 <HAL_RTCEx_WakeUpTimerIRQHandler+0x30>)
 80041e6:	f44f 1280 	mov.w	r2, #1048576	@ 0x100000
 80041ea:	615a      	str	r2, [r3, #20]
  if (__HAL_RTC_WAKEUPTIMER_GET_FLAG(hrtc, RTC_FLAG_WUTF) != 0U)
 80041ec:	6803      	ldr	r3, [r0, #0]
 80041ee:	68da      	ldr	r2, [r3, #12]
 80041f0:	f412 6f80 	tst.w	r2, #1024	@ 0x400
 80041f4:	d103      	bne.n	80041fe <HAL_RTCEx_WakeUpTimerIRQHandler+0x1e>
  hrtc->State = HAL_RTC_STATE_READY;
 80041f6:	2301      	movs	r3, #1
 80041f8:	f884 3021 	strb.w	r3, [r4, #33]	@ 0x21
}
 80041fc:	bd10      	pop	{r4, pc}
    __HAL_RTC_WAKEUPTIMER_CLEAR_FLAG(hrtc, RTC_FLAG_WUTF);
 80041fe:	68da      	ldr	r2, [r3, #12]
 8004200:	b2d2      	uxtb	r2, r2
 8004202:	f462 6290 	orn	r2, r2, #1152	@ 0x480
 8004206:	60da      	str	r2, [r3, #12]
    HAL_RTCEx_WakeUpTimerEventCallback(hrtc);
 8004208:	f7ff ffe8 	bl	80041dc <HAL_RTCEx_WakeUpTimerEventCallback>
 800420c:	e7f3      	b.n	80041f6 <HAL_RTCEx_WakeUpTimerIRQHandler+0x16>
 800420e:	bf00      	nop
 8004210:	40010400 	.word	0x40010400

08004214 <SD_PowerON>:
  *         in the SD handle.
  * @param  hsd: Pointer to SD handle
  * @retval error state
  */
static uint32_t SD_PowerON(SD_HandleTypeDef *hsd)
{
 8004214:	b570      	push	{r4, r5, r6, lr}
 8004216:	b082      	sub	sp, #8
 8004218:	4604      	mov	r4, r0
  __IO uint32_t count = 0U;
 800421a:	2300      	movs	r3, #0
 800421c:	9301      	str	r3, [sp, #4]
#if defined(STM32L4P5xx) || defined(STM32L4Q5xx) || defined(STM32L4R5xx) || defined(STM32L4R7xx) || defined(STM32L4R9xx) || defined(STM32L4S5xx) || defined(STM32L4S7xx) || defined(STM32L4S9xx)
  uint32_t tickstart = HAL_GetTick();
#endif /* STM32L4P5xx || STM32L4Q5xx || STM32L4R5xx || STM32L4R7xx || STM32L4R9xx || STM32L4S5xx || STM32L4S7xx || STM32L4S9xx */

  /* CMD0: GO_IDLE_STATE */
  errorstate = SDMMC_CmdGoIdleState(hsd->Instance);
 800421e:	6800      	ldr	r0, [r0, #0]
 8004220:	f002 f86a 	bl	80062f8 <SDMMC_CmdGoIdleState>
  if (errorstate != HAL_SD_ERROR_NONE)
 8004224:	4606      	mov	r6, r0
 8004226:	b110      	cbz	r0, 800422e <SD_PowerON+0x1a>
    hsd->SdCard.CardType = CARD_SDSC;
  }


  return HAL_SD_ERROR_NONE;
}
 8004228:	4630      	mov	r0, r6
 800422a:	b002      	add	sp, #8
 800422c:	bd70      	pop	{r4, r5, r6, pc}
  errorstate = SDMMC_CmdOperCond(hsd->Instance);
 800422e:	6820      	ldr	r0, [r4, #0]
 8004230:	f002 fb62 	bl	80068f8 <SDMMC_CmdOperCond>
  if (errorstate != HAL_SD_ERROR_NONE)
 8004234:	b938      	cbnz	r0, 8004246 <SD_PowerON+0x32>
    hsd->SdCard.CardVersion = CARD_V2_X;
 8004236:	2301      	movs	r3, #1
 8004238:	64a3      	str	r3, [r4, #72]	@ 0x48
  if (hsd->SdCard.CardVersion == CARD_V2_X)
 800423a:	6ca3      	ldr	r3, [r4, #72]	@ 0x48
 800423c:	2b01      	cmp	r3, #1
 800423e:	d00b      	beq.n	8004258 <SD_PowerON+0x44>
    validvoltage = (((response >> 31U) == 1U) ? 1U : 0U);
 8004240:	4630      	mov	r0, r6
 8004242:	4635      	mov	r5, r6
 8004244:	e015      	b.n	8004272 <SD_PowerON+0x5e>
    hsd->SdCard.CardVersion = CARD_V1_X;
 8004246:	2300      	movs	r3, #0
 8004248:	64a3      	str	r3, [r4, #72]	@ 0x48
    errorstate = SDMMC_CmdGoIdleState(hsd->Instance);
 800424a:	6820      	ldr	r0, [r4, #0]
 800424c:	f002 f854 	bl	80062f8 <SDMMC_CmdGoIdleState>
    if (errorstate != HAL_SD_ERROR_NONE)
 8004250:	2800      	cmp	r0, #0
 8004252:	d0f2      	beq.n	800423a <SD_PowerON+0x26>
      return errorstate;
 8004254:	4606      	mov	r6, r0
 8004256:	e7e7      	b.n	8004228 <SD_PowerON+0x14>
    errorstate = SDMMC_CmdAppCommand(hsd->Instance, 0);
 8004258:	2100      	movs	r1, #0
 800425a:	6820      	ldr	r0, [r4, #0]
 800425c:	f002 f9b4 	bl	80065c8 <SDMMC_CmdAppCommand>
    if (errorstate != HAL_SD_ERROR_NONE)
 8004260:	2800      	cmp	r0, #0
 8004262:	d0ed      	beq.n	8004240 <SD_PowerON+0x2c>
      return HAL_SD_ERROR_UNSUPPORTED_FEATURE;
 8004264:	f04f 5380 	mov.w	r3, #268435456	@ 0x10000000
 8004268:	461e      	mov	r6, r3
 800426a:	e7dd      	b.n	8004228 <SD_PowerON+0x14>
    count++;
 800426c:	9b01      	ldr	r3, [sp, #4]
 800426e:	3301      	adds	r3, #1
 8004270:	9301      	str	r3, [sp, #4]
  while ((count < SDMMC_MAX_VOLT_TRIAL) && (validvoltage == 0U))
 8004272:	9a01      	ldr	r2, [sp, #4]
 8004274:	f64f 73fe 	movw	r3, #65534	@ 0xfffe
 8004278:	429a      	cmp	r2, r3
 800427a:	d813      	bhi.n	80042a4 <SD_PowerON+0x90>
 800427c:	b995      	cbnz	r5, 80042a4 <SD_PowerON+0x90>
    errorstate = SDMMC_CmdAppCommand(hsd->Instance, 0);
 800427e:	4629      	mov	r1, r5
 8004280:	6820      	ldr	r0, [r4, #0]
 8004282:	f002 f9a1 	bl	80065c8 <SDMMC_CmdAppCommand>
    if (errorstate != HAL_SD_ERROR_NONE)
 8004286:	b9e0      	cbnz	r0, 80042c2 <SD_PowerON+0xae>
    errorstate = SDMMC_CmdAppOperCommand(hsd->Instance, SDMMC_VOLTAGE_WINDOW_SD | SDMMC_HIGH_CAPACITY | SD_SWITCH_1_8V_CAPACITY);
 8004288:	4913      	ldr	r1, [pc, #76]	@ (80042d8 <SD_PowerON+0xc4>)
 800428a:	6820      	ldr	r0, [r4, #0]
 800428c:	f002 fa7c 	bl	8006788 <SDMMC_CmdAppOperCommand>
    if (errorstate != HAL_SD_ERROR_NONE)
 8004290:	4605      	mov	r5, r0
 8004292:	b9c0      	cbnz	r0, 80042c6 <SD_PowerON+0xb2>
    response = SDMMC_GetResponse(hsd->Instance, SDMMC_RESP1);
 8004294:	4601      	mov	r1, r0
 8004296:	6820      	ldr	r0, [r4, #0]
 8004298:	f002 f819 	bl	80062ce <SDMMC_GetResponse>
    validvoltage = (((response >> 31U) == 1U) ? 1U : 0U);
 800429c:	0fc3      	lsrs	r3, r0, #31
 800429e:	d0e5      	beq.n	800426c <SD_PowerON+0x58>
 80042a0:	461d      	mov	r5, r3
 80042a2:	e7e3      	b.n	800426c <SD_PowerON+0x58>
  if (count >= SDMMC_MAX_VOLT_TRIAL)
 80042a4:	9a01      	ldr	r2, [sp, #4]
 80042a6:	f64f 73fe 	movw	r3, #65534	@ 0xfffe
 80042aa:	429a      	cmp	r2, r3
 80042ac:	d80f      	bhi.n	80042ce <SD_PowerON+0xba>
  if ((response & SDMMC_HIGH_CAPACITY) == SDMMC_HIGH_CAPACITY) /* (response &= SD_HIGH_CAPACITY) */
 80042ae:	f010 4380 	ands.w	r3, r0, #1073741824	@ 0x40000000
 80042b2:	d002      	beq.n	80042ba <SD_PowerON+0xa6>
    hsd->SdCard.CardType = CARD_SDHC_SDXC;
 80042b4:	2301      	movs	r3, #1
 80042b6:	6463      	str	r3, [r4, #68]	@ 0x44
 80042b8:	e7b6      	b.n	8004228 <SD_PowerON+0x14>
    hsd->SdCard.CardType = CARD_SDSC;
 80042ba:	2200      	movs	r2, #0
 80042bc:	6462      	str	r2, [r4, #68]	@ 0x44
  return HAL_SD_ERROR_NONE;
 80042be:	461e      	mov	r6, r3
 80042c0:	e7b2      	b.n	8004228 <SD_PowerON+0x14>
      return errorstate;
 80042c2:	4606      	mov	r6, r0
 80042c4:	e7b0      	b.n	8004228 <SD_PowerON+0x14>
      return HAL_SD_ERROR_UNSUPPORTED_FEATURE;
 80042c6:	f04f 5380 	mov.w	r3, #268435456	@ 0x10000000
 80042ca:	461e      	mov	r6, r3
 80042cc:	e7ac      	b.n	8004228 <SD_PowerON+0x14>
    return HAL_SD_ERROR_INVALID_VOLTRANGE;
 80042ce:	f04f 7380 	mov.w	r3, #16777216	@ 0x1000000
 80042d2:	461e      	mov	r6, r3
 80042d4:	e7a8      	b.n	8004228 <SD_PowerON+0x14>
 80042d6:	bf00      	nop
 80042d8:	c1100000 	.word	0xc1100000

080042dc <SD_PowerOFF>:
  * @brief  Turns the SDMMC output signals off.
  * @param  hsd: Pointer to SD handle
  * @retval None
  */
static void SD_PowerOFF(SD_HandleTypeDef *hsd)
{
 80042dc:	b508      	push	{r3, lr}
  /* Set Power State to OFF */
  (void)SDMMC_PowerState_OFF(hsd->Instance);
 80042de:	6800      	ldr	r0, [r0, #0]
 80042e0:	f001 ffda 	bl	8006298 <SDMMC_PowerState_OFF>
}
 80042e4:	bd08      	pop	{r3, pc}

080042e6 <SD_Read_IT>:
  * @param  hsd: pointer to a SD_HandleTypeDef structure that contains
  *              the configuration information.
  * @retval None
  */
static void SD_Read_IT(SD_HandleTypeDef *hsd)
{
 80042e6:	b5f8      	push	{r3, r4, r5, r6, r7, lr}
  uint32_t count, data, dataremaining;
  uint8_t *tmp;

  tmp = hsd->pRxBuffPtr;
 80042e8:	6a84      	ldr	r4, [r0, #40]	@ 0x28
  dataremaining = hsd->RxXferSize;
 80042ea:	6ac6      	ldr	r6, [r0, #44]	@ 0x2c

  if (dataremaining > 0U)
 80042ec:	b9a6      	cbnz	r6, 8004318 <SD_Read_IT+0x32>
    }

    hsd->pRxBuffPtr = tmp;
    hsd->RxXferSize = dataremaining;
  }
}
 80042ee:	bdf8      	pop	{r3, r4, r5, r6, r7, pc}
      data = SDMMC_ReadFIFO(hsd->Instance);
 80042f0:	6838      	ldr	r0, [r7, #0]
 80042f2:	f001 ffc1 	bl	8006278 <SDMMC_ReadFIFO>
      *tmp = (uint8_t)(data & 0xFFU);
 80042f6:	7020      	strb	r0, [r4, #0]
      *tmp = (uint8_t)((data >> 8U) & 0xFFU);
 80042f8:	f3c0 2307 	ubfx	r3, r0, #8, #8
 80042fc:	7063      	strb	r3, [r4, #1]
      *tmp = (uint8_t)((data >> 16U) & 0xFFU);
 80042fe:	f3c0 4307 	ubfx	r3, r0, #16, #8
 8004302:	70a3      	strb	r3, [r4, #2]
      *tmp = (uint8_t)((data >> 24U) & 0xFFU);
 8004304:	0e00      	lsrs	r0, r0, #24
 8004306:	70e0      	strb	r0, [r4, #3]
      tmp++;
 8004308:	3404      	adds	r4, #4
      dataremaining--;
 800430a:	3e04      	subs	r6, #4
    for (count = 0U; count < 8U; count++)
 800430c:	3501      	adds	r5, #1
 800430e:	2d07      	cmp	r5, #7
 8004310:	d9ee      	bls.n	80042f0 <SD_Read_IT+0xa>
    hsd->pRxBuffPtr = tmp;
 8004312:	62bc      	str	r4, [r7, #40]	@ 0x28
    hsd->RxXferSize = dataremaining;
 8004314:	62fe      	str	r6, [r7, #44]	@ 0x2c
}
 8004316:	e7ea      	b.n	80042ee <SD_Read_IT+0x8>
 8004318:	4607      	mov	r7, r0
    for (count = 0U; count < 8U; count++)
 800431a:	2500      	movs	r5, #0
 800431c:	e7f7      	b.n	800430e <SD_Read_IT+0x28>

0800431e <SD_Write_IT>:
  * @param  hsd: pointer to a SD_HandleTypeDef structure that contains
  *              the configuration information.
  * @retval None
  */
static void SD_Write_IT(SD_HandleTypeDef *hsd)
{
 800431e:	b5f0      	push	{r4, r5, r6, r7, lr}
 8004320:	b083      	sub	sp, #12
  uint32_t count, data, dataremaining;
  uint8_t *tmp;

  tmp = hsd->pTxBuffPtr;
 8004322:	6a04      	ldr	r4, [r0, #32]
  dataremaining = hsd->TxXferSize;
 8004324:	6a46      	ldr	r6, [r0, #36]	@ 0x24

  if (dataremaining > 0U)
 8004326:	b9de      	cbnz	r6, 8004360 <SD_Write_IT+0x42>
    }

    hsd->pTxBuffPtr = tmp;
    hsd->TxXferSize = dataremaining;
  }
}
 8004328:	b003      	add	sp, #12
 800432a:	bdf0      	pop	{r4, r5, r6, r7, pc}
      data = (uint32_t)(*tmp);
 800432c:	7823      	ldrb	r3, [r4, #0]
 800432e:	9301      	str	r3, [sp, #4]
      data |= ((uint32_t)(*tmp) << 8U);
 8004330:	7862      	ldrb	r2, [r4, #1]
 8004332:	ea43 2302 	orr.w	r3, r3, r2, lsl #8
 8004336:	9301      	str	r3, [sp, #4]
      data |= ((uint32_t)(*tmp) << 16U);
 8004338:	78a2      	ldrb	r2, [r4, #2]
 800433a:	ea43 4302 	orr.w	r3, r3, r2, lsl #16
 800433e:	9301      	str	r3, [sp, #4]
      data |= ((uint32_t)(*tmp) << 24U);
 8004340:	78e2      	ldrb	r2, [r4, #3]
 8004342:	ea43 6302 	orr.w	r3, r3, r2, lsl #24
 8004346:	9301      	str	r3, [sp, #4]
      tmp++;
 8004348:	3404      	adds	r4, #4
      dataremaining--;
 800434a:	3e04      	subs	r6, #4
      (void)SDMMC_WriteFIFO(hsd->Instance, &data);
 800434c:	a901      	add	r1, sp, #4
 800434e:	6838      	ldr	r0, [r7, #0]
 8004350:	f001 ff95 	bl	800627e <SDMMC_WriteFIFO>
    for (count = 0U; count < 8U; count++)
 8004354:	3501      	adds	r5, #1
 8004356:	2d07      	cmp	r5, #7
 8004358:	d9e8      	bls.n	800432c <SD_Write_IT+0xe>
    hsd->pTxBuffPtr = tmp;
 800435a:	623c      	str	r4, [r7, #32]
    hsd->TxXferSize = dataremaining;
 800435c:	627e      	str	r6, [r7, #36]	@ 0x24
}
 800435e:	e7e3      	b.n	8004328 <SD_Write_IT+0xa>
 8004360:	4607      	mov	r7, r0
    for (count = 0U; count < 8U; count++)
 8004362:	2500      	movs	r5, #0
 8004364:	e7f7      	b.n	8004356 <SD_Write_IT+0x38>

08004366 <SD_FindSCR>:
{
 8004366:	b5f0      	push	{r4, r5, r6, r7, lr}
 8004368:	b089      	sub	sp, #36	@ 0x24
 800436a:	4604      	mov	r4, r0
 800436c:	460f      	mov	r7, r1
  uint32_t tickstart = HAL_GetTick();
 800436e:	f7fd f857 	bl	8001420 <HAL_GetTick>
 8004372:	4606      	mov	r6, r0
  uint32_t tempscr[2U] = {0U, 0U};
 8004374:	2300      	movs	r3, #0
 8004376:	9300      	str	r3, [sp, #0]
 8004378:	9301      	str	r3, [sp, #4]
  errorstate = SDMMC_CmdBlockLength(hsd->Instance, 8U);
 800437a:	2108      	movs	r1, #8
 800437c:	6820      	ldr	r0, [r4, #0]
 800437e:	f002 f879 	bl	8006474 <SDMMC_CmdBlockLength>
  if (errorstate != HAL_SD_ERROR_NONE)
 8004382:	4605      	mov	r5, r0
 8004384:	b110      	cbz	r0, 800438c <SD_FindSCR+0x26>
}
 8004386:	4628      	mov	r0, r5
 8004388:	b009      	add	sp, #36	@ 0x24
 800438a:	bdf0      	pop	{r4, r5, r6, r7, pc}
  errorstate = SDMMC_CmdAppCommand(hsd->Instance, (uint32_t)((hsd->SdCard.RelCardAdd) << 16U));
 800438c:	6d21      	ldr	r1, [r4, #80]	@ 0x50
 800438e:	0409      	lsls	r1, r1, #16
 8004390:	6820      	ldr	r0, [r4, #0]
 8004392:	f002 f919 	bl	80065c8 <SDMMC_CmdAppCommand>
  if (errorstate != HAL_SD_ERROR_NONE)
 8004396:	4605      	mov	r5, r0
 8004398:	2800      	cmp	r0, #0
 800439a:	d1f4      	bne.n	8004386 <SD_FindSCR+0x20>
  config.DataTimeOut   = SDMMC_DATATIMEOUT;
 800439c:	f04f 33ff 	mov.w	r3, #4294967295	@ 0xffffffff
 80043a0:	9302      	str	r3, [sp, #8]
  config.DataLength    = 8U;
 80043a2:	2308      	movs	r3, #8
 80043a4:	9303      	str	r3, [sp, #12]
  config.DataBlockSize = SDMMC_DATABLOCK_SIZE_8B;
 80043a6:	2330      	movs	r3, #48	@ 0x30
 80043a8:	9304      	str	r3, [sp, #16]
  config.TransferDir   = SDMMC_TRANSFER_DIR_TO_SDMMC;
 80043aa:	2302      	movs	r3, #2
 80043ac:	9305      	str	r3, [sp, #20]
  config.TransferMode  = SDMMC_TRANSFER_MODE_BLOCK;
 80043ae:	9006      	str	r0, [sp, #24]
  config.DPSM          = SDMMC_DPSM_ENABLE;
 80043b0:	2301      	movs	r3, #1
 80043b2:	9307      	str	r3, [sp, #28]
  (void)SDMMC_ConfigData(hsd->Instance, &config);
 80043b4:	a902      	add	r1, sp, #8
 80043b6:	6820      	ldr	r0, [r4, #0]
 80043b8:	f001 ff8c 	bl	80062d4 <SDMMC_ConfigData>
  errorstate = SDMMC_CmdSendSCR(hsd->Instance);
 80043bc:	6820      	ldr	r0, [r4, #0]
 80043be:	f002 f933 	bl	8006628 <SDMMC_CmdSendSCR>
  if (errorstate != HAL_SD_ERROR_NONE)
 80043c2:	4605      	mov	r5, r0
 80043c4:	b158      	cbz	r0, 80043de <SD_FindSCR+0x78>
 80043c6:	e7de      	b.n	8004386 <SD_FindSCR+0x20>
      *(tempscr + index) = SDMMC_ReadFIFO(hsd->Instance);
 80043c8:	f001 ff56 	bl	8006278 <SDMMC_ReadFIFO>
 80043cc:	f84d 0025 	str.w	r0, [sp, r5, lsl #2]
      index++;
 80043d0:	3501      	adds	r5, #1
    if ((HAL_GetTick() - tickstart) >=  SDMMC_DATATIMEOUT)
 80043d2:	f7fd f825 	bl	8001420 <HAL_GetTick>
 80043d6:	1b83      	subs	r3, r0, r6
 80043d8:	f1b3 3fff 	cmp.w	r3, #4294967295	@ 0xffffffff
 80043dc:	d03f      	beq.n	800445e <SD_FindSCR+0xf8>
  while (!__HAL_SD_GET_FLAG(hsd, SDMMC_FLAG_RXOVERR | SDMMC_FLAG_DCRCFAIL | SDMMC_FLAG_DTIMEOUT))
 80043de:	6820      	ldr	r0, [r4, #0]
 80043e0:	6b43      	ldr	r3, [r0, #52]	@ 0x34
 80043e2:	f013 0f2a 	tst.w	r3, #42	@ 0x2a
 80043e6:	d107      	bne.n	80043f8 <SD_FindSCR+0x92>
    if (__HAL_SD_GET_FLAG(hsd, SDMMC_FLAG_RXDAVL))
 80043e8:	6b43      	ldr	r3, [r0, #52]	@ 0x34
 80043ea:	f413 1f00 	tst.w	r3, #2097152	@ 0x200000
 80043ee:	d1eb      	bne.n	80043c8 <SD_FindSCR+0x62>
    else if (!__HAL_SD_GET_FLAG(hsd, SDMMC_FLAG_RXACT))
 80043f0:	6b43      	ldr	r3, [r0, #52]	@ 0x34
 80043f2:	f413 5f00 	tst.w	r3, #8192	@ 0x2000
 80043f6:	d1ec      	bne.n	80043d2 <SD_FindSCR+0x6c>
  if (__HAL_SD_GET_FLAG(hsd, SDMMC_FLAG_DTIMEOUT))
 80043f8:	6b43      	ldr	r3, [r0, #52]	@ 0x34
 80043fa:	f013 0f08 	tst.w	r3, #8
 80043fe:	d125      	bne.n	800444c <SD_FindSCR+0xe6>
  else if (__HAL_SD_GET_FLAG(hsd, SDMMC_FLAG_DCRCFAIL))
 8004400:	6b43      	ldr	r3, [r0, #52]	@ 0x34
 8004402:	f013 0f02 	tst.w	r3, #2
 8004406:	d124      	bne.n	8004452 <SD_FindSCR+0xec>
  else if (__HAL_SD_GET_FLAG(hsd, SDMMC_FLAG_RXOVERR))
 8004408:	6b45      	ldr	r5, [r0, #52]	@ 0x34
 800440a:	f015 0520 	ands.w	r5, r5, #32
 800440e:	d123      	bne.n	8004458 <SD_FindSCR+0xf2>
    __HAL_SD_CLEAR_FLAG(hsd, SDMMC_STATIC_DATA_FLAGS);
 8004410:	f240 533a 	movw	r3, #1338	@ 0x53a
 8004414:	6383      	str	r3, [r0, #56]	@ 0x38
    *scr = (((tempscr[1] & SDMMC_0TO7BITS) << 24)  | ((tempscr[1] & SDMMC_8TO15BITS) << 8) | \
 8004416:	9a01      	ldr	r2, [sp, #4]
 8004418:	0213      	lsls	r3, r2, #8
 800441a:	f403 037f 	and.w	r3, r3, #16711680	@ 0xff0000
 800441e:	ea43 6302 	orr.w	r3, r3, r2, lsl #24
            ((tempscr[1] & SDMMC_16TO23BITS) >> 8) | ((tempscr[1] & SDMMC_24TO31BITS) >> 24));
 8004422:	0a11      	lsrs	r1, r2, #8
 8004424:	f401 417f 	and.w	r1, r1, #65280	@ 0xff00
    *scr = (((tempscr[1] & SDMMC_0TO7BITS) << 24)  | ((tempscr[1] & SDMMC_8TO15BITS) << 8) | \
 8004428:	430b      	orrs	r3, r1
            ((tempscr[1] & SDMMC_16TO23BITS) >> 8) | ((tempscr[1] & SDMMC_24TO31BITS) >> 24));
 800442a:	ea43 6312 	orr.w	r3, r3, r2, lsr #24
    *scr = (((tempscr[1] & SDMMC_0TO7BITS) << 24)  | ((tempscr[1] & SDMMC_8TO15BITS) << 8) | \
 800442e:	603b      	str	r3, [r7, #0]
    *scr = (((tempscr[0] & SDMMC_0TO7BITS) << 24)  | ((tempscr[0] & SDMMC_8TO15BITS) << 8) | \
 8004430:	9a00      	ldr	r2, [sp, #0]
 8004432:	0213      	lsls	r3, r2, #8
 8004434:	f403 037f 	and.w	r3, r3, #16711680	@ 0xff0000
 8004438:	ea43 6302 	orr.w	r3, r3, r2, lsl #24
            ((tempscr[0] & SDMMC_16TO23BITS) >> 8) | ((tempscr[0] & SDMMC_24TO31BITS) >> 24));
 800443c:	0a11      	lsrs	r1, r2, #8
 800443e:	f401 417f 	and.w	r1, r1, #65280	@ 0xff00
    *scr = (((tempscr[0] & SDMMC_0TO7BITS) << 24)  | ((tempscr[0] & SDMMC_8TO15BITS) << 8) | \
 8004442:	430b      	orrs	r3, r1
            ((tempscr[0] & SDMMC_16TO23BITS) >> 8) | ((tempscr[0] & SDMMC_24TO31BITS) >> 24));
 8004444:	ea43 6312 	orr.w	r3, r3, r2, lsr #24
    *scr = (((tempscr[0] & SDMMC_0TO7BITS) << 24)  | ((tempscr[0] & SDMMC_8TO15BITS) << 8) | \
 8004448:	607b      	str	r3, [r7, #4]
  return HAL_SD_ERROR_NONE;
 800444a:	e79c      	b.n	8004386 <SD_FindSCR+0x20>
    __HAL_SD_CLEAR_FLAG(hsd, SDMMC_FLAG_DTIMEOUT);
 800444c:	2508      	movs	r5, #8
 800444e:	6385      	str	r5, [r0, #56]	@ 0x38
    return HAL_SD_ERROR_DATA_TIMEOUT;
 8004450:	e799      	b.n	8004386 <SD_FindSCR+0x20>
    __HAL_SD_CLEAR_FLAG(hsd, SDMMC_FLAG_DCRCFAIL);
 8004452:	2502      	movs	r5, #2
 8004454:	6385      	str	r5, [r0, #56]	@ 0x38
    return HAL_SD_ERROR_DATA_CRC_FAIL;
 8004456:	e796      	b.n	8004386 <SD_FindSCR+0x20>
    __HAL_SD_CLEAR_FLAG(hsd, SDMMC_FLAG_RXOVERR);
 8004458:	2520      	movs	r5, #32
 800445a:	6385      	str	r5, [r0, #56]	@ 0x38
    return HAL_SD_ERROR_RX_OVERRUN;
 800445c:	e793      	b.n	8004386 <SD_FindSCR+0x20>
      return HAL_SD_ERROR_TIMEOUT;
 800445e:	f04f 4500 	mov.w	r5, #2147483648	@ 0x80000000
 8004462:	e790      	b.n	8004386 <SD_FindSCR+0x20>

08004464 <SD_WideBus_Enable>:
{
 8004464:	b510      	push	{r4, lr}
 8004466:	b082      	sub	sp, #8
 8004468:	4604      	mov	r4, r0
  uint32_t scr[2U] = {0U, 0U};
 800446a:	2100      	movs	r1, #0
 800446c:	9100      	str	r1, [sp, #0]
 800446e:	9101      	str	r1, [sp, #4]
  if ((SDMMC_GetResponse(hsd->Instance, SDMMC_RESP1) & SDMMC_CARD_LOCKED) == SDMMC_CARD_LOCKED)
 8004470:	6800      	ldr	r0, [r0, #0]
 8004472:	f001 ff2c 	bl	80062ce <SDMMC_GetResponse>
 8004476:	f010 7f00 	tst.w	r0, #33554432	@ 0x2000000
 800447a:	d113      	bne.n	80044a4 <SD_WideBus_Enable+0x40>
  errorstate = SD_FindSCR(hsd, scr);
 800447c:	4669      	mov	r1, sp
 800447e:	4620      	mov	r0, r4
 8004480:	f7ff ff71 	bl	8004366 <SD_FindSCR>
  if (errorstate != HAL_SD_ERROR_NONE)
 8004484:	b980      	cbnz	r0, 80044a8 <SD_WideBus_Enable+0x44>
  if ((scr[1U] & SDMMC_WIDE_BUS_SUPPORT) != SDMMC_ALLZERO)
 8004486:	9b01      	ldr	r3, [sp, #4]
 8004488:	f413 2f80 	tst.w	r3, #262144	@ 0x40000
 800448c:	d00e      	beq.n	80044ac <SD_WideBus_Enable+0x48>
    errorstate = SDMMC_CmdAppCommand(hsd->Instance, (uint32_t)(hsd->SdCard.RelCardAdd << 16U));
 800448e:	6d21      	ldr	r1, [r4, #80]	@ 0x50
 8004490:	0409      	lsls	r1, r1, #16
 8004492:	6820      	ldr	r0, [r4, #0]
 8004494:	f002 f898 	bl	80065c8 <SDMMC_CmdAppCommand>
    if (errorstate != HAL_SD_ERROR_NONE)
 8004498:	b930      	cbnz	r0, 80044a8 <SD_WideBus_Enable+0x44>
    errorstate = SDMMC_CmdBusWidth(hsd->Instance, 2U);
 800449a:	2102      	movs	r1, #2
 800449c:	6820      	ldr	r0, [r4, #0]
 800449e:	f002 f8ab 	bl	80065f8 <SDMMC_CmdBusWidth>
    if (errorstate != HAL_SD_ERROR_NONE)
 80044a2:	e001      	b.n	80044a8 <SD_WideBus_Enable+0x44>
    return HAL_SD_ERROR_LOCK_UNLOCK_FAILED;
 80044a4:	f44f 6000 	mov.w	r0, #2048	@ 0x800
}
 80044a8:	b002      	add	sp, #8
 80044aa:	bd10      	pop	{r4, pc}
    return HAL_SD_ERROR_REQUEST_NOT_APPLICABLE;
 80044ac:	f04f 6080 	mov.w	r0, #67108864	@ 0x4000000
 80044b0:	e7fa      	b.n	80044a8 <SD_WideBus_Enable+0x44>

080044b2 <SD_WideBus_Disable>:
{
 80044b2:	b510      	push	{r4, lr}
 80044b4:	b082      	sub	sp, #8
 80044b6:	4604      	mov	r4, r0
  uint32_t scr[2U] = {0U, 0U};
 80044b8:	2100      	movs	r1, #0
 80044ba:	9100      	str	r1, [sp, #0]
 80044bc:	9101      	str	r1, [sp, #4]
  if ((SDMMC_GetResponse(hsd->Instance, SDMMC_RESP1) & SDMMC_CARD_LOCKED) == SDMMC_CARD_LOCKED)
 80044be:	6800      	ldr	r0, [r0, #0]
 80044c0:	f001 ff05 	bl	80062ce <SDMMC_GetResponse>
 80044c4:	f010 7f00 	tst.w	r0, #33554432	@ 0x2000000
 80044c8:	d113      	bne.n	80044f2 <SD_WideBus_Disable+0x40>
  errorstate = SD_FindSCR(hsd, scr);
 80044ca:	4669      	mov	r1, sp
 80044cc:	4620      	mov	r0, r4
 80044ce:	f7ff ff4a 	bl	8004366 <SD_FindSCR>
  if (errorstate != HAL_SD_ERROR_NONE)
 80044d2:	b980      	cbnz	r0, 80044f6 <SD_WideBus_Disable+0x44>
  if ((scr[1U] & SDMMC_SINGLE_BUS_SUPPORT) != SDMMC_ALLZERO)
 80044d4:	9b01      	ldr	r3, [sp, #4]
 80044d6:	f413 3f80 	tst.w	r3, #65536	@ 0x10000
 80044da:	d00e      	beq.n	80044fa <SD_WideBus_Disable+0x48>
    errorstate = SDMMC_CmdAppCommand(hsd->Instance, (uint32_t)(hsd->SdCard.RelCardAdd << 16U));
 80044dc:	6d21      	ldr	r1, [r4, #80]	@ 0x50
 80044de:	0409      	lsls	r1, r1, #16
 80044e0:	6820      	ldr	r0, [r4, #0]
 80044e2:	f002 f871 	bl	80065c8 <SDMMC_CmdAppCommand>
    if (errorstate != HAL_SD_ERROR_NONE)
 80044e6:	b930      	cbnz	r0, 80044f6 <SD_WideBus_Disable+0x44>
    errorstate = SDMMC_CmdBusWidth(hsd->Instance, 0U);
 80044e8:	4601      	mov	r1, r0
 80044ea:	6820      	ldr	r0, [r4, #0]
 80044ec:	f002 f884 	bl	80065f8 <SDMMC_CmdBusWidth>
    if (errorstate != HAL_SD_ERROR_NONE)
 80044f0:	e001      	b.n	80044f6 <SD_WideBus_Disable+0x44>
    return HAL_SD_ERROR_LOCK_UNLOCK_FAILED;
 80044f2:	f44f 6000 	mov.w	r0, #2048	@ 0x800
}
 80044f6:	b002      	add	sp, #8
 80044f8:	bd10      	pop	{r4, pc}
    return HAL_SD_ERROR_REQUEST_NOT_APPLICABLE;
 80044fa:	f04f 6080 	mov.w	r0, #67108864	@ 0x4000000
 80044fe:	e7fa      	b.n	80044f6 <SD_WideBus_Disable+0x44>

08004500 <SD_SendStatus>:
{
 8004500:	b570      	push	{r4, r5, r6, lr}
  if (pCardStatus == NULL)
 8004502:	b181      	cbz	r1, 8004526 <SD_SendStatus+0x26>
 8004504:	4604      	mov	r4, r0
 8004506:	460d      	mov	r5, r1
  errorstate = SDMMC_CmdSendStatus(hsd->Instance, (uint32_t)(hsd->SdCard.RelCardAdd << 16U));
 8004508:	6d01      	ldr	r1, [r0, #80]	@ 0x50
 800450a:	0409      	lsls	r1, r1, #16
 800450c:	6800      	ldr	r0, [r0, #0]
 800450e:	f002 f8a3 	bl	8006658 <SDMMC_CmdSendStatus>
  if (errorstate != HAL_SD_ERROR_NONE)
 8004512:	4606      	mov	r6, r0
 8004514:	b108      	cbz	r0, 800451a <SD_SendStatus+0x1a>
}
 8004516:	4630      	mov	r0, r6
 8004518:	bd70      	pop	{r4, r5, r6, pc}
  *pCardStatus = SDMMC_GetResponse(hsd->Instance, SDMMC_RESP1);
 800451a:	4601      	mov	r1, r0
 800451c:	6820      	ldr	r0, [r4, #0]
 800451e:	f001 fed6 	bl	80062ce <SDMMC_GetResponse>
 8004522:	6028      	str	r0, [r5, #0]
  return HAL_SD_ERROR_NONE;
 8004524:	e7f7      	b.n	8004516 <SD_SendStatus+0x16>
    return HAL_SD_ERROR_PARAM;
 8004526:	f04f 6300 	mov.w	r3, #134217728	@ 0x8000000
 800452a:	461e      	mov	r6, r3
 800452c:	e7f3      	b.n	8004516 <SD_SendStatus+0x16>

0800452e <HAL_SD_DeInit>:
  if (hsd == NULL)
 800452e:	b170      	cbz	r0, 800454e <HAL_SD_DeInit+0x20>
{
 8004530:	b510      	push	{r4, lr}
 8004532:	4604      	mov	r4, r0
  hsd->State = HAL_SD_STATE_BUSY;
 8004534:	2303      	movs	r3, #3
 8004536:	f880 3034 	strb.w	r3, [r0, #52]	@ 0x34
  SD_PowerOFF(hsd);
 800453a:	f7ff fecf 	bl	80042dc <SD_PowerOFF>
  HAL_SD_MspDeInit(hsd);
 800453e:	4620      	mov	r0, r4
 8004540:	f7fd ff28 	bl	8002394 <HAL_SD_MspDeInit>
  hsd->ErrorCode = HAL_SD_ERROR_NONE;
 8004544:	2000      	movs	r0, #0
 8004546:	63a0      	str	r0, [r4, #56]	@ 0x38
  hsd->State = HAL_SD_STATE_RESET;
 8004548:	f884 0034 	strb.w	r0, [r4, #52]	@ 0x34
}
 800454c:	bd10      	pop	{r4, pc}
    return HAL_ERROR;
 800454e:	2001      	movs	r0, #1
}
 8004550:	4770      	bx	lr
	...

08004554 <HAL_SD_ReadBlocks>:
{
 8004554:	e92d 4ff0 	stmdb	sp!, {r4, r5, r6, r7, r8, r9, sl, fp, lr}
 8004558:	b087      	sub	sp, #28
 800455a:	4605      	mov	r5, r0
 800455c:	460c      	mov	r4, r1
 800455e:	4616      	mov	r6, r2
 8004560:	469b      	mov	fp, r3
 8004562:	f8dd 8040 	ldr.w	r8, [sp, #64]	@ 0x40
  uint32_t tickstart = HAL_GetTick();
 8004566:	f7fc ff5b 	bl	8001420 <HAL_GetTick>
  if (NULL == pData)
 800456a:	2c00      	cmp	r4, #0
 800456c:	d035      	beq.n	80045da <HAL_SD_ReadBlocks+0x86>
 800456e:	4682      	mov	sl, r0
  if (hsd->State == HAL_SD_STATE_READY)
 8004570:	f895 3034 	ldrb.w	r3, [r5, #52]	@ 0x34
 8004574:	fa5f f983 	uxtb.w	r9, r3
 8004578:	2b01      	cmp	r3, #1
 800457a:	f040 8101 	bne.w	8004780 <HAL_SD_ReadBlocks+0x22c>
    hsd->ErrorCode = HAL_SD_ERROR_NONE;
 800457e:	2300      	movs	r3, #0
 8004580:	63ab      	str	r3, [r5, #56]	@ 0x38
    if ((add + NumberOfBlocks) > (hsd->SdCard.LogBlockNbr))
 8004582:	465b      	mov	r3, fp
 8004584:	18f3      	adds	r3, r6, r3
 8004586:	6dea      	ldr	r2, [r5, #92]	@ 0x5c
 8004588:	4293      	cmp	r3, r2
 800458a:	d82d      	bhi.n	80045e8 <HAL_SD_ReadBlocks+0x94>
    hsd->State = HAL_SD_STATE_BUSY;
 800458c:	2303      	movs	r3, #3
 800458e:	f885 3034 	strb.w	r3, [r5, #52]	@ 0x34
    hsd->Instance->DCTRL = 0U;
 8004592:	682b      	ldr	r3, [r5, #0]
 8004594:	2200      	movs	r2, #0
 8004596:	62da      	str	r2, [r3, #44]	@ 0x2c
    if (hsd->SdCard.CardType != CARD_SDHC_SDXC)
 8004598:	6c6b      	ldr	r3, [r5, #68]	@ 0x44
 800459a:	2b01      	cmp	r3, #1
 800459c:	d000      	beq.n	80045a0 <HAL_SD_ReadBlocks+0x4c>
      add *= 512U;
 800459e:	0276      	lsls	r6, r6, #9
    config.DataTimeOut   = SDMMC_DATATIMEOUT;
 80045a0:	f04f 33ff 	mov.w	r3, #4294967295	@ 0xffffffff
 80045a4:	9300      	str	r3, [sp, #0]
    config.DataLength    = NumberOfBlocks * BLOCKSIZE;
 80045a6:	465f      	mov	r7, fp
 80045a8:	027b      	lsls	r3, r7, #9
 80045aa:	9301      	str	r3, [sp, #4]
    config.DataBlockSize = SDMMC_DATABLOCK_SIZE_512B;
 80045ac:	2390      	movs	r3, #144	@ 0x90
 80045ae:	9302      	str	r3, [sp, #8]
    config.TransferDir   = SDMMC_TRANSFER_DIR_TO_SDMMC;
 80045b0:	2302      	movs	r3, #2
 80045b2:	9303      	str	r3, [sp, #12]
    config.TransferMode  = SDMMC_TRANSFER_MODE_BLOCK;
 80045b4:	2300      	movs	r3, #0
 80045b6:	9304      	str	r3, [sp, #16]
    config.DPSM          = SDMMC_DPSM_ENABLE;
 80045b8:	2301      	movs	r3, #1
 80045ba:	9305      	str	r3, [sp, #20]
    (void)SDMMC_ConfigData(hsd->Instance, &config);
 80045bc:	4669      	mov	r1, sp
 80045be:	6828      	ldr	r0, [r5, #0]
 80045c0:	f001 fe88 	bl	80062d4 <SDMMC_ConfigData>
    if (NumberOfBlocks > 1U)
 80045c4:	2f01      	cmp	r7, #1
 80045c6:	d914      	bls.n	80045f2 <HAL_SD_ReadBlocks+0x9e>
      hsd->Context = SD_CONTEXT_READ_MULTIPLE_BLOCK;
 80045c8:	2302      	movs	r3, #2
 80045ca:	632b      	str	r3, [r5, #48]	@ 0x30
      errorstate = SDMMC_CmdReadMultiBlock(hsd->Instance, add);
 80045cc:	4631      	mov	r1, r6
 80045ce:	6828      	ldr	r0, [r5, #0]
 80045d0:	f001 ff80 	bl	80064d4 <SDMMC_CmdReadMultiBlock>
    if (errorstate != HAL_SD_ERROR_NONE)
 80045d4:	b9a0      	cbnz	r0, 8004600 <HAL_SD_ReadBlocks+0xac>
    dataremaining = config.DataLength;
 80045d6:	9f01      	ldr	r7, [sp, #4]
    while (!__HAL_SD_GET_FLAG(hsd,
 80045d8:	e027      	b.n	800462a <HAL_SD_ReadBlocks+0xd6>
    hsd->ErrorCode |= HAL_SD_ERROR_PARAM;
 80045da:	6bab      	ldr	r3, [r5, #56]	@ 0x38
 80045dc:	f043 6300 	orr.w	r3, r3, #134217728	@ 0x8000000
 80045e0:	63ab      	str	r3, [r5, #56]	@ 0x38
    return HAL_ERROR;
 80045e2:	f04f 0901 	mov.w	r9, #1
 80045e6:	e0d1      	b.n	800478c <HAL_SD_ReadBlocks+0x238>
      hsd->ErrorCode |= HAL_SD_ERROR_ADDR_OUT_OF_RANGE;
 80045e8:	6bab      	ldr	r3, [r5, #56]	@ 0x38
 80045ea:	f043 7300 	orr.w	r3, r3, #33554432	@ 0x2000000
 80045ee:	63ab      	str	r3, [r5, #56]	@ 0x38
      return HAL_ERROR;
 80045f0:	e0cc      	b.n	800478c <HAL_SD_ReadBlocks+0x238>
      hsd->Context = SD_CONTEXT_READ_SINGLE_BLOCK;
 80045f2:	2301      	movs	r3, #1
 80045f4:	632b      	str	r3, [r5, #48]	@ 0x30
      errorstate = SDMMC_CmdReadSingleBlock(hsd->Instance, add);
 80045f6:	4631      	mov	r1, r6
 80045f8:	6828      	ldr	r0, [r5, #0]
 80045fa:	f001 ff53 	bl	80064a4 <SDMMC_CmdReadSingleBlock>
 80045fe:	e7e9      	b.n	80045d4 <HAL_SD_ReadBlocks+0x80>
      __HAL_SD_CLEAR_FLAG(hsd, SDMMC_STATIC_FLAGS);
 8004600:	682b      	ldr	r3, [r5, #0]
 8004602:	4a64      	ldr	r2, [pc, #400]	@ (8004794 <HAL_SD_ReadBlocks+0x240>)
 8004604:	639a      	str	r2, [r3, #56]	@ 0x38
      hsd->ErrorCode |= errorstate;
 8004606:	6bab      	ldr	r3, [r5, #56]	@ 0x38
 8004608:	4303      	orrs	r3, r0
 800460a:	63ab      	str	r3, [r5, #56]	@ 0x38
      hsd->State = HAL_SD_STATE_READY;
 800460c:	2301      	movs	r3, #1
 800460e:	f885 3034 	strb.w	r3, [r5, #52]	@ 0x34
      hsd->Context = SD_CONTEXT_NONE;
 8004612:	2300      	movs	r3, #0
 8004614:	632b      	str	r3, [r5, #48]	@ 0x30
      return HAL_ERROR;
 8004616:	e0b9      	b.n	800478c <HAL_SD_ReadBlocks+0x238>
      if (((HAL_GetTick() - tickstart) >=  Timeout) || (Timeout == 0U))
 8004618:	f7fc ff02 	bl	8001420 <HAL_GetTick>
 800461c:	4653      	mov	r3, sl
 800461e:	1ac0      	subs	r0, r0, r3
 8004620:	4540      	cmp	r0, r8
 8004622:	d21f      	bcs.n	8004664 <HAL_SD_ReadBlocks+0x110>
 8004624:	f1b8 0f00 	cmp.w	r8, #0
 8004628:	d01c      	beq.n	8004664 <HAL_SD_ReadBlocks+0x110>
    while (!__HAL_SD_GET_FLAG(hsd,
 800462a:	6828      	ldr	r0, [r5, #0]
 800462c:	6b46      	ldr	r6, [r0, #52]	@ 0x34
 800462e:	f416 7695 	ands.w	r6, r6, #298	@ 0x12a
 8004632:	d126      	bne.n	8004682 <HAL_SD_ReadBlocks+0x12e>
      if (__HAL_SD_GET_FLAG(hsd, SDMMC_FLAG_RXFIFOHF) && (dataremaining > 0U))
 8004634:	6b43      	ldr	r3, [r0, #52]	@ 0x34
 8004636:	f413 4f00 	tst.w	r3, #32768	@ 0x8000
 800463a:	d0ed      	beq.n	8004618 <HAL_SD_ReadBlocks+0xc4>
 800463c:	2f00      	cmp	r7, #0
 800463e:	d0eb      	beq.n	8004618 <HAL_SD_ReadBlocks+0xc4>
        for (count = 0U; count < 8U; count++)
 8004640:	2e07      	cmp	r6, #7
 8004642:	d8e9      	bhi.n	8004618 <HAL_SD_ReadBlocks+0xc4>
          data = SDMMC_ReadFIFO(hsd->Instance);
 8004644:	6828      	ldr	r0, [r5, #0]
 8004646:	f001 fe17 	bl	8006278 <SDMMC_ReadFIFO>
          *tempbuff = (uint8_t)(data & 0xFFU);
 800464a:	7020      	strb	r0, [r4, #0]
          *tempbuff = (uint8_t)((data >> 8U) & 0xFFU);
 800464c:	f3c0 2307 	ubfx	r3, r0, #8, #8
 8004650:	7063      	strb	r3, [r4, #1]
          *tempbuff = (uint8_t)((data >> 16U) & 0xFFU);
 8004652:	f3c0 4307 	ubfx	r3, r0, #16, #8
 8004656:	70a3      	strb	r3, [r4, #2]
          *tempbuff = (uint8_t)((data >> 24U) & 0xFFU);
 8004658:	0e00      	lsrs	r0, r0, #24
 800465a:	70e0      	strb	r0, [r4, #3]
          tempbuff++;
 800465c:	3404      	adds	r4, #4
          dataremaining--;
 800465e:	3f04      	subs	r7, #4
        for (count = 0U; count < 8U; count++)
 8004660:	3601      	adds	r6, #1
 8004662:	e7ed      	b.n	8004640 <HAL_SD_ReadBlocks+0xec>
        __HAL_SD_CLEAR_FLAG(hsd, SDMMC_STATIC_FLAGS);
 8004664:	682b      	ldr	r3, [r5, #0]
 8004666:	4a4b      	ldr	r2, [pc, #300]	@ (8004794 <HAL_SD_ReadBlocks+0x240>)
 8004668:	639a      	str	r2, [r3, #56]	@ 0x38
        hsd->ErrorCode |= HAL_SD_ERROR_TIMEOUT;
 800466a:	6bab      	ldr	r3, [r5, #56]	@ 0x38
 800466c:	f043 4300 	orr.w	r3, r3, #2147483648	@ 0x80000000
 8004670:	63ab      	str	r3, [r5, #56]	@ 0x38
        hsd->State = HAL_SD_STATE_READY;
 8004672:	2301      	movs	r3, #1
 8004674:	f885 3034 	strb.w	r3, [r5, #52]	@ 0x34
        hsd->Context = SD_CONTEXT_NONE;
 8004678:	2300      	movs	r3, #0
 800467a:	632b      	str	r3, [r5, #48]	@ 0x30
        return HAL_TIMEOUT;
 800467c:	f04f 0903 	mov.w	r9, #3
 8004680:	e084      	b.n	800478c <HAL_SD_ReadBlocks+0x238>
    if (__HAL_SD_GET_FLAG(hsd, SDMMC_FLAG_DATAEND) && (NumberOfBlocks > 1U))
 8004682:	6b43      	ldr	r3, [r0, #52]	@ 0x34
 8004684:	f413 7f80 	tst.w	r3, #256	@ 0x100
 8004688:	d005      	beq.n	8004696 <HAL_SD_ReadBlocks+0x142>
 800468a:	465b      	mov	r3, fp
 800468c:	2b01      	cmp	r3, #1
 800468e:	d902      	bls.n	8004696 <HAL_SD_ReadBlocks+0x142>
      if (hsd->SdCard.CardType != CARD_SECURED)
 8004690:	6c6b      	ldr	r3, [r5, #68]	@ 0x44
 8004692:	2b03      	cmp	r3, #3
 8004694:	d136      	bne.n	8004704 <HAL_SD_ReadBlocks+0x1b0>
    if (__HAL_SD_GET_FLAG(hsd, SDMMC_FLAG_DTIMEOUT))
 8004696:	682b      	ldr	r3, [r5, #0]
 8004698:	6b5a      	ldr	r2, [r3, #52]	@ 0x34
 800469a:	f012 0f08 	tst.w	r2, #8
 800469e:	d142      	bne.n	8004726 <HAL_SD_ReadBlocks+0x1d2>
    else if (__HAL_SD_GET_FLAG(hsd, SDMMC_FLAG_DCRCFAIL))
 80046a0:	6b5a      	ldr	r2, [r3, #52]	@ 0x34
 80046a2:	f012 0f02 	tst.w	r2, #2
 80046a6:	d14a      	bne.n	800473e <HAL_SD_ReadBlocks+0x1ea>
    else if (__HAL_SD_GET_FLAG(hsd, SDMMC_FLAG_RXOVERR))
 80046a8:	6b5a      	ldr	r2, [r3, #52]	@ 0x34
 80046aa:	f012 0f20 	tst.w	r2, #32
 80046ae:	d152      	bne.n	8004756 <HAL_SD_ReadBlocks+0x202>
    while ((__HAL_SD_GET_FLAG(hsd, SDMMC_FLAG_RXDAVL)) && (dataremaining > 0U))
 80046b0:	6828      	ldr	r0, [r5, #0]
 80046b2:	6b43      	ldr	r3, [r0, #52]	@ 0x34
 80046b4:	f413 1f00 	tst.w	r3, #2097152	@ 0x200000
 80046b8:	d059      	beq.n	800476e <HAL_SD_ReadBlocks+0x21a>
 80046ba:	2f00      	cmp	r7, #0
 80046bc:	d057      	beq.n	800476e <HAL_SD_ReadBlocks+0x21a>
      data = SDMMC_ReadFIFO(hsd->Instance);
 80046be:	f001 fddb 	bl	8006278 <SDMMC_ReadFIFO>
      *tempbuff = (uint8_t)(data & 0xFFU);
 80046c2:	7020      	strb	r0, [r4, #0]
      *tempbuff = (uint8_t)((data >> 8U) & 0xFFU);
 80046c4:	f3c0 2307 	ubfx	r3, r0, #8, #8
 80046c8:	7063      	strb	r3, [r4, #1]
      *tempbuff = (uint8_t)((data >> 16U) & 0xFFU);
 80046ca:	f3c0 4307 	ubfx	r3, r0, #16, #8
 80046ce:	70a3      	strb	r3, [r4, #2]
      *tempbuff = (uint8_t)((data >> 24U) & 0xFFU);
 80046d0:	0e00      	lsrs	r0, r0, #24
 80046d2:	70e0      	strb	r0, [r4, #3]
      tempbuff++;
 80046d4:	3404      	adds	r4, #4
      dataremaining--;
 80046d6:	3f04      	subs	r7, #4
      if (((HAL_GetTick() - tickstart) >=  Timeout) || (Timeout == 0U))
 80046d8:	f7fc fea2 	bl	8001420 <HAL_GetTick>
 80046dc:	4653      	mov	r3, sl
 80046de:	1ac0      	subs	r0, r0, r3
 80046e0:	4540      	cmp	r0, r8
 80046e2:	d202      	bcs.n	80046ea <HAL_SD_ReadBlocks+0x196>
 80046e4:	f1b8 0f00 	cmp.w	r8, #0
 80046e8:	d1e2      	bne.n	80046b0 <HAL_SD_ReadBlocks+0x15c>
        __HAL_SD_CLEAR_FLAG(hsd, SDMMC_STATIC_FLAGS);
 80046ea:	682b      	ldr	r3, [r5, #0]
 80046ec:	4a29      	ldr	r2, [pc, #164]	@ (8004794 <HAL_SD_ReadBlocks+0x240>)
 80046ee:	639a      	str	r2, [r3, #56]	@ 0x38
        hsd->ErrorCode |= HAL_SD_ERROR_TIMEOUT;
 80046f0:	6bab      	ldr	r3, [r5, #56]	@ 0x38
 80046f2:	f043 4300 	orr.w	r3, r3, #2147483648	@ 0x80000000
 80046f6:	63ab      	str	r3, [r5, #56]	@ 0x38
        hsd->State = HAL_SD_STATE_READY;
 80046f8:	2301      	movs	r3, #1
 80046fa:	f885 3034 	strb.w	r3, [r5, #52]	@ 0x34
        hsd->Context = SD_CONTEXT_NONE;
 80046fe:	2300      	movs	r3, #0
 8004700:	632b      	str	r3, [r5, #48]	@ 0x30
        return HAL_ERROR;
 8004702:	e043      	b.n	800478c <HAL_SD_ReadBlocks+0x238>
        errorstate = SDMMC_CmdStopTransfer(hsd->Instance);
 8004704:	f001 ff2e 	bl	8006564 <SDMMC_CmdStopTransfer>
        if (errorstate != HAL_SD_ERROR_NONE)
 8004708:	4603      	mov	r3, r0
 800470a:	2800      	cmp	r0, #0
 800470c:	d0c3      	beq.n	8004696 <HAL_SD_ReadBlocks+0x142>
          __HAL_SD_CLEAR_FLAG(hsd, SDMMC_STATIC_FLAGS);
 800470e:	682a      	ldr	r2, [r5, #0]
 8004710:	4920      	ldr	r1, [pc, #128]	@ (8004794 <HAL_SD_ReadBlocks+0x240>)
 8004712:	6391      	str	r1, [r2, #56]	@ 0x38
          hsd->ErrorCode |= errorstate;
 8004714:	6baa      	ldr	r2, [r5, #56]	@ 0x38
 8004716:	4313      	orrs	r3, r2
 8004718:	63ab      	str	r3, [r5, #56]	@ 0x38
          hsd->State = HAL_SD_STATE_READY;
 800471a:	2301      	movs	r3, #1
 800471c:	f885 3034 	strb.w	r3, [r5, #52]	@ 0x34
          hsd->Context = SD_CONTEXT_NONE;
 8004720:	2300      	movs	r3, #0
 8004722:	632b      	str	r3, [r5, #48]	@ 0x30
          return HAL_ERROR;
 8004724:	e032      	b.n	800478c <HAL_SD_ReadBlocks+0x238>
      __HAL_SD_CLEAR_FLAG(hsd, SDMMC_STATIC_FLAGS);
 8004726:	4a1b      	ldr	r2, [pc, #108]	@ (8004794 <HAL_SD_ReadBlocks+0x240>)
 8004728:	639a      	str	r2, [r3, #56]	@ 0x38
      hsd->ErrorCode |= HAL_SD_ERROR_DATA_TIMEOUT;
 800472a:	6bab      	ldr	r3, [r5, #56]	@ 0x38
 800472c:	f043 0308 	orr.w	r3, r3, #8
 8004730:	63ab      	str	r3, [r5, #56]	@ 0x38
      hsd->State = HAL_SD_STATE_READY;
 8004732:	2301      	movs	r3, #1
 8004734:	f885 3034 	strb.w	r3, [r5, #52]	@ 0x34
      hsd->Context = SD_CONTEXT_NONE;
 8004738:	2300      	movs	r3, #0
 800473a:	632b      	str	r3, [r5, #48]	@ 0x30
      return HAL_ERROR;
 800473c:	e026      	b.n	800478c <HAL_SD_ReadBlocks+0x238>
      __HAL_SD_CLEAR_FLAG(hsd, SDMMC_STATIC_FLAGS);
 800473e:	4a15      	ldr	r2, [pc, #84]	@ (8004794 <HAL_SD_ReadBlocks+0x240>)
 8004740:	639a      	str	r2, [r3, #56]	@ 0x38
      hsd->ErrorCode |= HAL_SD_ERROR_DATA_CRC_FAIL;
 8004742:	6bab      	ldr	r3, [r5, #56]	@ 0x38
 8004744:	f043 0302 	orr.w	r3, r3, #2
 8004748:	63ab      	str	r3, [r5, #56]	@ 0x38
      hsd->State = HAL_SD_STATE_READY;
 800474a:	2301      	movs	r3, #1
 800474c:	f885 3034 	strb.w	r3, [r5, #52]	@ 0x34
      hsd->Context = SD_CONTEXT_NONE;
 8004750:	2300      	movs	r3, #0
 8004752:	632b      	str	r3, [r5, #48]	@ 0x30
      return HAL_ERROR;
 8004754:	e01a      	b.n	800478c <HAL_SD_ReadBlocks+0x238>
      __HAL_SD_CLEAR_FLAG(hsd, SDMMC_STATIC_FLAGS);
 8004756:	4a0f      	ldr	r2, [pc, #60]	@ (8004794 <HAL_SD_ReadBlocks+0x240>)
 8004758:	639a      	str	r2, [r3, #56]	@ 0x38
      hsd->ErrorCode |= HAL_SD_ERROR_RX_OVERRUN;
 800475a:	6bab      	ldr	r3, [r5, #56]	@ 0x38
 800475c:	f043 0320 	orr.w	r3, r3, #32
 8004760:	63ab      	str	r3, [r5, #56]	@ 0x38
      hsd->State = HAL_SD_STATE_READY;
 8004762:	2301      	movs	r3, #1
 8004764:	f885 3034 	strb.w	r3, [r5, #52]	@ 0x34
      hsd->Context = SD_CONTEXT_NONE;
 8004768:	2300      	movs	r3, #0
 800476a:	632b      	str	r3, [r5, #48]	@ 0x30
      return HAL_ERROR;
 800476c:	e00e      	b.n	800478c <HAL_SD_ReadBlocks+0x238>
    __HAL_SD_CLEAR_FLAG(hsd, SDMMC_STATIC_DATA_FLAGS);
 800476e:	f240 533a 	movw	r3, #1338	@ 0x53a
 8004772:	6383      	str	r3, [r0, #56]	@ 0x38
    hsd->State = HAL_SD_STATE_READY;
 8004774:	2301      	movs	r3, #1
 8004776:	f885 3034 	strb.w	r3, [r5, #52]	@ 0x34
    return HAL_OK;
 800477a:	f04f 0900 	mov.w	r9, #0
 800477e:	e005      	b.n	800478c <HAL_SD_ReadBlocks+0x238>
    hsd->ErrorCode |= HAL_SD_ERROR_BUSY;
 8004780:	6bab      	ldr	r3, [r5, #56]	@ 0x38
 8004782:	f043 5300 	orr.w	r3, r3, #536870912	@ 0x20000000
 8004786:	63ab      	str	r3, [r5, #56]	@ 0x38
    return HAL_ERROR;
 8004788:	f04f 0901 	mov.w	r9, #1
}
 800478c:	4648      	mov	r0, r9
 800478e:	b007      	add	sp, #28
 8004790:	e8bd 8ff0 	ldmia.w	sp!, {r4, r5, r6, r7, r8, r9, sl, fp, pc}
 8004794:	004005ff 	.word	0x004005ff

08004798 <HAL_SD_WriteBlocks>:
{
 8004798:	e92d 4ff0 	stmdb	sp!, {r4, r5, r6, r7, r8, r9, sl, fp, lr}
 800479c:	b089      	sub	sp, #36	@ 0x24
 800479e:	4605      	mov	r5, r0
 80047a0:	460c      	mov	r4, r1
 80047a2:	4616      	mov	r6, r2
 80047a4:	469a      	mov	sl, r3
  uint32_t tickstart = HAL_GetTick();
 80047a6:	f7fc fe3b 	bl	8001420 <HAL_GetTick>
  if (NULL == pData)
 80047aa:	2c00      	cmp	r4, #0
 80047ac:	d036      	beq.n	800481c <HAL_SD_WriteBlocks+0x84>
 80047ae:	4681      	mov	r9, r0
  if (hsd->State == HAL_SD_STATE_READY)
 80047b0:	f895 3034 	ldrb.w	r3, [r5, #52]	@ 0x34
 80047b4:	fa5f f883 	uxtb.w	r8, r3
 80047b8:	2b01      	cmp	r3, #1
 80047ba:	f040 80df 	bne.w	800497c <HAL_SD_WriteBlocks+0x1e4>
    hsd->ErrorCode = HAL_SD_ERROR_NONE;
 80047be:	2300      	movs	r3, #0
 80047c0:	63ab      	str	r3, [r5, #56]	@ 0x38
    if ((add + NumberOfBlocks) > (hsd->SdCard.LogBlockNbr))
 80047c2:	4653      	mov	r3, sl
 80047c4:	18f3      	adds	r3, r6, r3
 80047c6:	6dea      	ldr	r2, [r5, #92]	@ 0x5c
 80047c8:	4293      	cmp	r3, r2
 80047ca:	d82e      	bhi.n	800482a <HAL_SD_WriteBlocks+0x92>
    hsd->State = HAL_SD_STATE_BUSY;
 80047cc:	2303      	movs	r3, #3
 80047ce:	f885 3034 	strb.w	r3, [r5, #52]	@ 0x34
    hsd->Instance->DCTRL = 0U;
 80047d2:	682b      	ldr	r3, [r5, #0]
 80047d4:	2200      	movs	r2, #0
 80047d6:	62da      	str	r2, [r3, #44]	@ 0x2c
    if (hsd->SdCard.CardType != CARD_SDHC_SDXC)
 80047d8:	6c6b      	ldr	r3, [r5, #68]	@ 0x44
 80047da:	2b01      	cmp	r3, #1
 80047dc:	d000      	beq.n	80047e0 <HAL_SD_WriteBlocks+0x48>
      add *= 512U;
 80047de:	0276      	lsls	r6, r6, #9
    config.DataTimeOut   = SDMMC_DATATIMEOUT;
 80047e0:	f04f 33ff 	mov.w	r3, #4294967295	@ 0xffffffff
 80047e4:	9302      	str	r3, [sp, #8]
    config.DataLength    = NumberOfBlocks * BLOCKSIZE;
 80047e6:	4657      	mov	r7, sl
 80047e8:	027b      	lsls	r3, r7, #9
 80047ea:	9303      	str	r3, [sp, #12]
    config.DataBlockSize = SDMMC_DATABLOCK_SIZE_512B;
 80047ec:	2390      	movs	r3, #144	@ 0x90
 80047ee:	9304      	str	r3, [sp, #16]
    config.TransferDir   = SDMMC_TRANSFER_DIR_TO_CARD;
 80047f0:	2300      	movs	r3, #0
 80047f2:	9305      	str	r3, [sp, #20]
    config.TransferMode  = SDMMC_TRANSFER_MODE_BLOCK;
 80047f4:	9306      	str	r3, [sp, #24]
    config.DPSM          = SDMMC_DPSM_ENABLE;
 80047f6:	2301      	movs	r3, #1
 80047f8:	9307      	str	r3, [sp, #28]
    (void)SDMMC_ConfigData(hsd->Instance, &config);
 80047fa:	a902      	add	r1, sp, #8
 80047fc:	6828      	ldr	r0, [r5, #0]
 80047fe:	f001 fd69 	bl	80062d4 <SDMMC_ConfigData>
    if (NumberOfBlocks > 1U)
 8004802:	2f01      	cmp	r7, #1
 8004804:	d916      	bls.n	8004834 <HAL_SD_WriteBlocks+0x9c>
      hsd->Context = SD_CONTEXT_WRITE_MULTIPLE_BLOCK;
 8004806:	2320      	movs	r3, #32
 8004808:	632b      	str	r3, [r5, #48]	@ 0x30
      errorstate = SDMMC_CmdWriteMultiBlock(hsd->Instance, add);
 800480a:	4631      	mov	r1, r6
 800480c:	6828      	ldr	r0, [r5, #0]
 800480e:	f001 fe91 	bl	8006534 <SDMMC_CmdWriteMultiBlock>
 8004812:	4683      	mov	fp, r0
    if (errorstate != HAL_SD_ERROR_NONE)
 8004814:	465b      	mov	r3, fp
 8004816:	b9ab      	cbnz	r3, 8004844 <HAL_SD_WriteBlocks+0xac>
    dataremaining = config.DataLength;
 8004818:	9f03      	ldr	r7, [sp, #12]
    while (!__HAL_SD_GET_FLAG(hsd,
 800481a:	e028      	b.n	800486e <HAL_SD_WriteBlocks+0xd6>
    hsd->ErrorCode |= HAL_SD_ERROR_PARAM;
 800481c:	6bab      	ldr	r3, [r5, #56]	@ 0x38
 800481e:	f043 6300 	orr.w	r3, r3, #134217728	@ 0x8000000
 8004822:	63ab      	str	r3, [r5, #56]	@ 0x38
    return HAL_ERROR;
 8004824:	f04f 0801 	mov.w	r8, #1
 8004828:	e0ae      	b.n	8004988 <HAL_SD_WriteBlocks+0x1f0>
      hsd->ErrorCode |= HAL_SD_ERROR_ADDR_OUT_OF_RANGE;
 800482a:	6bab      	ldr	r3, [r5, #56]	@ 0x38
 800482c:	f043 7300 	orr.w	r3, r3, #33554432	@ 0x2000000
 8004830:	63ab      	str	r3, [r5, #56]	@ 0x38
      return HAL_ERROR;
 8004832:	e0a9      	b.n	8004988 <HAL_SD_WriteBlocks+0x1f0>
      hsd->Context = SD_CONTEXT_WRITE_SINGLE_BLOCK;
 8004834:	2310      	movs	r3, #16
 8004836:	632b      	str	r3, [r5, #48]	@ 0x30
      errorstate = SDMMC_CmdWriteSingleBlock(hsd->Instance, add);
 8004838:	4631      	mov	r1, r6
 800483a:	6828      	ldr	r0, [r5, #0]
 800483c:	f001 fe62 	bl	8006504 <SDMMC_CmdWriteSingleBlock>
 8004840:	4683      	mov	fp, r0
 8004842:	e7e7      	b.n	8004814 <HAL_SD_WriteBlocks+0x7c>
      __HAL_SD_CLEAR_FLAG(hsd, SDMMC_STATIC_FLAGS);
 8004844:	682b      	ldr	r3, [r5, #0]
 8004846:	4a52      	ldr	r2, [pc, #328]	@ (8004990 <HAL_SD_WriteBlocks+0x1f8>)
 8004848:	639a      	str	r2, [r3, #56]	@ 0x38
      hsd->ErrorCode |= errorstate;
 800484a:	6bab      	ldr	r3, [r5, #56]	@ 0x38
 800484c:	465a      	mov	r2, fp
 800484e:	4313      	orrs	r3, r2
 8004850:	63ab      	str	r3, [r5, #56]	@ 0x38
      hsd->State = HAL_SD_STATE_READY;
 8004852:	2301      	movs	r3, #1
 8004854:	f885 3034 	strb.w	r3, [r5, #52]	@ 0x34
      hsd->Context = SD_CONTEXT_NONE;
 8004858:	2300      	movs	r3, #0
 800485a:	632b      	str	r3, [r5, #48]	@ 0x30
      return HAL_ERROR;
 800485c:	e094      	b.n	8004988 <HAL_SD_WriteBlocks+0x1f0>
      if (((HAL_GetTick() - tickstart) >=  Timeout) || (Timeout == 0U))
 800485e:	f7fc fddf 	bl	8001420 <HAL_GetTick>
 8004862:	464b      	mov	r3, r9
 8004864:	1ac0      	subs	r0, r0, r3
 8004866:	9b12      	ldr	r3, [sp, #72]	@ 0x48
 8004868:	4298      	cmp	r0, r3
 800486a:	d223      	bcs.n	80048b4 <HAL_SD_WriteBlocks+0x11c>
 800486c:	b313      	cbz	r3, 80048b4 <HAL_SD_WriteBlocks+0x11c>
    while (!__HAL_SD_GET_FLAG(hsd,
 800486e:	6828      	ldr	r0, [r5, #0]
 8004870:	6b46      	ldr	r6, [r0, #52]	@ 0x34
 8004872:	f416 768d 	ands.w	r6, r6, #282	@ 0x11a
 8004876:	d12c      	bne.n	80048d2 <HAL_SD_WriteBlocks+0x13a>
      if (__HAL_SD_GET_FLAG(hsd, SDMMC_FLAG_TXFIFOHE) && (dataremaining > 0U))
 8004878:	6b43      	ldr	r3, [r0, #52]	@ 0x34
 800487a:	f413 4f80 	tst.w	r3, #16384	@ 0x4000
 800487e:	d0ee      	beq.n	800485e <HAL_SD_WriteBlocks+0xc6>
 8004880:	2f00      	cmp	r7, #0
 8004882:	d0ec      	beq.n	800485e <HAL_SD_WriteBlocks+0xc6>
        for (count = 0U; count < 8U; count++)
 8004884:	2e07      	cmp	r6, #7
 8004886:	d8ea      	bhi.n	800485e <HAL_SD_WriteBlocks+0xc6>
          data = (uint32_t)(*tempbuff);
 8004888:	7823      	ldrb	r3, [r4, #0]
 800488a:	9301      	str	r3, [sp, #4]
          data |= ((uint32_t)(*tempbuff) << 8U);
 800488c:	7862      	ldrb	r2, [r4, #1]
 800488e:	ea43 2302 	orr.w	r3, r3, r2, lsl #8
 8004892:	9301      	str	r3, [sp, #4]
          data |= ((uint32_t)(*tempbuff) << 16U);
 8004894:	78a2      	ldrb	r2, [r4, #2]
 8004896:	ea43 4302 	orr.w	r3, r3, r2, lsl #16
 800489a:	9301      	str	r3, [sp, #4]
          data |= ((uint32_t)(*tempbuff) << 24U);
 800489c:	78e2      	ldrb	r2, [r4, #3]
 800489e:	ea43 6302 	orr.w	r3, r3, r2, lsl #24
 80048a2:	9301      	str	r3, [sp, #4]
          tempbuff++;
 80048a4:	3404      	adds	r4, #4
          dataremaining--;
 80048a6:	3f04      	subs	r7, #4
          (void)SDMMC_WriteFIFO(hsd->Instance, &data);
 80048a8:	a901      	add	r1, sp, #4
 80048aa:	6828      	ldr	r0, [r5, #0]
 80048ac:	f001 fce7 	bl	800627e <SDMMC_WriteFIFO>
        for (count = 0U; count < 8U; count++)
 80048b0:	3601      	adds	r6, #1
 80048b2:	e7e7      	b.n	8004884 <HAL_SD_WriteBlocks+0xec>
        __HAL_SD_CLEAR_FLAG(hsd, SDMMC_STATIC_FLAGS);
 80048b4:	682b      	ldr	r3, [r5, #0]
 80048b6:	4a36      	ldr	r2, [pc, #216]	@ (8004990 <HAL_SD_WriteBlocks+0x1f8>)
 80048b8:	639a      	str	r2, [r3, #56]	@ 0x38
        hsd->ErrorCode |= errorstate;
 80048ba:	6bab      	ldr	r3, [r5, #56]	@ 0x38
 80048bc:	465a      	mov	r2, fp
 80048be:	4313      	orrs	r3, r2
 80048c0:	63ab      	str	r3, [r5, #56]	@ 0x38
        hsd->State = HAL_SD_STATE_READY;
 80048c2:	2301      	movs	r3, #1
 80048c4:	f885 3034 	strb.w	r3, [r5, #52]	@ 0x34
        hsd->Context = SD_CONTEXT_NONE;
 80048c8:	2300      	movs	r3, #0
 80048ca:	632b      	str	r3, [r5, #48]	@ 0x30
        return HAL_TIMEOUT;
 80048cc:	f04f 0803 	mov.w	r8, #3
 80048d0:	e05a      	b.n	8004988 <HAL_SD_WriteBlocks+0x1f0>
    if (__HAL_SD_GET_FLAG(hsd, SDMMC_FLAG_DATAEND) && (NumberOfBlocks > 1U))
 80048d2:	6b43      	ldr	r3, [r0, #52]	@ 0x34
 80048d4:	f413 7f80 	tst.w	r3, #256	@ 0x100
 80048d8:	d005      	beq.n	80048e6 <HAL_SD_WriteBlocks+0x14e>
 80048da:	4653      	mov	r3, sl
 80048dc:	2b01      	cmp	r3, #1
 80048de:	d902      	bls.n	80048e6 <HAL_SD_WriteBlocks+0x14e>
      if (hsd->SdCard.CardType != CARD_SECURED)
 80048e0:	6c6b      	ldr	r3, [r5, #68]	@ 0x44
 80048e2:	2b03      	cmp	r3, #3
 80048e4:	d118      	bne.n	8004918 <HAL_SD_WriteBlocks+0x180>
    if (__HAL_SD_GET_FLAG(hsd, SDMMC_FLAG_DTIMEOUT))
 80048e6:	682b      	ldr	r3, [r5, #0]
 80048e8:	6b5a      	ldr	r2, [r3, #52]	@ 0x34
 80048ea:	f012 0f08 	tst.w	r2, #8
 80048ee:	d124      	bne.n	800493a <HAL_SD_WriteBlocks+0x1a2>
    else if (__HAL_SD_GET_FLAG(hsd, SDMMC_FLAG_DCRCFAIL))
 80048f0:	6b5a      	ldr	r2, [r3, #52]	@ 0x34
 80048f2:	f012 0f02 	tst.w	r2, #2
 80048f6:	d12c      	bne.n	8004952 <HAL_SD_WriteBlocks+0x1ba>
    else if (__HAL_SD_GET_FLAG(hsd, SDMMC_FLAG_TXUNDERR))
 80048f8:	6b5a      	ldr	r2, [r3, #52]	@ 0x34
 80048fa:	f012 0f10 	tst.w	r2, #16
 80048fe:	d034      	beq.n	800496a <HAL_SD_WriteBlocks+0x1d2>
      __HAL_SD_CLEAR_FLAG(hsd, SDMMC_STATIC_FLAGS);
 8004900:	4a23      	ldr	r2, [pc, #140]	@ (8004990 <HAL_SD_WriteBlocks+0x1f8>)
 8004902:	639a      	str	r2, [r3, #56]	@ 0x38
      hsd->ErrorCode |= HAL_SD_ERROR_TX_UNDERRUN;
 8004904:	6bab      	ldr	r3, [r5, #56]	@ 0x38
 8004906:	f043 0310 	orr.w	r3, r3, #16
 800490a:	63ab      	str	r3, [r5, #56]	@ 0x38
      hsd->State = HAL_SD_STATE_READY;
 800490c:	2301      	movs	r3, #1
 800490e:	f885 3034 	strb.w	r3, [r5, #52]	@ 0x34
      hsd->Context = SD_CONTEXT_NONE;
 8004912:	2300      	movs	r3, #0
 8004914:	632b      	str	r3, [r5, #48]	@ 0x30
      return HAL_ERROR;
 8004916:	e037      	b.n	8004988 <HAL_SD_WriteBlocks+0x1f0>
        errorstate = SDMMC_CmdStopTransfer(hsd->Instance);
 8004918:	f001 fe24 	bl	8006564 <SDMMC_CmdStopTransfer>
        if (errorstate != HAL_SD_ERROR_NONE)
 800491c:	4603      	mov	r3, r0
 800491e:	2800      	cmp	r0, #0
 8004920:	d0e1      	beq.n	80048e6 <HAL_SD_WriteBlocks+0x14e>
          __HAL_SD_CLEAR_FLAG(hsd, SDMMC_STATIC_FLAGS);
 8004922:	682a      	ldr	r2, [r5, #0]
 8004924:	491a      	ldr	r1, [pc, #104]	@ (8004990 <HAL_SD_WriteBlocks+0x1f8>)
 8004926:	6391      	str	r1, [r2, #56]	@ 0x38
          hsd->ErrorCode |= errorstate;
 8004928:	6baa      	ldr	r2, [r5, #56]	@ 0x38
 800492a:	4313      	orrs	r3, r2
 800492c:	63ab      	str	r3, [r5, #56]	@ 0x38
          hsd->State = HAL_SD_STATE_READY;
 800492e:	2301      	movs	r3, #1
 8004930:	f885 3034 	strb.w	r3, [r5, #52]	@ 0x34
          hsd->Context = SD_CONTEXT_NONE;
 8004934:	2300      	movs	r3, #0
 8004936:	632b      	str	r3, [r5, #48]	@ 0x30
          return HAL_ERROR;
 8004938:	e026      	b.n	8004988 <HAL_SD_WriteBlocks+0x1f0>
      __HAL_SD_CLEAR_FLAG(hsd, SDMMC_STATIC_FLAGS);
 800493a:	4a15      	ldr	r2, [pc, #84]	@ (8004990 <HAL_SD_WriteBlocks+0x1f8>)
 800493c:	639a      	str	r2, [r3, #56]	@ 0x38
      hsd->ErrorCode |= HAL_SD_ERROR_DATA_TIMEOUT;
 800493e:	6bab      	ldr	r3, [r5, #56]	@ 0x38
 8004940:	f043 0308 	orr.w	r3, r3, #8
 8004944:	63ab      	str	r3, [r5, #56]	@ 0x38
      hsd->State = HAL_SD_STATE_READY;
 8004946:	2301      	movs	r3, #1
 8004948:	f885 3034 	strb.w	r3, [r5, #52]	@ 0x34
      hsd->Context = SD_CONTEXT_NONE;
 800494c:	2300      	movs	r3, #0
 800494e:	632b      	str	r3, [r5, #48]	@ 0x30
      return HAL_ERROR;
 8004950:	e01a      	b.n	8004988 <HAL_SD_WriteBlocks+0x1f0>
      __HAL_SD_CLEAR_FLAG(hsd, SDMMC_STATIC_FLAGS);
 8004952:	4a0f      	ldr	r2, [pc, #60]	@ (8004990 <HAL_SD_WriteBlocks+0x1f8>)
 8004954:	639a      	str	r2, [r3, #56]	@ 0x38
      hsd->ErrorCode |= HAL_SD_ERROR_DATA_CRC_FAIL;
 8004956:	6bab      	ldr	r3, [r5, #56]	@ 0x38
 8004958:	f043 0302 	orr.w	r3, r3, #2
 800495c:	63ab      	str	r3, [r5, #56]	@ 0x38
      hsd->State = HAL_SD_STATE_READY;
 800495e:	2301      	movs	r3, #1
 8004960:	f885 3034 	strb.w	r3, [r5, #52]	@ 0x34
      hsd->Context = SD_CONTEXT_NONE;
 8004964:	2300      	movs	r3, #0
 8004966:	632b      	str	r3, [r5, #48]	@ 0x30
      return HAL_ERROR;
 8004968:	e00e      	b.n	8004988 <HAL_SD_WriteBlocks+0x1f0>
    __HAL_SD_CLEAR_FLAG(hsd, SDMMC_STATIC_DATA_FLAGS);
 800496a:	f240 523a 	movw	r2, #1338	@ 0x53a
 800496e:	639a      	str	r2, [r3, #56]	@ 0x38
    hsd->State = HAL_SD_STATE_READY;
 8004970:	2301      	movs	r3, #1
 8004972:	f885 3034 	strb.w	r3, [r5, #52]	@ 0x34
    return HAL_OK;
 8004976:	f04f 0800 	mov.w	r8, #0
 800497a:	e005      	b.n	8004988 <HAL_SD_WriteBlocks+0x1f0>
    hsd->ErrorCode |= HAL_SD_ERROR_BUSY;
 800497c:	6bab      	ldr	r3, [r5, #56]	@ 0x38
 800497e:	f043 5300 	orr.w	r3, r3, #536870912	@ 0x20000000
 8004982:	63ab      	str	r3, [r5, #56]	@ 0x38
    return HAL_ERROR;
 8004984:	f04f 0801 	mov.w	r8, #1
}
 8004988:	4640      	mov	r0, r8
 800498a:	b009      	add	sp, #36	@ 0x24
 800498c:	e8bd 8ff0 	ldmia.w	sp!, {r4, r5, r6, r7, r8, r9, sl, fp, pc}
 8004990:	004005ff 	.word	0x004005ff

08004994 <HAL_SD_AbortCallback>:
}
 8004994:	4770      	bx	lr
	...

08004998 <HAL_SD_GetCardCSD>:
{
 8004998:	4603      	mov	r3, r0
  pCSD->CSDStruct = (uint8_t)((hsd->CSD[0] & 0xC0000000U) >> 30U);
 800499a:	6e42      	ldr	r2, [r0, #100]	@ 0x64
 800499c:	0f92      	lsrs	r2, r2, #30
 800499e:	700a      	strb	r2, [r1, #0]
  pCSD->SysSpecVersion = (uint8_t)((hsd->CSD[0] & 0x3C000000U) >> 26U);
 80049a0:	6e42      	ldr	r2, [r0, #100]	@ 0x64
 80049a2:	f3c2 6283 	ubfx	r2, r2, #26, #4
 80049a6:	704a      	strb	r2, [r1, #1]
  pCSD->Reserved1 = (uint8_t)((hsd->CSD[0] & 0x03000000U) >> 24U);
 80049a8:	f890 2067 	ldrb.w	r2, [r0, #103]	@ 0x67
 80049ac:	f002 0203 	and.w	r2, r2, #3
 80049b0:	708a      	strb	r2, [r1, #2]
  pCSD->TAAC = (uint8_t)((hsd->CSD[0] & 0x00FF0000U) >> 16U);
 80049b2:	f890 2066 	ldrb.w	r2, [r0, #102]	@ 0x66
 80049b6:	70ca      	strb	r2, [r1, #3]
  pCSD->NSAC = (uint8_t)((hsd->CSD[0] & 0x0000FF00U) >> 8U);
 80049b8:	f890 2065 	ldrb.w	r2, [r0, #101]	@ 0x65
 80049bc:	710a      	strb	r2, [r1, #4]
  pCSD->MaxBusClkFrec = (uint8_t)(hsd->CSD[0] & 0x000000FFU);
 80049be:	f890 2064 	ldrb.w	r2, [r0, #100]	@ 0x64
 80049c2:	714a      	strb	r2, [r1, #5]
  pCSD->CardComdClasses = (uint16_t)((hsd->CSD[1] & 0xFFF00000U) >> 20U);
 80049c4:	6e82      	ldr	r2, [r0, #104]	@ 0x68
 80049c6:	0d12      	lsrs	r2, r2, #20
 80049c8:	80ca      	strh	r2, [r1, #6]
  pCSD->RdBlockLen = (uint8_t)((hsd->CSD[1] & 0x000F0000U) >> 16U);
 80049ca:	f8b0 206a 	ldrh.w	r2, [r0, #106]	@ 0x6a
 80049ce:	f002 020f 	and.w	r2, r2, #15
 80049d2:	720a      	strb	r2, [r1, #8]
  pCSD->PartBlockRead   = (uint8_t)((hsd->CSD[1] & 0x00008000U) >> 15U);
 80049d4:	6e82      	ldr	r2, [r0, #104]	@ 0x68
 80049d6:	f3c2 32c0 	ubfx	r2, r2, #15, #1
 80049da:	724a      	strb	r2, [r1, #9]
  pCSD->WrBlockMisalign = (uint8_t)((hsd->CSD[1] & 0x00004000U) >> 14U);
 80049dc:	6e82      	ldr	r2, [r0, #104]	@ 0x68
 80049de:	f3c2 3280 	ubfx	r2, r2, #14, #1
 80049e2:	728a      	strb	r2, [r1, #10]
  pCSD->RdBlockMisalign = (uint8_t)((hsd->CSD[1] & 0x00002000U) >> 13U);
 80049e4:	6e82      	ldr	r2, [r0, #104]	@ 0x68
 80049e6:	f3c2 3240 	ubfx	r2, r2, #13, #1
 80049ea:	72ca      	strb	r2, [r1, #11]
  pCSD->DSRImpl = (uint8_t)((hsd->CSD[1] & 0x00001000U) >> 12U);
 80049ec:	6e82      	ldr	r2, [r0, #104]	@ 0x68
 80049ee:	f3c2 3200 	ubfx	r2, r2, #12, #1
 80049f2:	730a      	strb	r2, [r1, #12]
  pCSD->Reserved2 = 0U; /*!< Reserved */
 80049f4:	2200      	movs	r2, #0
 80049f6:	734a      	strb	r2, [r1, #13]
  if (hsd->SdCard.CardType == CARD_SDSC)
 80049f8:	6c42      	ldr	r2, [r0, #68]	@ 0x44
 80049fa:	2a00      	cmp	r2, #0
 80049fc:	f040 8086 	bne.w	8004b0c <HAL_SD_GetCardCSD+0x174>
    pCSD->DeviceSize = (((hsd->CSD[1] & 0x000003FFU) << 2U) | ((hsd->CSD[2] & 0xC0000000U) >> 30U));
 8004a00:	6e80      	ldr	r0, [r0, #104]	@ 0x68
 8004a02:	f640 72fc 	movw	r2, #4092	@ 0xffc
 8004a06:	ea02 0280 	and.w	r2, r2, r0, lsl #2
 8004a0a:	6ed8      	ldr	r0, [r3, #108]	@ 0x6c
 8004a0c:	ea42 7290 	orr.w	r2, r2, r0, lsr #30
 8004a10:	610a      	str	r2, [r1, #16]
    pCSD->MaxRdCurrentVDDMin = (uint8_t)((hsd->CSD[2] & 0x38000000U) >> 27U);
 8004a12:	6eda      	ldr	r2, [r3, #108]	@ 0x6c
 8004a14:	f3c2 62c2 	ubfx	r2, r2, #27, #3
 8004a18:	750a      	strb	r2, [r1, #20]
    pCSD->MaxRdCurrentVDDMax = (uint8_t)((hsd->CSD[2] & 0x07000000U) >> 24U);
 8004a1a:	f893 206f 	ldrb.w	r2, [r3, #111]	@ 0x6f
 8004a1e:	f002 0207 	and.w	r2, r2, #7
 8004a22:	754a      	strb	r2, [r1, #21]
    pCSD->MaxWrCurrentVDDMin = (uint8_t)((hsd->CSD[2] & 0x00E00000U) >> 21U);
 8004a24:	6eda      	ldr	r2, [r3, #108]	@ 0x6c
 8004a26:	f3c2 5242 	ubfx	r2, r2, #21, #3
 8004a2a:	758a      	strb	r2, [r1, #22]
    pCSD->MaxWrCurrentVDDMax = (uint8_t)((hsd->CSD[2] & 0x001C0000U) >> 18U);
 8004a2c:	6eda      	ldr	r2, [r3, #108]	@ 0x6c
 8004a2e:	f3c2 4282 	ubfx	r2, r2, #18, #3
 8004a32:	75ca      	strb	r2, [r1, #23]
    pCSD->DeviceSizeMul = (uint8_t)((hsd->CSD[2] & 0x00038000U) >> 15U);
 8004a34:	6eda      	ldr	r2, [r3, #108]	@ 0x6c
 8004a36:	f3c2 32c2 	ubfx	r2, r2, #15, #3
 8004a3a:	760a      	strb	r2, [r1, #24]
    hsd->SdCard.BlockNbr  = (pCSD->DeviceSize + 1U) ;
 8004a3c:	690a      	ldr	r2, [r1, #16]
 8004a3e:	3201      	adds	r2, #1
 8004a40:	655a      	str	r2, [r3, #84]	@ 0x54
    hsd->SdCard.BlockNbr *= (1UL << ((pCSD->DeviceSizeMul & 0x07U) + 2U));
 8004a42:	7e08      	ldrb	r0, [r1, #24]
 8004a44:	f000 0007 	and.w	r0, r0, #7
 8004a48:	3002      	adds	r0, #2
 8004a4a:	4082      	lsls	r2, r0
 8004a4c:	655a      	str	r2, [r3, #84]	@ 0x54
    hsd->SdCard.BlockSize = (1UL << (pCSD->RdBlockLen & 0x0FU));
 8004a4e:	f891 c008 	ldrb.w	ip, [r1, #8]
 8004a52:	f00c 0c0f 	and.w	ip, ip, #15
 8004a56:	2001      	movs	r0, #1
 8004a58:	fa00 f00c 	lsl.w	r0, r0, ip
 8004a5c:	6598      	str	r0, [r3, #88]	@ 0x58
    hsd->SdCard.LogBlockNbr = (hsd->SdCard.BlockNbr) * ((hsd->SdCard.BlockSize) / 512U);
 8004a5e:	0a40      	lsrs	r0, r0, #9
 8004a60:	fb00 f202 	mul.w	r2, r0, r2
 8004a64:	65da      	str	r2, [r3, #92]	@ 0x5c
    hsd->SdCard.LogBlockSize = 512U;
 8004a66:	f44f 7200 	mov.w	r2, #512	@ 0x200
 8004a6a:	661a      	str	r2, [r3, #96]	@ 0x60
  pCSD->EraseGrSize = (uint8_t)((hsd->CSD[2] & 0x00004000U) >> 14U);
 8004a6c:	6eda      	ldr	r2, [r3, #108]	@ 0x6c
 8004a6e:	f3c2 3280 	ubfx	r2, r2, #14, #1
 8004a72:	764a      	strb	r2, [r1, #25]
  pCSD->EraseGrMul = (uint8_t)((hsd->CSD[2] & 0x00003F80U) >> 7U);
 8004a74:	6eda      	ldr	r2, [r3, #108]	@ 0x6c
 8004a76:	f3c2 12c6 	ubfx	r2, r2, #7, #7
 8004a7a:	768a      	strb	r2, [r1, #26]
  pCSD->WrProtectGrSize = (uint8_t)(hsd->CSD[2] & 0x0000007FU);
 8004a7c:	6eda      	ldr	r2, [r3, #108]	@ 0x6c
 8004a7e:	f002 027f 	and.w	r2, r2, #127	@ 0x7f
 8004a82:	76ca      	strb	r2, [r1, #27]
  pCSD->WrProtectGrEnable = (uint8_t)((hsd->CSD[3] & 0x80000000U) >> 31U);
 8004a84:	6f1a      	ldr	r2, [r3, #112]	@ 0x70
 8004a86:	0fd2      	lsrs	r2, r2, #31
 8004a88:	770a      	strb	r2, [r1, #28]
  pCSD->ManDeflECC = (uint8_t)((hsd->CSD[3] & 0x60000000U) >> 29U);
 8004a8a:	6f1a      	ldr	r2, [r3, #112]	@ 0x70
 8004a8c:	f3c2 7241 	ubfx	r2, r2, #29, #2
 8004a90:	774a      	strb	r2, [r1, #29]
  pCSD->WrSpeedFact = (uint8_t)((hsd->CSD[3] & 0x1C000000U) >> 26U);
 8004a92:	6f1a      	ldr	r2, [r3, #112]	@ 0x70
 8004a94:	f3c2 6282 	ubfx	r2, r2, #26, #3
 8004a98:	778a      	strb	r2, [r1, #30]
  pCSD->MaxWrBlockLen = (uint8_t)((hsd->CSD[3] & 0x03C00000U) >> 22U);
 8004a9a:	6f1a      	ldr	r2, [r3, #112]	@ 0x70
 8004a9c:	f3c2 5283 	ubfx	r2, r2, #22, #4
 8004aa0:	77ca      	strb	r2, [r1, #31]
  pCSD->WriteBlockPaPartial = (uint8_t)((hsd->CSD[3] & 0x00200000U) >> 21U);
 8004aa2:	6f1a      	ldr	r2, [r3, #112]	@ 0x70
 8004aa4:	f3c2 5240 	ubfx	r2, r2, #21, #1
 8004aa8:	f881 2020 	strb.w	r2, [r1, #32]
  pCSD->Reserved3 = 0;
 8004aac:	2000      	movs	r0, #0
 8004aae:	f881 0021 	strb.w	r0, [r1, #33]	@ 0x21
  pCSD->ContentProtectAppli = (uint8_t)((hsd->CSD[3] & 0x00010000U) >> 16U);
 8004ab2:	f8b3 2072 	ldrh.w	r2, [r3, #114]	@ 0x72
 8004ab6:	f002 0201 	and.w	r2, r2, #1
 8004aba:	f881 2022 	strb.w	r2, [r1, #34]	@ 0x22
  pCSD->FileFormatGroup = (uint8_t)((hsd->CSD[3] & 0x00008000U) >> 15U);
 8004abe:	6f1a      	ldr	r2, [r3, #112]	@ 0x70
 8004ac0:	f3c2 32c0 	ubfx	r2, r2, #15, #1
 8004ac4:	f881 2023 	strb.w	r2, [r1, #35]	@ 0x23
  pCSD->CopyFlag = (uint8_t)((hsd->CSD[3] & 0x00004000U) >> 14U);
 8004ac8:	6f1a      	ldr	r2, [r3, #112]	@ 0x70
 8004aca:	f3c2 3280 	ubfx	r2, r2, #14, #1
 8004ace:	f881 2024 	strb.w	r2, [r1, #36]	@ 0x24
  pCSD->PermWrProtect = (uint8_t)((hsd->CSD[3] & 0x00002000U) >> 13U);
 8004ad2:	6f1a      	ldr	r2, [r3, #112]	@ 0x70
 8004ad4:	f3c2 3240 	ubfx	r2, r2, #13, #1
 8004ad8:	f881 2025 	strb.w	r2, [r1, #37]	@ 0x25
  pCSD->TempWrProtect = (uint8_t)((hsd->CSD[3] & 0x00001000U) >> 12U);
 8004adc:	6f1a      	ldr	r2, [r3, #112]	@ 0x70
 8004ade:	f3c2 3200 	ubfx	r2, r2, #12, #1
 8004ae2:	f881 2026 	strb.w	r2, [r1, #38]	@ 0x26
  pCSD->FileFormat = (uint8_t)((hsd->CSD[3] & 0x00000C00U) >> 10U);
 8004ae6:	6f1a      	ldr	r2, [r3, #112]	@ 0x70
 8004ae8:	f3c2 2281 	ubfx	r2, r2, #10, #2
 8004aec:	f881 2027 	strb.w	r2, [r1, #39]	@ 0x27
  pCSD->ECC = (uint8_t)((hsd->CSD[3] & 0x00000300U) >> 8U);
 8004af0:	6f1a      	ldr	r2, [r3, #112]	@ 0x70
 8004af2:	f3c2 2201 	ubfx	r2, r2, #8, #2
 8004af6:	f881 2028 	strb.w	r2, [r1, #40]	@ 0x28
  pCSD->CSD_CRC = (uint8_t)((hsd->CSD[3] & 0x000000FEU) >> 1U);
 8004afa:	6f1b      	ldr	r3, [r3, #112]	@ 0x70
 8004afc:	f3c3 0346 	ubfx	r3, r3, #1, #7
 8004b00:	f881 3029 	strb.w	r3, [r1, #41]	@ 0x29
  pCSD->Reserved4 = 1;
 8004b04:	2301      	movs	r3, #1
 8004b06:	f881 302a 	strb.w	r3, [r1, #42]	@ 0x2a
}
 8004b0a:	4770      	bx	lr
  else if (hsd->SdCard.CardType == CARD_SDHC_SDXC)
 8004b0c:	2a01      	cmp	r2, #1
 8004b0e:	d111      	bne.n	8004b34 <HAL_SD_GetCardCSD+0x19c>
    pCSD->DeviceSize = (((hsd->CSD[1] & 0x0000003FU) << 16U) | ((hsd->CSD[2] & 0xFFFF0000U) >> 16U));
 8004b10:	6e82      	ldr	r2, [r0, #104]	@ 0x68
 8004b12:	0412      	lsls	r2, r2, #16
 8004b14:	f402 127c 	and.w	r2, r2, #4128768	@ 0x3f0000
 8004b18:	f8b0 006e 	ldrh.w	r0, [r0, #110]	@ 0x6e
 8004b1c:	4302      	orrs	r2, r0
 8004b1e:	610a      	str	r2, [r1, #16]
    hsd->SdCard.BlockNbr = ((pCSD->DeviceSize + 1U) * 1024U);
 8004b20:	690a      	ldr	r2, [r1, #16]
 8004b22:	3201      	adds	r2, #1
 8004b24:	0292      	lsls	r2, r2, #10
 8004b26:	655a      	str	r2, [r3, #84]	@ 0x54
    hsd->SdCard.LogBlockNbr = hsd->SdCard.BlockNbr;
 8004b28:	65da      	str	r2, [r3, #92]	@ 0x5c
    hsd->SdCard.BlockSize = 512U;
 8004b2a:	f44f 7200 	mov.w	r2, #512	@ 0x200
 8004b2e:	659a      	str	r2, [r3, #88]	@ 0x58
    hsd->SdCard.LogBlockSize = hsd->SdCard.BlockSize;
 8004b30:	661a      	str	r2, [r3, #96]	@ 0x60
 8004b32:	e79b      	b.n	8004a6c <HAL_SD_GetCardCSD+0xd4>
    __HAL_SD_CLEAR_FLAG(hsd, SDMMC_STATIC_FLAGS);
 8004b34:	6802      	ldr	r2, [r0, #0]
 8004b36:	4905      	ldr	r1, [pc, #20]	@ (8004b4c <HAL_SD_GetCardCSD+0x1b4>)
 8004b38:	6391      	str	r1, [r2, #56]	@ 0x38
    hsd->ErrorCode |= HAL_SD_ERROR_UNSUPPORTED_FEATURE;
 8004b3a:	6b82      	ldr	r2, [r0, #56]	@ 0x38
 8004b3c:	f042 5280 	orr.w	r2, r2, #268435456	@ 0x10000000
 8004b40:	6382      	str	r2, [r0, #56]	@ 0x38
    hsd->State = HAL_SD_STATE_READY;
 8004b42:	2001      	movs	r0, #1
 8004b44:	f883 0034 	strb.w	r0, [r3, #52]	@ 0x34
    return HAL_ERROR;
 8004b48:	4770      	bx	lr
 8004b4a:	bf00      	nop
 8004b4c:	004005ff 	.word	0x004005ff

08004b50 <SD_InitCard>:
{
 8004b50:	b510      	push	{r4, lr}
 8004b52:	b08c      	sub	sp, #48	@ 0x30
 8004b54:	4604      	mov	r4, r0
  uint16_t sd_rca = 1U;
 8004b56:	2301      	movs	r3, #1
 8004b58:	f8ad 3002 	strh.w	r3, [sp, #2]
  if (SDMMC_GetPowerState(hsd->Instance) == 0U)
 8004b5c:	6800      	ldr	r0, [r0, #0]
 8004b5e:	f001 fb9f 	bl	80062a0 <SDMMC_GetPowerState>
 8004b62:	2800      	cmp	r0, #0
 8004b64:	d059      	beq.n	8004c1a <SD_InitCard+0xca>
  if (hsd->SdCard.CardType != CARD_SECURED)
 8004b66:	6c63      	ldr	r3, [r4, #68]	@ 0x44
 8004b68:	2b03      	cmp	r3, #3
 8004b6a:	d134      	bne.n	8004bd6 <SD_InitCard+0x86>
  if (hsd->SdCard.CardType != CARD_SECURED)
 8004b6c:	6c63      	ldr	r3, [r4, #68]	@ 0x44
 8004b6e:	2b03      	cmp	r3, #3
 8004b70:	d14b      	bne.n	8004c0a <SD_InitCard+0xba>
  if (hsd->SdCard.CardType != CARD_SECURED)
 8004b72:	6c63      	ldr	r3, [r4, #68]	@ 0x44
 8004b74:	2b03      	cmp	r3, #3
 8004b76:	d01c      	beq.n	8004bb2 <SD_InitCard+0x62>
    hsd->SdCard.RelCardAdd = sd_rca;
 8004b78:	f8bd 1002 	ldrh.w	r1, [sp, #2]
 8004b7c:	6521      	str	r1, [r4, #80]	@ 0x50
    errorstate = SDMMC_CmdSendCSD(hsd->Instance, (uint32_t)(hsd->SdCard.RelCardAdd << 16U));
 8004b7e:	0409      	lsls	r1, r1, #16
 8004b80:	6820      	ldr	r0, [r4, #0]
 8004b82:	f001 fdc4 	bl	800670e <SDMMC_CmdSendCSD>
    if (errorstate != HAL_SD_ERROR_NONE)
 8004b86:	2800      	cmp	r0, #0
 8004b88:	d149      	bne.n	8004c1e <SD_InitCard+0xce>
      hsd->CSD[0U] = SDMMC_GetResponse(hsd->Instance, SDMMC_RESP1);
 8004b8a:	4601      	mov	r1, r0
 8004b8c:	6820      	ldr	r0, [r4, #0]
 8004b8e:	f001 fb9e 	bl	80062ce <SDMMC_GetResponse>
 8004b92:	6660      	str	r0, [r4, #100]	@ 0x64
      hsd->CSD[1U] = SDMMC_GetResponse(hsd->Instance, SDMMC_RESP2);
 8004b94:	2104      	movs	r1, #4
 8004b96:	6820      	ldr	r0, [r4, #0]
 8004b98:	f001 fb99 	bl	80062ce <SDMMC_GetResponse>
 8004b9c:	66a0      	str	r0, [r4, #104]	@ 0x68
      hsd->CSD[2U] = SDMMC_GetResponse(hsd->Instance, SDMMC_RESP3);
 8004b9e:	2108      	movs	r1, #8
 8004ba0:	6820      	ldr	r0, [r4, #0]
 8004ba2:	f001 fb94 	bl	80062ce <SDMMC_GetResponse>
 8004ba6:	66e0      	str	r0, [r4, #108]	@ 0x6c
      hsd->CSD[3U] = SDMMC_GetResponse(hsd->Instance, SDMMC_RESP4);
 8004ba8:	210c      	movs	r1, #12
 8004baa:	6820      	ldr	r0, [r4, #0]
 8004bac:	f001 fb8f 	bl	80062ce <SDMMC_GetResponse>
 8004bb0:	6720      	str	r0, [r4, #112]	@ 0x70
  hsd->SdCard.Class = (SDMMC_GetResponse(hsd->Instance, SDMMC_RESP2) >> 20U);
 8004bb2:	2104      	movs	r1, #4
 8004bb4:	6820      	ldr	r0, [r4, #0]
 8004bb6:	f001 fb8a 	bl	80062ce <SDMMC_GetResponse>
 8004bba:	0d00      	lsrs	r0, r0, #20
 8004bbc:	64e0      	str	r0, [r4, #76]	@ 0x4c
  if (HAL_SD_GetCardCSD(hsd, &CSD) != HAL_OK)
 8004bbe:	a901      	add	r1, sp, #4
 8004bc0:	4620      	mov	r0, r4
 8004bc2:	f7ff fee9 	bl	8004998 <HAL_SD_GetCardCSD>
 8004bc6:	bb60      	cbnz	r0, 8004c22 <SD_InitCard+0xd2>
  errorstate = SDMMC_CmdSelDesel(hsd->Instance, (uint32_t)(((uint32_t)hsd->SdCard.RelCardAdd) << 16U));
 8004bc8:	6d22      	ldr	r2, [r4, #80]	@ 0x50
 8004bca:	0412      	lsls	r2, r2, #16
 8004bcc:	4603      	mov	r3, r0
 8004bce:	6820      	ldr	r0, [r4, #0]
 8004bd0:	f001 fce2 	bl	8006598 <SDMMC_CmdSelDesel>
  if (errorstate != HAL_SD_ERROR_NONE)
 8004bd4:	e023      	b.n	8004c1e <SD_InitCard+0xce>
    errorstate = SDMMC_CmdSendCID(hsd->Instance);
 8004bd6:	6820      	ldr	r0, [r4, #0]
 8004bd8:	f001 fd84 	bl	80066e4 <SDMMC_CmdSendCID>
    if (errorstate != HAL_SD_ERROR_NONE)
 8004bdc:	b9f8      	cbnz	r0, 8004c1e <SD_InitCard+0xce>
      hsd->CID[0U] = SDMMC_GetResponse(hsd->Instance, SDMMC_RESP1);
 8004bde:	4601      	mov	r1, r0
 8004be0:	6820      	ldr	r0, [r4, #0]
 8004be2:	f001 fb74 	bl	80062ce <SDMMC_GetResponse>
 8004be6:	6760      	str	r0, [r4, #116]	@ 0x74
      hsd->CID[1U] = SDMMC_GetResponse(hsd->Instance, SDMMC_RESP2);
 8004be8:	2104      	movs	r1, #4
 8004bea:	6820      	ldr	r0, [r4, #0]
 8004bec:	f001 fb6f 	bl	80062ce <SDMMC_GetResponse>
 8004bf0:	67a0      	str	r0, [r4, #120]	@ 0x78
      hsd->CID[2U] = SDMMC_GetResponse(hsd->Instance, SDMMC_RESP3);
 8004bf2:	2108      	movs	r1, #8
 8004bf4:	6820      	ldr	r0, [r4, #0]
 8004bf6:	f001 fb6a 	bl	80062ce <SDMMC_GetResponse>
 8004bfa:	67e0      	str	r0, [r4, #124]	@ 0x7c
      hsd->CID[3U] = SDMMC_GetResponse(hsd->Instance, SDMMC_RESP4);
 8004bfc:	210c      	movs	r1, #12
 8004bfe:	6820      	ldr	r0, [r4, #0]
 8004c00:	f001 fb65 	bl	80062ce <SDMMC_GetResponse>
 8004c04:	f8c4 0080 	str.w	r0, [r4, #128]	@ 0x80
 8004c08:	e7b0      	b.n	8004b6c <SD_InitCard+0x1c>
    errorstate = SDMMC_CmdSetRelAdd(hsd->Instance, &sd_rca);
 8004c0a:	f10d 0102 	add.w	r1, sp, #2
 8004c0e:	6820      	ldr	r0, [r4, #0]
 8004c10:	f001 fe26 	bl	8006860 <SDMMC_CmdSetRelAdd>
    if (errorstate != HAL_SD_ERROR_NONE)
 8004c14:	2800      	cmp	r0, #0
 8004c16:	d0ac      	beq.n	8004b72 <SD_InitCard+0x22>
 8004c18:	e001      	b.n	8004c1e <SD_InitCard+0xce>
    return HAL_SD_ERROR_REQUEST_NOT_APPLICABLE;
 8004c1a:	f04f 6080 	mov.w	r0, #67108864	@ 0x4000000
}
 8004c1e:	b00c      	add	sp, #48	@ 0x30
 8004c20:	bd10      	pop	{r4, pc}
    return HAL_SD_ERROR_UNSUPPORTED_FEATURE;
 8004c22:	f04f 5080 	mov.w	r0, #268435456	@ 0x10000000
 8004c26:	e7fa      	b.n	8004c1e <SD_InitCard+0xce>

08004c28 <HAL_SD_InitCard>:
{
 8004c28:	b570      	push	{r4, r5, r6, lr}
 8004c2a:	b08a      	sub	sp, #40	@ 0x28
 8004c2c:	4604      	mov	r4, r0
  Init.ClockEdge           = SDMMC_CLOCK_EDGE_RISING;
 8004c2e:	2300      	movs	r3, #0
 8004c30:	9304      	str	r3, [sp, #16]
  Init.ClockBypass         = SDMMC_CLOCK_BYPASS_DISABLE;
 8004c32:	9305      	str	r3, [sp, #20]
  Init.ClockPowerSave      = SDMMC_CLOCK_POWER_SAVE_DISABLE;
 8004c34:	9306      	str	r3, [sp, #24]
  Init.BusWide             = SDMMC_BUS_WIDE_1B;
 8004c36:	9307      	str	r3, [sp, #28]
  Init.HardwareFlowControl = SDMMC_HARDWARE_FLOW_CONTROL_DISABLE;
 8004c38:	9308      	str	r3, [sp, #32]
  sdmmc_clk = HAL_RCCEx_GetPeriphCLKFreq(RCC_PERIPHCLK_SDMMC1);
 8004c3a:	f44f 2000 	mov.w	r0, #524288	@ 0x80000
 8004c3e:	f7fe fd7f 	bl	8003740 <HAL_RCCEx_GetPeriphCLKFreq>
  if (sdmmc_clk == 0U)
 8004c42:	b938      	cbnz	r0, 8004c54 <HAL_SD_InitCard+0x2c>
    hsd->State = HAL_SD_STATE_READY;
 8004c44:	2001      	movs	r0, #1
 8004c46:	f884 0034 	strb.w	r0, [r4, #52]	@ 0x34
    hsd->ErrorCode = SDMMC_ERROR_INVALID_PARAMETER;
 8004c4a:	f04f 6300 	mov.w	r3, #134217728	@ 0x8000000
 8004c4e:	63a3      	str	r3, [r4, #56]	@ 0x38
}
 8004c50:	b00a      	add	sp, #40	@ 0x28
 8004c52:	bd70      	pop	{r4, r5, r6, pc}
  Init.ClockDiv = ((sdmmc_clk / SD_INIT_FREQ) - 2U);
 8004c54:	4605      	mov	r5, r0
 8004c56:	09c3      	lsrs	r3, r0, #7
 8004c58:	4a27      	ldr	r2, [pc, #156]	@ (8004cf8 <HAL_SD_InitCard+0xd0>)
 8004c5a:	fba2 2303 	umull	r2, r3, r2, r3
 8004c5e:	091e      	lsrs	r6, r3, #4
 8004c60:	1eb3      	subs	r3, r6, #2
 8004c62:	9309      	str	r3, [sp, #36]	@ 0x24
  status = SDMMC_Init(hsd->Instance, Init);
 8004c64:	ab0a      	add	r3, sp, #40	@ 0x28
 8004c66:	e913 0007 	ldmdb	r3, {r0, r1, r2}
 8004c6a:	e88d 0007 	stmia.w	sp, {r0, r1, r2}
 8004c6e:	ab04      	add	r3, sp, #16
 8004c70:	cb0e      	ldmia	r3, {r1, r2, r3}
 8004c72:	6820      	ldr	r0, [r4, #0]
 8004c74:	f001 fae6 	bl	8006244 <SDMMC_Init>
  if (status == HAL_ERROR)
 8004c78:	2801      	cmp	r0, #1
 8004c7a:	d0e9      	beq.n	8004c50 <HAL_SD_InitCard+0x28>
  __HAL_SD_DISABLE(hsd);
 8004c7c:	6822      	ldr	r2, [r4, #0]
 8004c7e:	6853      	ldr	r3, [r2, #4]
 8004c80:	f423 7380 	bic.w	r3, r3, #256	@ 0x100
 8004c84:	6053      	str	r3, [r2, #4]
  (void)SDMMC_PowerState_ON(hsd->Instance);
 8004c86:	6820      	ldr	r0, [r4, #0]
 8004c88:	f001 fafe 	bl	8006288 <SDMMC_PowerState_ON>
  __HAL_SD_ENABLE(hsd);
 8004c8c:	6822      	ldr	r2, [r4, #0]
 8004c8e:	6853      	ldr	r3, [r2, #4]
 8004c90:	f443 7380 	orr.w	r3, r3, #256	@ 0x100
 8004c94:	6053      	str	r3, [r2, #4]
  sdmmc_clk = sdmmc_clk / (Init.ClockDiv + 2U);
 8004c96:	fbb5 f3f6 	udiv	r3, r5, r6
  HAL_Delay(1U + (74U * 1000U / (sdmmc_clk)));
 8004c9a:	4818      	ldr	r0, [pc, #96]	@ (8004cfc <HAL_SD_InitCard+0xd4>)
 8004c9c:	fbb0 f0f3 	udiv	r0, r0, r3
 8004ca0:	3001      	adds	r0, #1
 8004ca2:	f7fc fbc3 	bl	800142c <HAL_Delay>
  errorstate = SD_PowerON(hsd);
 8004ca6:	4620      	mov	r0, r4
 8004ca8:	f7ff fab4 	bl	8004214 <SD_PowerON>
  if (errorstate != HAL_SD_ERROR_NONE)
 8004cac:	4602      	mov	r2, r0
 8004cae:	b130      	cbz	r0, 8004cbe <HAL_SD_InitCard+0x96>
    hsd->State = HAL_SD_STATE_READY;
 8004cb0:	2001      	movs	r0, #1
 8004cb2:	f884 0034 	strb.w	r0, [r4, #52]	@ 0x34
    hsd->ErrorCode |= errorstate;
 8004cb6:	6ba3      	ldr	r3, [r4, #56]	@ 0x38
 8004cb8:	4313      	orrs	r3, r2
 8004cba:	63a3      	str	r3, [r4, #56]	@ 0x38
    return HAL_ERROR;
 8004cbc:	e7c8      	b.n	8004c50 <HAL_SD_InitCard+0x28>
  errorstate = SD_InitCard(hsd);
 8004cbe:	4620      	mov	r0, r4
 8004cc0:	f7ff ff46 	bl	8004b50 <SD_InitCard>
  if (errorstate != HAL_SD_ERROR_NONE)
 8004cc4:	4602      	mov	r2, r0
 8004cc6:	b130      	cbz	r0, 8004cd6 <HAL_SD_InitCard+0xae>
    hsd->State = HAL_SD_STATE_READY;
 8004cc8:	2001      	movs	r0, #1
 8004cca:	f884 0034 	strb.w	r0, [r4, #52]	@ 0x34
    hsd->ErrorCode |= errorstate;
 8004cce:	6ba3      	ldr	r3, [r4, #56]	@ 0x38
 8004cd0:	4313      	orrs	r3, r2
 8004cd2:	63a3      	str	r3, [r4, #56]	@ 0x38
    return HAL_ERROR;
 8004cd4:	e7bc      	b.n	8004c50 <HAL_SD_InitCard+0x28>
  errorstate = SDMMC_CmdBlockLength(hsd->Instance, BLOCKSIZE);
 8004cd6:	f44f 7100 	mov.w	r1, #512	@ 0x200
 8004cda:	6820      	ldr	r0, [r4, #0]
 8004cdc:	f001 fbca 	bl	8006474 <SDMMC_CmdBlockLength>
  if (errorstate != HAL_SD_ERROR_NONE)
 8004ce0:	2800      	cmp	r0, #0
 8004ce2:	d0b5      	beq.n	8004c50 <HAL_SD_InitCard+0x28>
    __HAL_SD_CLEAR_FLAG(hsd, SDMMC_STATIC_FLAGS);
 8004ce4:	6823      	ldr	r3, [r4, #0]
 8004ce6:	4906      	ldr	r1, [pc, #24]	@ (8004d00 <HAL_SD_InitCard+0xd8>)
 8004ce8:	6399      	str	r1, [r3, #56]	@ 0x38
    hsd->ErrorCode |= errorstate;
 8004cea:	6ba3      	ldr	r3, [r4, #56]	@ 0x38
 8004cec:	4303      	orrs	r3, r0
 8004cee:	63a3      	str	r3, [r4, #56]	@ 0x38
    hsd->State = HAL_SD_STATE_READY;
 8004cf0:	2001      	movs	r0, #1
 8004cf2:	f884 0034 	strb.w	r0, [r4, #52]	@ 0x34
    return HAL_ERROR;
 8004cf6:	e7ab      	b.n	8004c50 <HAL_SD_InitCard+0x28>
 8004cf8:	014f8b59 	.word	0x014f8b59
 8004cfc:	00012110 	.word	0x00012110
 8004d00:	004005ff 	.word	0x004005ff

08004d04 <HAL_SD_ConfigWideBusOperation>:
{
 8004d04:	b530      	push	{r4, r5, lr}
 8004d06:	b08b      	sub	sp, #44	@ 0x2c
 8004d08:	4604      	mov	r4, r0
 8004d0a:	460d      	mov	r5, r1
  hsd->State = HAL_SD_STATE_BUSY;
 8004d0c:	2303      	movs	r3, #3
 8004d0e:	f880 3034 	strb.w	r3, [r0, #52]	@ 0x34
  if (hsd->SdCard.CardType != CARD_SECURED)
 8004d12:	6c43      	ldr	r3, [r0, #68]	@ 0x44
 8004d14:	2b03      	cmp	r3, #3
 8004d16:	d01c      	beq.n	8004d52 <HAL_SD_ConfigWideBusOperation+0x4e>
    if (WideMode == SDMMC_BUS_WIDE_8B)
 8004d18:	f5b1 5f80 	cmp.w	r1, #4096	@ 0x1000
 8004d1c:	d008      	beq.n	8004d30 <HAL_SD_ConfigWideBusOperation+0x2c>
    else if (WideMode == SDMMC_BUS_WIDE_4B)
 8004d1e:	f5b1 6f00 	cmp.w	r1, #2048	@ 0x800
 8004d22:	d00a      	beq.n	8004d3a <HAL_SD_ConfigWideBusOperation+0x36>
    else if (WideMode == SDMMC_BUS_WIDE_1B)
 8004d24:	b179      	cbz	r1, 8004d46 <HAL_SD_ConfigWideBusOperation+0x42>
      hsd->ErrorCode |= HAL_SD_ERROR_PARAM;
 8004d26:	6b83      	ldr	r3, [r0, #56]	@ 0x38
 8004d28:	f043 6300 	orr.w	r3, r3, #134217728	@ 0x8000000
 8004d2c:	6383      	str	r3, [r0, #56]	@ 0x38
 8004d2e:	e014      	b.n	8004d5a <HAL_SD_ConfigWideBusOperation+0x56>
      hsd->ErrorCode |= HAL_SD_ERROR_UNSUPPORTED_FEATURE;
 8004d30:	6b83      	ldr	r3, [r0, #56]	@ 0x38
 8004d32:	f043 5380 	orr.w	r3, r3, #268435456	@ 0x10000000
 8004d36:	6383      	str	r3, [r0, #56]	@ 0x38
 8004d38:	e00f      	b.n	8004d5a <HAL_SD_ConfigWideBusOperation+0x56>
      errorstate = SD_WideBus_Enable(hsd);
 8004d3a:	f7ff fb93 	bl	8004464 <SD_WideBus_Enable>
      hsd->ErrorCode |= errorstate;
 8004d3e:	6ba3      	ldr	r3, [r4, #56]	@ 0x38
 8004d40:	4303      	orrs	r3, r0
 8004d42:	63a3      	str	r3, [r4, #56]	@ 0x38
 8004d44:	e009      	b.n	8004d5a <HAL_SD_ConfigWideBusOperation+0x56>
      errorstate = SD_WideBus_Disable(hsd);
 8004d46:	f7ff fbb4 	bl	80044b2 <SD_WideBus_Disable>
      hsd->ErrorCode |= errorstate;
 8004d4a:	6ba3      	ldr	r3, [r4, #56]	@ 0x38
 8004d4c:	4303      	orrs	r3, r0
 8004d4e:	63a3      	str	r3, [r4, #56]	@ 0x38
 8004d50:	e003      	b.n	8004d5a <HAL_SD_ConfigWideBusOperation+0x56>
    hsd->ErrorCode |= HAL_SD_ERROR_UNSUPPORTED_FEATURE;
 8004d52:	6b83      	ldr	r3, [r0, #56]	@ 0x38
 8004d54:	f043 5380 	orr.w	r3, r3, #268435456	@ 0x10000000
 8004d58:	6383      	str	r3, [r0, #56]	@ 0x38
  if (hsd->ErrorCode != HAL_SD_ERROR_NONE)
 8004d5a:	6ba3      	ldr	r3, [r4, #56]	@ 0x38
 8004d5c:	b1d3      	cbz	r3, 8004d94 <HAL_SD_ConfigWideBusOperation+0x90>
    __HAL_SD_CLEAR_FLAG(hsd, SDMMC_STATIC_FLAGS);
 8004d5e:	6823      	ldr	r3, [r4, #0]
 8004d60:	4a25      	ldr	r2, [pc, #148]	@ (8004df8 <HAL_SD_ConfigWideBusOperation+0xf4>)
 8004d62:	639a      	str	r2, [r3, #56]	@ 0x38
    hsd->State = HAL_SD_STATE_READY;
 8004d64:	2301      	movs	r3, #1
 8004d66:	f884 3034 	strb.w	r3, [r4, #52]	@ 0x34
    status = HAL_ERROR;
 8004d6a:	461d      	mov	r5, r3
  errorstate = SDMMC_CmdBlockLength(hsd->Instance, BLOCKSIZE);
 8004d6c:	f44f 7100 	mov.w	r1, #512	@ 0x200
 8004d70:	6820      	ldr	r0, [r4, #0]
 8004d72:	f001 fb7f 	bl	8006474 <SDMMC_CmdBlockLength>
  if (errorstate != HAL_SD_ERROR_NONE)
 8004d76:	b138      	cbz	r0, 8004d88 <HAL_SD_ConfigWideBusOperation+0x84>
    __HAL_SD_CLEAR_FLAG(hsd, SDMMC_STATIC_FLAGS);
 8004d78:	6823      	ldr	r3, [r4, #0]
 8004d7a:	491f      	ldr	r1, [pc, #124]	@ (8004df8 <HAL_SD_ConfigWideBusOperation+0xf4>)
 8004d7c:	6399      	str	r1, [r3, #56]	@ 0x38
    hsd->ErrorCode |= errorstate;
 8004d7e:	6ba3      	ldr	r3, [r4, #56]	@ 0x38
 8004d80:	4303      	orrs	r3, r0
 8004d82:	63a3      	str	r3, [r4, #56]	@ 0x38
    status = HAL_ERROR;
 8004d84:	2301      	movs	r3, #1
 8004d86:	461d      	mov	r5, r3
  hsd->State = HAL_SD_STATE_READY;
 8004d88:	2301      	movs	r3, #1
 8004d8a:	f884 3034 	strb.w	r3, [r4, #52]	@ 0x34
}
 8004d8e:	4628      	mov	r0, r5
 8004d90:	b00b      	add	sp, #44	@ 0x2c
 8004d92:	bd30      	pop	{r4, r5, pc}
    sdmmc_clk = HAL_RCCEx_GetPeriphCLKFreq(RCC_PERIPHCLK_SDMMC1);
 8004d94:	f44f 2000 	mov.w	r0, #524288	@ 0x80000
 8004d98:	f7fe fcd2 	bl	8003740 <HAL_RCCEx_GetPeriphCLKFreq>
    if (sdmmc_clk != 0U)
 8004d9c:	4603      	mov	r3, r0
 8004d9e:	b320      	cbz	r0, 8004dea <HAL_SD_ConfigWideBusOperation+0xe6>
      Init.ClockEdge           = hsd->Init.ClockEdge;
 8004da0:	6862      	ldr	r2, [r4, #4]
 8004da2:	9204      	str	r2, [sp, #16]
      Init.ClockBypass         = hsd->Init.ClockBypass;
 8004da4:	68a2      	ldr	r2, [r4, #8]
 8004da6:	9205      	str	r2, [sp, #20]
      Init.ClockPowerSave      = hsd->Init.ClockPowerSave;
 8004da8:	68e2      	ldr	r2, [r4, #12]
 8004daa:	9206      	str	r2, [sp, #24]
      Init.BusWide             = WideMode;
 8004dac:	9507      	str	r5, [sp, #28]
      Init.HardwareFlowControl = hsd->Init.HardwareFlowControl;
 8004dae:	6962      	ldr	r2, [r4, #20]
 8004db0:	9208      	str	r2, [sp, #32]
      if ((sdmmc_clk / (hsd->Init.ClockDiv + 2U)) > SD_NORMAL_SPEED_FREQ)
 8004db2:	69a1      	ldr	r1, [r4, #24]
 8004db4:	1c8a      	adds	r2, r1, #2
 8004db6:	fbb0 f2f2 	udiv	r2, r0, r2
 8004dba:	4810      	ldr	r0, [pc, #64]	@ (8004dfc <HAL_SD_ConfigWideBusOperation+0xf8>)
 8004dbc:	4282      	cmp	r2, r0
 8004dbe:	d912      	bls.n	8004de6 <HAL_SD_ConfigWideBusOperation+0xe2>
        Init.ClockDiv = ((sdmmc_clk / SD_NORMAL_SPEED_FREQ) - 2U);
 8004dc0:	4a0f      	ldr	r2, [pc, #60]	@ (8004e00 <HAL_SD_ConfigWideBusOperation+0xfc>)
 8004dc2:	fba2 2303 	umull	r2, r3, r2, r3
 8004dc6:	0ddb      	lsrs	r3, r3, #23
 8004dc8:	3b02      	subs	r3, #2
 8004dca:	9309      	str	r3, [sp, #36]	@ 0x24
      (void)SDMMC_Init(hsd->Instance, Init);
 8004dcc:	ab0a      	add	r3, sp, #40	@ 0x28
 8004dce:	e913 0007 	ldmdb	r3, {r0, r1, r2}
 8004dd2:	e88d 0007 	stmia.w	sp, {r0, r1, r2}
 8004dd6:	ab04      	add	r3, sp, #16
 8004dd8:	cb0e      	ldmia	r3, {r1, r2, r3}
 8004dda:	6820      	ldr	r0, [r4, #0]
 8004ddc:	f001 fa32 	bl	8006244 <SDMMC_Init>
  HAL_StatusTypeDef status = HAL_OK;
 8004de0:	2300      	movs	r3, #0
 8004de2:	461d      	mov	r5, r3
 8004de4:	e7c2      	b.n	8004d6c <HAL_SD_ConfigWideBusOperation+0x68>
        Init.ClockDiv = hsd->Init.ClockDiv;
 8004de6:	9109      	str	r1, [sp, #36]	@ 0x24
 8004de8:	e7f0      	b.n	8004dcc <HAL_SD_ConfigWideBusOperation+0xc8>
      hsd->ErrorCode |= SDMMC_ERROR_INVALID_PARAMETER;
 8004dea:	6ba3      	ldr	r3, [r4, #56]	@ 0x38
 8004dec:	f043 6300 	orr.w	r3, r3, #134217728	@ 0x8000000
 8004df0:	63a3      	str	r3, [r4, #56]	@ 0x38
      status = HAL_ERROR;
 8004df2:	2301      	movs	r3, #1
 8004df4:	461d      	mov	r5, r3
 8004df6:	e7b9      	b.n	8004d6c <HAL_SD_ConfigWideBusOperation+0x68>
 8004df8:	004005ff 	.word	0x004005ff
 8004dfc:	017d7840 	.word	0x017d7840
 8004e00:	55e63b89 	.word	0x55e63b89

08004e04 <HAL_SD_Init>:
  if (hsd == NULL)
 8004e04:	b318      	cbz	r0, 8004e4e <HAL_SD_Init+0x4a>
{
 8004e06:	b510      	push	{r4, lr}
 8004e08:	4604      	mov	r4, r0
  if (hsd->State == HAL_SD_STATE_RESET)
 8004e0a:	f890 3034 	ldrb.w	r3, [r0, #52]	@ 0x34
 8004e0e:	b143      	cbz	r3, 8004e22 <HAL_SD_Init+0x1e>
  hsd->State = HAL_SD_STATE_BUSY;
 8004e10:	2303      	movs	r3, #3
 8004e12:	f884 3034 	strb.w	r3, [r4, #52]	@ 0x34
  if (HAL_SD_InitCard(hsd) != HAL_OK)
 8004e16:	4620      	mov	r0, r4
 8004e18:	f7ff ff06 	bl	8004c28 <HAL_SD_InitCard>
 8004e1c:	b128      	cbz	r0, 8004e2a <HAL_SD_Init+0x26>
    return HAL_ERROR;
 8004e1e:	2001      	movs	r0, #1
}
 8004e20:	bd10      	pop	{r4, pc}
    hsd->Lock = HAL_UNLOCKED;
 8004e22:	7703      	strb	r3, [r0, #28]
    HAL_SD_MspInit(hsd);
 8004e24:	f7fd f9fe 	bl	8002224 <HAL_SD_MspInit>
 8004e28:	e7f2      	b.n	8004e10 <HAL_SD_Init+0xc>
  if (HAL_SD_ConfigWideBusOperation(hsd, hsd->Init.BusWide) != HAL_OK)
 8004e2a:	6921      	ldr	r1, [r4, #16]
 8004e2c:	4620      	mov	r0, r4
 8004e2e:	f7ff ff69 	bl	8004d04 <HAL_SD_ConfigWideBusOperation>
 8004e32:	b108      	cbz	r0, 8004e38 <HAL_SD_Init+0x34>
    return HAL_ERROR;
 8004e34:	2001      	movs	r0, #1
 8004e36:	e7f3      	b.n	8004e20 <HAL_SD_Init+0x1c>
  if (HAL_SD_ConfigWideBusOperation(hsd, hsd->Init.BusWide) != HAL_OK)
 8004e38:	6921      	ldr	r1, [r4, #16]
 8004e3a:	4620      	mov	r0, r4
 8004e3c:	f7ff ff62 	bl	8004d04 <HAL_SD_ConfigWideBusOperation>
 8004e40:	b938      	cbnz	r0, 8004e52 <HAL_SD_Init+0x4e>
  hsd->ErrorCode = HAL_SD_ERROR_NONE;
 8004e42:	63a0      	str	r0, [r4, #56]	@ 0x38
  hsd->Context = SD_CONTEXT_NONE;
 8004e44:	6320      	str	r0, [r4, #48]	@ 0x30
  hsd->State = HAL_SD_STATE_READY;
 8004e46:	2301      	movs	r3, #1
 8004e48:	f884 3034 	strb.w	r3, [r4, #52]	@ 0x34
  return HAL_OK;
 8004e4c:	e7e8      	b.n	8004e20 <HAL_SD_Init+0x1c>
    return HAL_ERROR;
 8004e4e:	2001      	movs	r0, #1
}
 8004e50:	4770      	bx	lr
    return HAL_ERROR;
 8004e52:	2001      	movs	r0, #1
 8004e54:	e7e4      	b.n	8004e20 <HAL_SD_Init+0x1c>

08004e56 <HAL_SD_GetCardState>:
{
 8004e56:	b510      	push	{r4, lr}
 8004e58:	b082      	sub	sp, #8
 8004e5a:	4604      	mov	r4, r0
  uint32_t resp1 = 0;
 8004e5c:	2300      	movs	r3, #0
 8004e5e:	9301      	str	r3, [sp, #4]
  errorstate = SD_SendStatus(hsd, &resp1);
 8004e60:	a901      	add	r1, sp, #4
 8004e62:	f7ff fb4d 	bl	8004500 <SD_SendStatus>
  if (errorstate != HAL_SD_ERROR_NONE)
 8004e66:	b110      	cbz	r0, 8004e6e <HAL_SD_GetCardState+0x18>
    hsd->ErrorCode |= errorstate;
 8004e68:	6ba3      	ldr	r3, [r4, #56]	@ 0x38
 8004e6a:	4303      	orrs	r3, r0
 8004e6c:	63a3      	str	r3, [r4, #56]	@ 0x38
}
 8004e6e:	9801      	ldr	r0, [sp, #4]
 8004e70:	f3c0 2043 	ubfx	r0, r0, #9, #4
 8004e74:	b002      	add	sp, #8
 8004e76:	bd10      	pop	{r4, pc}

08004e78 <SD_DMATxAbort>:
{
 8004e78:	b510      	push	{r4, lr}
  SD_HandleTypeDef *hsd = (SD_HandleTypeDef *)(hdma->Parent);
 8004e7a:	6a84      	ldr	r4, [r0, #40]	@ 0x28
  __HAL_SD_CLEAR_FLAG(hsd, SDMMC_STATIC_DATA_FLAGS);
 8004e7c:	6823      	ldr	r3, [r4, #0]
 8004e7e:	f240 523a 	movw	r2, #1338	@ 0x53a
 8004e82:	639a      	str	r2, [r3, #56]	@ 0x38
  CardState = HAL_SD_GetCardState(hsd);
 8004e84:	4620      	mov	r0, r4
 8004e86:	f7ff ffe6 	bl	8004e56 <HAL_SD_GetCardState>
  hsd->State = HAL_SD_STATE_READY;
 8004e8a:	2301      	movs	r3, #1
 8004e8c:	f884 3034 	strb.w	r3, [r4, #52]	@ 0x34
  hsd->Context = SD_CONTEXT_NONE;
 8004e90:	2300      	movs	r3, #0
 8004e92:	6323      	str	r3, [r4, #48]	@ 0x30
  if ((CardState == HAL_SD_CARD_RECEIVING) || (CardState == HAL_SD_CARD_SENDING))
 8004e94:	3805      	subs	r0, #5
 8004e96:	2801      	cmp	r0, #1
 8004e98:	d905      	bls.n	8004ea6 <SD_DMATxAbort+0x2e>
  if (hsd->ErrorCode == HAL_SD_ERROR_NONE)
 8004e9a:	6ba3      	ldr	r3, [r4, #56]	@ 0x38
 8004e9c:	b953      	cbnz	r3, 8004eb4 <SD_DMATxAbort+0x3c>
    HAL_SD_AbortCallback(hsd);
 8004e9e:	4620      	mov	r0, r4
 8004ea0:	f7ff fd78 	bl	8004994 <HAL_SD_AbortCallback>
}
 8004ea4:	bd10      	pop	{r4, pc}
    hsd->ErrorCode |= SDMMC_CmdStopTransfer(hsd->Instance);
 8004ea6:	6820      	ldr	r0, [r4, #0]
 8004ea8:	f001 fb5c 	bl	8006564 <SDMMC_CmdStopTransfer>
 8004eac:	6ba3      	ldr	r3, [r4, #56]	@ 0x38
 8004eae:	4303      	orrs	r3, r0
 8004eb0:	63a3      	str	r3, [r4, #56]	@ 0x38
 8004eb2:	e7f2      	b.n	8004e9a <SD_DMATxAbort+0x22>
    HAL_SD_ErrorCallback(hsd);
 8004eb4:	4620      	mov	r0, r4
 8004eb6:	f7fb fa1b 	bl	80002f0 <HAL_SD_ErrorCallback>
}
 8004eba:	e7f3      	b.n	8004ea4 <SD_DMATxAbort+0x2c>

08004ebc <SD_DMARxAbort>:
{
 8004ebc:	b510      	push	{r4, lr}
  SD_HandleTypeDef *hsd = (SD_HandleTypeDef *)(hdma->Parent);
 8004ebe:	6a84      	ldr	r4, [r0, #40]	@ 0x28
  __HAL_SD_CLEAR_FLAG(hsd, SDMMC_STATIC_DATA_FLAGS);
 8004ec0:	6823      	ldr	r3, [r4, #0]
 8004ec2:	f240 523a 	movw	r2, #1338	@ 0x53a
 8004ec6:	639a      	str	r2, [r3, #56]	@ 0x38
  CardState = HAL_SD_GetCardState(hsd);
 8004ec8:	4620      	mov	r0, r4
 8004eca:	f7ff ffc4 	bl	8004e56 <HAL_SD_GetCardState>
  hsd->State = HAL_SD_STATE_READY;
 8004ece:	2301      	movs	r3, #1
 8004ed0:	f884 3034 	strb.w	r3, [r4, #52]	@ 0x34
  hsd->Context = SD_CONTEXT_NONE;
 8004ed4:	2300      	movs	r3, #0
 8004ed6:	6323      	str	r3, [r4, #48]	@ 0x30
  if ((CardState == HAL_SD_CARD_RECEIVING) || (CardState == HAL_SD_CARD_SENDING))
 8004ed8:	3805      	subs	r0, #5
 8004eda:	2801      	cmp	r0, #1
 8004edc:	d905      	bls.n	8004eea <SD_DMARxAbort+0x2e>
  if (hsd->ErrorCode == HAL_SD_ERROR_NONE)
 8004ede:	6ba3      	ldr	r3, [r4, #56]	@ 0x38
 8004ee0:	b953      	cbnz	r3, 8004ef8 <SD_DMARxAbort+0x3c>
    HAL_SD_AbortCallback(hsd);
 8004ee2:	4620      	mov	r0, r4
 8004ee4:	f7ff fd56 	bl	8004994 <HAL_SD_AbortCallback>
}
 8004ee8:	bd10      	pop	{r4, pc}
    hsd->ErrorCode |= SDMMC_CmdStopTransfer(hsd->Instance);
 8004eea:	6820      	ldr	r0, [r4, #0]
 8004eec:	f001 fb3a 	bl	8006564 <SDMMC_CmdStopTransfer>
 8004ef0:	6ba3      	ldr	r3, [r4, #56]	@ 0x38
 8004ef2:	4303      	orrs	r3, r0
 8004ef4:	63a3      	str	r3, [r4, #56]	@ 0x38
 8004ef6:	e7f2      	b.n	8004ede <SD_DMARxAbort+0x22>
    HAL_SD_ErrorCallback(hsd);
 8004ef8:	4620      	mov	r0, r4
 8004efa:	f7fb f9f9 	bl	80002f0 <HAL_SD_ErrorCallback>
}
 8004efe:	e7f3      	b.n	8004ee8 <SD_DMARxAbort+0x2c>

08004f00 <HAL_SD_IRQHandler>:
{
 8004f00:	b570      	push	{r4, r5, r6, lr}
 8004f02:	4604      	mov	r4, r0
  uint32_t context = hsd->Context;
 8004f04:	6b05      	ldr	r5, [r0, #48]	@ 0x30
  if ((__HAL_SD_GET_FLAG(hsd, SDMMC_FLAG_RXFIFOHF) != RESET) && ((context & SD_CONTEXT_IT) != 0U))
 8004f06:	6803      	ldr	r3, [r0, #0]
 8004f08:	6b5a      	ldr	r2, [r3, #52]	@ 0x34
 8004f0a:	f412 4f00 	tst.w	r2, #32768	@ 0x8000
 8004f0e:	d002      	beq.n	8004f16 <HAL_SD_IRQHandler+0x16>
 8004f10:	f015 0f08 	tst.w	r5, #8
 8004f14:	d132      	bne.n	8004f7c <HAL_SD_IRQHandler+0x7c>
  else if (__HAL_SD_GET_FLAG(hsd, SDMMC_FLAG_DATAEND) != RESET)
 8004f16:	6b5a      	ldr	r2, [r3, #52]	@ 0x34
 8004f18:	f412 7f80 	tst.w	r2, #256	@ 0x100
 8004f1c:	d061      	beq.n	8004fe2 <HAL_SD_IRQHandler+0xe2>
    __HAL_SD_CLEAR_FLAG(hsd, SDMMC_FLAG_DATAEND);
 8004f1e:	f44f 7280 	mov.w	r2, #256	@ 0x100
 8004f22:	639a      	str	r2, [r3, #56]	@ 0x38
    __HAL_SD_DISABLE_IT(hsd, SDMMC_IT_DATAEND  | SDMMC_IT_DCRCFAIL | SDMMC_IT_DTIMEOUT | \
 8004f24:	6822      	ldr	r2, [r4, #0]
 8004f26:	6bd3      	ldr	r3, [r2, #60]	@ 0x3c
 8004f28:	f423 4341 	bic.w	r3, r3, #49408	@ 0xc100
 8004f2c:	f023 033a 	bic.w	r3, r3, #58	@ 0x3a
 8004f30:	63d3      	str	r3, [r2, #60]	@ 0x3c
    hsd->Instance->DCTRL &= ~(SDMMC_DCTRL_DTEN);
 8004f32:	6822      	ldr	r2, [r4, #0]
 8004f34:	6ad3      	ldr	r3, [r2, #44]	@ 0x2c
 8004f36:	f023 0301 	bic.w	r3, r3, #1
 8004f3a:	62d3      	str	r3, [r2, #44]	@ 0x2c
    if ((context & SD_CONTEXT_IT) != 0U)
 8004f3c:	f015 0f08 	tst.w	r5, #8
 8004f40:	d02a      	beq.n	8004f98 <HAL_SD_IRQHandler+0x98>
      if (((context & SD_CONTEXT_READ_MULTIPLE_BLOCK) != 0U) || ((context & SD_CONTEXT_WRITE_MULTIPLE_BLOCK) != 0U))
 8004f42:	f015 0302 	ands.w	r3, r5, #2
 8004f46:	461e      	mov	r6, r3
 8004f48:	d102      	bne.n	8004f50 <HAL_SD_IRQHandler+0x50>
 8004f4a:	f015 0f20 	tst.w	r5, #32
 8004f4e:	d004      	beq.n	8004f5a <HAL_SD_IRQHandler+0x5a>
        errorstate = SDMMC_CmdStopTransfer(hsd->Instance);
 8004f50:	6820      	ldr	r0, [r4, #0]
 8004f52:	f001 fb07 	bl	8006564 <SDMMC_CmdStopTransfer>
        if (errorstate != HAL_SD_ERROR_NONE)
 8004f56:	4603      	mov	r3, r0
 8004f58:	b998      	cbnz	r0, 8004f82 <HAL_SD_IRQHandler+0x82>
      __HAL_SD_CLEAR_FLAG(hsd, SDMMC_STATIC_DATA_FLAGS);
 8004f5a:	6823      	ldr	r3, [r4, #0]
 8004f5c:	f240 523a 	movw	r2, #1338	@ 0x53a
 8004f60:	639a      	str	r2, [r3, #56]	@ 0x38
      hsd->State = HAL_SD_STATE_READY;
 8004f62:	2301      	movs	r3, #1
 8004f64:	f884 3034 	strb.w	r3, [r4, #52]	@ 0x34
      hsd->Context = SD_CONTEXT_NONE;
 8004f68:	2300      	movs	r3, #0
 8004f6a:	6323      	str	r3, [r4, #48]	@ 0x30
      if (((context & SD_CONTEXT_READ_SINGLE_BLOCK) != 0U) || ((context & SD_CONTEXT_READ_MULTIPLE_BLOCK) != 0U))
 8004f6c:	f015 0f01 	tst.w	r5, #1
 8004f70:	d100      	bne.n	8004f74 <HAL_SD_IRQHandler+0x74>
 8004f72:	b16e      	cbz	r6, 8004f90 <HAL_SD_IRQHandler+0x90>
        HAL_SD_RxCpltCallback(hsd);
 8004f74:	4620      	mov	r0, r4
 8004f76:	f7fb f9b5 	bl	80002e4 <HAL_SD_RxCpltCallback>
 8004f7a:	e001      	b.n	8004f80 <HAL_SD_IRQHandler+0x80>
    SD_Read_IT(hsd);
 8004f7c:	f7ff f9b3 	bl	80042e6 <SD_Read_IT>
}
 8004f80:	bd70      	pop	{r4, r5, r6, pc}
          hsd->ErrorCode |= errorstate;
 8004f82:	6ba2      	ldr	r2, [r4, #56]	@ 0x38
 8004f84:	4313      	orrs	r3, r2
 8004f86:	63a3      	str	r3, [r4, #56]	@ 0x38
          HAL_SD_ErrorCallback(hsd);
 8004f88:	4620      	mov	r0, r4
 8004f8a:	f7fb f9b1 	bl	80002f0 <HAL_SD_ErrorCallback>
 8004f8e:	e7e4      	b.n	8004f5a <HAL_SD_IRQHandler+0x5a>
        HAL_SD_TxCpltCallback(hsd);
 8004f90:	4620      	mov	r0, r4
 8004f92:	f7fb f9a1 	bl	80002d8 <HAL_SD_TxCpltCallback>
 8004f96:	e7f3      	b.n	8004f80 <HAL_SD_IRQHandler+0x80>
    else if ((context & SD_CONTEXT_DMA) != 0U)
 8004f98:	f015 0f80 	tst.w	r5, #128	@ 0x80
 8004f9c:	d0f0      	beq.n	8004f80 <HAL_SD_IRQHandler+0x80>
      if ((context & SD_CONTEXT_WRITE_MULTIPLE_BLOCK) != 0U)
 8004f9e:	f015 0f20 	tst.w	r5, #32
 8004fa2:	d111      	bne.n	8004fc8 <HAL_SD_IRQHandler+0xc8>
      if (((context & SD_CONTEXT_READ_SINGLE_BLOCK) == 0U) && ((context & SD_CONTEXT_READ_MULTIPLE_BLOCK) == 0U))
 8004fa4:	f015 0f01 	tst.w	r5, #1
 8004fa8:	d1ea      	bne.n	8004f80 <HAL_SD_IRQHandler+0x80>
 8004faa:	f015 0f02 	tst.w	r5, #2
 8004fae:	d1e7      	bne.n	8004f80 <HAL_SD_IRQHandler+0x80>
        hsd->Instance->DCTRL &= (uint32_t)~((uint32_t)SDMMC_DCTRL_DMAEN);
 8004fb0:	6822      	ldr	r2, [r4, #0]
 8004fb2:	6ad3      	ldr	r3, [r2, #44]	@ 0x2c
 8004fb4:	f023 0308 	bic.w	r3, r3, #8
 8004fb8:	62d3      	str	r3, [r2, #44]	@ 0x2c
        hsd->State = HAL_SD_STATE_READY;
 8004fba:	2301      	movs	r3, #1
 8004fbc:	f884 3034 	strb.w	r3, [r4, #52]	@ 0x34
        HAL_SD_TxCpltCallback(hsd);
 8004fc0:	4620      	mov	r0, r4
 8004fc2:	f7fb f989 	bl	80002d8 <HAL_SD_TxCpltCallback>
 8004fc6:	e7db      	b.n	8004f80 <HAL_SD_IRQHandler+0x80>
        errorstate = SDMMC_CmdStopTransfer(hsd->Instance);
 8004fc8:	6820      	ldr	r0, [r4, #0]
 8004fca:	f001 facb 	bl	8006564 <SDMMC_CmdStopTransfer>
        if (errorstate != HAL_SD_ERROR_NONE)
 8004fce:	4603      	mov	r3, r0
 8004fd0:	2800      	cmp	r0, #0
 8004fd2:	d0e7      	beq.n	8004fa4 <HAL_SD_IRQHandler+0xa4>
          hsd->ErrorCode |= errorstate;
 8004fd4:	6ba2      	ldr	r2, [r4, #56]	@ 0x38
 8004fd6:	4313      	orrs	r3, r2
 8004fd8:	63a3      	str	r3, [r4, #56]	@ 0x38
          HAL_SD_ErrorCallback(hsd);
 8004fda:	4620      	mov	r0, r4
 8004fdc:	f7fb f988 	bl	80002f0 <HAL_SD_ErrorCallback>
 8004fe0:	e7e0      	b.n	8004fa4 <HAL_SD_IRQHandler+0xa4>
  else if ((__HAL_SD_GET_FLAG(hsd, SDMMC_FLAG_TXFIFOHE) != RESET) && ((context & SD_CONTEXT_IT) != 0U))
 8004fe2:	6b5a      	ldr	r2, [r3, #52]	@ 0x34
 8004fe4:	f412 4f80 	tst.w	r2, #16384	@ 0x4000
 8004fe8:	d002      	beq.n	8004ff0 <HAL_SD_IRQHandler+0xf0>
 8004fea:	f015 0f08 	tst.w	r5, #8
 8004fee:	d149      	bne.n	8005084 <HAL_SD_IRQHandler+0x184>
  else if (__HAL_SD_GET_FLAG(hsd,
 8004ff0:	6b5a      	ldr	r2, [r3, #52]	@ 0x34
 8004ff2:	f012 0f3a 	tst.w	r2, #58	@ 0x3a
 8004ff6:	d0c3      	beq.n	8004f80 <HAL_SD_IRQHandler+0x80>
    if (__HAL_SD_GET_FLAG(hsd, SDMMC_FLAG_DCRCFAIL) != RESET)
 8004ff8:	6b5a      	ldr	r2, [r3, #52]	@ 0x34
 8004ffa:	f012 0f02 	tst.w	r2, #2
 8004ffe:	d003      	beq.n	8005008 <HAL_SD_IRQHandler+0x108>
      hsd->ErrorCode |= HAL_SD_ERROR_DATA_CRC_FAIL;
 8005000:	6ba2      	ldr	r2, [r4, #56]	@ 0x38
 8005002:	f042 0202 	orr.w	r2, r2, #2
 8005006:	63a2      	str	r2, [r4, #56]	@ 0x38
    if (__HAL_SD_GET_FLAG(hsd, SDMMC_FLAG_DTIMEOUT) != RESET)
 8005008:	6b5a      	ldr	r2, [r3, #52]	@ 0x34
 800500a:	f012 0f08 	tst.w	r2, #8
 800500e:	d003      	beq.n	8005018 <HAL_SD_IRQHandler+0x118>
      hsd->ErrorCode |= HAL_SD_ERROR_DATA_TIMEOUT;
 8005010:	6ba2      	ldr	r2, [r4, #56]	@ 0x38
 8005012:	f042 0208 	orr.w	r2, r2, #8
 8005016:	63a2      	str	r2, [r4, #56]	@ 0x38
    if (__HAL_SD_GET_FLAG(hsd, SDMMC_FLAG_RXOVERR) != RESET)
 8005018:	6b5a      	ldr	r2, [r3, #52]	@ 0x34
 800501a:	f012 0f20 	tst.w	r2, #32
 800501e:	d003      	beq.n	8005028 <HAL_SD_IRQHandler+0x128>
      hsd->ErrorCode |= HAL_SD_ERROR_RX_OVERRUN;
 8005020:	6ba2      	ldr	r2, [r4, #56]	@ 0x38
 8005022:	f042 0220 	orr.w	r2, r2, #32
 8005026:	63a2      	str	r2, [r4, #56]	@ 0x38
    if (__HAL_SD_GET_FLAG(hsd, SDMMC_FLAG_TXUNDERR) != RESET)
 8005028:	6b5a      	ldr	r2, [r3, #52]	@ 0x34
 800502a:	f012 0f10 	tst.w	r2, #16
 800502e:	d003      	beq.n	8005038 <HAL_SD_IRQHandler+0x138>
      hsd->ErrorCode |= HAL_SD_ERROR_TX_UNDERRUN;
 8005030:	6ba2      	ldr	r2, [r4, #56]	@ 0x38
 8005032:	f042 0210 	orr.w	r2, r2, #16
 8005036:	63a2      	str	r2, [r4, #56]	@ 0x38
    __HAL_SD_CLEAR_FLAG(hsd, SDMMC_STATIC_DATA_FLAGS);
 8005038:	f240 523a 	movw	r2, #1338	@ 0x53a
 800503c:	639a      	str	r2, [r3, #56]	@ 0x38
    __HAL_SD_DISABLE_IT(hsd, SDMMC_IT_DATAEND | SDMMC_IT_DCRCFAIL | SDMMC_IT_DTIMEOUT | \
 800503e:	6822      	ldr	r2, [r4, #0]
 8005040:	6bd3      	ldr	r3, [r2, #60]	@ 0x3c
 8005042:	f423 739d 	bic.w	r3, r3, #314	@ 0x13a
 8005046:	63d3      	str	r3, [r2, #60]	@ 0x3c
    hsd->ErrorCode |= SDMMC_CmdStopTransfer(hsd->Instance);
 8005048:	6820      	ldr	r0, [r4, #0]
 800504a:	f001 fa8b 	bl	8006564 <SDMMC_CmdStopTransfer>
 800504e:	6ba3      	ldr	r3, [r4, #56]	@ 0x38
 8005050:	4303      	orrs	r3, r0
 8005052:	63a3      	str	r3, [r4, #56]	@ 0x38
    if ((context & SD_CONTEXT_IT) != 0U)
 8005054:	f015 0f08 	tst.w	r5, #8
 8005058:	d118      	bne.n	800508c <HAL_SD_IRQHandler+0x18c>
    else if ((context & SD_CONTEXT_DMA) != 0U)
 800505a:	f015 0f80 	tst.w	r5, #128	@ 0x80
 800505e:	d08f      	beq.n	8004f80 <HAL_SD_IRQHandler+0x80>
      if (((context & SD_CONTEXT_WRITE_SINGLE_BLOCK) != 0U) || ((context & SD_CONTEXT_WRITE_MULTIPLE_BLOCK) != 0U))
 8005060:	f015 0f10 	tst.w	r5, #16
 8005064:	d102      	bne.n	800506c <HAL_SD_IRQHandler+0x16c>
 8005066:	f015 0f20 	tst.w	r5, #32
 800506a:	d018      	beq.n	800509e <HAL_SD_IRQHandler+0x19e>
        hsd->hdmatx->XferAbortCallback = SD_DMATxAbort;
 800506c:	6be3      	ldr	r3, [r4, #60]	@ 0x3c
 800506e:	4a1a      	ldr	r2, [pc, #104]	@ (80050d8 <HAL_SD_IRQHandler+0x1d8>)
 8005070:	639a      	str	r2, [r3, #56]	@ 0x38
        if (HAL_DMA_Abort_IT(hsd->hdmatx) != HAL_OK)
 8005072:	6be0      	ldr	r0, [r4, #60]	@ 0x3c
 8005074:	f7fc fc10 	bl	8001898 <HAL_DMA_Abort_IT>
 8005078:	2800      	cmp	r0, #0
 800507a:	d081      	beq.n	8004f80 <HAL_SD_IRQHandler+0x80>
          SD_DMATxAbort(hsd->hdmatx);
 800507c:	6be0      	ldr	r0, [r4, #60]	@ 0x3c
 800507e:	f7ff fefb 	bl	8004e78 <SD_DMATxAbort>
 8005082:	e77d      	b.n	8004f80 <HAL_SD_IRQHandler+0x80>
    SD_Write_IT(hsd);
 8005084:	4620      	mov	r0, r4
 8005086:	f7ff f94a 	bl	800431e <SD_Write_IT>
 800508a:	e779      	b.n	8004f80 <HAL_SD_IRQHandler+0x80>
      hsd->State = HAL_SD_STATE_READY;
 800508c:	2301      	movs	r3, #1
 800508e:	f884 3034 	strb.w	r3, [r4, #52]	@ 0x34
      hsd->Context = SD_CONTEXT_NONE;
 8005092:	2300      	movs	r3, #0
 8005094:	6323      	str	r3, [r4, #48]	@ 0x30
      HAL_SD_ErrorCallback(hsd);
 8005096:	4620      	mov	r0, r4
 8005098:	f7fb f92a 	bl	80002f0 <HAL_SD_ErrorCallback>
 800509c:	e770      	b.n	8004f80 <HAL_SD_IRQHandler+0x80>
      else if (((context & SD_CONTEXT_READ_SINGLE_BLOCK) != 0U) || ((context & SD_CONTEXT_READ_MULTIPLE_BLOCK) != 0U))
 800509e:	f015 0f01 	tst.w	r5, #1
 80050a2:	d102      	bne.n	80050aa <HAL_SD_IRQHandler+0x1aa>
 80050a4:	f015 0f02 	tst.w	r5, #2
 80050a8:	d00c      	beq.n	80050c4 <HAL_SD_IRQHandler+0x1c4>
        hsd->hdmarx->XferAbortCallback = SD_DMARxAbort;
 80050aa:	6c23      	ldr	r3, [r4, #64]	@ 0x40
 80050ac:	4a0b      	ldr	r2, [pc, #44]	@ (80050dc <HAL_SD_IRQHandler+0x1dc>)
 80050ae:	639a      	str	r2, [r3, #56]	@ 0x38
        if (HAL_DMA_Abort_IT(hsd->hdmarx) != HAL_OK)
 80050b0:	6c20      	ldr	r0, [r4, #64]	@ 0x40
 80050b2:	f7fc fbf1 	bl	8001898 <HAL_DMA_Abort_IT>
 80050b6:	2800      	cmp	r0, #0
 80050b8:	f43f af62 	beq.w	8004f80 <HAL_SD_IRQHandler+0x80>
          SD_DMARxAbort(hsd->hdmarx);
 80050bc:	6c20      	ldr	r0, [r4, #64]	@ 0x40
 80050be:	f7ff fefd 	bl	8004ebc <SD_DMARxAbort>
 80050c2:	e75d      	b.n	8004f80 <HAL_SD_IRQHandler+0x80>
        hsd->ErrorCode = HAL_SD_ERROR_NONE;
 80050c4:	2300      	movs	r3, #0
 80050c6:	63a3      	str	r3, [r4, #56]	@ 0x38
        hsd->State = HAL_SD_STATE_READY;
 80050c8:	2201      	movs	r2, #1
 80050ca:	f884 2034 	strb.w	r2, [r4, #52]	@ 0x34
        hsd->Context = SD_CONTEXT_NONE;
 80050ce:	6323      	str	r3, [r4, #48]	@ 0x30
        HAL_SD_AbortCallback(hsd);
 80050d0:	4620      	mov	r0, r4
 80050d2:	f7ff fc5f 	bl	8004994 <HAL_SD_AbortCallback>
}
 80050d6:	e753      	b.n	8004f80 <HAL_SD_IRQHandler+0x80>
 80050d8:	08004e79 	.word	0x08004e79
 80050dc:	08004ebd 	.word	0x08004ebd

080050e0 <HAL_SPI_Init>:
HAL_StatusTypeDef HAL_SPI_Init(SPI_HandleTypeDef *hspi)
{
  uint32_t frxth;

  /* Check the SPI handle allocation */
  if (hspi == NULL)
 80050e0:	2800      	cmp	r0, #0
 80050e2:	d06a      	beq.n	80051ba <HAL_SPI_Init+0xda>
{
 80050e4:	b510      	push	{r4, lr}
 80050e6:	4604      	mov	r4, r0
  assert_param(IS_SPI_NSS(hspi->Init.NSS));
  assert_param(IS_SPI_NSSP(hspi->Init.NSSPMode));
  assert_param(IS_SPI_BAUDRATE_PRESCALER(hspi->Init.BaudRatePrescaler));
  assert_param(IS_SPI_FIRST_BIT(hspi->Init.FirstBit));
  assert_param(IS_SPI_TIMODE(hspi->Init.TIMode));
  if (hspi->Init.TIMode == SPI_TIMODE_DISABLE)
 80050e8:	6a43      	ldr	r3, [r0, #36]	@ 0x24
 80050ea:	b933      	cbnz	r3, 80050fa <HAL_SPI_Init+0x1a>
  {
    assert_param(IS_SPI_CPOL(hspi->Init.CLKPolarity));
    assert_param(IS_SPI_CPHA(hspi->Init.CLKPhase));

    if (hspi->Init.Mode == SPI_MODE_MASTER)
 80050ec:	6843      	ldr	r3, [r0, #4]
 80050ee:	f5b3 7f82 	cmp.w	r3, #260	@ 0x104
 80050f2:	d005      	beq.n	8005100 <HAL_SPI_Init+0x20>
      assert_param(IS_SPI_BAUDRATE_PRESCALER(hspi->Init.BaudRatePrescaler));
    }
    else
    {
      /* Baudrate prescaler not use in Motoraola Slave mode. force to default value */
      hspi->Init.BaudRatePrescaler = SPI_BAUDRATEPRESCALER_2;
 80050f4:	2300      	movs	r3, #0
 80050f6:	61c3      	str	r3, [r0, #28]
 80050f8:	e002      	b.n	8005100 <HAL_SPI_Init+0x20>
  else
  {
    assert_param(IS_SPI_BAUDRATE_PRESCALER(hspi->Init.BaudRatePrescaler));

    /* Force polarity and phase to TI protocaol requirements */
    hspi->Init.CLKPolarity = SPI_POLARITY_LOW;
 80050fa:	2300      	movs	r3, #0
 80050fc:	6103      	str	r3, [r0, #16]
    hspi->Init.CLKPhase    = SPI_PHASE_1EDGE;
 80050fe:	6143      	str	r3, [r0, #20]
  {
    assert_param(IS_SPI_CRC_POLYNOMIAL(hspi->Init.CRCPolynomial));
    assert_param(IS_SPI_CRC_LENGTH(hspi->Init.CRCLength));
  }
#else
  hspi->Init.CRCCalculation = SPI_CRCCALCULATION_DISABLE;
 8005100:	2300      	movs	r3, #0
 8005102:	62a3      	str	r3, [r4, #40]	@ 0x28
#endif /* USE_SPI_CRC */

  if (hspi->State == HAL_SPI_STATE_RESET)
 8005104:	f894 305d 	ldrb.w	r3, [r4, #93]	@ 0x5d
 8005108:	2b00      	cmp	r3, #0
 800510a:	d04d      	beq.n	80051a8 <HAL_SPI_Init+0xc8>
    /* Init the low level hardware : GPIO, CLOCK, NVIC... */
    HAL_SPI_MspInit(hspi);
#endif /* USE_HAL_SPI_REGISTER_CALLBACKS */
  }

  hspi->State = HAL_SPI_STATE_BUSY;
 800510c:	2302      	movs	r3, #2
 800510e:	f884 305d 	strb.w	r3, [r4, #93]	@ 0x5d

  /* Disable the selected SPI peripheral */
  __HAL_SPI_DISABLE(hspi);
 8005112:	6822      	ldr	r2, [r4, #0]
 8005114:	6813      	ldr	r3, [r2, #0]
 8005116:	f023 0340 	bic.w	r3, r3, #64	@ 0x40
 800511a:	6013      	str	r3, [r2, #0]

  /* Align by default the rs fifo threshold on the data size */
  if (hspi->Init.DataSize > SPI_DATASIZE_8BIT)
 800511c:	68e3      	ldr	r3, [r4, #12]
 800511e:	f5b3 6fe0 	cmp.w	r3, #1792	@ 0x700
 8005122:	d947      	bls.n	80051b4 <HAL_SPI_Init+0xd4>
  {
    frxth = SPI_RXFIFO_THRESHOLD_HF;
 8005124:	2200      	movs	r2, #0
  {
    frxth = SPI_RXFIFO_THRESHOLD_QF;
  }

  /* CRC calculation is valid only for 16Bit and 8 Bit */
  if ((hspi->Init.DataSize != SPI_DATASIZE_16BIT) && (hspi->Init.DataSize != SPI_DATASIZE_8BIT))
 8005126:	f5b3 6f70 	cmp.w	r3, #3840	@ 0xf00
 800512a:	d004      	beq.n	8005136 <HAL_SPI_Init+0x56>
 800512c:	f5b3 6fe0 	cmp.w	r3, #1792	@ 0x700
 8005130:	d001      	beq.n	8005136 <HAL_SPI_Init+0x56>
  {
    /* CRC must be disabled */
    hspi->Init.CRCCalculation = SPI_CRCCALCULATION_DISABLE;
 8005132:	2300      	movs	r3, #0
 8005134:	62a3      	str	r3, [r4, #40]	@ 0x28
  }

  /*----------------------- SPIx CR1 & CR2 Configuration ---------------------*/
  /* Configure : SPI Mode, Communication Mode, Clock polarity and phase, NSS management,
  Communication speed, First bit and CRC calculation state */
  WRITE_REG(hspi->Instance->CR1, ((hspi->Init.Mode & (SPI_CR1_MSTR | SPI_CR1_SSI)) |
 8005136:	6863      	ldr	r3, [r4, #4]
 8005138:	f403 7382 	and.w	r3, r3, #260	@ 0x104
 800513c:	68a1      	ldr	r1, [r4, #8]
 800513e:	f401 4104 	and.w	r1, r1, #33792	@ 0x8400
 8005142:	430b      	orrs	r3, r1
 8005144:	6921      	ldr	r1, [r4, #16]
 8005146:	f001 0102 	and.w	r1, r1, #2
 800514a:	430b      	orrs	r3, r1
 800514c:	6961      	ldr	r1, [r4, #20]
 800514e:	f001 0101 	and.w	r1, r1, #1
 8005152:	430b      	orrs	r3, r1
 8005154:	69a1      	ldr	r1, [r4, #24]
 8005156:	f401 7100 	and.w	r1, r1, #512	@ 0x200
 800515a:	430b      	orrs	r3, r1
 800515c:	69e1      	ldr	r1, [r4, #28]
 800515e:	f001 0138 	and.w	r1, r1, #56	@ 0x38
 8005162:	430b      	orrs	r3, r1
 8005164:	6a21      	ldr	r1, [r4, #32]
 8005166:	f001 0180 	and.w	r1, r1, #128	@ 0x80
 800516a:	430b      	orrs	r3, r1
 800516c:	6aa1      	ldr	r1, [r4, #40]	@ 0x28
 800516e:	f401 5100 	and.w	r1, r1, #8192	@ 0x2000
 8005172:	6820      	ldr	r0, [r4, #0]
 8005174:	430b      	orrs	r3, r1
 8005176:	6003      	str	r3, [r0, #0]
    }
  }
#endif /* USE_SPI_CRC */

  /* Configure : NSS management, TI Mode, NSS Pulse, Data size and Rx Fifo threshold */
  WRITE_REG(hspi->Instance->CR2, (((hspi->Init.NSS >> 16U) & SPI_CR2_SSOE) |
 8005178:	8b63      	ldrh	r3, [r4, #26]
 800517a:	f003 0304 	and.w	r3, r3, #4
 800517e:	6a61      	ldr	r1, [r4, #36]	@ 0x24
 8005180:	f001 0110 	and.w	r1, r1, #16
 8005184:	430b      	orrs	r3, r1
 8005186:	6b61      	ldr	r1, [r4, #52]	@ 0x34
 8005188:	f001 0108 	and.w	r1, r1, #8
 800518c:	430b      	orrs	r3, r1
 800518e:	68e1      	ldr	r1, [r4, #12]
 8005190:	f401 6170 	and.w	r1, r1, #3840	@ 0xf00
 8005194:	430b      	orrs	r3, r1
 8005196:	6821      	ldr	r1, [r4, #0]
 8005198:	4313      	orrs	r3, r2
 800519a:	604b      	str	r3, [r1, #4]
#if defined(SPI_I2SCFGR_I2SMOD)
  /* Activate the SPI mode (Make sure that I2SMOD bit in I2SCFGR register is reset) */
  CLEAR_BIT(hspi->Instance->I2SCFGR, SPI_I2SCFGR_I2SMOD);
#endif /* SPI_I2SCFGR_I2SMOD */

  hspi->ErrorCode = HAL_SPI_ERROR_NONE;
 800519c:	2000      	movs	r0, #0
 800519e:	6620      	str	r0, [r4, #96]	@ 0x60
  hspi->State     = HAL_SPI_STATE_READY;
 80051a0:	2301      	movs	r3, #1
 80051a2:	f884 305d 	strb.w	r3, [r4, #93]	@ 0x5d

  return HAL_OK;
}
 80051a6:	bd10      	pop	{r4, pc}
    hspi->Lock = HAL_UNLOCKED;
 80051a8:	f884 305c 	strb.w	r3, [r4, #92]	@ 0x5c
    HAL_SPI_MspInit(hspi);
 80051ac:	4620      	mov	r0, r4
 80051ae:	f7fd f919 	bl	80023e4 <HAL_SPI_MspInit>
 80051b2:	e7ab      	b.n	800510c <HAL_SPI_Init+0x2c>
    frxth = SPI_RXFIFO_THRESHOLD_QF;
 80051b4:	f44f 5280 	mov.w	r2, #4096	@ 0x1000
 80051b8:	e7b5      	b.n	8005126 <HAL_SPI_Init+0x46>
    return HAL_ERROR;
 80051ba:	2001      	movs	r0, #1
}
 80051bc:	4770      	bx	lr

080051be <UART_EndTxTransfer>:
  /* Disable TXEIE, TCIE, TXFT interrupts */
  ATOMIC_CLEAR_BIT(huart->Instance->CR1, (USART_CR1_TXEIE_TXFNFIE | USART_CR1_TCIE));
  ATOMIC_CLEAR_BIT(huart->Instance->CR3, (USART_CR3_TXFTIE));
#else
  /* Disable TXEIE and TCIE interrupts */
  ATOMIC_CLEAR_BIT(huart->Instance->CR1, (USART_CR1_TXEIE | USART_CR1_TCIE));
 80051be:	6802      	ldr	r2, [r0, #0]
 */
__STATIC_FORCEINLINE uint32_t __LDREXW(volatile uint32_t *addr)
{
    uint32_t result;

   __ASM volatile ("ldrex %0, %1" : "=r" (result) : "Q" (*addr) );
 80051c0:	e852 3f00 	ldrex	r3, [r2]
 80051c4:	f023 03c0 	bic.w	r3, r3, #192	@ 0xc0
 */
__STATIC_FORCEINLINE uint32_t __STREXW(uint32_t value, volatile uint32_t *addr)
{
   uint32_t result;

   __ASM volatile ("strex %0, %2, %1" : "=&r" (result), "=Q" (*addr) : "r" (value) );
 80051c8:	e842 3100 	strex	r1, r3, [r2]
 80051cc:	2900      	cmp	r1, #0
 80051ce:	d1f6      	bne.n	80051be <UART_EndTxTransfer>
#endif /* USART_CR1_FIFOEN */

  /* At end of Tx process, restore huart->gState to Ready */
  huart->gState = HAL_UART_STATE_READY;
 80051d0:	2320      	movs	r3, #32
 80051d2:	67c3      	str	r3, [r0, #124]	@ 0x7c
}
 80051d4:	4770      	bx	lr

080051d6 <UART_EndRxTransfer>:
  /* Disable RXNE, PE and ERR (Frame error, noise error, overrun error) interrupts */
#if defined(USART_CR1_FIFOEN)
  ATOMIC_CLEAR_BIT(huart->Instance->CR1, (USART_CR1_RXNEIE_RXFNEIE | USART_CR1_PEIE));
  ATOMIC_CLEAR_BIT(huart->Instance->CR3, (USART_CR3_EIE | USART_CR3_RXFTIE));
#else
  ATOMIC_CLEAR_BIT(huart->Instance->CR1, (USART_CR1_RXNEIE | USART_CR1_PEIE));
 80051d6:	6802      	ldr	r2, [r0, #0]
   __ASM volatile ("ldrex %0, %1" : "=r" (result) : "Q" (*addr) );
 80051d8:	e852 3f00 	ldrex	r3, [r2]
 80051dc:	f423 7390 	bic.w	r3, r3, #288	@ 0x120
   __ASM volatile ("strex %0, %2, %1" : "=&r" (result), "=Q" (*addr) : "r" (value) );
 80051e0:	e842 3100 	strex	r1, r3, [r2]
 80051e4:	2900      	cmp	r1, #0
 80051e6:	d1f6      	bne.n	80051d6 <UART_EndRxTransfer>
  ATOMIC_CLEAR_BIT(huart->Instance->CR3, USART_CR3_EIE);
 80051e8:	6802      	ldr	r2, [r0, #0]
   __ASM volatile ("ldrex %0, %1" : "=r" (result) : "Q" (*addr) );
 80051ea:	f102 0308 	add.w	r3, r2, #8
 80051ee:	e853 3f00 	ldrex	r3, [r3]
 80051f2:	f023 0301 	bic.w	r3, r3, #1
   __ASM volatile ("strex %0, %2, %1" : "=&r" (result), "=Q" (*addr) : "r" (value) );
 80051f6:	3208      	adds	r2, #8
 80051f8:	e842 3100 	strex	r1, r3, [r2]
 80051fc:	2900      	cmp	r1, #0
 80051fe:	d1f3      	bne.n	80051e8 <UART_EndRxTransfer+0x12>
#endif /* USART_CR1_FIFOEN */

  /* In case of reception waiting for IDLE event, disable also the IDLE IE interrupt source */
  if (huart->ReceptionType == HAL_UART_RECEPTION_TOIDLE)
 8005200:	6e03      	ldr	r3, [r0, #96]	@ 0x60
 8005202:	2b01      	cmp	r3, #1
 8005204:	d006      	beq.n	8005214 <UART_EndRxTransfer+0x3e>
  {
    ATOMIC_CLEAR_BIT(huart->Instance->CR1, USART_CR1_IDLEIE);
  }

  /* At end of Rx process, restore huart->RxState to Ready */
  huart->RxState = HAL_UART_STATE_READY;
 8005206:	2320      	movs	r3, #32
 8005208:	f8c0 3080 	str.w	r3, [r0, #128]	@ 0x80
  huart->ReceptionType = HAL_UART_RECEPTION_STANDARD;
 800520c:	2300      	movs	r3, #0
 800520e:	6603      	str	r3, [r0, #96]	@ 0x60

  /* Reset RxIsr function pointer */
  huart->RxISR = NULL;
 8005210:	6683      	str	r3, [r0, #104]	@ 0x68
}
 8005212:	4770      	bx	lr
    ATOMIC_CLEAR_BIT(huart->Instance->CR1, USART_CR1_IDLEIE);
 8005214:	6802      	ldr	r2, [r0, #0]
   __ASM volatile ("ldrex %0, %1" : "=r" (result) : "Q" (*addr) );
 8005216:	e852 3f00 	ldrex	r3, [r2]
 800521a:	f023 0310 	bic.w	r3, r3, #16
   __ASM volatile ("strex %0, %2, %1" : "=&r" (result), "=Q" (*addr) : "r" (value) );
 800521e:	e842 3100 	strex	r1, r3, [r2]
 8005222:	2900      	cmp	r1, #0
 8005224:	d1f6      	bne.n	8005214 <UART_EndRxTransfer+0x3e>
 8005226:	e7ee      	b.n	8005206 <UART_EndRxTransfer+0x30>

08005228 <HAL_UART_TxCpltCallback>:
}
 8005228:	4770      	bx	lr

0800522a <UART_EndTransmit_IT>:
  * @param  huart pointer to a UART_HandleTypeDef structure that contains
  *                the configuration information for the specified UART module.
  * @retval None
  */
static void UART_EndTransmit_IT(UART_HandleTypeDef *huart)
{
 800522a:	b508      	push	{r3, lr}
  /* Disable the UART Transmit Complete Interrupt */
  ATOMIC_CLEAR_BIT(huart->Instance->CR1, USART_CR1_TCIE);
 800522c:	6802      	ldr	r2, [r0, #0]
   __ASM volatile ("ldrex %0, %1" : "=r" (result) : "Q" (*addr) );
 800522e:	e852 3f00 	ldrex	r3, [r2]
 8005232:	f023 0340 	bic.w	r3, r3, #64	@ 0x40
   __ASM volatile ("strex %0, %2, %1" : "=&r" (result), "=Q" (*addr) : "r" (value) );
 8005236:	e842 3100 	strex	r1, r3, [r2]
 800523a:	2900      	cmp	r1, #0
 800523c:	d1f6      	bne.n	800522c <UART_EndTransmit_IT+0x2>

  /* Tx process is ended, restore huart->gState to Ready */
  huart->gState = HAL_UART_STATE_READY;
 800523e:	2320      	movs	r3, #32
 8005240:	67c3      	str	r3, [r0, #124]	@ 0x7c

  /* Cleat TxISR function pointer */
  huart->TxISR = NULL;
 8005242:	66c1      	str	r1, [r0, #108]	@ 0x6c
#if (USE_HAL_UART_REGISTER_CALLBACKS == 1)
  /*Call registered Tx complete callback*/
  huart->TxCpltCallback(huart);
#else
  /*Call legacy weak Tx complete callback*/
  HAL_UART_TxCpltCallback(huart);
 8005244:	f7ff fff0 	bl	8005228 <HAL_UART_TxCpltCallback>
#endif /* USE_HAL_UART_REGISTER_CALLBACKS */
}
 8005248:	bd08      	pop	{r3, pc}

0800524a <HAL_UART_RxCpltCallback>:
}
 800524a:	4770      	bx	lr

0800524c <HAL_UART_RxHalfCpltCallback>:
}
 800524c:	4770      	bx	lr

0800524e <HAL_UART_ErrorCallback>:
}
 800524e:	4770      	bx	lr

08005250 <UART_DMAError>:
{
 8005250:	b538      	push	{r3, r4, r5, lr}
  UART_HandleTypeDef *huart = (UART_HandleTypeDef *)(hdma->Parent);
 8005252:	6a84      	ldr	r4, [r0, #40]	@ 0x28
  const HAL_UART_StateTypeDef gstate = huart->gState;
 8005254:	6fe2      	ldr	r2, [r4, #124]	@ 0x7c
  const HAL_UART_StateTypeDef rxstate = huart->RxState;
 8005256:	f8d4 3080 	ldr.w	r3, [r4, #128]	@ 0x80
 800525a:	461d      	mov	r5, r3
  if ((HAL_IS_BIT_SET(huart->Instance->CR3, USART_CR3_DMAT)) &&
 800525c:	6823      	ldr	r3, [r4, #0]
 800525e:	689b      	ldr	r3, [r3, #8]
 8005260:	f013 0f80 	tst.w	r3, #128	@ 0x80
 8005264:	d001      	beq.n	800526a <UART_DMAError+0x1a>
 8005266:	2a21      	cmp	r2, #33	@ 0x21
 8005268:	d010      	beq.n	800528c <UART_DMAError+0x3c>
  if ((HAL_IS_BIT_SET(huart->Instance->CR3, USART_CR3_DMAR)) &&
 800526a:	6823      	ldr	r3, [r4, #0]
 800526c:	689b      	ldr	r3, [r3, #8]
 800526e:	f013 0f40 	tst.w	r3, #64	@ 0x40
 8005272:	d001      	beq.n	8005278 <UART_DMAError+0x28>
 8005274:	2d22      	cmp	r5, #34	@ 0x22
 8005276:	d00d      	beq.n	8005294 <UART_DMAError+0x44>
  huart->ErrorCode |= HAL_UART_ERROR_DMA;
 8005278:	f8d4 3084 	ldr.w	r3, [r4, #132]	@ 0x84
 800527c:	f043 0310 	orr.w	r3, r3, #16
 8005280:	f8c4 3084 	str.w	r3, [r4, #132]	@ 0x84
  HAL_UART_ErrorCallback(huart);
 8005284:	4620      	mov	r0, r4
 8005286:	f7ff ffe2 	bl	800524e <HAL_UART_ErrorCallback>
}
 800528a:	bd38      	pop	{r3, r4, r5, pc}
    UART_EndTxTransfer(huart);
 800528c:	4620      	mov	r0, r4
 800528e:	f7ff ff96 	bl	80051be <UART_EndTxTransfer>
 8005292:	e7ea      	b.n	800526a <UART_DMAError+0x1a>
    UART_EndRxTransfer(huart);
 8005294:	4620      	mov	r0, r4
 8005296:	f7ff ff9e 	bl	80051d6 <UART_EndRxTransfer>
 800529a:	e7ed      	b.n	8005278 <UART_DMAError+0x28>

0800529c <UART_DMAAbortOnError>:
{
 800529c:	b508      	push	{r3, lr}
  HAL_UART_ErrorCallback(huart);
 800529e:	6a80      	ldr	r0, [r0, #40]	@ 0x28
 80052a0:	f7ff ffd5 	bl	800524e <HAL_UART_ErrorCallback>
}
 80052a4:	bd08      	pop	{r3, pc}
	...

080052a8 <HAL_UART_IRQHandler>:
{
 80052a8:	b510      	push	{r4, lr}
 80052aa:	4604      	mov	r4, r0
  uint32_t isrflags   = READ_REG(huart->Instance->ISR);
 80052ac:	6802      	ldr	r2, [r0, #0]
 80052ae:	69d3      	ldr	r3, [r2, #28]
  uint32_t cr1its     = READ_REG(huart->Instance->CR1);
 80052b0:	6811      	ldr	r1, [r2, #0]
  uint32_t cr3its     = READ_REG(huart->Instance->CR3);
 80052b2:	6890      	ldr	r0, [r2, #8]
  if (errorflags == 0U)
 80052b4:	f640 0c0f 	movw	ip, #2063	@ 0x80f
 80052b8:	ea13 0f0c 	tst.w	r3, ip
 80052bc:	d10a      	bne.n	80052d4 <HAL_UART_IRQHandler+0x2c>
    if (((isrflags & USART_ISR_RXNE) != 0U)
 80052be:	f013 0f20 	tst.w	r3, #32
 80052c2:	d00f      	beq.n	80052e4 <HAL_UART_IRQHandler+0x3c>
        && ((cr1its & USART_CR1_RXNEIE) != 0U))
 80052c4:	f011 0f20 	tst.w	r1, #32
 80052c8:	d00c      	beq.n	80052e4 <HAL_UART_IRQHandler+0x3c>
      if (huart->RxISR != NULL)
 80052ca:	6ea3      	ldr	r3, [r4, #104]	@ 0x68
 80052cc:	b32b      	cbz	r3, 800531a <HAL_UART_IRQHandler+0x72>
        huart->RxISR(huart);
 80052ce:	4620      	mov	r0, r4
 80052d0:	4798      	blx	r3
      return;
 80052d2:	e022      	b.n	800531a <HAL_UART_IRQHandler+0x72>
      && (((cr3its & USART_CR3_EIE) != 0U)
 80052d4:	f010 0c01 	ands.w	ip, r0, #1
 80052d8:	d120      	bne.n	800531c <HAL_UART_IRQHandler+0x74>
          || ((cr1its & (USART_CR1_RXNEIE | USART_CR1_PEIE | USART_CR1_RTOIE)) != 0U)))
 80052da:	f8df e2e0 	ldr.w	lr, [pc, #736]	@ 80055bc <HAL_UART_IRQHandler+0x314>
 80052de:	ea11 0f0e 	tst.w	r1, lr
 80052e2:	d11b      	bne.n	800531c <HAL_UART_IRQHandler+0x74>
  if ((huart->ReceptionType == HAL_UART_RECEPTION_TOIDLE)
 80052e4:	f8d4 c060 	ldr.w	ip, [r4, #96]	@ 0x60
 80052e8:	f1bc 0f01 	cmp.w	ip, #1
 80052ec:	f000 80ab 	beq.w	8005446 <HAL_UART_IRQHandler+0x19e>
  if (((isrflags & USART_ISR_WUF) != 0U) && ((cr3its & USART_CR3_WUFIE) != 0U))
 80052f0:	f413 1f80 	tst.w	r3, #1048576	@ 0x100000
 80052f4:	d003      	beq.n	80052fe <HAL_UART_IRQHandler+0x56>
 80052f6:	f410 0f80 	tst.w	r0, #4194304	@ 0x400000
 80052fa:	f040 814b 	bne.w	8005594 <HAL_UART_IRQHandler+0x2ec>
  if (((isrflags & USART_ISR_TXE) != 0U)
 80052fe:	f013 0f80 	tst.w	r3, #128	@ 0x80
 8005302:	d003      	beq.n	800530c <HAL_UART_IRQHandler+0x64>
      && ((cr1its & USART_CR1_TXEIE) != 0U))
 8005304:	f011 0f80 	tst.w	r1, #128	@ 0x80
 8005308:	f040 814b 	bne.w	80055a2 <HAL_UART_IRQHandler+0x2fa>
  if (((isrflags & USART_ISR_TC) != 0U) && ((cr1its & USART_CR1_TCIE) != 0U))
 800530c:	f013 0f40 	tst.w	r3, #64	@ 0x40
 8005310:	d003      	beq.n	800531a <HAL_UART_IRQHandler+0x72>
 8005312:	f011 0f40 	tst.w	r1, #64	@ 0x40
 8005316:	f040 814b 	bne.w	80055b0 <HAL_UART_IRQHandler+0x308>
}
 800531a:	bd10      	pop	{r4, pc}
    if (((isrflags & USART_ISR_PE) != 0U) && ((cr1its & USART_CR1_PEIE) != 0U))
 800531c:	f013 0f01 	tst.w	r3, #1
 8005320:	d009      	beq.n	8005336 <HAL_UART_IRQHandler+0x8e>
 8005322:	f411 7f80 	tst.w	r1, #256	@ 0x100
 8005326:	d006      	beq.n	8005336 <HAL_UART_IRQHandler+0x8e>
      __HAL_UART_CLEAR_FLAG(huart, UART_CLEAR_PEF);
 8005328:	2001      	movs	r0, #1
 800532a:	6210      	str	r0, [r2, #32]
      huart->ErrorCode |= HAL_UART_ERROR_PE;
 800532c:	f8d4 2084 	ldr.w	r2, [r4, #132]	@ 0x84
 8005330:	4302      	orrs	r2, r0
 8005332:	f8c4 2084 	str.w	r2, [r4, #132]	@ 0x84
    if (((isrflags & USART_ISR_FE) != 0U) && ((cr3its & USART_CR3_EIE) != 0U))
 8005336:	f013 0f02 	tst.w	r3, #2
 800533a:	d00b      	beq.n	8005354 <HAL_UART_IRQHandler+0xac>
 800533c:	f1bc 0f00 	cmp.w	ip, #0
 8005340:	d008      	beq.n	8005354 <HAL_UART_IRQHandler+0xac>
      __HAL_UART_CLEAR_FLAG(huart, UART_CLEAR_FEF);
 8005342:	6822      	ldr	r2, [r4, #0]
 8005344:	2002      	movs	r0, #2
 8005346:	6210      	str	r0, [r2, #32]
      huart->ErrorCode |= HAL_UART_ERROR_FE;
 8005348:	f8d4 2084 	ldr.w	r2, [r4, #132]	@ 0x84
 800534c:	f042 0204 	orr.w	r2, r2, #4
 8005350:	f8c4 2084 	str.w	r2, [r4, #132]	@ 0x84
    if (((isrflags & USART_ISR_NE) != 0U) && ((cr3its & USART_CR3_EIE) != 0U))
 8005354:	f013 0f04 	tst.w	r3, #4
 8005358:	d00b      	beq.n	8005372 <HAL_UART_IRQHandler+0xca>
 800535a:	f1bc 0f00 	cmp.w	ip, #0
 800535e:	d008      	beq.n	8005372 <HAL_UART_IRQHandler+0xca>
      __HAL_UART_CLEAR_FLAG(huart, UART_CLEAR_NEF);
 8005360:	6822      	ldr	r2, [r4, #0]
 8005362:	2004      	movs	r0, #4
 8005364:	6210      	str	r0, [r2, #32]
      huart->ErrorCode |= HAL_UART_ERROR_NE;
 8005366:	f8d4 2084 	ldr.w	r2, [r4, #132]	@ 0x84
 800536a:	f042 0202 	orr.w	r2, r2, #2
 800536e:	f8c4 2084 	str.w	r2, [r4, #132]	@ 0x84
    if (((isrflags & USART_ISR_ORE) != 0U)
 8005372:	f013 0f08 	tst.w	r3, #8
 8005376:	d00d      	beq.n	8005394 <HAL_UART_IRQHandler+0xec>
        && (((cr1its & USART_CR1_RXNEIE) != 0U) ||
 8005378:	f011 0f20 	tst.w	r1, #32
 800537c:	d102      	bne.n	8005384 <HAL_UART_IRQHandler+0xdc>
 800537e:	f1bc 0f00 	cmp.w	ip, #0
 8005382:	d007      	beq.n	8005394 <HAL_UART_IRQHandler+0xec>
      __HAL_UART_CLEAR_FLAG(huart, UART_CLEAR_OREF);
 8005384:	6822      	ldr	r2, [r4, #0]
 8005386:	2008      	movs	r0, #8
 8005388:	6210      	str	r0, [r2, #32]
      huart->ErrorCode |= HAL_UART_ERROR_ORE;
 800538a:	f8d4 2084 	ldr.w	r2, [r4, #132]	@ 0x84
 800538e:	4302      	orrs	r2, r0
 8005390:	f8c4 2084 	str.w	r2, [r4, #132]	@ 0x84
    if (((isrflags & USART_ISR_RTOF) != 0U) && ((cr1its & USART_CR1_RTOIE) != 0U))
 8005394:	f413 6f00 	tst.w	r3, #2048	@ 0x800
 8005398:	d00c      	beq.n	80053b4 <HAL_UART_IRQHandler+0x10c>
 800539a:	f011 6f80 	tst.w	r1, #67108864	@ 0x4000000
 800539e:	d009      	beq.n	80053b4 <HAL_UART_IRQHandler+0x10c>
      __HAL_UART_CLEAR_FLAG(huart, UART_CLEAR_RTOF);
 80053a0:	6822      	ldr	r2, [r4, #0]
 80053a2:	f44f 6000 	mov.w	r0, #2048	@ 0x800
 80053a6:	6210      	str	r0, [r2, #32]
      huart->ErrorCode |= HAL_UART_ERROR_RTO;
 80053a8:	f8d4 2084 	ldr.w	r2, [r4, #132]	@ 0x84
 80053ac:	f042 0220 	orr.w	r2, r2, #32
 80053b0:	f8c4 2084 	str.w	r2, [r4, #132]	@ 0x84
    if (huart->ErrorCode != HAL_UART_ERROR_NONE)
 80053b4:	f8d4 2084 	ldr.w	r2, [r4, #132]	@ 0x84
 80053b8:	2a00      	cmp	r2, #0
 80053ba:	d0ae      	beq.n	800531a <HAL_UART_IRQHandler+0x72>
      if (((isrflags & USART_ISR_RXNE) != 0U)
 80053bc:	f013 0f20 	tst.w	r3, #32
 80053c0:	d006      	beq.n	80053d0 <HAL_UART_IRQHandler+0x128>
          && ((cr1its & USART_CR1_RXNEIE) != 0U))
 80053c2:	f011 0f20 	tst.w	r1, #32
 80053c6:	d003      	beq.n	80053d0 <HAL_UART_IRQHandler+0x128>
        if (huart->RxISR != NULL)
 80053c8:	6ea3      	ldr	r3, [r4, #104]	@ 0x68
 80053ca:	b10b      	cbz	r3, 80053d0 <HAL_UART_IRQHandler+0x128>
          huart->RxISR(huart);
 80053cc:	4620      	mov	r0, r4
 80053ce:	4798      	blx	r3
      errorcode = huart->ErrorCode;
 80053d0:	f8d4 2084 	ldr.w	r2, [r4, #132]	@ 0x84
      if ((HAL_IS_BIT_SET(huart->Instance->CR3, USART_CR3_DMAR)) ||
 80053d4:	6823      	ldr	r3, [r4, #0]
 80053d6:	689b      	ldr	r3, [r3, #8]
 80053d8:	f013 0f40 	tst.w	r3, #64	@ 0x40
 80053dc:	d102      	bne.n	80053e4 <HAL_UART_IRQHandler+0x13c>
 80053de:	f012 0f28 	tst.w	r2, #40	@ 0x28
 80053e2:	d029      	beq.n	8005438 <HAL_UART_IRQHandler+0x190>
        UART_EndRxTransfer(huart);
 80053e4:	4620      	mov	r0, r4
 80053e6:	f7ff fef6 	bl	80051d6 <UART_EndRxTransfer>
        if (HAL_IS_BIT_SET(huart->Instance->CR3, USART_CR3_DMAR))
 80053ea:	6823      	ldr	r3, [r4, #0]
 80053ec:	689b      	ldr	r3, [r3, #8]
 80053ee:	f013 0f40 	tst.w	r3, #64	@ 0x40
 80053f2:	d01d      	beq.n	8005430 <HAL_UART_IRQHandler+0x188>
          ATOMIC_CLEAR_BIT(huart->Instance->CR3, USART_CR3_DMAR);
 80053f4:	6822      	ldr	r2, [r4, #0]
   __ASM volatile ("ldrex %0, %1" : "=r" (result) : "Q" (*addr) );
 80053f6:	f102 0308 	add.w	r3, r2, #8
 80053fa:	e853 3f00 	ldrex	r3, [r3]
 80053fe:	f023 0340 	bic.w	r3, r3, #64	@ 0x40
   __ASM volatile ("strex %0, %2, %1" : "=&r" (result), "=Q" (*addr) : "r" (value) );
 8005402:	3208      	adds	r2, #8
 8005404:	e842 3100 	strex	r1, r3, [r2]
 8005408:	2900      	cmp	r1, #0
 800540a:	d1f3      	bne.n	80053f4 <HAL_UART_IRQHandler+0x14c>
          if (huart->hdmarx != NULL)
 800540c:	6f63      	ldr	r3, [r4, #116]	@ 0x74
 800540e:	b15b      	cbz	r3, 8005428 <HAL_UART_IRQHandler+0x180>
            huart->hdmarx->XferAbortCallback = UART_DMAAbortOnError;
 8005410:	4a69      	ldr	r2, [pc, #420]	@ (80055b8 <HAL_UART_IRQHandler+0x310>)
 8005412:	639a      	str	r2, [r3, #56]	@ 0x38
            if (HAL_DMA_Abort_IT(huart->hdmarx) != HAL_OK)
 8005414:	6f60      	ldr	r0, [r4, #116]	@ 0x74
 8005416:	f7fc fa3f 	bl	8001898 <HAL_DMA_Abort_IT>
 800541a:	2800      	cmp	r0, #0
 800541c:	f43f af7d 	beq.w	800531a <HAL_UART_IRQHandler+0x72>
              huart->hdmarx->XferAbortCallback(huart->hdmarx);
 8005420:	6f60      	ldr	r0, [r4, #116]	@ 0x74
 8005422:	6b83      	ldr	r3, [r0, #56]	@ 0x38
 8005424:	4798      	blx	r3
 8005426:	e778      	b.n	800531a <HAL_UART_IRQHandler+0x72>
            HAL_UART_ErrorCallback(huart);
 8005428:	4620      	mov	r0, r4
 800542a:	f7ff ff10 	bl	800524e <HAL_UART_ErrorCallback>
 800542e:	e774      	b.n	800531a <HAL_UART_IRQHandler+0x72>
          HAL_UART_ErrorCallback(huart);
 8005430:	4620      	mov	r0, r4
 8005432:	f7ff ff0c 	bl	800524e <HAL_UART_ErrorCallback>
 8005436:	e770      	b.n	800531a <HAL_UART_IRQHandler+0x72>
        HAL_UART_ErrorCallback(huart);
 8005438:	4620      	mov	r0, r4
 800543a:	f7ff ff08 	bl	800524e <HAL_UART_ErrorCallback>
        huart->ErrorCode = HAL_UART_ERROR_NONE;
 800543e:	2300      	movs	r3, #0
 8005440:	f8c4 3084 	str.w	r3, [r4, #132]	@ 0x84
    return;
 8005444:	e769      	b.n	800531a <HAL_UART_IRQHandler+0x72>
      && ((isrflags & USART_ISR_IDLE) != 0U)
 8005446:	f013 0f10 	tst.w	r3, #16
 800544a:	f43f af51 	beq.w	80052f0 <HAL_UART_IRQHandler+0x48>
      && ((cr1its & USART_ISR_IDLE) != 0U))
 800544e:	f011 0f10 	tst.w	r1, #16
 8005452:	f43f af4d 	beq.w	80052f0 <HAL_UART_IRQHandler+0x48>
    __HAL_UART_CLEAR_FLAG(huart, UART_CLEAR_IDLEF);
 8005456:	2310      	movs	r3, #16
 8005458:	6213      	str	r3, [r2, #32]
    if (HAL_IS_BIT_SET(huart->Instance->CR3, USART_CR3_DMAR))
 800545a:	6823      	ldr	r3, [r4, #0]
 800545c:	689b      	ldr	r3, [r3, #8]
 800545e:	f013 0f40 	tst.w	r3, #64	@ 0x40
 8005462:	d05e      	beq.n	8005522 <HAL_UART_IRQHandler+0x27a>
      uint16_t nb_remaining_rx_data = (uint16_t) __HAL_DMA_GET_COUNTER(huart->hdmarx);
 8005464:	6f61      	ldr	r1, [r4, #116]	@ 0x74
 8005466:	680a      	ldr	r2, [r1, #0]
 8005468:	6853      	ldr	r3, [r2, #4]
 800546a:	b29b      	uxth	r3, r3
      if ((nb_remaining_rx_data > 0U)
 800546c:	2b00      	cmp	r3, #0
 800546e:	d048      	beq.n	8005502 <HAL_UART_IRQHandler+0x25a>
          && (nb_remaining_rx_data < huart->RxXferSize))
 8005470:	f8b4 0058 	ldrh.w	r0, [r4, #88]	@ 0x58
 8005474:	4298      	cmp	r0, r3
 8005476:	d944      	bls.n	8005502 <HAL_UART_IRQHandler+0x25a>
        huart->RxXferCount = nb_remaining_rx_data;
 8005478:	f8a4 305a 	strh.w	r3, [r4, #90]	@ 0x5a
        if (HAL_IS_BIT_CLR(huart->hdmarx->Instance->CCR, DMA_CCR_CIRC))
 800547c:	680b      	ldr	r3, [r1, #0]
 800547e:	681b      	ldr	r3, [r3, #0]
 8005480:	f013 0f20 	tst.w	r3, #32
 8005484:	d130      	bne.n	80054e8 <HAL_UART_IRQHandler+0x240>
          ATOMIC_CLEAR_BIT(huart->Instance->CR1, USART_CR1_PEIE);
 8005486:	6822      	ldr	r2, [r4, #0]
   __ASM volatile ("ldrex %0, %1" : "=r" (result) : "Q" (*addr) );
 8005488:	e852 3f00 	ldrex	r3, [r2]
 800548c:	f423 7380 	bic.w	r3, r3, #256	@ 0x100
   __ASM volatile ("strex %0, %2, %1" : "=&r" (result), "=Q" (*addr) : "r" (value) );
 8005490:	e842 3100 	strex	r1, r3, [r2]
 8005494:	2900      	cmp	r1, #0
 8005496:	d1f6      	bne.n	8005486 <HAL_UART_IRQHandler+0x1de>
          ATOMIC_CLEAR_BIT(huart->Instance->CR3, USART_CR3_EIE);
 8005498:	6822      	ldr	r2, [r4, #0]
   __ASM volatile ("ldrex %0, %1" : "=r" (result) : "Q" (*addr) );
 800549a:	f102 0308 	add.w	r3, r2, #8
 800549e:	e853 3f00 	ldrex	r3, [r3]
 80054a2:	f023 0301 	bic.w	r3, r3, #1
   __ASM volatile ("strex %0, %2, %1" : "=&r" (result), "=Q" (*addr) : "r" (value) );
 80054a6:	3208      	adds	r2, #8
 80054a8:	e842 3100 	strex	r1, r3, [r2]
 80054ac:	2900      	cmp	r1, #0
 80054ae:	d1f3      	bne.n	8005498 <HAL_UART_IRQHandler+0x1f0>
          ATOMIC_CLEAR_BIT(huart->Instance->CR3, USART_CR3_DMAR);
 80054b0:	6822      	ldr	r2, [r4, #0]
   __ASM volatile ("ldrex %0, %1" : "=r" (result) : "Q" (*addr) );
 80054b2:	f102 0308 	add.w	r3, r2, #8
 80054b6:	e853 3f00 	ldrex	r3, [r3]
 80054ba:	f023 0340 	bic.w	r3, r3, #64	@ 0x40
   __ASM volatile ("strex %0, %2, %1" : "=&r" (result), "=Q" (*addr) : "r" (value) );
 80054be:	3208      	adds	r2, #8
 80054c0:	e842 3100 	strex	r1, r3, [r2]
 80054c4:	2900      	cmp	r1, #0
 80054c6:	d1f3      	bne.n	80054b0 <HAL_UART_IRQHandler+0x208>
          huart->RxState = HAL_UART_STATE_READY;
 80054c8:	2320      	movs	r3, #32
 80054ca:	f8c4 3080 	str.w	r3, [r4, #128]	@ 0x80
          huart->ReceptionType = HAL_UART_RECEPTION_STANDARD;
 80054ce:	6621      	str	r1, [r4, #96]	@ 0x60
          ATOMIC_CLEAR_BIT(huart->Instance->CR1, USART_CR1_IDLEIE);
 80054d0:	6822      	ldr	r2, [r4, #0]
   __ASM volatile ("ldrex %0, %1" : "=r" (result) : "Q" (*addr) );
 80054d2:	e852 3f00 	ldrex	r3, [r2]
 80054d6:	f023 0310 	bic.w	r3, r3, #16
   __ASM volatile ("strex %0, %2, %1" : "=&r" (result), "=Q" (*addr) : "r" (value) );
 80054da:	e842 3100 	strex	r1, r3, [r2]
 80054de:	2900      	cmp	r1, #0
 80054e0:	d1f6      	bne.n	80054d0 <HAL_UART_IRQHandler+0x228>
          (void)HAL_DMA_Abort(huart->hdmarx);
 80054e2:	6f60      	ldr	r0, [r4, #116]	@ 0x74
 80054e4:	f7fc f9b1 	bl	800184a <HAL_DMA_Abort>
        huart->RxEventType = HAL_UART_RXEVENT_IDLE;
 80054e8:	2302      	movs	r3, #2
 80054ea:	6663      	str	r3, [r4, #100]	@ 0x64
        HAL_UARTEx_RxEventCallback(huart, (huart->RxXferSize - huart->RxXferCount));
 80054ec:	f8b4 1058 	ldrh.w	r1, [r4, #88]	@ 0x58
 80054f0:	f8b4 305a 	ldrh.w	r3, [r4, #90]	@ 0x5a
 80054f4:	b29b      	uxth	r3, r3
 80054f6:	1ac9      	subs	r1, r1, r3
 80054f8:	b289      	uxth	r1, r1
 80054fa:	4620      	mov	r0, r4
 80054fc:	f7fb fa50 	bl	80009a0 <HAL_UARTEx_RxEventCallback>
 8005500:	e70b      	b.n	800531a <HAL_UART_IRQHandler+0x72>
        if (nb_remaining_rx_data == huart->RxXferSize)
 8005502:	f8b4 1058 	ldrh.w	r1, [r4, #88]	@ 0x58
 8005506:	4299      	cmp	r1, r3
 8005508:	f47f af07 	bne.w	800531a <HAL_UART_IRQHandler+0x72>
          if (HAL_IS_BIT_SET(huart->hdmarx->Instance->CCR, DMA_CCR_CIRC))
 800550c:	6813      	ldr	r3, [r2, #0]
 800550e:	f013 0f20 	tst.w	r3, #32
 8005512:	f43f af02 	beq.w	800531a <HAL_UART_IRQHandler+0x72>
            huart->RxEventType = HAL_UART_RXEVENT_IDLE;
 8005516:	2302      	movs	r3, #2
 8005518:	6663      	str	r3, [r4, #100]	@ 0x64
            HAL_UARTEx_RxEventCallback(huart, huart->RxXferSize);
 800551a:	4620      	mov	r0, r4
 800551c:	f7fb fa40 	bl	80009a0 <HAL_UARTEx_RxEventCallback>
      return;
 8005520:	e6fb      	b.n	800531a <HAL_UART_IRQHandler+0x72>
      uint16_t nb_rx_data = huart->RxXferSize - huart->RxXferCount;
 8005522:	f8b4 1058 	ldrh.w	r1, [r4, #88]	@ 0x58
 8005526:	f8b4 305a 	ldrh.w	r3, [r4, #90]	@ 0x5a
 800552a:	b29b      	uxth	r3, r3
 800552c:	1ac9      	subs	r1, r1, r3
 800552e:	b289      	uxth	r1, r1
      if ((huart->RxXferCount > 0U)
 8005530:	f8b4 305a 	ldrh.w	r3, [r4, #90]	@ 0x5a
 8005534:	b29b      	uxth	r3, r3
 8005536:	2b00      	cmp	r3, #0
 8005538:	f43f aeef 	beq.w	800531a <HAL_UART_IRQHandler+0x72>
          && (nb_rx_data > 0U))
 800553c:	2900      	cmp	r1, #0
 800553e:	f43f aeec 	beq.w	800531a <HAL_UART_IRQHandler+0x72>
        ATOMIC_CLEAR_BIT(huart->Instance->CR1, (USART_CR1_RXNEIE | USART_CR1_PEIE));
 8005542:	6822      	ldr	r2, [r4, #0]
   __ASM volatile ("ldrex %0, %1" : "=r" (result) : "Q" (*addr) );
 8005544:	e852 3f00 	ldrex	r3, [r2]
 8005548:	f423 7390 	bic.w	r3, r3, #288	@ 0x120
   __ASM volatile ("strex %0, %2, %1" : "=&r" (result), "=Q" (*addr) : "r" (value) );
 800554c:	e842 3000 	strex	r0, r3, [r2]
 8005550:	2800      	cmp	r0, #0
 8005552:	d1f6      	bne.n	8005542 <HAL_UART_IRQHandler+0x29a>
        ATOMIC_CLEAR_BIT(huart->Instance->CR3, USART_CR3_EIE);
 8005554:	6822      	ldr	r2, [r4, #0]
   __ASM volatile ("ldrex %0, %1" : "=r" (result) : "Q" (*addr) );
 8005556:	f102 0308 	add.w	r3, r2, #8
 800555a:	e853 3f00 	ldrex	r3, [r3]
 800555e:	f023 0301 	bic.w	r3, r3, #1
   __ASM volatile ("strex %0, %2, %1" : "=&r" (result), "=Q" (*addr) : "r" (value) );
 8005562:	3208      	adds	r2, #8
 8005564:	e842 3000 	strex	r0, r3, [r2]
 8005568:	2800      	cmp	r0, #0
 800556a:	d1f3      	bne.n	8005554 <HAL_UART_IRQHandler+0x2ac>
        huart->RxState = HAL_UART_STATE_READY;
 800556c:	2320      	movs	r3, #32
 800556e:	f8c4 3080 	str.w	r3, [r4, #128]	@ 0x80
        huart->ReceptionType = HAL_UART_RECEPTION_STANDARD;
 8005572:	6620      	str	r0, [r4, #96]	@ 0x60
        huart->RxISR = NULL;
 8005574:	66a0      	str	r0, [r4, #104]	@ 0x68
        ATOMIC_CLEAR_BIT(huart->Instance->CR1, USART_CR1_IDLEIE);
 8005576:	6822      	ldr	r2, [r4, #0]
   __ASM volatile ("ldrex %0, %1" : "=r" (result) : "Q" (*addr) );
 8005578:	e852 3f00 	ldrex	r3, [r2]
 800557c:	f023 0310 	bic.w	r3, r3, #16
   __ASM volatile ("strex %0, %2, %1" : "=&r" (result), "=Q" (*addr) : "r" (value) );
 8005580:	e842 3000 	strex	r0, r3, [r2]
 8005584:	2800      	cmp	r0, #0
 8005586:	d1f6      	bne.n	8005576 <HAL_UART_IRQHandler+0x2ce>
        huart->RxEventType = HAL_UART_RXEVENT_IDLE;
 8005588:	2302      	movs	r3, #2
 800558a:	6663      	str	r3, [r4, #100]	@ 0x64
        HAL_UARTEx_RxEventCallback(huart, nb_rx_data);
 800558c:	4620      	mov	r0, r4
 800558e:	f7fb fa07 	bl	80009a0 <HAL_UARTEx_RxEventCallback>
      return;
 8005592:	e6c2      	b.n	800531a <HAL_UART_IRQHandler+0x72>
    __HAL_UART_CLEAR_FLAG(huart, UART_CLEAR_WUF);
 8005594:	f44f 1380 	mov.w	r3, #1048576	@ 0x100000
 8005598:	6213      	str	r3, [r2, #32]
    HAL_UARTEx_WakeupCallback(huart);
 800559a:	4620      	mov	r0, r4
 800559c:	f000 fd5e 	bl	800605c <HAL_UARTEx_WakeupCallback>
    return;
 80055a0:	e6bb      	b.n	800531a <HAL_UART_IRQHandler+0x72>
    if (huart->TxISR != NULL)
 80055a2:	6ee3      	ldr	r3, [r4, #108]	@ 0x6c
 80055a4:	2b00      	cmp	r3, #0
 80055a6:	f43f aeb8 	beq.w	800531a <HAL_UART_IRQHandler+0x72>
      huart->TxISR(huart);
 80055aa:	4620      	mov	r0, r4
 80055ac:	4798      	blx	r3
    return;
 80055ae:	e6b4      	b.n	800531a <HAL_UART_IRQHandler+0x72>
    UART_EndTransmit_IT(huart);
 80055b0:	4620      	mov	r0, r4
 80055b2:	f7ff fe3a 	bl	800522a <UART_EndTransmit_IT>
    return;
 80055b6:	e6b0      	b.n	800531a <HAL_UART_IRQHandler+0x72>
 80055b8:	0800529d 	.word	0x0800529d
 80055bc:	04000120 	.word	0x04000120

080055c0 <UART_RxISR_8BIT>:
  * @brief RX interrupt handler for 7 or 8 bits data word length .
  * @param huart UART handle.
  * @retval None
  */
static void UART_RxISR_8BIT(UART_HandleTypeDef *huart)
{
 80055c0:	b508      	push	{r3, lr}
  uint16_t uhMask = huart->Mask;
 80055c2:	f8b0 305c 	ldrh.w	r3, [r0, #92]	@ 0x5c
  uint16_t  uhdata;

  /* Check that a Rx process is ongoing */
  if (huart->RxState == HAL_UART_STATE_BUSY_RX)
 80055c6:	f8d0 2080 	ldr.w	r2, [r0, #128]	@ 0x80
 80055ca:	2a22      	cmp	r2, #34	@ 0x22
 80055cc:	d005      	beq.n	80055da <UART_RxISR_8BIT+0x1a>
    }
  }
  else
  {
    /* Clear RXNE interrupt flag */
    __HAL_UART_SEND_REQ(huart, UART_RXDATA_FLUSH_REQUEST);
 80055ce:	6802      	ldr	r2, [r0, #0]
 80055d0:	6993      	ldr	r3, [r2, #24]
 80055d2:	f043 0308 	orr.w	r3, r3, #8
 80055d6:	6193      	str	r3, [r2, #24]
  }
}
 80055d8:	bd08      	pop	{r3, pc}
    uhdata = (uint16_t) READ_REG(huart->Instance->RDR);
 80055da:	6802      	ldr	r2, [r0, #0]
 80055dc:	6a51      	ldr	r1, [r2, #36]	@ 0x24
    *huart->pRxBuffPtr = (uint8_t)(uhdata & (uint8_t)uhMask);
 80055de:	b2db      	uxtb	r3, r3
 80055e0:	6d42      	ldr	r2, [r0, #84]	@ 0x54
 80055e2:	400b      	ands	r3, r1
 80055e4:	7013      	strb	r3, [r2, #0]
    huart->pRxBuffPtr++;
 80055e6:	6d43      	ldr	r3, [r0, #84]	@ 0x54
 80055e8:	3301      	adds	r3, #1
 80055ea:	6543      	str	r3, [r0, #84]	@ 0x54
    huart->RxXferCount--;
 80055ec:	f8b0 305a 	ldrh.w	r3, [r0, #90]	@ 0x5a
 80055f0:	b29b      	uxth	r3, r3
 80055f2:	3b01      	subs	r3, #1
 80055f4:	b29b      	uxth	r3, r3
 80055f6:	f8a0 305a 	strh.w	r3, [r0, #90]	@ 0x5a
    if (huart->RxXferCount == 0U)
 80055fa:	f8b0 305a 	ldrh.w	r3, [r0, #90]	@ 0x5a
 80055fe:	b29b      	uxth	r3, r3
 8005600:	2b00      	cmp	r3, #0
 8005602:	d1e9      	bne.n	80055d8 <UART_RxISR_8BIT+0x18>
      ATOMIC_CLEAR_BIT(huart->Instance->CR1, (USART_CR1_RXNEIE | USART_CR1_PEIE));
 8005604:	6802      	ldr	r2, [r0, #0]
   __ASM volatile ("ldrex %0, %1" : "=r" (result) : "Q" (*addr) );
 8005606:	e852 3f00 	ldrex	r3, [r2]
 800560a:	f423 7390 	bic.w	r3, r3, #288	@ 0x120
   __ASM volatile ("strex %0, %2, %1" : "=&r" (result), "=Q" (*addr) : "r" (value) );
 800560e:	e842 3100 	strex	r1, r3, [r2]
 8005612:	2900      	cmp	r1, #0
 8005614:	d1f6      	bne.n	8005604 <UART_RxISR_8BIT+0x44>
      ATOMIC_CLEAR_BIT(huart->Instance->CR3, USART_CR3_EIE);
 8005616:	6802      	ldr	r2, [r0, #0]
   __ASM volatile ("ldrex %0, %1" : "=r" (result) : "Q" (*addr) );
 8005618:	f102 0308 	add.w	r3, r2, #8
 800561c:	e853 3f00 	ldrex	r3, [r3]
 8005620:	f023 0301 	bic.w	r3, r3, #1
   __ASM volatile ("strex %0, %2, %1" : "=&r" (result), "=Q" (*addr) : "r" (value) );
 8005624:	3208      	adds	r2, #8
 8005626:	e842 3100 	strex	r1, r3, [r2]
 800562a:	2900      	cmp	r1, #0
 800562c:	d1f3      	bne.n	8005616 <UART_RxISR_8BIT+0x56>
      huart->RxState = HAL_UART_STATE_READY;
 800562e:	2320      	movs	r3, #32
 8005630:	f8c0 3080 	str.w	r3, [r0, #128]	@ 0x80
      huart->RxISR = NULL;
 8005634:	6681      	str	r1, [r0, #104]	@ 0x68
      huart->RxEventType = HAL_UART_RXEVENT_TC;
 8005636:	6641      	str	r1, [r0, #100]	@ 0x64
      if (!(IS_LPUART_INSTANCE(huart->Instance)))
 8005638:	6803      	ldr	r3, [r0, #0]
 800563a:	4a16      	ldr	r2, [pc, #88]	@ (8005694 <UART_RxISR_8BIT+0xd4>)
 800563c:	4293      	cmp	r3, r2
 800563e:	d00c      	beq.n	800565a <UART_RxISR_8BIT+0x9a>
        if (READ_BIT(huart->Instance->CR2, USART_CR2_RTOEN) != 0U)
 8005640:	685b      	ldr	r3, [r3, #4]
 8005642:	f413 0f00 	tst.w	r3, #8388608	@ 0x800000
 8005646:	d008      	beq.n	800565a <UART_RxISR_8BIT+0x9a>
          ATOMIC_CLEAR_BIT(huart->Instance->CR1, USART_CR1_RTOIE);
 8005648:	6802      	ldr	r2, [r0, #0]
   __ASM volatile ("ldrex %0, %1" : "=r" (result) : "Q" (*addr) );
 800564a:	e852 3f00 	ldrex	r3, [r2]
 800564e:	f023 6380 	bic.w	r3, r3, #67108864	@ 0x4000000
   __ASM volatile ("strex %0, %2, %1" : "=&r" (result), "=Q" (*addr) : "r" (value) );
 8005652:	e842 3100 	strex	r1, r3, [r2]
 8005656:	2900      	cmp	r1, #0
 8005658:	d1f6      	bne.n	8005648 <UART_RxISR_8BIT+0x88>
      if (huart->ReceptionType == HAL_UART_RECEPTION_TOIDLE)
 800565a:	6e03      	ldr	r3, [r0, #96]	@ 0x60
 800565c:	2b01      	cmp	r3, #1
 800565e:	d116      	bne.n	800568e <UART_RxISR_8BIT+0xce>
        huart->ReceptionType = HAL_UART_RECEPTION_STANDARD;
 8005660:	2300      	movs	r3, #0
 8005662:	6603      	str	r3, [r0, #96]	@ 0x60
        ATOMIC_CLEAR_BIT(huart->Instance->CR1, USART_CR1_IDLEIE);
 8005664:	6802      	ldr	r2, [r0, #0]
   __ASM volatile ("ldrex %0, %1" : "=r" (result) : "Q" (*addr) );
 8005666:	e852 3f00 	ldrex	r3, [r2]
 800566a:	f023 0310 	bic.w	r3, r3, #16
   __ASM volatile ("strex %0, %2, %1" : "=&r" (result), "=Q" (*addr) : "r" (value) );
 800566e:	e842 3100 	strex	r1, r3, [r2]
 8005672:	2900      	cmp	r1, #0
 8005674:	d1f6      	bne.n	8005664 <UART_RxISR_8BIT+0xa4>
        if (__HAL_UART_GET_FLAG(huart, UART_FLAG_IDLE) == SET)
 8005676:	6803      	ldr	r3, [r0, #0]
 8005678:	69da      	ldr	r2, [r3, #28]
 800567a:	f012 0f10 	tst.w	r2, #16
 800567e:	d001      	beq.n	8005684 <UART_RxISR_8BIT+0xc4>
          __HAL_UART_CLEAR_FLAG(huart, UART_CLEAR_IDLEF);
 8005680:	2210      	movs	r2, #16
 8005682:	621a      	str	r2, [r3, #32]
        HAL_UARTEx_RxEventCallback(huart, huart->RxXferSize);
 8005684:	f8b0 1058 	ldrh.w	r1, [r0, #88]	@ 0x58
 8005688:	f7fb f98a 	bl	80009a0 <HAL_UARTEx_RxEventCallback>
 800568c:	e7a4      	b.n	80055d8 <UART_RxISR_8BIT+0x18>
        HAL_UART_RxCpltCallback(huart);
 800568e:	f7ff fddc 	bl	800524a <HAL_UART_RxCpltCallback>
 8005692:	e7a1      	b.n	80055d8 <UART_RxISR_8BIT+0x18>
 8005694:	40008000 	.word	0x40008000

08005698 <UART_RxISR_16BIT>:
  *         interruptions have been enabled by HAL_UART_Receive_IT()
  * @param huart UART handle.
  * @retval None
  */
static void UART_RxISR_16BIT(UART_HandleTypeDef *huart)
{
 8005698:	b508      	push	{r3, lr}
  uint16_t *tmp;
  uint16_t uhMask = huart->Mask;
 800569a:	f8b0 205c 	ldrh.w	r2, [r0, #92]	@ 0x5c
  uint16_t  uhdata;

  /* Check that a Rx process is ongoing */
  if (huart->RxState == HAL_UART_STATE_BUSY_RX)
 800569e:	f8d0 3080 	ldr.w	r3, [r0, #128]	@ 0x80
 80056a2:	2b22      	cmp	r3, #34	@ 0x22
 80056a4:	d005      	beq.n	80056b2 <UART_RxISR_16BIT+0x1a>
    }
  }
  else
  {
    /* Clear RXNE interrupt flag */
    __HAL_UART_SEND_REQ(huart, UART_RXDATA_FLUSH_REQUEST);
 80056a6:	6802      	ldr	r2, [r0, #0]
 80056a8:	6993      	ldr	r3, [r2, #24]
 80056aa:	f043 0308 	orr.w	r3, r3, #8
 80056ae:	6193      	str	r3, [r2, #24]
  }
}
 80056b0:	bd08      	pop	{r3, pc}
    uhdata = (uint16_t) READ_REG(huart->Instance->RDR);
 80056b2:	6803      	ldr	r3, [r0, #0]
 80056b4:	6a5b      	ldr	r3, [r3, #36]	@ 0x24
    tmp = (uint16_t *) huart->pRxBuffPtr ;
 80056b6:	6d41      	ldr	r1, [r0, #84]	@ 0x54
    *tmp = (uint16_t)(uhdata & uhMask);
 80056b8:	4013      	ands	r3, r2
 80056ba:	800b      	strh	r3, [r1, #0]
    huart->pRxBuffPtr += 2U;
 80056bc:	6d43      	ldr	r3, [r0, #84]	@ 0x54
 80056be:	3302      	adds	r3, #2
 80056c0:	6543      	str	r3, [r0, #84]	@ 0x54
    huart->RxXferCount--;
 80056c2:	f8b0 305a 	ldrh.w	r3, [r0, #90]	@ 0x5a
 80056c6:	b29b      	uxth	r3, r3
 80056c8:	3b01      	subs	r3, #1
 80056ca:	b29b      	uxth	r3, r3
 80056cc:	f8a0 305a 	strh.w	r3, [r0, #90]	@ 0x5a
    if (huart->RxXferCount == 0U)
 80056d0:	f8b0 305a 	ldrh.w	r3, [r0, #90]	@ 0x5a
 80056d4:	b29b      	uxth	r3, r3
 80056d6:	2b00      	cmp	r3, #0
 80056d8:	d1ea      	bne.n	80056b0 <UART_RxISR_16BIT+0x18>
      ATOMIC_CLEAR_BIT(huart->Instance->CR1, (USART_CR1_RXNEIE | USART_CR1_PEIE));
 80056da:	6802      	ldr	r2, [r0, #0]
   __ASM volatile ("ldrex %0, %1" : "=r" (result) : "Q" (*addr) );
 80056dc:	e852 3f00 	ldrex	r3, [r2]
 80056e0:	f423 7390 	bic.w	r3, r3, #288	@ 0x120
   __ASM volatile ("strex %0, %2, %1" : "=&r" (result), "=Q" (*addr) : "r" (value) );
 80056e4:	e842 3100 	strex	r1, r3, [r2]
 80056e8:	2900      	cmp	r1, #0
 80056ea:	d1f6      	bne.n	80056da <UART_RxISR_16BIT+0x42>
      ATOMIC_CLEAR_BIT(huart->Instance->CR3, USART_CR3_EIE);
 80056ec:	6802      	ldr	r2, [r0, #0]
   __ASM volatile ("ldrex %0, %1" : "=r" (result) : "Q" (*addr) );
 80056ee:	f102 0308 	add.w	r3, r2, #8
 80056f2:	e853 3f00 	ldrex	r3, [r3]
 80056f6:	f023 0301 	bic.w	r3, r3, #1
   __ASM volatile ("strex %0, %2, %1" : "=&r" (result), "=Q" (*addr) : "r" (value) );
 80056fa:	3208      	adds	r2, #8
 80056fc:	e842 3100 	strex	r1, r3, [r2]
 8005700:	2900      	cmp	r1, #0
 8005702:	d1f3      	bne.n	80056ec <UART_RxISR_16BIT+0x54>
      huart->RxState = HAL_UART_STATE_READY;
 8005704:	2320      	movs	r3, #32
 8005706:	f8c0 3080 	str.w	r3, [r0, #128]	@ 0x80
      huart->RxISR = NULL;
 800570a:	6681      	str	r1, [r0, #104]	@ 0x68
      huart->RxEventType = HAL_UART_RXEVENT_TC;
 800570c:	6641      	str	r1, [r0, #100]	@ 0x64
      if (!(IS_LPUART_INSTANCE(huart->Instance)))
 800570e:	6803      	ldr	r3, [r0, #0]
 8005710:	4a16      	ldr	r2, [pc, #88]	@ (800576c <UART_RxISR_16BIT+0xd4>)
 8005712:	4293      	cmp	r3, r2
 8005714:	d00c      	beq.n	8005730 <UART_RxISR_16BIT+0x98>
        if (READ_BIT(huart->Instance->CR2, USART_CR2_RTOEN) != 0U)
 8005716:	685b      	ldr	r3, [r3, #4]
 8005718:	f413 0f00 	tst.w	r3, #8388608	@ 0x800000
 800571c:	d008      	beq.n	8005730 <UART_RxISR_16BIT+0x98>
          ATOMIC_CLEAR_BIT(huart->Instance->CR1, USART_CR1_RTOIE);
 800571e:	6802      	ldr	r2, [r0, #0]
   __ASM volatile ("ldrex %0, %1" : "=r" (result) : "Q" (*addr) );
 8005720:	e852 3f00 	ldrex	r3, [r2]
 8005724:	f023 6380 	bic.w	r3, r3, #67108864	@ 0x4000000
   __ASM volatile ("strex %0, %2, %1" : "=&r" (result), "=Q" (*addr) : "r" (value) );
 8005728:	e842 3100 	strex	r1, r3, [r2]
 800572c:	2900      	cmp	r1, #0
 800572e:	d1f6      	bne.n	800571e <UART_RxISR_16BIT+0x86>
      if (huart->ReceptionType == HAL_UART_RECEPTION_TOIDLE)
 8005730:	6e03      	ldr	r3, [r0, #96]	@ 0x60
 8005732:	2b01      	cmp	r3, #1
 8005734:	d116      	bne.n	8005764 <UART_RxISR_16BIT+0xcc>
        huart->ReceptionType = HAL_UART_RECEPTION_STANDARD;
 8005736:	2300      	movs	r3, #0
 8005738:	6603      	str	r3, [r0, #96]	@ 0x60
        ATOMIC_CLEAR_BIT(huart->Instance->CR1, USART_CR1_IDLEIE);
 800573a:	6802      	ldr	r2, [r0, #0]
   __ASM volatile ("ldrex %0, %1" : "=r" (result) : "Q" (*addr) );
 800573c:	e852 3f00 	ldrex	r3, [r2]
 8005740:	f023 0310 	bic.w	r3, r3, #16
   __ASM volatile ("strex %0, %2, %1" : "=&r" (result), "=Q" (*addr) : "r" (value) );
 8005744:	e842 3100 	strex	r1, r3, [r2]
 8005748:	2900      	cmp	r1, #0
 800574a:	d1f6      	bne.n	800573a <UART_RxISR_16BIT+0xa2>
        if (__HAL_UART_GET_FLAG(huart, UART_FLAG_IDLE) == SET)
 800574c:	6803      	ldr	r3, [r0, #0]
 800574e:	69da      	ldr	r2, [r3, #28]
 8005750:	f012 0f10 	tst.w	r2, #16
 8005754:	d001      	beq.n	800575a <UART_RxISR_16BIT+0xc2>
          __HAL_UART_CLEAR_FLAG(huart, UART_CLEAR_IDLEF);
 8005756:	2210      	movs	r2, #16
 8005758:	621a      	str	r2, [r3, #32]
        HAL_UARTEx_RxEventCallback(huart, huart->RxXferSize);
 800575a:	f8b0 1058 	ldrh.w	r1, [r0, #88]	@ 0x58
 800575e:	f7fb f91f 	bl	80009a0 <HAL_UARTEx_RxEventCallback>
 8005762:	e7a5      	b.n	80056b0 <UART_RxISR_16BIT+0x18>
        HAL_UART_RxCpltCallback(huart);
 8005764:	f7ff fd71 	bl	800524a <HAL_UART_RxCpltCallback>
 8005768:	e7a2      	b.n	80056b0 <UART_RxISR_16BIT+0x18>
 800576a:	bf00      	nop
 800576c:	40008000 	.word	0x40008000

08005770 <UART_DMARxHalfCplt>:
{
 8005770:	b508      	push	{r3, lr}
 8005772:	4603      	mov	r3, r0
  UART_HandleTypeDef *huart = (UART_HandleTypeDef *)(hdma->Parent);
 8005774:	6a80      	ldr	r0, [r0, #40]	@ 0x28
  huart->RxEventType = HAL_UART_RXEVENT_HT;
 8005776:	2201      	movs	r2, #1
 8005778:	6642      	str	r2, [r0, #100]	@ 0x64
  if (huart->ReceptionType == HAL_UART_RECEPTION_TOIDLE)
 800577a:	6e02      	ldr	r2, [r0, #96]	@ 0x60
 800577c:	2a01      	cmp	r2, #1
 800577e:	d113      	bne.n	80057a8 <UART_DMARxHalfCplt+0x38>
    huart->RxXferCount = huart->RxXferSize / 2U;
 8005780:	f8b0 1058 	ldrh.w	r1, [r0, #88]	@ 0x58
 8005784:	084a      	lsrs	r2, r1, #1
 8005786:	f8a0 205a 	strh.w	r2, [r0, #90]	@ 0x5a
    uint16_t nb_remaining_rx_data = (uint16_t) __HAL_DMA_GET_COUNTER(hdma);
 800578a:	681b      	ldr	r3, [r3, #0]
 800578c:	685b      	ldr	r3, [r3, #4]
 800578e:	b29b      	uxth	r3, r3
    if (nb_remaining_rx_data <= huart->RxXferSize)
 8005790:	4299      	cmp	r1, r3
 8005792:	d301      	bcc.n	8005798 <UART_DMARxHalfCplt+0x28>
      huart->RxXferCount = nb_remaining_rx_data;
 8005794:	f8a0 305a 	strh.w	r3, [r0, #90]	@ 0x5a
    HAL_UARTEx_RxEventCallback(huart, (huart->RxXferSize - huart->RxXferCount));
 8005798:	f8b0 305a 	ldrh.w	r3, [r0, #90]	@ 0x5a
 800579c:	b29b      	uxth	r3, r3
 800579e:	1ac9      	subs	r1, r1, r3
 80057a0:	b289      	uxth	r1, r1
 80057a2:	f7fb f8fd 	bl	80009a0 <HAL_UARTEx_RxEventCallback>
}
 80057a6:	bd08      	pop	{r3, pc}
    HAL_UART_RxHalfCpltCallback(huart);
 80057a8:	f7ff fd50 	bl	800524c <HAL_UART_RxHalfCpltCallback>
}
 80057ac:	e7fb      	b.n	80057a6 <UART_DMARxHalfCplt+0x36>

080057ae <UART_DMAReceiveCplt>:
{
 80057ae:	b508      	push	{r3, lr}
 80057b0:	4684      	mov	ip, r0
  UART_HandleTypeDef *huart = (UART_HandleTypeDef *)(hdma->Parent);
 80057b2:	6a80      	ldr	r0, [r0, #40]	@ 0x28
  if (HAL_IS_BIT_CLR(hdma->Instance->CCR, DMA_CCR_CIRC))
 80057b4:	f8dc 3000 	ldr.w	r3, [ip]
 80057b8:	681b      	ldr	r3, [r3, #0]
 80057ba:	f013 0f20 	tst.w	r3, #32
 80057be:	d126      	bne.n	800580e <UART_DMAReceiveCplt+0x60>
    ATOMIC_CLEAR_BIT(huart->Instance->CR1, USART_CR1_PEIE);
 80057c0:	6802      	ldr	r2, [r0, #0]
   __ASM volatile ("ldrex %0, %1" : "=r" (result) : "Q" (*addr) );
 80057c2:	e852 3f00 	ldrex	r3, [r2]
 80057c6:	f423 7380 	bic.w	r3, r3, #256	@ 0x100
   __ASM volatile ("strex %0, %2, %1" : "=&r" (result), "=Q" (*addr) : "r" (value) );
 80057ca:	e842 3100 	strex	r1, r3, [r2]
 80057ce:	2900      	cmp	r1, #0
 80057d0:	d1f6      	bne.n	80057c0 <UART_DMAReceiveCplt+0x12>
    ATOMIC_CLEAR_BIT(huart->Instance->CR3, USART_CR3_EIE);
 80057d2:	6802      	ldr	r2, [r0, #0]
   __ASM volatile ("ldrex %0, %1" : "=r" (result) : "Q" (*addr) );
 80057d4:	f102 0308 	add.w	r3, r2, #8
 80057d8:	e853 3f00 	ldrex	r3, [r3]
 80057dc:	f023 0301 	bic.w	r3, r3, #1
   __ASM volatile ("strex %0, %2, %1" : "=&r" (result), "=Q" (*addr) : "r" (value) );
 80057e0:	3208      	adds	r2, #8
 80057e2:	e842 3100 	strex	r1, r3, [r2]
 80057e6:	2900      	cmp	r1, #0
 80057e8:	d1f3      	bne.n	80057d2 <UART_DMAReceiveCplt+0x24>
    ATOMIC_CLEAR_BIT(huart->Instance->CR3, USART_CR3_DMAR);
 80057ea:	6802      	ldr	r2, [r0, #0]
   __ASM volatile ("ldrex %0, %1" : "=r" (result) : "Q" (*addr) );
 80057ec:	f102 0308 	add.w	r3, r2, #8
 80057f0:	e853 3f00 	ldrex	r3, [r3]
 80057f4:	f023 0340 	bic.w	r3, r3, #64	@ 0x40
   __ASM volatile ("strex %0, %2, %1" : "=&r" (result), "=Q" (*addr) : "r" (value) );
 80057f8:	3208      	adds	r2, #8
 80057fa:	e842 3100 	strex	r1, r3, [r2]
 80057fe:	2900      	cmp	r1, #0
 8005800:	d1f3      	bne.n	80057ea <UART_DMAReceiveCplt+0x3c>
    huart->RxState = HAL_UART_STATE_READY;
 8005802:	2320      	movs	r3, #32
 8005804:	f8c0 3080 	str.w	r3, [r0, #128]	@ 0x80
    if (huart->ReceptionType == HAL_UART_RECEPTION_TOIDLE)
 8005808:	6e03      	ldr	r3, [r0, #96]	@ 0x60
 800580a:	2b01      	cmp	r3, #1
 800580c:	d016      	beq.n	800583c <UART_DMAReceiveCplt+0x8e>
  huart->RxEventType = HAL_UART_RXEVENT_TC;
 800580e:	2300      	movs	r3, #0
 8005810:	6643      	str	r3, [r0, #100]	@ 0x64
  if (huart->ReceptionType == HAL_UART_RECEPTION_TOIDLE)
 8005812:	6e03      	ldr	r3, [r0, #96]	@ 0x60
 8005814:	2b01      	cmp	r3, #1
 8005816:	d11b      	bne.n	8005850 <UART_DMAReceiveCplt+0xa2>
    uint16_t nb_remaining_rx_data = (uint16_t) __HAL_DMA_GET_COUNTER(hdma);
 8005818:	f8dc 3000 	ldr.w	r3, [ip]
 800581c:	685b      	ldr	r3, [r3, #4]
 800581e:	b29b      	uxth	r3, r3
    if (nb_remaining_rx_data < huart->RxXferSize)
 8005820:	f8b0 1058 	ldrh.w	r1, [r0, #88]	@ 0x58
 8005824:	4299      	cmp	r1, r3
 8005826:	d901      	bls.n	800582c <UART_DMAReceiveCplt+0x7e>
      huart->RxXferCount = nb_remaining_rx_data;
 8005828:	f8a0 305a 	strh.w	r3, [r0, #90]	@ 0x5a
    HAL_UARTEx_RxEventCallback(huart, (huart->RxXferSize - huart->RxXferCount));
 800582c:	f8b0 305a 	ldrh.w	r3, [r0, #90]	@ 0x5a
 8005830:	b29b      	uxth	r3, r3
 8005832:	1ac9      	subs	r1, r1, r3
 8005834:	b289      	uxth	r1, r1
 8005836:	f7fb f8b3 	bl	80009a0 <HAL_UARTEx_RxEventCallback>
}
 800583a:	bd08      	pop	{r3, pc}
      ATOMIC_CLEAR_BIT(huart->Instance->CR1, USART_CR1_IDLEIE);
 800583c:	6802      	ldr	r2, [r0, #0]
   __ASM volatile ("ldrex %0, %1" : "=r" (result) : "Q" (*addr) );
 800583e:	e852 3f00 	ldrex	r3, [r2]
 8005842:	f023 0310 	bic.w	r3, r3, #16
   __ASM volatile ("strex %0, %2, %1" : "=&r" (result), "=Q" (*addr) : "r" (value) );
 8005846:	e842 3100 	strex	r1, r3, [r2]
 800584a:	2900      	cmp	r1, #0
 800584c:	d1f6      	bne.n	800583c <UART_DMAReceiveCplt+0x8e>
 800584e:	e7de      	b.n	800580e <UART_DMAReceiveCplt+0x60>
    HAL_UART_RxCpltCallback(huart);
 8005850:	f7ff fcfb 	bl	800524a <HAL_UART_RxCpltCallback>
}
 8005854:	e7f1      	b.n	800583a <UART_DMAReceiveCplt+0x8c>
	...

08005858 <UART_SetConfig>:
{
 8005858:	b510      	push	{r4, lr}
 800585a:	4604      	mov	r4, r0
  tmpreg = (uint32_t)huart->Init.WordLength | huart->Init.Parity | huart->Init.Mode | huart->Init.OverSampling ;
 800585c:	6883      	ldr	r3, [r0, #8]
 800585e:	6902      	ldr	r2, [r0, #16]
 8005860:	4313      	orrs	r3, r2
 8005862:	6942      	ldr	r2, [r0, #20]
 8005864:	4313      	orrs	r3, r2
 8005866:	69c2      	ldr	r2, [r0, #28]
 8005868:	4313      	orrs	r3, r2
  MODIFY_REG(huart->Instance->CR1, USART_CR1_FIELDS, tmpreg);
 800586a:	6801      	ldr	r1, [r0, #0]
 800586c:	6808      	ldr	r0, [r1, #0]
 800586e:	4a91      	ldr	r2, [pc, #580]	@ (8005ab4 <UART_SetConfig+0x25c>)
 8005870:	4002      	ands	r2, r0
 8005872:	431a      	orrs	r2, r3
 8005874:	600a      	str	r2, [r1, #0]
  MODIFY_REG(huart->Instance->CR2, USART_CR2_STOP, huart->Init.StopBits);
 8005876:	6822      	ldr	r2, [r4, #0]
 8005878:	6853      	ldr	r3, [r2, #4]
 800587a:	f423 5340 	bic.w	r3, r3, #12288	@ 0x3000
 800587e:	68e1      	ldr	r1, [r4, #12]
 8005880:	430b      	orrs	r3, r1
 8005882:	6053      	str	r3, [r2, #4]
  tmpreg = (uint32_t)huart->Init.HwFlowCtl;
 8005884:	69a1      	ldr	r1, [r4, #24]
  if (!(UART_INSTANCE_LOWPOWER(huart)))
 8005886:	6822      	ldr	r2, [r4, #0]
 8005888:	4b8b      	ldr	r3, [pc, #556]	@ (8005ab8 <UART_SetConfig+0x260>)
 800588a:	429a      	cmp	r2, r3
 800588c:	d001      	beq.n	8005892 <UART_SetConfig+0x3a>
    tmpreg |= huart->Init.OneBitSampling;
 800588e:	6a23      	ldr	r3, [r4, #32]
 8005890:	4319      	orrs	r1, r3
  MODIFY_REG(huart->Instance->CR3, USART_CR3_FIELDS, tmpreg);
 8005892:	6893      	ldr	r3, [r2, #8]
 8005894:	f423 6330 	bic.w	r3, r3, #2816	@ 0xb00
 8005898:	430b      	orrs	r3, r1
 800589a:	6093      	str	r3, [r2, #8]
  UART_GETCLOCKSOURCE(huart, clocksource);
 800589c:	6823      	ldr	r3, [r4, #0]
 800589e:	4a87      	ldr	r2, [pc, #540]	@ (8005abc <UART_SetConfig+0x264>)
 80058a0:	4293      	cmp	r3, r2
 80058a2:	d026      	beq.n	80058f2 <UART_SetConfig+0x9a>
 80058a4:	4a86      	ldr	r2, [pc, #536]	@ (8005ac0 <UART_SetConfig+0x268>)
 80058a6:	4293      	cmp	r3, r2
 80058a8:	d036      	beq.n	8005918 <UART_SetConfig+0xc0>
 80058aa:	4a86      	ldr	r2, [pc, #536]	@ (8005ac4 <UART_SetConfig+0x26c>)
 80058ac:	4293      	cmp	r3, r2
 80058ae:	d046      	beq.n	800593e <UART_SetConfig+0xe6>
 80058b0:	4a85      	ldr	r2, [pc, #532]	@ (8005ac8 <UART_SetConfig+0x270>)
 80058b2:	4293      	cmp	r3, r2
 80058b4:	d056      	beq.n	8005964 <UART_SetConfig+0x10c>
 80058b6:	4a85      	ldr	r2, [pc, #532]	@ (8005acc <UART_SetConfig+0x274>)
 80058b8:	4293      	cmp	r3, r2
 80058ba:	d066      	beq.n	800598a <UART_SetConfig+0x132>
 80058bc:	4a7e      	ldr	r2, [pc, #504]	@ (8005ab8 <UART_SetConfig+0x260>)
 80058be:	4293      	cmp	r3, r2
 80058c0:	d079      	beq.n	80059b6 <UART_SetConfig+0x15e>
 80058c2:	2210      	movs	r2, #16
  if (UART_INSTANCE_LOWPOWER(huart))
 80058c4:	497c      	ldr	r1, [pc, #496]	@ (8005ab8 <UART_SetConfig+0x260>)
 80058c6:	428b      	cmp	r3, r1
 80058c8:	f000 80b0 	beq.w	8005a2c <UART_SetConfig+0x1d4>
  else if (huart->Init.OverSampling == UART_OVERSAMPLING_8)
 80058cc:	69e0      	ldr	r0, [r4, #28]
 80058ce:	f5b0 4f00 	cmp.w	r0, #32768	@ 0x8000
 80058d2:	f000 80de 	beq.w	8005a92 <UART_SetConfig+0x23a>
    switch (clocksource)
 80058d6:	2a02      	cmp	r2, #2
 80058d8:	f000 813f 	beq.w	8005b5a <UART_SetConfig+0x302>
 80058dc:	f240 811a 	bls.w	8005b14 <UART_SetConfig+0x2bc>
 80058e0:	2a04      	cmp	r2, #4
 80058e2:	f000 8137 	beq.w	8005b54 <UART_SetConfig+0x2fc>
 80058e6:	2a08      	cmp	r2, #8
 80058e8:	f040 811c 	bne.w	8005b24 <UART_SetConfig+0x2cc>
        pclk = (uint32_t) LSE_VALUE;
 80058ec:	f44f 4000 	mov.w	r0, #32768	@ 0x8000
 80058f0:	e11d      	b.n	8005b2e <UART_SetConfig+0x2d6>
  UART_GETCLOCKSOURCE(huart, clocksource);
 80058f2:	f502 4258 	add.w	r2, r2, #55296	@ 0xd800
 80058f6:	f8d2 2088 	ldr.w	r2, [r2, #136]	@ 0x88
 80058fa:	f002 0203 	and.w	r2, r2, #3
 80058fe:	2a02      	cmp	r2, #2
 8005900:	d070      	beq.n	80059e4 <UART_SetConfig+0x18c>
 8005902:	d805      	bhi.n	8005910 <UART_SetConfig+0xb8>
 8005904:	2a00      	cmp	r2, #0
 8005906:	d06f      	beq.n	80059e8 <UART_SetConfig+0x190>
 8005908:	2a01      	cmp	r2, #1
 800590a:	d16f      	bne.n	80059ec <UART_SetConfig+0x194>
 800590c:	2204      	movs	r2, #4
 800590e:	e7d9      	b.n	80058c4 <UART_SetConfig+0x6c>
 8005910:	2a03      	cmp	r2, #3
 8005912:	d16d      	bne.n	80059f0 <UART_SetConfig+0x198>
 8005914:	2208      	movs	r2, #8
 8005916:	e7d5      	b.n	80058c4 <UART_SetConfig+0x6c>
 8005918:	f502 32e6 	add.w	r2, r2, #117760	@ 0x1cc00
 800591c:	f8d2 2088 	ldr.w	r2, [r2, #136]	@ 0x88
 8005920:	f002 020c 	and.w	r2, r2, #12
 8005924:	2a08      	cmp	r2, #8
 8005926:	d065      	beq.n	80059f4 <UART_SetConfig+0x19c>
 8005928:	d805      	bhi.n	8005936 <UART_SetConfig+0xde>
 800592a:	2a00      	cmp	r2, #0
 800592c:	d0ca      	beq.n	80058c4 <UART_SetConfig+0x6c>
 800592e:	2a04      	cmp	r2, #4
 8005930:	d0c8      	beq.n	80058c4 <UART_SetConfig+0x6c>
 8005932:	2210      	movs	r2, #16
 8005934:	e7c6      	b.n	80058c4 <UART_SetConfig+0x6c>
 8005936:	2a0c      	cmp	r2, #12
 8005938:	d15e      	bne.n	80059f8 <UART_SetConfig+0x1a0>
 800593a:	2208      	movs	r2, #8
 800593c:	e7c2      	b.n	80058c4 <UART_SetConfig+0x6c>
 800593e:	f502 32e4 	add.w	r2, r2, #116736	@ 0x1c800
 8005942:	f8d2 2088 	ldr.w	r2, [r2, #136]	@ 0x88
 8005946:	f002 0230 	and.w	r2, r2, #48	@ 0x30
 800594a:	2a20      	cmp	r2, #32
 800594c:	d056      	beq.n	80059fc <UART_SetConfig+0x1a4>
 800594e:	d805      	bhi.n	800595c <UART_SetConfig+0x104>
 8005950:	2a00      	cmp	r2, #0
 8005952:	d0b7      	beq.n	80058c4 <UART_SetConfig+0x6c>
 8005954:	2a10      	cmp	r2, #16
 8005956:	d153      	bne.n	8005a00 <UART_SetConfig+0x1a8>
 8005958:	2204      	movs	r2, #4
 800595a:	e7b3      	b.n	80058c4 <UART_SetConfig+0x6c>
 800595c:	2a30      	cmp	r2, #48	@ 0x30
 800595e:	d151      	bne.n	8005a04 <UART_SetConfig+0x1ac>
 8005960:	2208      	movs	r2, #8
 8005962:	e7af      	b.n	80058c4 <UART_SetConfig+0x6c>
 8005964:	f502 32e2 	add.w	r2, r2, #115712	@ 0x1c400
 8005968:	f8d2 2088 	ldr.w	r2, [r2, #136]	@ 0x88
 800596c:	f002 02c0 	and.w	r2, r2, #192	@ 0xc0
 8005970:	2a80      	cmp	r2, #128	@ 0x80
 8005972:	d049      	beq.n	8005a08 <UART_SetConfig+0x1b0>
 8005974:	d805      	bhi.n	8005982 <UART_SetConfig+0x12a>
 8005976:	2a00      	cmp	r2, #0
 8005978:	d0a4      	beq.n	80058c4 <UART_SetConfig+0x6c>
 800597a:	2a40      	cmp	r2, #64	@ 0x40
 800597c:	d146      	bne.n	8005a0c <UART_SetConfig+0x1b4>
 800597e:	2204      	movs	r2, #4
 8005980:	e7a0      	b.n	80058c4 <UART_SetConfig+0x6c>
 8005982:	2ac0      	cmp	r2, #192	@ 0xc0
 8005984:	d144      	bne.n	8005a10 <UART_SetConfig+0x1b8>
 8005986:	2208      	movs	r2, #8
 8005988:	e79c      	b.n	80058c4 <UART_SetConfig+0x6c>
 800598a:	f502 32e0 	add.w	r2, r2, #114688	@ 0x1c000
 800598e:	f8d2 2088 	ldr.w	r2, [r2, #136]	@ 0x88
 8005992:	f402 7240 	and.w	r2, r2, #768	@ 0x300
 8005996:	f5b2 7f00 	cmp.w	r2, #512	@ 0x200
 800599a:	d03b      	beq.n	8005a14 <UART_SetConfig+0x1bc>
 800599c:	d806      	bhi.n	80059ac <UART_SetConfig+0x154>
 800599e:	2a00      	cmp	r2, #0
 80059a0:	d090      	beq.n	80058c4 <UART_SetConfig+0x6c>
 80059a2:	f5b2 7f80 	cmp.w	r2, #256	@ 0x100
 80059a6:	d137      	bne.n	8005a18 <UART_SetConfig+0x1c0>
 80059a8:	2204      	movs	r2, #4
 80059aa:	e78b      	b.n	80058c4 <UART_SetConfig+0x6c>
 80059ac:	f5b2 7f40 	cmp.w	r2, #768	@ 0x300
 80059b0:	d134      	bne.n	8005a1c <UART_SetConfig+0x1c4>
 80059b2:	2208      	movs	r2, #8
 80059b4:	e786      	b.n	80058c4 <UART_SetConfig+0x6c>
 80059b6:	f502 32c8 	add.w	r2, r2, #102400	@ 0x19000
 80059ba:	f8d2 2088 	ldr.w	r2, [r2, #136]	@ 0x88
 80059be:	f402 6240 	and.w	r2, r2, #3072	@ 0xc00
 80059c2:	f5b2 6f00 	cmp.w	r2, #2048	@ 0x800
 80059c6:	d02b      	beq.n	8005a20 <UART_SetConfig+0x1c8>
 80059c8:	d807      	bhi.n	80059da <UART_SetConfig+0x182>
 80059ca:	2a00      	cmp	r2, #0
 80059cc:	f43f af7a 	beq.w	80058c4 <UART_SetConfig+0x6c>
 80059d0:	f5b2 6f80 	cmp.w	r2, #1024	@ 0x400
 80059d4:	d126      	bne.n	8005a24 <UART_SetConfig+0x1cc>
 80059d6:	2204      	movs	r2, #4
 80059d8:	e774      	b.n	80058c4 <UART_SetConfig+0x6c>
 80059da:	f5b2 6f40 	cmp.w	r2, #3072	@ 0xc00
 80059de:	d123      	bne.n	8005a28 <UART_SetConfig+0x1d0>
 80059e0:	2208      	movs	r2, #8
 80059e2:	e76f      	b.n	80058c4 <UART_SetConfig+0x6c>
 80059e4:	2202      	movs	r2, #2
 80059e6:	e76d      	b.n	80058c4 <UART_SetConfig+0x6c>
 80059e8:	2201      	movs	r2, #1
 80059ea:	e76b      	b.n	80058c4 <UART_SetConfig+0x6c>
 80059ec:	2210      	movs	r2, #16
 80059ee:	e769      	b.n	80058c4 <UART_SetConfig+0x6c>
 80059f0:	2210      	movs	r2, #16
 80059f2:	e767      	b.n	80058c4 <UART_SetConfig+0x6c>
 80059f4:	2202      	movs	r2, #2
 80059f6:	e765      	b.n	80058c4 <UART_SetConfig+0x6c>
 80059f8:	2210      	movs	r2, #16
 80059fa:	e763      	b.n	80058c4 <UART_SetConfig+0x6c>
 80059fc:	2202      	movs	r2, #2
 80059fe:	e761      	b.n	80058c4 <UART_SetConfig+0x6c>
 8005a00:	2210      	movs	r2, #16
 8005a02:	e75f      	b.n	80058c4 <UART_SetConfig+0x6c>
 8005a04:	2210      	movs	r2, #16
 8005a06:	e75d      	b.n	80058c4 <UART_SetConfig+0x6c>
 8005a08:	2202      	movs	r2, #2
 8005a0a:	e75b      	b.n	80058c4 <UART_SetConfig+0x6c>
 8005a0c:	2210      	movs	r2, #16
 8005a0e:	e759      	b.n	80058c4 <UART_SetConfig+0x6c>
 8005a10:	2210      	movs	r2, #16
 8005a12:	e757      	b.n	80058c4 <UART_SetConfig+0x6c>
 8005a14:	2202      	movs	r2, #2
 8005a16:	e755      	b.n	80058c4 <UART_SetConfig+0x6c>
 8005a18:	2210      	movs	r2, #16
 8005a1a:	e753      	b.n	80058c4 <UART_SetConfig+0x6c>
 8005a1c:	2210      	movs	r2, #16
 8005a1e:	e751      	b.n	80058c4 <UART_SetConfig+0x6c>
 8005a20:	2202      	movs	r2, #2
 8005a22:	e74f      	b.n	80058c4 <UART_SetConfig+0x6c>
 8005a24:	2210      	movs	r2, #16
 8005a26:	e74d      	b.n	80058c4 <UART_SetConfig+0x6c>
 8005a28:	2210      	movs	r2, #16
 8005a2a:	e74b      	b.n	80058c4 <UART_SetConfig+0x6c>
    switch (clocksource)
 8005a2c:	2a04      	cmp	r2, #4
 8005a2e:	d02d      	beq.n	8005a8c <UART_SetConfig+0x234>
 8005a30:	d806      	bhi.n	8005a40 <UART_SetConfig+0x1e8>
 8005a32:	b162      	cbz	r2, 8005a4e <UART_SetConfig+0x1f6>
 8005a34:	2a02      	cmp	r2, #2
 8005a36:	d101      	bne.n	8005a3c <UART_SetConfig+0x1e4>
        pclk = (uint32_t) HSI_VALUE;
 8005a38:	4825      	ldr	r0, [pc, #148]	@ (8005ad0 <UART_SetConfig+0x278>)
 8005a3a:	e00c      	b.n	8005a56 <UART_SetConfig+0x1fe>
    switch (clocksource)
 8005a3c:	2001      	movs	r0, #1
 8005a3e:	e085      	b.n	8005b4c <UART_SetConfig+0x2f4>
 8005a40:	2a08      	cmp	r2, #8
 8005a42:	d102      	bne.n	8005a4a <UART_SetConfig+0x1f2>
 8005a44:	f44f 4000 	mov.w	r0, #32768	@ 0x8000
 8005a48:	e005      	b.n	8005a56 <UART_SetConfig+0x1fe>
 8005a4a:	2001      	movs	r0, #1
 8005a4c:	e07e      	b.n	8005b4c <UART_SetConfig+0x2f4>
        pclk = HAL_RCC_GetPCLK1Freq();
 8005a4e:	f7fd fa17 	bl	8002e80 <HAL_RCC_GetPCLK1Freq>
    if (pclk != 0U)
 8005a52:	2800      	cmp	r0, #0
 8005a54:	d07a      	beq.n	8005b4c <UART_SetConfig+0x2f4>
      if ((pclk < (3U * huart->Init.BaudRate)) ||
 8005a56:	6862      	ldr	r2, [r4, #4]
 8005a58:	eb02 0342 	add.w	r3, r2, r2, lsl #1
 8005a5c:	4283      	cmp	r3, r0
 8005a5e:	d87e      	bhi.n	8005b5e <UART_SetConfig+0x306>
 8005a60:	ebb0 3f02 	cmp.w	r0, r2, lsl #12
 8005a64:	d87d      	bhi.n	8005b62 <UART_SetConfig+0x30a>
        usartdiv = (uint32_t)(UART_DIV_LPUART(pclk, huart->Init.BaudRate));
 8005a66:	0e01      	lsrs	r1, r0, #24
 8005a68:	0200      	lsls	r0, r0, #8
 8005a6a:	0853      	lsrs	r3, r2, #1
 8005a6c:	18c0      	adds	r0, r0, r3
 8005a6e:	f04f 0300 	mov.w	r3, #0
 8005a72:	f141 0100 	adc.w	r1, r1, #0
 8005a76:	f7fa fbe3 	bl	8000240 <__aeabi_uldivmod>
        if ((usartdiv >= LPUART_BRR_MIN) && (usartdiv <= LPUART_BRR_MAX))
 8005a7a:	f5a0 7240 	sub.w	r2, r0, #768	@ 0x300
 8005a7e:	4b15      	ldr	r3, [pc, #84]	@ (8005ad4 <UART_SetConfig+0x27c>)
 8005a80:	429a      	cmp	r2, r3
 8005a82:	d870      	bhi.n	8005b66 <UART_SetConfig+0x30e>
          huart->Instance->BRR = usartdiv;
 8005a84:	6823      	ldr	r3, [r4, #0]
 8005a86:	60d8      	str	r0, [r3, #12]
 8005a88:	2000      	movs	r0, #0
 8005a8a:	e05f      	b.n	8005b4c <UART_SetConfig+0x2f4>
        pclk = HAL_RCC_GetSysClockFreq();
 8005a8c:	f7fc fdca 	bl	8002624 <HAL_RCC_GetSysClockFreq>
        break;
 8005a90:	e7df      	b.n	8005a52 <UART_SetConfig+0x1fa>
    switch (clocksource)
 8005a92:	2a02      	cmp	r2, #2
 8005a94:	d03c      	beq.n	8005b10 <UART_SetConfig+0x2b8>
 8005a96:	d905      	bls.n	8005aa4 <UART_SetConfig+0x24c>
 8005a98:	2a04      	cmp	r2, #4
 8005a9a:	d036      	beq.n	8005b0a <UART_SetConfig+0x2b2>
 8005a9c:	2a08      	cmp	r2, #8
 8005a9e:	d01e      	beq.n	8005ade <UART_SetConfig+0x286>
 8005aa0:	2001      	movs	r0, #1
 8005aa2:	e053      	b.n	8005b4c <UART_SetConfig+0x2f4>
 8005aa4:	b1c2      	cbz	r2, 8005ad8 <UART_SetConfig+0x280>
 8005aa6:	2a01      	cmp	r2, #1
 8005aa8:	d102      	bne.n	8005ab0 <UART_SetConfig+0x258>
        pclk = HAL_RCC_GetPCLK2Freq();
 8005aaa:	f7fd f9fb 	bl	8002ea4 <HAL_RCC_GetPCLK2Freq>
        break;
 8005aae:	e015      	b.n	8005adc <UART_SetConfig+0x284>
    switch (clocksource)
 8005ab0:	2001      	movs	r0, #1
 8005ab2:	e04b      	b.n	8005b4c <UART_SetConfig+0x2f4>
 8005ab4:	efff69f3 	.word	0xefff69f3
 8005ab8:	40008000 	.word	0x40008000
 8005abc:	40013800 	.word	0x40013800
 8005ac0:	40004400 	.word	0x40004400
 8005ac4:	40004800 	.word	0x40004800
 8005ac8:	40004c00 	.word	0x40004c00
 8005acc:	40005000 	.word	0x40005000
 8005ad0:	00f42400 	.word	0x00f42400
 8005ad4:	000ffcff 	.word	0x000ffcff
        pclk = HAL_RCC_GetPCLK1Freq();
 8005ad8:	f7fd f9d2 	bl	8002e80 <HAL_RCC_GetPCLK1Freq>
    if (pclk != 0U)
 8005adc:	b3b0      	cbz	r0, 8005b4c <UART_SetConfig+0x2f4>
      usartdiv = (uint32_t)(UART_DIV_SAMPLING8(pclk, huart->Init.BaudRate));
 8005ade:	6862      	ldr	r2, [r4, #4]
 8005ae0:	0853      	lsrs	r3, r2, #1
 8005ae2:	eb03 0340 	add.w	r3, r3, r0, lsl #1
 8005ae6:	fbb3 f3f2 	udiv	r3, r3, r2
      if ((usartdiv >= UART_BRR_MIN) && (usartdiv <= UART_BRR_MAX))
 8005aea:	f1a3 0110 	sub.w	r1, r3, #16
 8005aee:	f64f 72ef 	movw	r2, #65519	@ 0xffef
 8005af2:	4291      	cmp	r1, r2
 8005af4:	d839      	bhi.n	8005b6a <UART_SetConfig+0x312>
        brrtemp = (uint16_t)(usartdiv & 0xFFF0U);
 8005af6:	b29a      	uxth	r2, r3
 8005af8:	f022 020f 	bic.w	r2, r2, #15
        brrtemp |= (uint16_t)((usartdiv & (uint16_t)0x000FU) >> 1U);
 8005afc:	f3c3 0342 	ubfx	r3, r3, #1, #3
 8005b00:	4313      	orrs	r3, r2
        huart->Instance->BRR = brrtemp;
 8005b02:	6822      	ldr	r2, [r4, #0]
 8005b04:	60d3      	str	r3, [r2, #12]
 8005b06:	2000      	movs	r0, #0
 8005b08:	e020      	b.n	8005b4c <UART_SetConfig+0x2f4>
        pclk = HAL_RCC_GetSysClockFreq();
 8005b0a:	f7fc fd8b 	bl	8002624 <HAL_RCC_GetSysClockFreq>
        break;
 8005b0e:	e7e5      	b.n	8005adc <UART_SetConfig+0x284>
    switch (clocksource)
 8005b10:	4818      	ldr	r0, [pc, #96]	@ (8005b74 <UART_SetConfig+0x31c>)
 8005b12:	e7e4      	b.n	8005ade <UART_SetConfig+0x286>
    switch (clocksource)
 8005b14:	b142      	cbz	r2, 8005b28 <UART_SetConfig+0x2d0>
 8005b16:	2a01      	cmp	r2, #1
 8005b18:	d102      	bne.n	8005b20 <UART_SetConfig+0x2c8>
        pclk = HAL_RCC_GetPCLK2Freq();
 8005b1a:	f7fd f9c3 	bl	8002ea4 <HAL_RCC_GetPCLK2Freq>
        break;
 8005b1e:	e005      	b.n	8005b2c <UART_SetConfig+0x2d4>
    switch (clocksource)
 8005b20:	2001      	movs	r0, #1
 8005b22:	e013      	b.n	8005b4c <UART_SetConfig+0x2f4>
 8005b24:	2001      	movs	r0, #1
 8005b26:	e011      	b.n	8005b4c <UART_SetConfig+0x2f4>
        pclk = HAL_RCC_GetPCLK1Freq();
 8005b28:	f7fd f9aa 	bl	8002e80 <HAL_RCC_GetPCLK1Freq>
    if (pclk != 0U)
 8005b2c:	b170      	cbz	r0, 8005b4c <UART_SetConfig+0x2f4>
      usartdiv = (uint32_t)(UART_DIV_SAMPLING16(pclk, huart->Init.BaudRate));
 8005b2e:	6863      	ldr	r3, [r4, #4]
 8005b30:	eb00 0053 	add.w	r0, r0, r3, lsr #1
 8005b34:	fbb0 f0f3 	udiv	r0, r0, r3
      if ((usartdiv >= UART_BRR_MIN) && (usartdiv <= UART_BRR_MAX))
 8005b38:	f1a0 0210 	sub.w	r2, r0, #16
 8005b3c:	f64f 73ef 	movw	r3, #65519	@ 0xffef
 8005b40:	429a      	cmp	r2, r3
 8005b42:	d814      	bhi.n	8005b6e <UART_SetConfig+0x316>
        huart->Instance->BRR = (uint16_t)usartdiv;
 8005b44:	6823      	ldr	r3, [r4, #0]
 8005b46:	b280      	uxth	r0, r0
 8005b48:	60d8      	str	r0, [r3, #12]
 8005b4a:	2000      	movs	r0, #0
  huart->RxISR = NULL;
 8005b4c:	2300      	movs	r3, #0
 8005b4e:	66a3      	str	r3, [r4, #104]	@ 0x68
  huart->TxISR = NULL;
 8005b50:	66e3      	str	r3, [r4, #108]	@ 0x6c
}
 8005b52:	bd10      	pop	{r4, pc}
        pclk = HAL_RCC_GetSysClockFreq();
 8005b54:	f7fc fd66 	bl	8002624 <HAL_RCC_GetSysClockFreq>
        break;
 8005b58:	e7e8      	b.n	8005b2c <UART_SetConfig+0x2d4>
    switch (clocksource)
 8005b5a:	4806      	ldr	r0, [pc, #24]	@ (8005b74 <UART_SetConfig+0x31c>)
 8005b5c:	e7e7      	b.n	8005b2e <UART_SetConfig+0x2d6>
        ret = HAL_ERROR;
 8005b5e:	2001      	movs	r0, #1
 8005b60:	e7f4      	b.n	8005b4c <UART_SetConfig+0x2f4>
 8005b62:	2001      	movs	r0, #1
 8005b64:	e7f2      	b.n	8005b4c <UART_SetConfig+0x2f4>
          ret = HAL_ERROR;
 8005b66:	2001      	movs	r0, #1
 8005b68:	e7f0      	b.n	8005b4c <UART_SetConfig+0x2f4>
        ret = HAL_ERROR;
 8005b6a:	2001      	movs	r0, #1
 8005b6c:	e7ee      	b.n	8005b4c <UART_SetConfig+0x2f4>
        ret = HAL_ERROR;
 8005b6e:	2001      	movs	r0, #1
 8005b70:	e7ec      	b.n	8005b4c <UART_SetConfig+0x2f4>
 8005b72:	bf00      	nop
 8005b74:	00f42400 	.word	0x00f42400

08005b78 <UART_AdvFeatureConfig>:
  if (HAL_IS_BIT_SET(huart->AdvancedInit.AdvFeatureInit, UART_ADVFEATURE_SWAP_INIT))
 8005b78:	6a43      	ldr	r3, [r0, #36]	@ 0x24
 8005b7a:	f013 0f08 	tst.w	r3, #8
 8005b7e:	d006      	beq.n	8005b8e <UART_AdvFeatureConfig+0x16>
    MODIFY_REG(huart->Instance->CR2, USART_CR2_SWAP, huart->AdvancedInit.Swap);
 8005b80:	6802      	ldr	r2, [r0, #0]
 8005b82:	6853      	ldr	r3, [r2, #4]
 8005b84:	f423 4300 	bic.w	r3, r3, #32768	@ 0x8000
 8005b88:	6b41      	ldr	r1, [r0, #52]	@ 0x34
 8005b8a:	430b      	orrs	r3, r1
 8005b8c:	6053      	str	r3, [r2, #4]
  if (HAL_IS_BIT_SET(huart->AdvancedInit.AdvFeatureInit, UART_ADVFEATURE_TXINVERT_INIT))
 8005b8e:	6a43      	ldr	r3, [r0, #36]	@ 0x24
 8005b90:	f013 0f01 	tst.w	r3, #1
 8005b94:	d006      	beq.n	8005ba4 <UART_AdvFeatureConfig+0x2c>
    MODIFY_REG(huart->Instance->CR2, USART_CR2_TXINV, huart->AdvancedInit.TxPinLevelInvert);
 8005b96:	6802      	ldr	r2, [r0, #0]
 8005b98:	6853      	ldr	r3, [r2, #4]
 8005b9a:	f423 3300 	bic.w	r3, r3, #131072	@ 0x20000
 8005b9e:	6a81      	ldr	r1, [r0, #40]	@ 0x28
 8005ba0:	430b      	orrs	r3, r1
 8005ba2:	6053      	str	r3, [r2, #4]
  if (HAL_IS_BIT_SET(huart->AdvancedInit.AdvFeatureInit, UART_ADVFEATURE_RXINVERT_INIT))
 8005ba4:	6a43      	ldr	r3, [r0, #36]	@ 0x24
 8005ba6:	f013 0f02 	tst.w	r3, #2
 8005baa:	d006      	beq.n	8005bba <UART_AdvFeatureConfig+0x42>
    MODIFY_REG(huart->Instance->CR2, USART_CR2_RXINV, huart->AdvancedInit.RxPinLevelInvert);
 8005bac:	6802      	ldr	r2, [r0, #0]
 8005bae:	6853      	ldr	r3, [r2, #4]
 8005bb0:	f423 3380 	bic.w	r3, r3, #65536	@ 0x10000
 8005bb4:	6ac1      	ldr	r1, [r0, #44]	@ 0x2c
 8005bb6:	430b      	orrs	r3, r1
 8005bb8:	6053      	str	r3, [r2, #4]
  if (HAL_IS_BIT_SET(huart->AdvancedInit.AdvFeatureInit, UART_ADVFEATURE_DATAINVERT_INIT))
 8005bba:	6a43      	ldr	r3, [r0, #36]	@ 0x24
 8005bbc:	f013 0f04 	tst.w	r3, #4
 8005bc0:	d006      	beq.n	8005bd0 <UART_AdvFeatureConfig+0x58>
    MODIFY_REG(huart->Instance->CR2, USART_CR2_DATAINV, huart->AdvancedInit.DataInvert);
 8005bc2:	6802      	ldr	r2, [r0, #0]
 8005bc4:	6853      	ldr	r3, [r2, #4]
 8005bc6:	f423 2380 	bic.w	r3, r3, #262144	@ 0x40000
 8005bca:	6b01      	ldr	r1, [r0, #48]	@ 0x30
 8005bcc:	430b      	orrs	r3, r1
 8005bce:	6053      	str	r3, [r2, #4]
  if (HAL_IS_BIT_SET(huart->AdvancedInit.AdvFeatureInit, UART_ADVFEATURE_RXOVERRUNDISABLE_INIT))
 8005bd0:	6a43      	ldr	r3, [r0, #36]	@ 0x24
 8005bd2:	f013 0f10 	tst.w	r3, #16
 8005bd6:	d006      	beq.n	8005be6 <UART_AdvFeatureConfig+0x6e>
    MODIFY_REG(huart->Instance->CR3, USART_CR3_OVRDIS, huart->AdvancedInit.OverrunDisable);
 8005bd8:	6802      	ldr	r2, [r0, #0]
 8005bda:	6893      	ldr	r3, [r2, #8]
 8005bdc:	f423 5380 	bic.w	r3, r3, #4096	@ 0x1000
 8005be0:	6b81      	ldr	r1, [r0, #56]	@ 0x38
 8005be2:	430b      	orrs	r3, r1
 8005be4:	6093      	str	r3, [r2, #8]
  if (HAL_IS_BIT_SET(huart->AdvancedInit.AdvFeatureInit, UART_ADVFEATURE_DMADISABLEONERROR_INIT))
 8005be6:	6a43      	ldr	r3, [r0, #36]	@ 0x24
 8005be8:	f013 0f20 	tst.w	r3, #32
 8005bec:	d006      	beq.n	8005bfc <UART_AdvFeatureConfig+0x84>
    MODIFY_REG(huart->Instance->CR3, USART_CR3_DDRE, huart->AdvancedInit.DMADisableonRxError);
 8005bee:	6802      	ldr	r2, [r0, #0]
 8005bf0:	6893      	ldr	r3, [r2, #8]
 8005bf2:	f423 5300 	bic.w	r3, r3, #8192	@ 0x2000
 8005bf6:	6bc1      	ldr	r1, [r0, #60]	@ 0x3c
 8005bf8:	430b      	orrs	r3, r1
 8005bfa:	6093      	str	r3, [r2, #8]
  if (HAL_IS_BIT_SET(huart->AdvancedInit.AdvFeatureInit, UART_ADVFEATURE_AUTOBAUDRATE_INIT))
 8005bfc:	6a43      	ldr	r3, [r0, #36]	@ 0x24
 8005bfe:	f013 0f40 	tst.w	r3, #64	@ 0x40
 8005c02:	d00a      	beq.n	8005c1a <UART_AdvFeatureConfig+0xa2>
    MODIFY_REG(huart->Instance->CR2, USART_CR2_ABREN, huart->AdvancedInit.AutoBaudRateEnable);
 8005c04:	6802      	ldr	r2, [r0, #0]
 8005c06:	6853      	ldr	r3, [r2, #4]
 8005c08:	f423 1380 	bic.w	r3, r3, #1048576	@ 0x100000
 8005c0c:	6c01      	ldr	r1, [r0, #64]	@ 0x40
 8005c0e:	430b      	orrs	r3, r1
 8005c10:	6053      	str	r3, [r2, #4]
    if (huart->AdvancedInit.AutoBaudRateEnable == UART_ADVFEATURE_AUTOBAUDRATE_ENABLE)
 8005c12:	6c03      	ldr	r3, [r0, #64]	@ 0x40
 8005c14:	f5b3 1f80 	cmp.w	r3, #1048576	@ 0x100000
 8005c18:	d00b      	beq.n	8005c32 <UART_AdvFeatureConfig+0xba>
  if (HAL_IS_BIT_SET(huart->AdvancedInit.AdvFeatureInit, UART_ADVFEATURE_MSBFIRST_INIT))
 8005c1a:	6a43      	ldr	r3, [r0, #36]	@ 0x24
 8005c1c:	f013 0f80 	tst.w	r3, #128	@ 0x80
 8005c20:	d006      	beq.n	8005c30 <UART_AdvFeatureConfig+0xb8>
    MODIFY_REG(huart->Instance->CR2, USART_CR2_MSBFIRST, huart->AdvancedInit.MSBFirst);
 8005c22:	6802      	ldr	r2, [r0, #0]
 8005c24:	6853      	ldr	r3, [r2, #4]
 8005c26:	f423 2300 	bic.w	r3, r3, #524288	@ 0x80000
 8005c2a:	6c81      	ldr	r1, [r0, #72]	@ 0x48
 8005c2c:	430b      	orrs	r3, r1
 8005c2e:	6053      	str	r3, [r2, #4]
}
 8005c30:	4770      	bx	lr
      MODIFY_REG(huart->Instance->CR2, USART_CR2_ABRMODE, huart->AdvancedInit.AutoBaudRateMode);
 8005c32:	6802      	ldr	r2, [r0, #0]
 8005c34:	6853      	ldr	r3, [r2, #4]
 8005c36:	f423 03c0 	bic.w	r3, r3, #6291456	@ 0x600000
 8005c3a:	6c41      	ldr	r1, [r0, #68]	@ 0x44
 8005c3c:	430b      	orrs	r3, r1
 8005c3e:	6053      	str	r3, [r2, #4]
 8005c40:	e7eb      	b.n	8005c1a <UART_AdvFeatureConfig+0xa2>

08005c42 <UART_WaitOnFlagUntilTimeout>:
{
 8005c42:	e92d 41f0 	stmdb	sp!, {r4, r5, r6, r7, r8, lr}
 8005c46:	4604      	mov	r4, r0
 8005c48:	460d      	mov	r5, r1
 8005c4a:	4616      	mov	r6, r2
 8005c4c:	4698      	mov	r8, r3
 8005c4e:	9f06      	ldr	r7, [sp, #24]
  while ((__HAL_UART_GET_FLAG(huart, Flag) ? SET : RESET) == Status)
 8005c50:	6823      	ldr	r3, [r4, #0]
 8005c52:	69db      	ldr	r3, [r3, #28]
 8005c54:	ea35 0303 	bics.w	r3, r5, r3
 8005c58:	bf0c      	ite	eq
 8005c5a:	f04f 0c01 	moveq.w	ip, #1
 8005c5e:	f04f 0c00 	movne.w	ip, #0
 8005c62:	45b4      	cmp	ip, r6
 8005c64:	d134      	bne.n	8005cd0 <UART_WaitOnFlagUntilTimeout+0x8e>
    if (Timeout != HAL_MAX_DELAY)
 8005c66:	f1b7 3fff 	cmp.w	r7, #4294967295	@ 0xffffffff
 8005c6a:	d0f1      	beq.n	8005c50 <UART_WaitOnFlagUntilTimeout+0xe>
      if (((HAL_GetTick() - Tickstart) > Timeout) || (Timeout == 0U))
 8005c6c:	f7fb fbd8 	bl	8001420 <HAL_GetTick>
 8005c70:	4643      	mov	r3, r8
 8005c72:	1ac0      	subs	r0, r0, r3
 8005c74:	42b8      	cmp	r0, r7
 8005c76:	d82e      	bhi.n	8005cd6 <UART_WaitOnFlagUntilTimeout+0x94>
 8005c78:	b37f      	cbz	r7, 8005cda <UART_WaitOnFlagUntilTimeout+0x98>
      if ((READ_BIT(huart->Instance->CR1, USART_CR1_RE) != 0U) && (Flag != UART_FLAG_TXE) && (Flag != UART_FLAG_TC))
 8005c7a:	6823      	ldr	r3, [r4, #0]
 8005c7c:	681a      	ldr	r2, [r3, #0]
 8005c7e:	f012 0f04 	tst.w	r2, #4
 8005c82:	d0e5      	beq.n	8005c50 <UART_WaitOnFlagUntilTimeout+0xe>
 8005c84:	2d80      	cmp	r5, #128	@ 0x80
 8005c86:	d0e3      	beq.n	8005c50 <UART_WaitOnFlagUntilTimeout+0xe>
 8005c88:	2d40      	cmp	r5, #64	@ 0x40
 8005c8a:	d0e1      	beq.n	8005c50 <UART_WaitOnFlagUntilTimeout+0xe>
        if (__HAL_UART_GET_FLAG(huart, UART_FLAG_ORE) == SET)
 8005c8c:	69da      	ldr	r2, [r3, #28]
 8005c8e:	f012 0f08 	tst.w	r2, #8
 8005c92:	d111      	bne.n	8005cb8 <UART_WaitOnFlagUntilTimeout+0x76>
        if (__HAL_UART_GET_FLAG(huart, UART_FLAG_RTOF) == SET)
 8005c94:	69da      	ldr	r2, [r3, #28]
 8005c96:	f412 6f00 	tst.w	r2, #2048	@ 0x800
 8005c9a:	d0d9      	beq.n	8005c50 <UART_WaitOnFlagUntilTimeout+0xe>
          __HAL_UART_CLEAR_FLAG(huart, UART_CLEAR_RTOF);
 8005c9c:	f44f 6200 	mov.w	r2, #2048	@ 0x800
 8005ca0:	621a      	str	r2, [r3, #32]
          UART_EndRxTransfer(huart);
 8005ca2:	4620      	mov	r0, r4
 8005ca4:	f7ff fa97 	bl	80051d6 <UART_EndRxTransfer>
          huart->ErrorCode = HAL_UART_ERROR_RTO;
 8005ca8:	2320      	movs	r3, #32
 8005caa:	f8c4 3084 	str.w	r3, [r4, #132]	@ 0x84
          __HAL_UNLOCK(huart);
 8005cae:	2300      	movs	r3, #0
 8005cb0:	f884 3078 	strb.w	r3, [r4, #120]	@ 0x78
          return HAL_TIMEOUT;
 8005cb4:	2003      	movs	r0, #3
 8005cb6:	e00c      	b.n	8005cd2 <UART_WaitOnFlagUntilTimeout+0x90>
          __HAL_UART_CLEAR_FLAG(huart, UART_CLEAR_OREF);
 8005cb8:	2508      	movs	r5, #8
 8005cba:	621d      	str	r5, [r3, #32]
          UART_EndRxTransfer(huart);
 8005cbc:	4620      	mov	r0, r4
 8005cbe:	f7ff fa8a 	bl	80051d6 <UART_EndRxTransfer>
          huart->ErrorCode = HAL_UART_ERROR_ORE;
 8005cc2:	f8c4 5084 	str.w	r5, [r4, #132]	@ 0x84
          __HAL_UNLOCK(huart);
 8005cc6:	2300      	movs	r3, #0
 8005cc8:	f884 3078 	strb.w	r3, [r4, #120]	@ 0x78
          return HAL_ERROR;
 8005ccc:	2001      	movs	r0, #1
 8005cce:	e000      	b.n	8005cd2 <UART_WaitOnFlagUntilTimeout+0x90>
  return HAL_OK;
 8005cd0:	2000      	movs	r0, #0
}
 8005cd2:	e8bd 81f0 	ldmia.w	sp!, {r4, r5, r6, r7, r8, pc}
        return HAL_TIMEOUT;
 8005cd6:	2003      	movs	r0, #3
 8005cd8:	e7fb      	b.n	8005cd2 <UART_WaitOnFlagUntilTimeout+0x90>
 8005cda:	2003      	movs	r0, #3
 8005cdc:	e7f9      	b.n	8005cd2 <UART_WaitOnFlagUntilTimeout+0x90>

08005cde <HAL_UART_Transmit>:
{
 8005cde:	e92d 41f0 	stmdb	sp!, {r4, r5, r6, r7, r8, lr}
 8005ce2:	b084      	sub	sp, #16
 8005ce4:	461e      	mov	r6, r3
  if (huart->gState == HAL_UART_STATE_READY)
 8005ce6:	6fc3      	ldr	r3, [r0, #124]	@ 0x7c
 8005ce8:	2b20      	cmp	r3, #32
 8005cea:	d15e      	bne.n	8005daa <HAL_UART_Transmit+0xcc>
 8005cec:	4604      	mov	r4, r0
 8005cee:	460d      	mov	r5, r1
    if ((pData == NULL) || (Size == 0U))
 8005cf0:	2900      	cmp	r1, #0
 8005cf2:	d05e      	beq.n	8005db2 <HAL_UART_Transmit+0xd4>
 8005cf4:	9203      	str	r2, [sp, #12]
 8005cf6:	b90a      	cbnz	r2, 8005cfc <HAL_UART_Transmit+0x1e>
      return  HAL_ERROR;
 8005cf8:	2001      	movs	r0, #1
 8005cfa:	e057      	b.n	8005dac <HAL_UART_Transmit+0xce>
    huart->ErrorCode = HAL_UART_ERROR_NONE;
 8005cfc:	2300      	movs	r3, #0
 8005cfe:	f8c0 3084 	str.w	r3, [r0, #132]	@ 0x84
    huart->gState = HAL_UART_STATE_BUSY_TX;
 8005d02:	2321      	movs	r3, #33	@ 0x21
 8005d04:	67c3      	str	r3, [r0, #124]	@ 0x7c
    tickstart = HAL_GetTick();
 8005d06:	f7fb fb8b 	bl	8001420 <HAL_GetTick>
 8005d0a:	4607      	mov	r7, r0
    huart->TxXferSize  = Size;
 8005d0c:	9b03      	ldr	r3, [sp, #12]
 8005d0e:	f8a4 3050 	strh.w	r3, [r4, #80]	@ 0x50
    huart->TxXferCount = Size;
 8005d12:	f8a4 3052 	strh.w	r3, [r4, #82]	@ 0x52
    if ((huart->Init.WordLength == UART_WORDLENGTH_9B) && (huart->Init.Parity == UART_PARITY_NONE))
 8005d16:	68a3      	ldr	r3, [r4, #8]
 8005d18:	f5b3 5f80 	cmp.w	r3, #4096	@ 0x1000
 8005d1c:	d002      	beq.n	8005d24 <HAL_UART_Transmit+0x46>
      pdata16bits = NULL;
 8005d1e:	2300      	movs	r3, #0
 8005d20:	4698      	mov	r8, r3
 8005d22:	e01c      	b.n	8005d5e <HAL_UART_Transmit+0x80>
    if ((huart->Init.WordLength == UART_WORDLENGTH_9B) && (huart->Init.Parity == UART_PARITY_NONE))
 8005d24:	6923      	ldr	r3, [r4, #16]
 8005d26:	b373      	cbz	r3, 8005d86 <HAL_UART_Transmit+0xa8>
      pdata16bits = NULL;
 8005d28:	2300      	movs	r3, #0
 8005d2a:	4698      	mov	r8, r3
 8005d2c:	e017      	b.n	8005d5e <HAL_UART_Transmit+0x80>
        huart->gState = HAL_UART_STATE_READY;
 8005d2e:	2320      	movs	r3, #32
 8005d30:	67e3      	str	r3, [r4, #124]	@ 0x7c
        return HAL_TIMEOUT;
 8005d32:	2003      	movs	r0, #3
 8005d34:	e03a      	b.n	8005dac <HAL_UART_Transmit+0xce>
        huart->Instance->TDR = (uint16_t)(*pdata16bits & 0x01FFU);
 8005d36:	4642      	mov	r2, r8
 8005d38:	f832 3b02 	ldrh.w	r3, [r2], #2
 8005d3c:	4690      	mov	r8, r2
 8005d3e:	6822      	ldr	r2, [r4, #0]
 8005d40:	f3c3 0308 	ubfx	r3, r3, #0, #9
 8005d44:	6293      	str	r3, [r2, #40]	@ 0x28
      if ((huart->gState & HAL_UART_STATE_BUSY_TX) == HAL_UART_STATE_BUSY_TX)
 8005d46:	6fe3      	ldr	r3, [r4, #124]	@ 0x7c
 8005d48:	f003 0321 	and.w	r3, r3, #33	@ 0x21
 8005d4c:	2b21      	cmp	r3, #33	@ 0x21
 8005d4e:	d132      	bne.n	8005db6 <HAL_UART_Transmit+0xd8>
        huart->TxXferCount--;
 8005d50:	f8b4 2052 	ldrh.w	r2, [r4, #82]	@ 0x52
 8005d54:	b292      	uxth	r2, r2
 8005d56:	3a01      	subs	r2, #1
 8005d58:	b292      	uxth	r2, r2
 8005d5a:	f8a4 2052 	strh.w	r2, [r4, #82]	@ 0x52
    while (huart->TxXferCount > 0U)
 8005d5e:	f8b4 3052 	ldrh.w	r3, [r4, #82]	@ 0x52
 8005d62:	b29b      	uxth	r3, r3
 8005d64:	b193      	cbz	r3, 8005d8c <HAL_UART_Transmit+0xae>
      if (UART_WaitOnFlagUntilTimeout(huart, UART_FLAG_TXE, RESET, tickstart, Timeout) != HAL_OK)
 8005d66:	9600      	str	r6, [sp, #0]
 8005d68:	463b      	mov	r3, r7
 8005d6a:	2200      	movs	r2, #0
 8005d6c:	2180      	movs	r1, #128	@ 0x80
 8005d6e:	4620      	mov	r0, r4
 8005d70:	f7ff ff67 	bl	8005c42 <UART_WaitOnFlagUntilTimeout>
 8005d74:	2800      	cmp	r0, #0
 8005d76:	d1da      	bne.n	8005d2e <HAL_UART_Transmit+0x50>
      if (pdata8bits == NULL)
 8005d78:	2d00      	cmp	r5, #0
 8005d7a:	d0dc      	beq.n	8005d36 <HAL_UART_Transmit+0x58>
        huart->Instance->TDR = (uint8_t)(*pdata8bits & 0xFFU);
 8005d7c:	f815 2b01 	ldrb.w	r2, [r5], #1
 8005d80:	6823      	ldr	r3, [r4, #0]
 8005d82:	629a      	str	r2, [r3, #40]	@ 0x28
        pdata8bits++;
 8005d84:	e7df      	b.n	8005d46 <HAL_UART_Transmit+0x68>
      pdata16bits = (const uint16_t *) pData;
 8005d86:	46a8      	mov	r8, r5
      pdata8bits  = NULL;
 8005d88:	461d      	mov	r5, r3
 8005d8a:	e7e8      	b.n	8005d5e <HAL_UART_Transmit+0x80>
    if (UART_WaitOnFlagUntilTimeout(huart, UART_FLAG_TC, RESET, tickstart, Timeout) != HAL_OK)
 8005d8c:	9600      	str	r6, [sp, #0]
 8005d8e:	463b      	mov	r3, r7
 8005d90:	2200      	movs	r2, #0
 8005d92:	2140      	movs	r1, #64	@ 0x40
 8005d94:	4620      	mov	r0, r4
 8005d96:	f7ff ff54 	bl	8005c42 <UART_WaitOnFlagUntilTimeout>
 8005d9a:	b910      	cbnz	r0, 8005da2 <HAL_UART_Transmit+0xc4>
    huart->gState = HAL_UART_STATE_READY;
 8005d9c:	2320      	movs	r3, #32
 8005d9e:	67e3      	str	r3, [r4, #124]	@ 0x7c
    return HAL_OK;
 8005da0:	e004      	b.n	8005dac <HAL_UART_Transmit+0xce>
      huart->gState = HAL_UART_STATE_READY;
 8005da2:	2320      	movs	r3, #32
 8005da4:	67e3      	str	r3, [r4, #124]	@ 0x7c
      return HAL_TIMEOUT;
 8005da6:	2003      	movs	r0, #3
 8005da8:	e000      	b.n	8005dac <HAL_UART_Transmit+0xce>
    return HAL_BUSY;
 8005daa:	2002      	movs	r0, #2
}
 8005dac:	b004      	add	sp, #16
 8005dae:	e8bd 81f0 	ldmia.w	sp!, {r4, r5, r6, r7, r8, pc}
      return  HAL_ERROR;
 8005db2:	2001      	movs	r0, #1
 8005db4:	e7fa      	b.n	8005dac <HAL_UART_Transmit+0xce>
        return HAL_ERROR;
 8005db6:	2001      	movs	r0, #1
 8005db8:	e7f8      	b.n	8005dac <HAL_UART_Transmit+0xce>

08005dba <UART_CheckIdleState>:
{
 8005dba:	b530      	push	{r4, r5, lr}
 8005dbc:	b083      	sub	sp, #12
 8005dbe:	4604      	mov	r4, r0
  huart->ErrorCode = HAL_UART_ERROR_NONE;
 8005dc0:	2300      	movs	r3, #0
 8005dc2:	f8c0 3084 	str.w	r3, [r0, #132]	@ 0x84
  tickstart = HAL_GetTick();
 8005dc6:	f7fb fb2b 	bl	8001420 <HAL_GetTick>
 8005dca:	4605      	mov	r5, r0
  if ((huart->Instance->CR1 & USART_CR1_TE) == USART_CR1_TE)
 8005dcc:	6822      	ldr	r2, [r4, #0]
 8005dce:	6812      	ldr	r2, [r2, #0]
 8005dd0:	f012 0f08 	tst.w	r2, #8
 8005dd4:	d10f      	bne.n	8005df6 <UART_CheckIdleState+0x3c>
  if ((huart->Instance->CR1 & USART_CR1_RE) == USART_CR1_RE)
 8005dd6:	6823      	ldr	r3, [r4, #0]
 8005dd8:	681b      	ldr	r3, [r3, #0]
 8005dda:	f013 0f04 	tst.w	r3, #4
 8005dde:	d125      	bne.n	8005e2c <UART_CheckIdleState+0x72>
  huart->gState = HAL_UART_STATE_READY;
 8005de0:	2320      	movs	r3, #32
 8005de2:	67e3      	str	r3, [r4, #124]	@ 0x7c
  huart->RxState = HAL_UART_STATE_READY;
 8005de4:	f8c4 3080 	str.w	r3, [r4, #128]	@ 0x80
  huart->ReceptionType = HAL_UART_RECEPTION_STANDARD;
 8005de8:	2000      	movs	r0, #0
 8005dea:	6620      	str	r0, [r4, #96]	@ 0x60
  huart->RxEventType = HAL_UART_RXEVENT_TC;
 8005dec:	6660      	str	r0, [r4, #100]	@ 0x64
  __HAL_UNLOCK(huart);
 8005dee:	f884 0078 	strb.w	r0, [r4, #120]	@ 0x78
}
 8005df2:	b003      	add	sp, #12
 8005df4:	bd30      	pop	{r4, r5, pc}
    if (UART_WaitOnFlagUntilTimeout(huart, USART_ISR_TEACK, RESET, tickstart, HAL_UART_TIMEOUT_VALUE) != HAL_OK)
 8005df6:	f06f 437e 	mvn.w	r3, #4261412864	@ 0xfe000000
 8005dfa:	9300      	str	r3, [sp, #0]
 8005dfc:	4603      	mov	r3, r0
 8005dfe:	2200      	movs	r2, #0
 8005e00:	f44f 1100 	mov.w	r1, #2097152	@ 0x200000
 8005e04:	4620      	mov	r0, r4
 8005e06:	f7ff ff1c 	bl	8005c42 <UART_WaitOnFlagUntilTimeout>
 8005e0a:	2800      	cmp	r0, #0
 8005e0c:	d0e3      	beq.n	8005dd6 <UART_CheckIdleState+0x1c>
      ATOMIC_CLEAR_BIT(huart->Instance->CR1, (USART_CR1_TXEIE));
 8005e0e:	6822      	ldr	r2, [r4, #0]
   __ASM volatile ("ldrex %0, %1" : "=r" (result) : "Q" (*addr) );
 8005e10:	e852 3f00 	ldrex	r3, [r2]
 8005e14:	f023 0380 	bic.w	r3, r3, #128	@ 0x80
   __ASM volatile ("strex %0, %2, %1" : "=&r" (result), "=Q" (*addr) : "r" (value) );
 8005e18:	e842 3100 	strex	r1, r3, [r2]
 8005e1c:	2900      	cmp	r1, #0
 8005e1e:	d1f6      	bne.n	8005e0e <UART_CheckIdleState+0x54>
      huart->gState = HAL_UART_STATE_READY;
 8005e20:	2320      	movs	r3, #32
 8005e22:	67e3      	str	r3, [r4, #124]	@ 0x7c
      __HAL_UNLOCK(huart);
 8005e24:	f884 1078 	strb.w	r1, [r4, #120]	@ 0x78
      return HAL_TIMEOUT;
 8005e28:	2003      	movs	r0, #3
 8005e2a:	e7e2      	b.n	8005df2 <UART_CheckIdleState+0x38>
    if (UART_WaitOnFlagUntilTimeout(huart, USART_ISR_REACK, RESET, tickstart, HAL_UART_TIMEOUT_VALUE) != HAL_OK)
 8005e2c:	f06f 437e 	mvn.w	r3, #4261412864	@ 0xfe000000
 8005e30:	9300      	str	r3, [sp, #0]
 8005e32:	462b      	mov	r3, r5
 8005e34:	2200      	movs	r2, #0
 8005e36:	f44f 0180 	mov.w	r1, #4194304	@ 0x400000
 8005e3a:	4620      	mov	r0, r4
 8005e3c:	f7ff ff01 	bl	8005c42 <UART_WaitOnFlagUntilTimeout>
 8005e40:	2800      	cmp	r0, #0
 8005e42:	d0cd      	beq.n	8005de0 <UART_CheckIdleState+0x26>
      ATOMIC_CLEAR_BIT(huart->Instance->CR1, (USART_CR1_RXNEIE | USART_CR1_PEIE));
 8005e44:	6822      	ldr	r2, [r4, #0]
   __ASM volatile ("ldrex %0, %1" : "=r" (result) : "Q" (*addr) );
 8005e46:	e852 3f00 	ldrex	r3, [r2]
 8005e4a:	f423 7390 	bic.w	r3, r3, #288	@ 0x120
   __ASM volatile ("strex %0, %2, %1" : "=&r" (result), "=Q" (*addr) : "r" (value) );
 8005e4e:	e842 3100 	strex	r1, r3, [r2]
 8005e52:	2900      	cmp	r1, #0
 8005e54:	d1f6      	bne.n	8005e44 <UART_CheckIdleState+0x8a>
      ATOMIC_CLEAR_BIT(huart->Instance->CR3, USART_CR3_EIE);
 8005e56:	6822      	ldr	r2, [r4, #0]
   __ASM volatile ("ldrex %0, %1" : "=r" (result) : "Q" (*addr) );
 8005e58:	f102 0308 	add.w	r3, r2, #8
 8005e5c:	e853 3f00 	ldrex	r3, [r3]
 8005e60:	f023 0301 	bic.w	r3, r3, #1
   __ASM volatile ("strex %0, %2, %1" : "=&r" (result), "=Q" (*addr) : "r" (value) );
 8005e64:	3208      	adds	r2, #8
 8005e66:	e842 3100 	strex	r1, r3, [r2]
 8005e6a:	2900      	cmp	r1, #0
 8005e6c:	d1f3      	bne.n	8005e56 <UART_CheckIdleState+0x9c>
      huart->RxState = HAL_UART_STATE_READY;
 8005e6e:	2320      	movs	r3, #32
 8005e70:	f8c4 3080 	str.w	r3, [r4, #128]	@ 0x80
      __HAL_UNLOCK(huart);
 8005e74:	f884 1078 	strb.w	r1, [r4, #120]	@ 0x78
      return HAL_TIMEOUT;
 8005e78:	2003      	movs	r0, #3
 8005e7a:	e7ba      	b.n	8005df2 <UART_CheckIdleState+0x38>

08005e7c <HAL_UART_Init>:
  if (huart == NULL)
 8005e7c:	b368      	cbz	r0, 8005eda <HAL_UART_Init+0x5e>
{
 8005e7e:	b510      	push	{r4, lr}
 8005e80:	4604      	mov	r4, r0
  if (huart->gState == HAL_UART_STATE_RESET)
 8005e82:	6fc3      	ldr	r3, [r0, #124]	@ 0x7c
 8005e84:	b303      	cbz	r3, 8005ec8 <HAL_UART_Init+0x4c>
  huart->gState = HAL_UART_STATE_BUSY;
 8005e86:	2324      	movs	r3, #36	@ 0x24
 8005e88:	67e3      	str	r3, [r4, #124]	@ 0x7c
  __HAL_UART_DISABLE(huart);
 8005e8a:	6822      	ldr	r2, [r4, #0]
 8005e8c:	6813      	ldr	r3, [r2, #0]
 8005e8e:	f023 0301 	bic.w	r3, r3, #1
 8005e92:	6013      	str	r3, [r2, #0]
  if (huart->AdvancedInit.AdvFeatureInit != UART_ADVFEATURE_NO_INIT)
 8005e94:	6a63      	ldr	r3, [r4, #36]	@ 0x24
 8005e96:	b9e3      	cbnz	r3, 8005ed2 <HAL_UART_Init+0x56>
  if (UART_SetConfig(huart) == HAL_ERROR)
 8005e98:	4620      	mov	r0, r4
 8005e9a:	f7ff fcdd 	bl	8005858 <UART_SetConfig>
 8005e9e:	2801      	cmp	r0, #1
 8005ea0:	d011      	beq.n	8005ec6 <HAL_UART_Init+0x4a>
  CLEAR_BIT(huart->Instance->CR2, (USART_CR2_LINEN | USART_CR2_CLKEN));
 8005ea2:	6822      	ldr	r2, [r4, #0]
 8005ea4:	6853      	ldr	r3, [r2, #4]
 8005ea6:	f423 4390 	bic.w	r3, r3, #18432	@ 0x4800
 8005eaa:	6053      	str	r3, [r2, #4]
  CLEAR_BIT(huart->Instance->CR3, (USART_CR3_SCEN | USART_CR3_HDSEL | USART_CR3_IREN));
 8005eac:	6822      	ldr	r2, [r4, #0]
 8005eae:	6893      	ldr	r3, [r2, #8]
 8005eb0:	f023 032a 	bic.w	r3, r3, #42	@ 0x2a
 8005eb4:	6093      	str	r3, [r2, #8]
  __HAL_UART_ENABLE(huart);
 8005eb6:	6822      	ldr	r2, [r4, #0]
 8005eb8:	6813      	ldr	r3, [r2, #0]
 8005eba:	f043 0301 	orr.w	r3, r3, #1
 8005ebe:	6013      	str	r3, [r2, #0]
  return (UART_CheckIdleState(huart));
 8005ec0:	4620      	mov	r0, r4
 8005ec2:	f7ff ff7a 	bl	8005dba <UART_CheckIdleState>
}
 8005ec6:	bd10      	pop	{r4, pc}
    huart->Lock = HAL_UNLOCKED;
 8005ec8:	f880 3078 	strb.w	r3, [r0, #120]	@ 0x78
    HAL_UART_MspInit(huart);
 8005ecc:	f7fc f868 	bl	8001fa0 <HAL_UART_MspInit>
 8005ed0:	e7d9      	b.n	8005e86 <HAL_UART_Init+0xa>
    UART_AdvFeatureConfig(huart);
 8005ed2:	4620      	mov	r0, r4
 8005ed4:	f7ff fe50 	bl	8005b78 <UART_AdvFeatureConfig>
 8005ed8:	e7de      	b.n	8005e98 <HAL_UART_Init+0x1c>
    return HAL_ERROR;
 8005eda:	2001      	movs	r0, #1
}
 8005edc:	4770      	bx	lr
	...

08005ee0 <UART_Start_Receive_IT>:
  huart->pRxBuffPtr  = pData;
 8005ee0:	6541      	str	r1, [r0, #84]	@ 0x54
  huart->RxXferSize  = Size;
 8005ee2:	f8a0 2058 	strh.w	r2, [r0, #88]	@ 0x58
  huart->RxXferCount = Size;
 8005ee6:	f8a0 205a 	strh.w	r2, [r0, #90]	@ 0x5a
  huart->RxISR       = NULL;
 8005eea:	2300      	movs	r3, #0
 8005eec:	6683      	str	r3, [r0, #104]	@ 0x68
  UART_MASK_COMPUTATION(huart);
 8005eee:	6883      	ldr	r3, [r0, #8]
 8005ef0:	f5b3 5f80 	cmp.w	r3, #4096	@ 0x1000
 8005ef4:	d006      	beq.n	8005f04 <UART_Start_Receive_IT+0x24>
 8005ef6:	b9a3      	cbnz	r3, 8005f22 <UART_Start_Receive_IT+0x42>
 8005ef8:	6903      	ldr	r3, [r0, #16]
 8005efa:	b973      	cbnz	r3, 8005f1a <UART_Start_Receive_IT+0x3a>
 8005efc:	23ff      	movs	r3, #255	@ 0xff
 8005efe:	f8a0 305c 	strh.w	r3, [r0, #92]	@ 0x5c
 8005f02:	e014      	b.n	8005f2e <UART_Start_Receive_IT+0x4e>
 8005f04:	6903      	ldr	r3, [r0, #16]
 8005f06:	b923      	cbnz	r3, 8005f12 <UART_Start_Receive_IT+0x32>
 8005f08:	f240 13ff 	movw	r3, #511	@ 0x1ff
 8005f0c:	f8a0 305c 	strh.w	r3, [r0, #92]	@ 0x5c
 8005f10:	e00d      	b.n	8005f2e <UART_Start_Receive_IT+0x4e>
 8005f12:	23ff      	movs	r3, #255	@ 0xff
 8005f14:	f8a0 305c 	strh.w	r3, [r0, #92]	@ 0x5c
 8005f18:	e009      	b.n	8005f2e <UART_Start_Receive_IT+0x4e>
 8005f1a:	237f      	movs	r3, #127	@ 0x7f
 8005f1c:	f8a0 305c 	strh.w	r3, [r0, #92]	@ 0x5c
 8005f20:	e005      	b.n	8005f2e <UART_Start_Receive_IT+0x4e>
 8005f22:	f1b3 5f80 	cmp.w	r3, #268435456	@ 0x10000000
 8005f26:	d027      	beq.n	8005f78 <UART_Start_Receive_IT+0x98>
 8005f28:	2300      	movs	r3, #0
 8005f2a:	f8a0 305c 	strh.w	r3, [r0, #92]	@ 0x5c
  huart->ErrorCode = HAL_UART_ERROR_NONE;
 8005f2e:	2300      	movs	r3, #0
 8005f30:	f8c0 3084 	str.w	r3, [r0, #132]	@ 0x84
  huart->RxState = HAL_UART_STATE_BUSY_RX;
 8005f34:	2322      	movs	r3, #34	@ 0x22
 8005f36:	f8c0 3080 	str.w	r3, [r0, #128]	@ 0x80
  ATOMIC_SET_BIT(huart->Instance->CR3, USART_CR3_EIE);
 8005f3a:	6802      	ldr	r2, [r0, #0]
   __ASM volatile ("ldrex %0, %1" : "=r" (result) : "Q" (*addr) );
 8005f3c:	f102 0308 	add.w	r3, r2, #8
 8005f40:	e853 3f00 	ldrex	r3, [r3]
 8005f44:	f043 0301 	orr.w	r3, r3, #1
   __ASM volatile ("strex %0, %2, %1" : "=&r" (result), "=Q" (*addr) : "r" (value) );
 8005f48:	3208      	adds	r2, #8
 8005f4a:	e842 3100 	strex	r1, r3, [r2]
 8005f4e:	2900      	cmp	r1, #0
 8005f50:	d1f3      	bne.n	8005f3a <UART_Start_Receive_IT+0x5a>
  if ((huart->Init.WordLength == UART_WORDLENGTH_9B) && (huart->Init.Parity == UART_PARITY_NONE))
 8005f52:	6883      	ldr	r3, [r0, #8]
 8005f54:	f5b3 5f80 	cmp.w	r3, #4096	@ 0x1000
 8005f58:	d018      	beq.n	8005f8c <UART_Start_Receive_IT+0xac>
    huart->RxISR = UART_RxISR_8BIT;
 8005f5a:	4b14      	ldr	r3, [pc, #80]	@ (8005fac <UART_Start_Receive_IT+0xcc>)
 8005f5c:	6683      	str	r3, [r0, #104]	@ 0x68
  if (huart->Init.Parity != UART_PARITY_NONE)
 8005f5e:	6903      	ldr	r3, [r0, #16]
 8005f60:	b1d3      	cbz	r3, 8005f98 <UART_Start_Receive_IT+0xb8>
    ATOMIC_SET_BIT(huart->Instance->CR1, USART_CR1_PEIE | USART_CR1_RXNEIE);
 8005f62:	6802      	ldr	r2, [r0, #0]
   __ASM volatile ("ldrex %0, %1" : "=r" (result) : "Q" (*addr) );
 8005f64:	e852 3f00 	ldrex	r3, [r2]
 8005f68:	f443 7390 	orr.w	r3, r3, #288	@ 0x120
   __ASM volatile ("strex %0, %2, %1" : "=&r" (result), "=Q" (*addr) : "r" (value) );
 8005f6c:	e842 3100 	strex	r1, r3, [r2]
 8005f70:	2900      	cmp	r1, #0
 8005f72:	d1f6      	bne.n	8005f62 <UART_Start_Receive_IT+0x82>
}
 8005f74:	2000      	movs	r0, #0
 8005f76:	4770      	bx	lr
  UART_MASK_COMPUTATION(huart);
 8005f78:	6903      	ldr	r3, [r0, #16]
 8005f7a:	b91b      	cbnz	r3, 8005f84 <UART_Start_Receive_IT+0xa4>
 8005f7c:	237f      	movs	r3, #127	@ 0x7f
 8005f7e:	f8a0 305c 	strh.w	r3, [r0, #92]	@ 0x5c
 8005f82:	e7d4      	b.n	8005f2e <UART_Start_Receive_IT+0x4e>
 8005f84:	233f      	movs	r3, #63	@ 0x3f
 8005f86:	f8a0 305c 	strh.w	r3, [r0, #92]	@ 0x5c
 8005f8a:	e7d0      	b.n	8005f2e <UART_Start_Receive_IT+0x4e>
  if ((huart->Init.WordLength == UART_WORDLENGTH_9B) && (huart->Init.Parity == UART_PARITY_NONE))
 8005f8c:	6903      	ldr	r3, [r0, #16]
 8005f8e:	2b00      	cmp	r3, #0
 8005f90:	d1e3      	bne.n	8005f5a <UART_Start_Receive_IT+0x7a>
    huart->RxISR = UART_RxISR_16BIT;
 8005f92:	4b07      	ldr	r3, [pc, #28]	@ (8005fb0 <UART_Start_Receive_IT+0xd0>)
 8005f94:	6683      	str	r3, [r0, #104]	@ 0x68
 8005f96:	e7e2      	b.n	8005f5e <UART_Start_Receive_IT+0x7e>
    ATOMIC_SET_BIT(huart->Instance->CR1, USART_CR1_RXNEIE);
 8005f98:	6802      	ldr	r2, [r0, #0]
   __ASM volatile ("ldrex %0, %1" : "=r" (result) : "Q" (*addr) );
 8005f9a:	e852 3f00 	ldrex	r3, [r2]
 8005f9e:	f043 0320 	orr.w	r3, r3, #32
   __ASM volatile ("strex %0, %2, %1" : "=&r" (result), "=Q" (*addr) : "r" (value) );
 8005fa2:	e842 3100 	strex	r1, r3, [r2]
 8005fa6:	2900      	cmp	r1, #0
 8005fa8:	d1f6      	bne.n	8005f98 <UART_Start_Receive_IT+0xb8>
 8005faa:	e7e3      	b.n	8005f74 <UART_Start_Receive_IT+0x94>
 8005fac:	080055c1 	.word	0x080055c1
 8005fb0:	08005699 	.word	0x08005699

08005fb4 <UART_Start_Receive_DMA>:
{
 8005fb4:	b510      	push	{r4, lr}
 8005fb6:	4604      	mov	r4, r0
 8005fb8:	4613      	mov	r3, r2
  huart->pRxBuffPtr = pData;
 8005fba:	6541      	str	r1, [r0, #84]	@ 0x54
  huart->RxXferSize = Size;
 8005fbc:	f8a0 2058 	strh.w	r2, [r0, #88]	@ 0x58
  huart->ErrorCode = HAL_UART_ERROR_NONE;
 8005fc0:	2200      	movs	r2, #0
 8005fc2:	f8c0 2084 	str.w	r2, [r0, #132]	@ 0x84
  huart->RxState = HAL_UART_STATE_BUSY_RX;
 8005fc6:	2222      	movs	r2, #34	@ 0x22
 8005fc8:	f8c0 2080 	str.w	r2, [r0, #128]	@ 0x80
  if (huart->hdmarx != NULL)
 8005fcc:	6f42      	ldr	r2, [r0, #116]	@ 0x74
 8005fce:	b18a      	cbz	r2, 8005ff4 <UART_Start_Receive_DMA+0x40>
    huart->hdmarx->XferCpltCallback = UART_DMAReceiveCplt;
 8005fd0:	491f      	ldr	r1, [pc, #124]	@ (8006050 <UART_Start_Receive_DMA+0x9c>)
 8005fd2:	62d1      	str	r1, [r2, #44]	@ 0x2c
    huart->hdmarx->XferHalfCpltCallback = UART_DMARxHalfCplt;
 8005fd4:	6f42      	ldr	r2, [r0, #116]	@ 0x74
 8005fd6:	491f      	ldr	r1, [pc, #124]	@ (8006054 <UART_Start_Receive_DMA+0xa0>)
 8005fd8:	6311      	str	r1, [r2, #48]	@ 0x30
    huart->hdmarx->XferErrorCallback = UART_DMAError;
 8005fda:	6f42      	ldr	r2, [r0, #116]	@ 0x74
 8005fdc:	491e      	ldr	r1, [pc, #120]	@ (8006058 <UART_Start_Receive_DMA+0xa4>)
 8005fde:	6351      	str	r1, [r2, #52]	@ 0x34
    huart->hdmarx->XferAbortCallback = NULL;
 8005fe0:	6f42      	ldr	r2, [r0, #116]	@ 0x74
 8005fe2:	2100      	movs	r1, #0
 8005fe4:	6391      	str	r1, [r2, #56]	@ 0x38
    if (HAL_DMA_Start_IT(huart->hdmarx, (uint32_t)&huart->Instance->RDR, (uint32_t)huart->pRxBuffPtr, Size) != HAL_OK)
 8005fe6:	6801      	ldr	r1, [r0, #0]
 8005fe8:	6d42      	ldr	r2, [r0, #84]	@ 0x54
 8005fea:	3124      	adds	r1, #36	@ 0x24
 8005fec:	6f40      	ldr	r0, [r0, #116]	@ 0x74
 8005fee:	f7fb fbed 	bl	80017cc <HAL_DMA_Start_IT>
 8005ff2:	bb20      	cbnz	r0, 800603e <UART_Start_Receive_DMA+0x8a>
  if (huart->Init.Parity != UART_PARITY_NONE)
 8005ff4:	6923      	ldr	r3, [r4, #16]
 8005ff6:	b143      	cbz	r3, 800600a <UART_Start_Receive_DMA+0x56>
    ATOMIC_SET_BIT(huart->Instance->CR1, USART_CR1_PEIE);
 8005ff8:	6822      	ldr	r2, [r4, #0]
   __ASM volatile ("ldrex %0, %1" : "=r" (result) : "Q" (*addr) );
 8005ffa:	e852 3f00 	ldrex	r3, [r2]
 8005ffe:	f443 7380 	orr.w	r3, r3, #256	@ 0x100
   __ASM volatile ("strex %0, %2, %1" : "=&r" (result), "=Q" (*addr) : "r" (value) );
 8006002:	e842 3100 	strex	r1, r3, [r2]
 8006006:	2900      	cmp	r1, #0
 8006008:	d1f6      	bne.n	8005ff8 <UART_Start_Receive_DMA+0x44>
  ATOMIC_SET_BIT(huart->Instance->CR3, USART_CR3_EIE);
 800600a:	6822      	ldr	r2, [r4, #0]
   __ASM volatile ("ldrex %0, %1" : "=r" (result) : "Q" (*addr) );
 800600c:	f102 0308 	add.w	r3, r2, #8
 8006010:	e853 3f00 	ldrex	r3, [r3]
 8006014:	f043 0301 	orr.w	r3, r3, #1
   __ASM volatile ("strex %0, %2, %1" : "=&r" (result), "=Q" (*addr) : "r" (value) );
 8006018:	3208      	adds	r2, #8
 800601a:	e842 3100 	strex	r1, r3, [r2]
 800601e:	2900      	cmp	r1, #0
 8006020:	d1f3      	bne.n	800600a <UART_Start_Receive_DMA+0x56>
  ATOMIC_SET_BIT(huart->Instance->CR3, USART_CR3_DMAR);
 8006022:	6822      	ldr	r2, [r4, #0]
   __ASM volatile ("ldrex %0, %1" : "=r" (result) : "Q" (*addr) );
 8006024:	f102 0308 	add.w	r3, r2, #8
 8006028:	e853 3f00 	ldrex	r3, [r3]
 800602c:	f043 0340 	orr.w	r3, r3, #64	@ 0x40
   __ASM volatile ("strex %0, %2, %1" : "=&r" (result), "=Q" (*addr) : "r" (value) );
 8006030:	3208      	adds	r2, #8
 8006032:	e842 3100 	strex	r1, r3, [r2]
 8006036:	2900      	cmp	r1, #0
 8006038:	d1f3      	bne.n	8006022 <UART_Start_Receive_DMA+0x6e>
  return HAL_OK;
 800603a:	4608      	mov	r0, r1
}
 800603c:	bd10      	pop	{r4, pc}
      huart->ErrorCode = HAL_UART_ERROR_DMA;
 800603e:	2310      	movs	r3, #16
 8006040:	f8c4 3084 	str.w	r3, [r4, #132]	@ 0x84
      huart->RxState = HAL_UART_STATE_READY;
 8006044:	2320      	movs	r3, #32
 8006046:	f8c4 3080 	str.w	r3, [r4, #128]	@ 0x80
      return HAL_ERROR;
 800604a:	2001      	movs	r0, #1
 800604c:	e7f6      	b.n	800603c <UART_Start_Receive_DMA+0x88>
 800604e:	bf00      	nop
 8006050:	080057af 	.word	0x080057af
 8006054:	08005771 	.word	0x08005771
 8006058:	08005251 	.word	0x08005251

0800605c <HAL_UARTEx_WakeupCallback>:
  UNUSED(huart);

  /* NOTE : This function should not be modified, when the callback is needed,
            the HAL_UARTEx_WakeupCallback can be implemented in the user file.
   */
}
 800605c:	4770      	bx	lr

0800605e <HAL_UARTEx_ReceiveToIdle_IT>:
HAL_StatusTypeDef HAL_UARTEx_ReceiveToIdle_IT(UART_HandleTypeDef *huart, uint8_t *pData, uint16_t Size)
{
  HAL_StatusTypeDef status = HAL_OK;

  /* Check that a Rx process is not already ongoing */
  if (huart->RxState == HAL_UART_STATE_READY)
 800605e:	f8d0 3080 	ldr.w	r3, [r0, #128]	@ 0x80
 8006062:	2b20      	cmp	r3, #32
 8006064:	d11e      	bne.n	80060a4 <HAL_UARTEx_ReceiveToIdle_IT+0x46>
{
 8006066:	b510      	push	{r4, lr}
 8006068:	4604      	mov	r4, r0
  {
    if ((pData == NULL) || (Size == 0U))
 800606a:	b1e9      	cbz	r1, 80060a8 <HAL_UARTEx_ReceiveToIdle_IT+0x4a>
 800606c:	b90a      	cbnz	r2, 8006072 <HAL_UARTEx_ReceiveToIdle_IT+0x14>
    {
      return HAL_ERROR;
 800606e:	2001      	movs	r0, #1
  }
  else
  {
    return HAL_BUSY;
  }
}
 8006070:	bd10      	pop	{r4, pc}
    huart->ReceptionType = HAL_UART_RECEPTION_TOIDLE;
 8006072:	2301      	movs	r3, #1
 8006074:	6603      	str	r3, [r0, #96]	@ 0x60
    huart->RxEventType = HAL_UART_RXEVENT_TC;
 8006076:	2300      	movs	r3, #0
 8006078:	6643      	str	r3, [r0, #100]	@ 0x64
    (void)UART_Start_Receive_IT(huart, pData, Size);
 800607a:	f7ff ff31 	bl	8005ee0 <UART_Start_Receive_IT>
    if (huart->ReceptionType == HAL_UART_RECEPTION_TOIDLE)
 800607e:	6e23      	ldr	r3, [r4, #96]	@ 0x60
 8006080:	2b01      	cmp	r3, #1
 8006082:	d001      	beq.n	8006088 <HAL_UARTEx_ReceiveToIdle_IT+0x2a>
      status = HAL_ERROR;
 8006084:	2001      	movs	r0, #1
    return status;
 8006086:	e7f3      	b.n	8006070 <HAL_UARTEx_ReceiveToIdle_IT+0x12>
      __HAL_UART_CLEAR_FLAG(huart, UART_CLEAR_IDLEF);
 8006088:	6823      	ldr	r3, [r4, #0]
 800608a:	2210      	movs	r2, #16
 800608c:	621a      	str	r2, [r3, #32]
      ATOMIC_SET_BIT(huart->Instance->CR1, USART_CR1_IDLEIE);
 800608e:	6822      	ldr	r2, [r4, #0]
   __ASM volatile ("ldrex %0, %1" : "=r" (result) : "Q" (*addr) );
 8006090:	e852 3f00 	ldrex	r3, [r2]
 8006094:	f043 0310 	orr.w	r3, r3, #16
   __ASM volatile ("strex %0, %2, %1" : "=&r" (result), "=Q" (*addr) : "r" (value) );
 8006098:	e842 3100 	strex	r1, r3, [r2]
 800609c:	2900      	cmp	r1, #0
 800609e:	d1f6      	bne.n	800608e <HAL_UARTEx_ReceiveToIdle_IT+0x30>
  HAL_StatusTypeDef status = HAL_OK;
 80060a0:	4608      	mov	r0, r1
 80060a2:	e7e5      	b.n	8006070 <HAL_UARTEx_ReceiveToIdle_IT+0x12>
    return HAL_BUSY;
 80060a4:	2002      	movs	r0, #2
}
 80060a6:	4770      	bx	lr
      return HAL_ERROR;
 80060a8:	2001      	movs	r0, #1
 80060aa:	e7e1      	b.n	8006070 <HAL_UARTEx_ReceiveToIdle_IT+0x12>

080060ac <HAL_UARTEx_ReceiveToIdle_DMA>:
HAL_StatusTypeDef HAL_UARTEx_ReceiveToIdle_DMA(UART_HandleTypeDef *huart, uint8_t *pData, uint16_t Size)
{
  HAL_StatusTypeDef status;

  /* Check that a Rx process is not already ongoing */
  if (huart->RxState == HAL_UART_STATE_READY)
 80060ac:	f8d0 3080 	ldr.w	r3, [r0, #128]	@ 0x80
 80060b0:	2b20      	cmp	r3, #32
 80060b2:	d11f      	bne.n	80060f4 <HAL_UARTEx_ReceiveToIdle_DMA+0x48>
{
 80060b4:	b510      	push	{r4, lr}
 80060b6:	4604      	mov	r4, r0
  {
    if ((pData == NULL) || (Size == 0U))
 80060b8:	b1f1      	cbz	r1, 80060f8 <HAL_UARTEx_ReceiveToIdle_DMA+0x4c>
 80060ba:	b90a      	cbnz	r2, 80060c0 <HAL_UARTEx_ReceiveToIdle_DMA+0x14>
    {
      return HAL_ERROR;
 80060bc:	2001      	movs	r0, #1
  }
  else
  {
    return HAL_BUSY;
  }
}
 80060be:	bd10      	pop	{r4, pc}
    huart->ReceptionType = HAL_UART_RECEPTION_TOIDLE;
 80060c0:	2301      	movs	r3, #1
 80060c2:	6603      	str	r3, [r0, #96]	@ 0x60
    huart->RxEventType = HAL_UART_RXEVENT_TC;
 80060c4:	2300      	movs	r3, #0
 80060c6:	6643      	str	r3, [r0, #100]	@ 0x64
    status =  UART_Start_Receive_DMA(huart, pData, Size);
 80060c8:	f7ff ff74 	bl	8005fb4 <UART_Start_Receive_DMA>
    if (status == HAL_OK)
 80060cc:	2800      	cmp	r0, #0
 80060ce:	d1f6      	bne.n	80060be <HAL_UARTEx_ReceiveToIdle_DMA+0x12>
      if (huart->ReceptionType == HAL_UART_RECEPTION_TOIDLE)
 80060d0:	6e23      	ldr	r3, [r4, #96]	@ 0x60
 80060d2:	2b01      	cmp	r3, #1
 80060d4:	d001      	beq.n	80060da <HAL_UARTEx_ReceiveToIdle_DMA+0x2e>
        status = HAL_ERROR;
 80060d6:	2001      	movs	r0, #1
    return status;
 80060d8:	e7f1      	b.n	80060be <HAL_UARTEx_ReceiveToIdle_DMA+0x12>
        __HAL_UART_CLEAR_FLAG(huart, UART_CLEAR_IDLEF);
 80060da:	6823      	ldr	r3, [r4, #0]
 80060dc:	2210      	movs	r2, #16
 80060de:	621a      	str	r2, [r3, #32]
        ATOMIC_SET_BIT(huart->Instance->CR1, USART_CR1_IDLEIE);
 80060e0:	6822      	ldr	r2, [r4, #0]
   __ASM volatile ("ldrex %0, %1" : "=r" (result) : "Q" (*addr) );
 80060e2:	e852 3f00 	ldrex	r3, [r2]
 80060e6:	f043 0310 	orr.w	r3, r3, #16
   __ASM volatile ("strex %0, %2, %1" : "=&r" (result), "=Q" (*addr) : "r" (value) );
 80060ea:	e842 3100 	strex	r1, r3, [r2]
 80060ee:	2900      	cmp	r1, #0
 80060f0:	d1f6      	bne.n	80060e0 <HAL_UARTEx_ReceiveToIdle_DMA+0x34>
 80060f2:	e7e4      	b.n	80060be <HAL_UARTEx_ReceiveToIdle_DMA+0x12>
    return HAL_BUSY;
 80060f4:	2002      	movs	r0, #2
}
 80060f6:	4770      	bx	lr
      return HAL_ERROR;
 80060f8:	2001      	movs	r0, #1
 80060fa:	e7e0      	b.n	80060be <HAL_UARTEx_ReceiveToIdle_DMA+0x12>

080060fc <HAL_UARTEx_GetRxEventType>:
  * @retval Rx Event Type (return vale will be a value of @ref UART_RxEvent_Type_Values)
  */
HAL_UART_RxEventTypeTypeDef HAL_UARTEx_GetRxEventType(const UART_HandleTypeDef *huart)
{
  /* Return Rx Event type value, as stored in UART handle */
  return (huart->RxEventType);
 80060fc:	6e40      	ldr	r0, [r0, #100]	@ 0x64
}
 80060fe:	4770      	bx	lr

08006100 <NMI_Handler>:
{
  /* USER CODE BEGIN NonMaskableInt_IRQn 0 */

  /* USER CODE END NonMaskableInt_IRQn 0 */
  /* USER CODE BEGIN NonMaskableInt_IRQn 1 */
   while (1)
 8006100:	e7fe      	b.n	8006100 <NMI_Handler>
	...

08006104 <HardFault_Handler>:

/**
  * @brief This function handles Hard fault interrupt.
  */
void HardFault_Handler(void)
{
 8006104:	b510      	push	{r4, lr}
 8006106:	b0a4      	sub	sp, #144	@ 0x90
  /* USER CODE BEGIN HardFault_IRQn 0 */
      // Read fault status registers
    uint32_t hfsr  = SCB->HFSR;   // HardFault Status
 8006108:	4a0c      	ldr	r2, [pc, #48]	@ (800613c <HardFault_Handler+0x38>)
 800610a:	6ad3      	ldr	r3, [r2, #44]	@ 0x2c
    uint32_t cfsr  = SCB->CFSR;   // Configurable Fault Status
 800610c:	6a91      	ldr	r1, [r2, #40]	@ 0x28
    uint32_t mmfar = SCB->MMFAR;  // MemManage Fault Address
 800610e:	6b50      	ldr	r0, [r2, #52]	@ 0x34
    uint32_t bfar  = SCB->BFAR;   // BusFault Address
 8006110:	6b92      	ldr	r2, [r2, #56]	@ 0x38

    char buf[128];
    snprintf(buf, sizeof(buf),
 8006112:	ac04      	add	r4, sp, #16
 8006114:	9202      	str	r2, [sp, #8]
 8006116:	9001      	str	r0, [sp, #4]
 8006118:	9100      	str	r1, [sp, #0]
 800611a:	4a09      	ldr	r2, [pc, #36]	@ (8006140 <HardFault_Handler+0x3c>)
 800611c:	2180      	movs	r1, #128	@ 0x80
 800611e:	4620      	mov	r0, r4
 8006120:	f000 fcd4 	bl	8006acc <sniprintf>
        (unsigned long)cfsr,
        (unsigned long)mmfar,
        (unsigned long)bfar);

    // Assumes UART is still functional
    HAL_UART_Transmit(&huart3, (uint8_t*)buf, strlen(buf), 1000);
 8006124:	4620      	mov	r0, r4
 8006126:	f7fa f833 	bl	8000190 <strlen>
 800612a:	f44f 737a 	mov.w	r3, #1000	@ 0x3e8
 800612e:	b282      	uxth	r2, r0
 8006130:	4621      	mov	r1, r4
 8006132:	4804      	ldr	r0, [pc, #16]	@ (8006144 <HardFault_Handler+0x40>)
 8006134:	f7ff fdd3 	bl	8005cde <HAL_UART_Transmit>
  /* USER CODE END HardFault_IRQn 0 */
  while (1)
 8006138:	e7fe      	b.n	8006138 <HardFault_Handler+0x34>
 800613a:	bf00      	nop
 800613c:	e000ed00 	.word	0xe000ed00
 8006140:	08007e10 	.word	0x08007e10
 8006144:	20010f04 	.word	0x20010f04

08006148 <MemManage_Handler>:
void MemManage_Handler(void)
{
  /* USER CODE BEGIN MemoryManagement_IRQn 0 */

  /* USER CODE END MemoryManagement_IRQn 0 */
  while (1)
 8006148:	e7fe      	b.n	8006148 <MemManage_Handler>

0800614a <BusFault_Handler>:
void BusFault_Handler(void)
{
  /* USER CODE BEGIN BusFault_IRQn 0 */

  /* USER CODE END BusFault_IRQn 0 */
  while (1)
 800614a:	e7fe      	b.n	800614a <BusFault_Handler>

0800614c <UsageFault_Handler>:
void UsageFault_Handler(void)
{
  /* USER CODE BEGIN UsageFault_IRQn 0 */

  /* USER CODE END UsageFault_IRQn 0 */
  while (1)
 800614c:	e7fe      	b.n	800614c <UsageFault_Handler>

0800614e <SVC_Handler>:

  /* USER CODE END SVCall_IRQn 0 */
  /* USER CODE BEGIN SVCall_IRQn 1 */

  /* USER CODE END SVCall_IRQn 1 */
}
 800614e:	4770      	bx	lr

08006150 <DebugMon_Handler>:

  /* USER CODE END DebugMonitor_IRQn 0 */
  /* USER CODE BEGIN DebugMonitor_IRQn 1 */

  /* USER CODE END DebugMonitor_IRQn 1 */
}
 8006150:	4770      	bx	lr

08006152 <PendSV_Handler>:

  /* USER CODE END PendSV_IRQn 0 */
  /* USER CODE BEGIN PendSV_IRQn 1 */

  /* USER CODE END PendSV_IRQn 1 */
}
 8006152:	4770      	bx	lr

08006154 <SysTick_Handler>:

/**
  * @brief This function handles System tick timer.
  */
void SysTick_Handler(void)
{
 8006154:	b508      	push	{r3, lr}
  /* USER CODE BEGIN SysTick_IRQn 0 */

  /* USER CODE END SysTick_IRQn 0 */
  HAL_IncTick();
 8006156:	f7fb f957 	bl	8001408 <HAL_IncTick>
  /* USER CODE BEGIN SysTick_IRQn 1 */

  /* USER CODE END SysTick_IRQn 1 */
}
 800615a:	bd08      	pop	{r3, pc}

0800615c <RTC_WKUP_IRQHandler>:

/**
  * @brief This function handles RTC wake-up interrupt through EXTI line 20.
  */
void RTC_WKUP_IRQHandler(void)
{
 800615c:	b508      	push	{r3, lr}
  /* USER CODE BEGIN RTC_WKUP_IRQn 0 */
  wake_source = 1;  
 800615e:	4b03      	ldr	r3, [pc, #12]	@ (800616c <RTC_WKUP_IRQHandler+0x10>)
 8006160:	2201      	movs	r2, #1
 8006162:	701a      	strb	r2, [r3, #0]
  //HAL_GPIO_TogglePin(Lo_PWR_CTRL_GPIO_Port, Lo_PWR_CTRL_Pin);
  /* USER CODE END RTC_WKUP_IRQn 0 */
  HAL_RTCEx_WakeUpTimerIRQHandler(&hrtc);
 8006164:	4802      	ldr	r0, [pc, #8]	@ (8006170 <RTC_WKUP_IRQHandler+0x14>)
 8006166:	f7fe f83b 	bl	80041e0 <HAL_RTCEx_WakeUpTimerIRQHandler>
  /* USER CODE BEGIN RTC_WKUP_IRQn 1 */

  /* USER CODE END RTC_WKUP_IRQn 1 */
}
 800616a:	bd08      	pop	{r3, pc}
 800616c:	20010d16 	.word	0x20010d16
 8006170:	20010e98 	.word	0x20010e98

08006174 <RCC_IRQHandler>:

  /* USER CODE END RCC_IRQn 0 */
  /* USER CODE BEGIN RCC_IRQn 1 */

  /* USER CODE END RCC_IRQn 1 */
}
 8006174:	4770      	bx	lr
	...

08006178 <DMA1_Channel5_IRQHandler>:

/**
  * @brief This function handles DMA1 channel5 global interrupt.
  */
void DMA1_Channel5_IRQHandler(void)
{
 8006178:	b508      	push	{r3, lr}
  /* USER CODE BEGIN DMA1_Channel5_IRQn 0 */

  /* USER CODE END DMA1_Channel5_IRQn 0 */
  HAL_DMA_IRQHandler(&hdma_usart1_rx);
 800617a:	4802      	ldr	r0, [pc, #8]	@ (8006184 <DMA1_Channel5_IRQHandler+0xc>)
 800617c:	f7fb fbb4 	bl	80018e8 <HAL_DMA_IRQHandler>
  /* USER CODE BEGIN DMA1_Channel5_IRQn 1 */

  /* USER CODE END DMA1_Channel5_IRQn 1 */
}
 8006180:	bd08      	pop	{r3, pc}
 8006182:	bf00      	nop
 8006184:	20010ebc 	.word	0x20010ebc

08006188 <USART1_IRQHandler>:

/**
  * @brief This function handles USART1 global interrupt.
  */
void USART1_IRQHandler(void)
{
 8006188:	b508      	push	{r3, lr}
  /* USER CODE BEGIN USART1_IRQn 0 */

  /* USER CODE END USART1_IRQn 0 */
  HAL_UART_IRQHandler(&huart1);
 800618a:	4802      	ldr	r0, [pc, #8]	@ (8006194 <USART1_IRQHandler+0xc>)
 800618c:	f7ff f88c 	bl	80052a8 <HAL_UART_IRQHandler>
  /* USER CODE BEGIN USART1_IRQn 1 */

  /* USER CODE END USART1_IRQn 1 */
}
 8006190:	bd08      	pop	{r3, pc}
 8006192:	bf00      	nop
 8006194:	20011014 	.word	0x20011014

08006198 <USART2_IRQHandler>:

/**
  * @brief This function handles USART2 global interrupt.
  */
void USART2_IRQHandler(void)
{
 8006198:	b508      	push	{r3, lr}
  /* USER CODE BEGIN USART2_IRQn 0 */

  /* USER CODE END USART2_IRQn 0 */
  HAL_UART_IRQHandler(&huart2);
 800619a:	4802      	ldr	r0, [pc, #8]	@ (80061a4 <USART2_IRQHandler+0xc>)
 800619c:	f7ff f884 	bl	80052a8 <HAL_UART_IRQHandler>
  /* USER CODE BEGIN USART2_IRQn 1 */

  /* USER CODE END USART2_IRQn 1 */
}
 80061a0:	bd08      	pop	{r3, pc}
 80061a2:	bf00      	nop
 80061a4:	20010f8c 	.word	0x20010f8c

080061a8 <EXTI15_10_IRQHandler>:

/**
  * @brief This function handles EXTI line[15:10] interrupts.
  */
void EXTI15_10_IRQHandler(void)
{
 80061a8:	b508      	push	{r3, lr}
  /* USER CODE BEGIN EXTI15_10_IRQn 0 */
  
  //HAL_GPIO_TogglePin(Lo_PWR_CTRL_GPIO_Port, Lo_PWR_CTRL_Pin);
  wake_source = 2;
 80061aa:	4b04      	ldr	r3, [pc, #16]	@ (80061bc <EXTI15_10_IRQHandler+0x14>)
 80061ac:	2202      	movs	r2, #2
 80061ae:	701a      	strb	r2, [r3, #0]
  /* USER CODE END EXTI15_10_IRQn 0 */
  HAL_GPIO_EXTI_IRQHandler(D_WAKE_Pin);
 80061b0:	f44f 6000 	mov.w	r0, #2048	@ 0x800
 80061b4:	f7fb fdc2 	bl	8001d3c <HAL_GPIO_EXTI_IRQHandler>
  /* USER CODE BEGIN EXTI15_10_IRQn 1 */

  /* USER CODE END EXTI15_10_IRQn 1 */
}
 80061b8:	bd08      	pop	{r3, pc}
 80061ba:	bf00      	nop
 80061bc:	20010d16 	.word	0x20010d16

080061c0 <SDMMC1_IRQHandler>:

/**
  * @brief This function handles SDMMC1 global interrupt.
  */
void SDMMC1_IRQHandler(void)
{
 80061c0:	b508      	push	{r3, lr}
  /* USER CODE BEGIN SDMMC1_IRQn 0 */

  /* USER CODE END SDMMC1_IRQn 0 */
  HAL_SD_IRQHandler(&hsd1);
 80061c2:	4802      	ldr	r0, [pc, #8]	@ (80061cc <SDMMC1_IRQHandler+0xc>)
 80061c4:	f7fe fe9c 	bl	8004f00 <HAL_SD_IRQHandler>
  /* USER CODE BEGIN SDMMC1_IRQn 1 */

  /* USER CODE END SDMMC1_IRQn 1 */
}
 80061c8:	bd08      	pop	{r3, pc}
 80061ca:	bf00      	nop
 80061cc:	20010e14 	.word	0x20010e14

080061d0 <DMA2_Channel4_IRQHandler>:
 * 
 * 
  * @brief This function handles DMA2 channel4 global interrupt.
  */
void DMA2_Channel4_IRQHandler(void)
{
 80061d0:	b508      	push	{r3, lr}
  /* USER CODE BEGIN DMA2_Channel4_IRQn 0 */

  /* USER CODE END DMA2_Channel4_IRQn 0 */
  HAL_DMA_IRQHandler(&hdma_sdmmc1_rx);
 80061d2:	4802      	ldr	r0, [pc, #8]	@ (80061dc <DMA2_Channel4_IRQHandler+0xc>)
 80061d4:	f7fb fb88 	bl	80018e8 <HAL_DMA_IRQHandler>
  /* USER CODE BEGIN DMA2_Channel4_IRQn 1 */

  /* USER CODE END DMA2_Channel4_IRQn 1 */
}
 80061d8:	bd08      	pop	{r3, pc}
 80061da:	bf00      	nop
 80061dc:	20010dcc 	.word	0x20010dcc

080061e0 <DMA2_Channel5_IRQHandler>:

/**
  * @brief This function handles DMA2 channel5 global interrupt.
  */
void DMA2_Channel5_IRQHandler(void)
{
 80061e0:	b508      	push	{r3, lr}
  /* USER CODE BEGIN DMA2_Channel5_IRQn 0 */

  /* USER CODE END DMA2_Channel5_IRQn 0 */
  HAL_DMA_IRQHandler(&hdma_sdmmc1_tx);
 80061e2:	4802      	ldr	r0, [pc, #8]	@ (80061ec <DMA2_Channel5_IRQHandler+0xc>)
 80061e4:	f7fb fb80 	bl	80018e8 <HAL_DMA_IRQHandler>
  /* USER CODE BEGIN DMA2_Channel5_IRQn 1 */

  /* USER CODE END DMA2_Channel5_IRQn 1 */
}
 80061e8:	bd08      	pop	{r3, pc}
 80061ea:	bf00      	nop
 80061ec:	20010d84 	.word	0x20010d84

080061f0 <LPUART1_IRQHandler>:

/**
  * @brief This function handles LPUART1 global interrupt.
  */
void LPUART1_IRQHandler(void)
{
 80061f0:	b508      	push	{r3, lr}
  /* USER CODE BEGIN LPUART1_IRQn 0 */

  wake_source = 3;
 80061f2:	4b03      	ldr	r3, [pc, #12]	@ (8006200 <LPUART1_IRQHandler+0x10>)
 80061f4:	2203      	movs	r2, #3
 80061f6:	701a      	strb	r2, [r3, #0]
  /* USER CODE END LPUART1_IRQn 0 */
  HAL_UART_IRQHandler(&hlpuart1);
 80061f8:	4802      	ldr	r0, [pc, #8]	@ (8006204 <LPUART1_IRQHandler+0x14>)
 80061fa:	f7ff f855 	bl	80052a8 <HAL_UART_IRQHandler>
  /* USER CODE BEGIN LPUART1_IRQn 1 */

  /* USER CODE END LPUART1_IRQn 1 */
}
 80061fe:	bd08      	pop	{r3, pc}
 8006200:	20010d16 	.word	0x20010d16
 8006204:	2001109c 	.word	0x2001109c

08006208 <SDMMC_GetCmdError>:
  */
static uint32_t SDMMC_GetCmdError(SDMMC_TypeDef *SDMMCx)
{
  /* 8 is the number of required instructions cycles for the below loop statement.
  The SDMMC_CMDTIMEOUT is expressed in ms */
  uint32_t count = SDMMC_CMDTIMEOUT * (SystemCoreClock / 8U / 1000U);
 8006208:	4b0c      	ldr	r3, [pc, #48]	@ (800623c <SDMMC_GetCmdError+0x34>)
 800620a:	681b      	ldr	r3, [r3, #0]
 800620c:	4a0c      	ldr	r2, [pc, #48]	@ (8006240 <SDMMC_GetCmdError+0x38>)
 800620e:	fba2 2303 	umull	r2, r3, r2, r3
 8006212:	0a5b      	lsrs	r3, r3, #9
 8006214:	f241 3288 	movw	r2, #5000	@ 0x1388
 8006218:	fb02 f303 	mul.w	r3, r2, r3

  do
  {
    if (count-- == 0U)
 800621c:	3b01      	subs	r3, #1
 800621e:	f1b3 3fff 	cmp.w	r3, #4294967295	@ 0xffffffff
 8006222:	d007      	beq.n	8006234 <SDMMC_GetCmdError+0x2c>
    {
      return SDMMC_ERROR_TIMEOUT;
    }

  } while (!__SDMMC_GET_FLAG(SDMMCx, SDMMC_FLAG_CMDSENT));
 8006224:	6b42      	ldr	r2, [r0, #52]	@ 0x34
 8006226:	f012 0f80 	tst.w	r2, #128	@ 0x80
 800622a:	d0f7      	beq.n	800621c <SDMMC_GetCmdError+0x14>

  /* Clear all the static flags */
  __SDMMC_CLEAR_FLAG(SDMMCx, SDMMC_STATIC_CMD_FLAGS);
 800622c:	23c5      	movs	r3, #197	@ 0xc5
 800622e:	6383      	str	r3, [r0, #56]	@ 0x38

  return SDMMC_ERROR_NONE;
 8006230:	2000      	movs	r0, #0
 8006232:	4770      	bx	lr
      return SDMMC_ERROR_TIMEOUT;
 8006234:	f04f 4000 	mov.w	r0, #2147483648	@ 0x80000000
}
 8006238:	4770      	bx	lr
 800623a:	bf00      	nop
 800623c:	2000000c 	.word	0x2000000c
 8006240:	10624dd3 	.word	0x10624dd3

08006244 <SDMMC_Init>:
{
 8006244:	b084      	sub	sp, #16
 8006246:	f10d 0c04 	add.w	ip, sp, #4
 800624a:	e88c 000e 	stmia.w	ip, {r1, r2, r3}
  tmpreg |= (Init.ClockEdge           | \
 800624e:	460b      	mov	r3, r1
 8006250:	9a03      	ldr	r2, [sp, #12]
 8006252:	4313      	orrs	r3, r2
             Init.BusWide             | \
 8006254:	9a04      	ldr	r2, [sp, #16]
             Init.ClockPowerSave      | \
 8006256:	4313      	orrs	r3, r2
             Init.HardwareFlowControl | \
 8006258:	9a05      	ldr	r2, [sp, #20]
             Init.BusWide             | \
 800625a:	4313      	orrs	r3, r2
             Init.ClockDiv
 800625c:	9a06      	ldr	r2, [sp, #24]
             Init.HardwareFlowControl | \
 800625e:	4313      	orrs	r3, r2
  tmpreg |= (Init.ClockEdge           | \
 8006260:	9a02      	ldr	r2, [sp, #8]
 8006262:	431a      	orrs	r2, r3
  MODIFY_REG(SDMMCx->CLKCR, CLKCR_CLEAR_MASK, tmpreg);
 8006264:	6843      	ldr	r3, [r0, #4]
 8006266:	f423 43fd 	bic.w	r3, r3, #32384	@ 0x7e80
 800626a:	f023 037f 	bic.w	r3, r3, #127	@ 0x7f
 800626e:	4313      	orrs	r3, r2
 8006270:	6043      	str	r3, [r0, #4]
}
 8006272:	2000      	movs	r0, #0
 8006274:	b004      	add	sp, #16
 8006276:	4770      	bx	lr

08006278 <SDMMC_ReadFIFO>:
  return (SDMMCx->FIFO);
 8006278:	f8d0 0080 	ldr.w	r0, [r0, #128]	@ 0x80
}
 800627c:	4770      	bx	lr

0800627e <SDMMC_WriteFIFO>:
  SDMMCx->FIFO = *pWriteData;
 800627e:	680b      	ldr	r3, [r1, #0]
 8006280:	f8c0 3080 	str.w	r3, [r0, #128]	@ 0x80
}
 8006284:	2000      	movs	r0, #0
 8006286:	4770      	bx	lr

08006288 <SDMMC_PowerState_ON>:
{
 8006288:	b508      	push	{r3, lr}
  SDMMCx->POWER = SDMMC_POWER_PWRCTRL;
 800628a:	2303      	movs	r3, #3
 800628c:	6003      	str	r3, [r0, #0]
  HAL_Delay(2);
 800628e:	2002      	movs	r0, #2
 8006290:	f7fb f8cc 	bl	800142c <HAL_Delay>
}
 8006294:	2000      	movs	r0, #0
 8006296:	bd08      	pop	{r3, pc}

08006298 <SDMMC_PowerState_OFF>:
{
 8006298:	4603      	mov	r3, r0
  SDMMCx->POWER = (uint32_t)0x00000000;
 800629a:	2000      	movs	r0, #0
 800629c:	6018      	str	r0, [r3, #0]
}
 800629e:	4770      	bx	lr

080062a0 <SDMMC_GetPowerState>:
  return (SDMMCx->POWER & SDMMC_POWER_PWRCTRL);
 80062a0:	6800      	ldr	r0, [r0, #0]
}
 80062a2:	f000 0003 	and.w	r0, r0, #3
 80062a6:	4770      	bx	lr

080062a8 <SDMMC_SendCommand>:
  SDMMCx->ARG = Command->Argument;
 80062a8:	680b      	ldr	r3, [r1, #0]
 80062aa:	6083      	str	r3, [r0, #8]
  tmpreg |= (uint32_t)(Command->CmdIndex         | \
 80062ac:	684b      	ldr	r3, [r1, #4]
                       Command->Response         | \
 80062ae:	688a      	ldr	r2, [r1, #8]
  tmpreg |= (uint32_t)(Command->CmdIndex         | \
 80062b0:	4313      	orrs	r3, r2
                       Command->WaitForInterrupt | \
 80062b2:	68ca      	ldr	r2, [r1, #12]
                       Command->Response         | \
 80062b4:	4313      	orrs	r3, r2
                       Command->CPSM);
 80062b6:	690a      	ldr	r2, [r1, #16]
                       Command->WaitForInterrupt | \
 80062b8:	4313      	orrs	r3, r2
  MODIFY_REG(SDMMCx->CMD, CMD_CLEAR_MASK, tmpreg);
 80062ba:	68c2      	ldr	r2, [r0, #12]
 80062bc:	f36f 020b 	bfc	r2, #0, #12
 80062c0:	4313      	orrs	r3, r2
 80062c2:	60c3      	str	r3, [r0, #12]
}
 80062c4:	2000      	movs	r0, #0
 80062c6:	4770      	bx	lr

080062c8 <SDMMC_GetCommandResponse>:
  return (uint8_t)(SDMMCx->RESPCMD);
 80062c8:	6900      	ldr	r0, [r0, #16]
}
 80062ca:	b2c0      	uxtb	r0, r0
 80062cc:	4770      	bx	lr

080062ce <SDMMC_GetResponse>:
  tmp = (uint32_t)(&(SDMMCx->RESP1)) + Response;
 80062ce:	3014      	adds	r0, #20
  return (*(__IO uint32_t *) tmp);
 80062d0:	5840      	ldr	r0, [r0, r1]
}
 80062d2:	4770      	bx	lr

080062d4 <SDMMC_ConfigData>:
  SDMMCx->DTIMER = Data->DataTimeOut;
 80062d4:	680b      	ldr	r3, [r1, #0]
 80062d6:	6243      	str	r3, [r0, #36]	@ 0x24
  SDMMCx->DLEN = Data->DataLength;
 80062d8:	684b      	ldr	r3, [r1, #4]
 80062da:	6283      	str	r3, [r0, #40]	@ 0x28
  tmpreg |= (uint32_t)(Data->DataBlockSize | \
 80062dc:	688b      	ldr	r3, [r1, #8]
                       Data->TransferDir   | \
 80062de:	68ca      	ldr	r2, [r1, #12]
  tmpreg |= (uint32_t)(Data->DataBlockSize | \
 80062e0:	4313      	orrs	r3, r2
                       Data->TransferMode  | \
 80062e2:	690a      	ldr	r2, [r1, #16]
                       Data->TransferDir   | \
 80062e4:	4313      	orrs	r3, r2
                       Data->DPSM);
 80062e6:	694a      	ldr	r2, [r1, #20]
                       Data->TransferMode  | \
 80062e8:	4313      	orrs	r3, r2
  MODIFY_REG(SDMMCx->DCTRL, DCTRL_CLEAR_MASK, tmpreg);
 80062ea:	6ac2      	ldr	r2, [r0, #44]	@ 0x2c
 80062ec:	f022 02f7 	bic.w	r2, r2, #247	@ 0xf7
 80062f0:	4313      	orrs	r3, r2
 80062f2:	62c3      	str	r3, [r0, #44]	@ 0x2c
}
 80062f4:	2000      	movs	r0, #0
 80062f6:	4770      	bx	lr

080062f8 <SDMMC_CmdGoIdleState>:
{
 80062f8:	b510      	push	{r4, lr}
 80062fa:	b086      	sub	sp, #24
 80062fc:	4604      	mov	r4, r0
  sdmmc_cmdinit.Argument         = 0U;
 80062fe:	2300      	movs	r3, #0
 8006300:	9301      	str	r3, [sp, #4]
  sdmmc_cmdinit.CmdIndex         = SDMMC_CMD_GO_IDLE_STATE;
 8006302:	9302      	str	r3, [sp, #8]
  sdmmc_cmdinit.Response         = SDMMC_RESPONSE_NO;
 8006304:	9303      	str	r3, [sp, #12]
  sdmmc_cmdinit.WaitForInterrupt = SDMMC_WAIT_NO;
 8006306:	9304      	str	r3, [sp, #16]
  sdmmc_cmdinit.CPSM             = SDMMC_CPSM_ENABLE;
 8006308:	f44f 6380 	mov.w	r3, #1024	@ 0x400
 800630c:	9305      	str	r3, [sp, #20]
  (void)SDMMC_SendCommand(SDMMCx, &sdmmc_cmdinit);
 800630e:	a901      	add	r1, sp, #4
 8006310:	f7ff ffca 	bl	80062a8 <SDMMC_SendCommand>
  errorstate = SDMMC_GetCmdError(SDMMCx);
 8006314:	4620      	mov	r0, r4
 8006316:	f7ff ff77 	bl	8006208 <SDMMC_GetCmdError>
}
 800631a:	b006      	add	sp, #24
 800631c:	bd10      	pop	{r4, pc}
	...

08006320 <SDMMC_GetCmdResp1>:
{
 8006320:	b538      	push	{r3, r4, r5, lr}
 8006322:	4604      	mov	r4, r0
 8006324:	460d      	mov	r5, r1
  uint32_t count = Timeout * (SystemCoreClock / 8U / 1000U);
 8006326:	4b50      	ldr	r3, [pc, #320]	@ (8006468 <SDMMC_GetCmdResp1+0x148>)
 8006328:	681b      	ldr	r3, [r3, #0]
 800632a:	4950      	ldr	r1, [pc, #320]	@ (800646c <SDMMC_GetCmdResp1+0x14c>)
 800632c:	fba1 1303 	umull	r1, r3, r1, r3
 8006330:	0a5b      	lsrs	r3, r3, #9
 8006332:	fb03 f202 	mul.w	r2, r3, r2
    if (count-- == 0U)
 8006336:	3a01      	subs	r2, #1
 8006338:	f1b2 3fff 	cmp.w	r2, #4294967295	@ 0xffffffff
 800633c:	d05d      	beq.n	80063fa <SDMMC_GetCmdResp1+0xda>
    sta_reg = SDMMCx->STA;
 800633e:	6b63      	ldr	r3, [r4, #52]	@ 0x34
  while (((sta_reg & (SDMMC_FLAG_CCRCFAIL | SDMMC_FLAG_CMDREND | SDMMC_FLAG_CTIMEOUT)) == 0U) ||
 8006340:	f013 0f45 	tst.w	r3, #69	@ 0x45
 8006344:	d0f7      	beq.n	8006336 <SDMMC_GetCmdResp1+0x16>
 8006346:	f413 6f00 	tst.w	r3, #2048	@ 0x800
 800634a:	d1f4      	bne.n	8006336 <SDMMC_GetCmdResp1+0x16>
  if (__SDMMC_GET_FLAG(SDMMCx, SDMMC_FLAG_CTIMEOUT))
 800634c:	6b63      	ldr	r3, [r4, #52]	@ 0x34
 800634e:	f013 0f04 	tst.w	r3, #4
 8006352:	d106      	bne.n	8006362 <SDMMC_GetCmdResp1+0x42>
  else if (__SDMMC_GET_FLAG(SDMMCx, SDMMC_FLAG_CCRCFAIL))
 8006354:	6b60      	ldr	r0, [r4, #52]	@ 0x34
 8006356:	f010 0001 	ands.w	r0, r0, #1
 800635a:	d005      	beq.n	8006368 <SDMMC_GetCmdResp1+0x48>
    __SDMMC_CLEAR_FLAG(SDMMCx, SDMMC_FLAG_CCRCFAIL);
 800635c:	2301      	movs	r3, #1
 800635e:	63a3      	str	r3, [r4, #56]	@ 0x38
    return SDMMC_ERROR_CMD_CRC_FAIL;
 8006360:	e04d      	b.n	80063fe <SDMMC_GetCmdResp1+0xde>
    __SDMMC_CLEAR_FLAG(SDMMCx, SDMMC_FLAG_CTIMEOUT);
 8006362:	2004      	movs	r0, #4
 8006364:	63a0      	str	r0, [r4, #56]	@ 0x38
    return SDMMC_ERROR_CMD_RSP_TIMEOUT;
 8006366:	e04a      	b.n	80063fe <SDMMC_GetCmdResp1+0xde>
  __SDMMC_CLEAR_FLAG(SDMMCx, SDMMC_STATIC_CMD_FLAGS);
 8006368:	23c5      	movs	r3, #197	@ 0xc5
 800636a:	63a3      	str	r3, [r4, #56]	@ 0x38
  if (SDMMC_GetCommandResponse(SDMMCx) != SD_CMD)
 800636c:	4620      	mov	r0, r4
 800636e:	f7ff ffab 	bl	80062c8 <SDMMC_GetCommandResponse>
 8006372:	42a8      	cmp	r0, r5
 8006374:	d001      	beq.n	800637a <SDMMC_GetCmdResp1+0x5a>
    return SDMMC_ERROR_CMD_CRC_FAIL;
 8006376:	2001      	movs	r0, #1
 8006378:	e041      	b.n	80063fe <SDMMC_GetCmdResp1+0xde>
  response_r1 = SDMMC_GetResponse(SDMMCx, SDMMC_RESP1);
 800637a:	2100      	movs	r1, #0
 800637c:	4620      	mov	r0, r4
 800637e:	f7ff ffa6 	bl	80062ce <SDMMC_GetResponse>
 8006382:	4603      	mov	r3, r0
  if ((response_r1 &SDMMC_OCR_ERRORBITS) == SDMMC_ALLZERO)
 8006384:	483a      	ldr	r0, [pc, #232]	@ (8006470 <SDMMC_GetCmdResp1+0x150>)
 8006386:	4018      	ands	r0, r3
 8006388:	b3c8      	cbz	r0, 80063fe <SDMMC_GetCmdResp1+0xde>
  else if ((response_r1 &SDMMC_OCR_ADDR_OUT_OF_RANGE) == SDMMC_OCR_ADDR_OUT_OF_RANGE)
 800638a:	2b00      	cmp	r3, #0
 800638c:	db38      	blt.n	8006400 <SDMMC_GetCmdResp1+0xe0>
  else if ((response_r1 &SDMMC_OCR_ADDR_MISALIGNED) == SDMMC_OCR_ADDR_MISALIGNED)
 800638e:	f013 4f80 	tst.w	r3, #1073741824	@ 0x40000000
 8006392:	d138      	bne.n	8006406 <SDMMC_GetCmdResp1+0xe6>
  else if ((response_r1 &SDMMC_OCR_BLOCK_LEN_ERR) == SDMMC_OCR_BLOCK_LEN_ERR)
 8006394:	f013 5f00 	tst.w	r3, #536870912	@ 0x20000000
 8006398:	d137      	bne.n	800640a <SDMMC_GetCmdResp1+0xea>
  else if ((response_r1 &SDMMC_OCR_ERASE_SEQ_ERR) == SDMMC_OCR_ERASE_SEQ_ERR)
 800639a:	f013 5f80 	tst.w	r3, #268435456	@ 0x10000000
 800639e:	d136      	bne.n	800640e <SDMMC_GetCmdResp1+0xee>
  else if ((response_r1 &SDMMC_OCR_BAD_ERASE_PARAM) == SDMMC_OCR_BAD_ERASE_PARAM)
 80063a0:	f013 6f00 	tst.w	r3, #134217728	@ 0x8000000
 80063a4:	d136      	bne.n	8006414 <SDMMC_GetCmdResp1+0xf4>
  else if ((response_r1 &SDMMC_OCR_WRITE_PROT_VIOLATION) == SDMMC_OCR_WRITE_PROT_VIOLATION)
 80063a6:	f013 6f80 	tst.w	r3, #67108864	@ 0x4000000
 80063aa:	d136      	bne.n	800641a <SDMMC_GetCmdResp1+0xfa>
  else if ((response_r1 &SDMMC_OCR_LOCK_UNLOCK_FAILED) == SDMMC_OCR_LOCK_UNLOCK_FAILED)
 80063ac:	f013 7f80 	tst.w	r3, #16777216	@ 0x1000000
 80063b0:	d136      	bne.n	8006420 <SDMMC_GetCmdResp1+0x100>
  else if ((response_r1 &SDMMC_OCR_COM_CRC_FAILED) == SDMMC_OCR_COM_CRC_FAILED)
 80063b2:	f413 0f00 	tst.w	r3, #8388608	@ 0x800000
 80063b6:	d136      	bne.n	8006426 <SDMMC_GetCmdResp1+0x106>
  else if ((response_r1 &SDMMC_OCR_ILLEGAL_CMD) == SDMMC_OCR_ILLEGAL_CMD)
 80063b8:	f413 0f80 	tst.w	r3, #4194304	@ 0x400000
 80063bc:	d136      	bne.n	800642c <SDMMC_GetCmdResp1+0x10c>
  else if ((response_r1 &SDMMC_OCR_CARD_ECC_FAILED) == SDMMC_OCR_CARD_ECC_FAILED)
 80063be:	f413 1f00 	tst.w	r3, #2097152	@ 0x200000
 80063c2:	d136      	bne.n	8006432 <SDMMC_GetCmdResp1+0x112>
  else if ((response_r1 &SDMMC_OCR_CC_ERROR) == SDMMC_OCR_CC_ERROR)
 80063c4:	f413 1f80 	tst.w	r3, #1048576	@ 0x100000
 80063c8:	d136      	bne.n	8006438 <SDMMC_GetCmdResp1+0x118>
  else if ((response_r1 &SDMMC_OCR_STREAM_READ_UNDERRUN) == SDMMC_OCR_STREAM_READ_UNDERRUN)
 80063ca:	f413 2f80 	tst.w	r3, #262144	@ 0x40000
 80063ce:	d136      	bne.n	800643e <SDMMC_GetCmdResp1+0x11e>
  else if ((response_r1 &SDMMC_OCR_STREAM_WRITE_OVERRUN) == SDMMC_OCR_STREAM_WRITE_OVERRUN)
 80063d0:	f413 3f00 	tst.w	r3, #131072	@ 0x20000
 80063d4:	d136      	bne.n	8006444 <SDMMC_GetCmdResp1+0x124>
  else if ((response_r1 &SDMMC_OCR_CID_CSD_OVERWRITE) == SDMMC_OCR_CID_CSD_OVERWRITE)
 80063d6:	f413 3f80 	tst.w	r3, #65536	@ 0x10000
 80063da:	d136      	bne.n	800644a <SDMMC_GetCmdResp1+0x12a>
  else if ((response_r1 &SDMMC_OCR_WP_ERASE_SKIP) == SDMMC_OCR_WP_ERASE_SKIP)
 80063dc:	f413 4f00 	tst.w	r3, #32768	@ 0x8000
 80063e0:	d136      	bne.n	8006450 <SDMMC_GetCmdResp1+0x130>
  else if ((response_r1 &SDMMC_OCR_CARD_ECC_DISABLED) == SDMMC_OCR_CARD_ECC_DISABLED)
 80063e2:	f413 4f80 	tst.w	r3, #16384	@ 0x4000
 80063e6:	d136      	bne.n	8006456 <SDMMC_GetCmdResp1+0x136>
  else if ((response_r1 &SDMMC_OCR_ERASE_RESET) == SDMMC_OCR_ERASE_RESET)
 80063e8:	f413 5f00 	tst.w	r3, #8192	@ 0x2000
 80063ec:	d136      	bne.n	800645c <SDMMC_GetCmdResp1+0x13c>
  else if ((response_r1 &SDMMC_OCR_AKE_SEQ_ERROR) == SDMMC_OCR_AKE_SEQ_ERROR)
 80063ee:	f013 0f08 	tst.w	r3, #8
 80063f2:	d036      	beq.n	8006462 <SDMMC_GetCmdResp1+0x142>
    return SDMMC_ERROR_AKE_SEQ_ERR;
 80063f4:	f44f 0000 	mov.w	r0, #8388608	@ 0x800000
 80063f8:	e001      	b.n	80063fe <SDMMC_GetCmdResp1+0xde>
      return SDMMC_ERROR_TIMEOUT;
 80063fa:	f04f 4000 	mov.w	r0, #2147483648	@ 0x80000000
}
 80063fe:	bd38      	pop	{r3, r4, r5, pc}
    return SDMMC_ERROR_ADDR_OUT_OF_RANGE;
 8006400:	f04f 7000 	mov.w	r0, #33554432	@ 0x2000000
 8006404:	e7fb      	b.n	80063fe <SDMMC_GetCmdResp1+0xde>
    return SDMMC_ERROR_ADDR_MISALIGNED;
 8006406:	2040      	movs	r0, #64	@ 0x40
 8006408:	e7f9      	b.n	80063fe <SDMMC_GetCmdResp1+0xde>
    return SDMMC_ERROR_BLOCK_LEN_ERR;
 800640a:	2080      	movs	r0, #128	@ 0x80
 800640c:	e7f7      	b.n	80063fe <SDMMC_GetCmdResp1+0xde>
    return SDMMC_ERROR_ERASE_SEQ_ERR;
 800640e:	f44f 7080 	mov.w	r0, #256	@ 0x100
 8006412:	e7f4      	b.n	80063fe <SDMMC_GetCmdResp1+0xde>
    return SDMMC_ERROR_BAD_ERASE_PARAM;
 8006414:	f44f 7000 	mov.w	r0, #512	@ 0x200
 8006418:	e7f1      	b.n	80063fe <SDMMC_GetCmdResp1+0xde>
    return SDMMC_ERROR_WRITE_PROT_VIOLATION;
 800641a:	f44f 6080 	mov.w	r0, #1024	@ 0x400
 800641e:	e7ee      	b.n	80063fe <SDMMC_GetCmdResp1+0xde>
    return SDMMC_ERROR_LOCK_UNLOCK_FAILED;
 8006420:	f44f 6000 	mov.w	r0, #2048	@ 0x800
 8006424:	e7eb      	b.n	80063fe <SDMMC_GetCmdResp1+0xde>
    return SDMMC_ERROR_COM_CRC_FAILED;
 8006426:	f44f 5080 	mov.w	r0, #4096	@ 0x1000
 800642a:	e7e8      	b.n	80063fe <SDMMC_GetCmdResp1+0xde>
    return SDMMC_ERROR_ILLEGAL_CMD;
 800642c:	f44f 5000 	mov.w	r0, #8192	@ 0x2000
 8006430:	e7e5      	b.n	80063fe <SDMMC_GetCmdResp1+0xde>
    return SDMMC_ERROR_CARD_ECC_FAILED;
 8006432:	f44f 4080 	mov.w	r0, #16384	@ 0x4000
 8006436:	e7e2      	b.n	80063fe <SDMMC_GetCmdResp1+0xde>
    return SDMMC_ERROR_CC_ERR;
 8006438:	f44f 4000 	mov.w	r0, #32768	@ 0x8000
 800643c:	e7df      	b.n	80063fe <SDMMC_GetCmdResp1+0xde>
    return SDMMC_ERROR_STREAM_READ_UNDERRUN;
 800643e:	f44f 3000 	mov.w	r0, #131072	@ 0x20000
 8006442:	e7dc      	b.n	80063fe <SDMMC_GetCmdResp1+0xde>
    return SDMMC_ERROR_STREAM_WRITE_OVERRUN;
 8006444:	f44f 2080 	mov.w	r0, #262144	@ 0x40000
 8006448:	e7d9      	b.n	80063fe <SDMMC_GetCmdResp1+0xde>
    return SDMMC_ERROR_CID_CSD_OVERWRITE;
 800644a:	f44f 2000 	mov.w	r0, #524288	@ 0x80000
 800644e:	e7d6      	b.n	80063fe <SDMMC_GetCmdResp1+0xde>
    return SDMMC_ERROR_WP_ERASE_SKIP;
 8006450:	f44f 1080 	mov.w	r0, #1048576	@ 0x100000
 8006454:	e7d3      	b.n	80063fe <SDMMC_GetCmdResp1+0xde>
    return SDMMC_ERROR_CARD_ECC_DISABLED;
 8006456:	f44f 1000 	mov.w	r0, #2097152	@ 0x200000
 800645a:	e7d0      	b.n	80063fe <SDMMC_GetCmdResp1+0xde>
    return SDMMC_ERROR_ERASE_RESET;
 800645c:	f44f 0080 	mov.w	r0, #4194304	@ 0x400000
 8006460:	e7cd      	b.n	80063fe <SDMMC_GetCmdResp1+0xde>
    return SDMMC_ERROR_GENERAL_UNKNOWN_ERR;
 8006462:	f44f 3080 	mov.w	r0, #65536	@ 0x10000
 8006466:	e7ca      	b.n	80063fe <SDMMC_GetCmdResp1+0xde>
 8006468:	2000000c 	.word	0x2000000c
 800646c:	10624dd3 	.word	0x10624dd3
 8006470:	fdffe008 	.word	0xfdffe008

08006474 <SDMMC_CmdBlockLength>:
{
 8006474:	b530      	push	{r4, r5, lr}
 8006476:	b087      	sub	sp, #28
 8006478:	4605      	mov	r5, r0
  sdmmc_cmdinit.Argument         = (uint32_t)BlockSize;
 800647a:	9101      	str	r1, [sp, #4]
  sdmmc_cmdinit.CmdIndex         = SDMMC_CMD_SET_BLOCKLEN;
 800647c:	2410      	movs	r4, #16
 800647e:	9402      	str	r4, [sp, #8]
  sdmmc_cmdinit.Response         = SDMMC_RESPONSE_SHORT;
 8006480:	2340      	movs	r3, #64	@ 0x40
 8006482:	9303      	str	r3, [sp, #12]
  sdmmc_cmdinit.WaitForInterrupt = SDMMC_WAIT_NO;
 8006484:	2300      	movs	r3, #0
 8006486:	9304      	str	r3, [sp, #16]
  sdmmc_cmdinit.CPSM             = SDMMC_CPSM_ENABLE;
 8006488:	f44f 6380 	mov.w	r3, #1024	@ 0x400
 800648c:	9305      	str	r3, [sp, #20]
  (void)SDMMC_SendCommand(SDMMCx, &sdmmc_cmdinit);
 800648e:	a901      	add	r1, sp, #4
 8006490:	f7ff ff0a 	bl	80062a8 <SDMMC_SendCommand>
  errorstate = SDMMC_GetCmdResp1(SDMMCx, SDMMC_CMD_SET_BLOCKLEN, SDMMC_CMDTIMEOUT);
 8006494:	f241 3288 	movw	r2, #5000	@ 0x1388
 8006498:	4621      	mov	r1, r4
 800649a:	4628      	mov	r0, r5
 800649c:	f7ff ff40 	bl	8006320 <SDMMC_GetCmdResp1>
}
 80064a0:	b007      	add	sp, #28
 80064a2:	bd30      	pop	{r4, r5, pc}

080064a4 <SDMMC_CmdReadSingleBlock>:
{
 80064a4:	b530      	push	{r4, r5, lr}
 80064a6:	b087      	sub	sp, #28
 80064a8:	4605      	mov	r5, r0
  sdmmc_cmdinit.Argument         = (uint32_t)ReadAdd;
 80064aa:	9101      	str	r1, [sp, #4]
  sdmmc_cmdinit.CmdIndex         = SDMMC_CMD_READ_SINGLE_BLOCK;
 80064ac:	2411      	movs	r4, #17
 80064ae:	9402      	str	r4, [sp, #8]
  sdmmc_cmdinit.Response         = SDMMC_RESPONSE_SHORT;
 80064b0:	2340      	movs	r3, #64	@ 0x40
 80064b2:	9303      	str	r3, [sp, #12]
  sdmmc_cmdinit.WaitForInterrupt = SDMMC_WAIT_NO;
 80064b4:	2300      	movs	r3, #0
 80064b6:	9304      	str	r3, [sp, #16]
  sdmmc_cmdinit.CPSM             = SDMMC_CPSM_ENABLE;
 80064b8:	f44f 6380 	mov.w	r3, #1024	@ 0x400
 80064bc:	9305      	str	r3, [sp, #20]
  (void)SDMMC_SendCommand(SDMMCx, &sdmmc_cmdinit);
 80064be:	a901      	add	r1, sp, #4
 80064c0:	f7ff fef2 	bl	80062a8 <SDMMC_SendCommand>
  errorstate = SDMMC_GetCmdResp1(SDMMCx, SDMMC_CMD_READ_SINGLE_BLOCK, SDMMC_CMDTIMEOUT);
 80064c4:	f241 3288 	movw	r2, #5000	@ 0x1388
 80064c8:	4621      	mov	r1, r4
 80064ca:	4628      	mov	r0, r5
 80064cc:	f7ff ff28 	bl	8006320 <SDMMC_GetCmdResp1>
}
 80064d0:	b007      	add	sp, #28
 80064d2:	bd30      	pop	{r4, r5, pc}

080064d4 <SDMMC_CmdReadMultiBlock>:
{
 80064d4:	b530      	push	{r4, r5, lr}
 80064d6:	b087      	sub	sp, #28
 80064d8:	4605      	mov	r5, r0
  sdmmc_cmdinit.Argument         = (uint32_t)ReadAdd;
 80064da:	9101      	str	r1, [sp, #4]
  sdmmc_cmdinit.CmdIndex         = SDMMC_CMD_READ_MULT_BLOCK;
 80064dc:	2412      	movs	r4, #18
 80064de:	9402      	str	r4, [sp, #8]
  sdmmc_cmdinit.Response         = SDMMC_RESPONSE_SHORT;
 80064e0:	2340      	movs	r3, #64	@ 0x40
 80064e2:	9303      	str	r3, [sp, #12]
  sdmmc_cmdinit.WaitForInterrupt = SDMMC_WAIT_NO;
 80064e4:	2300      	movs	r3, #0
 80064e6:	9304      	str	r3, [sp, #16]
  sdmmc_cmdinit.CPSM             = SDMMC_CPSM_ENABLE;
 80064e8:	f44f 6380 	mov.w	r3, #1024	@ 0x400
 80064ec:	9305      	str	r3, [sp, #20]
  (void)SDMMC_SendCommand(SDMMCx, &sdmmc_cmdinit);
 80064ee:	a901      	add	r1, sp, #4
 80064f0:	f7ff feda 	bl	80062a8 <SDMMC_SendCommand>
  errorstate = SDMMC_GetCmdResp1(SDMMCx, SDMMC_CMD_READ_MULT_BLOCK, SDMMC_CMDTIMEOUT);
 80064f4:	f241 3288 	movw	r2, #5000	@ 0x1388
 80064f8:	4621      	mov	r1, r4
 80064fa:	4628      	mov	r0, r5
 80064fc:	f7ff ff10 	bl	8006320 <SDMMC_GetCmdResp1>
}
 8006500:	b007      	add	sp, #28
 8006502:	bd30      	pop	{r4, r5, pc}

08006504 <SDMMC_CmdWriteSingleBlock>:
{
 8006504:	b530      	push	{r4, r5, lr}
 8006506:	b087      	sub	sp, #28
 8006508:	4605      	mov	r5, r0
  sdmmc_cmdinit.Argument         = (uint32_t)WriteAdd;
 800650a:	9101      	str	r1, [sp, #4]
  sdmmc_cmdinit.CmdIndex         = SDMMC_CMD_WRITE_SINGLE_BLOCK;
 800650c:	2418      	movs	r4, #24
 800650e:	9402      	str	r4, [sp, #8]
  sdmmc_cmdinit.Response         = SDMMC_RESPONSE_SHORT;
 8006510:	2340      	movs	r3, #64	@ 0x40
 8006512:	9303      	str	r3, [sp, #12]
  sdmmc_cmdinit.WaitForInterrupt = SDMMC_WAIT_NO;
 8006514:	2300      	movs	r3, #0
 8006516:	9304      	str	r3, [sp, #16]
  sdmmc_cmdinit.CPSM             = SDMMC_CPSM_ENABLE;
 8006518:	f44f 6380 	mov.w	r3, #1024	@ 0x400
 800651c:	9305      	str	r3, [sp, #20]
  (void)SDMMC_SendCommand(SDMMCx, &sdmmc_cmdinit);
 800651e:	a901      	add	r1, sp, #4
 8006520:	f7ff fec2 	bl	80062a8 <SDMMC_SendCommand>
  errorstate = SDMMC_GetCmdResp1(SDMMCx, SDMMC_CMD_WRITE_SINGLE_BLOCK, SDMMC_CMDTIMEOUT);
 8006524:	f241 3288 	movw	r2, #5000	@ 0x1388
 8006528:	4621      	mov	r1, r4
 800652a:	4628      	mov	r0, r5
 800652c:	f7ff fef8 	bl	8006320 <SDMMC_GetCmdResp1>
}
 8006530:	b007      	add	sp, #28
 8006532:	bd30      	pop	{r4, r5, pc}

08006534 <SDMMC_CmdWriteMultiBlock>:
{
 8006534:	b530      	push	{r4, r5, lr}
 8006536:	b087      	sub	sp, #28
 8006538:	4605      	mov	r5, r0
  sdmmc_cmdinit.Argument         = (uint32_t)WriteAdd;
 800653a:	9101      	str	r1, [sp, #4]
  sdmmc_cmdinit.CmdIndex         = SDMMC_CMD_WRITE_MULT_BLOCK;
 800653c:	2419      	movs	r4, #25
 800653e:	9402      	str	r4, [sp, #8]
  sdmmc_cmdinit.Response         = SDMMC_RESPONSE_SHORT;
 8006540:	2340      	movs	r3, #64	@ 0x40
 8006542:	9303      	str	r3, [sp, #12]
  sdmmc_cmdinit.WaitForInterrupt = SDMMC_WAIT_NO;
 8006544:	2300      	movs	r3, #0
 8006546:	9304      	str	r3, [sp, #16]
  sdmmc_cmdinit.CPSM             = SDMMC_CPSM_ENABLE;
 8006548:	f44f 6380 	mov.w	r3, #1024	@ 0x400
 800654c:	9305      	str	r3, [sp, #20]
  (void)SDMMC_SendCommand(SDMMCx, &sdmmc_cmdinit);
 800654e:	a901      	add	r1, sp, #4
 8006550:	f7ff feaa 	bl	80062a8 <SDMMC_SendCommand>
  errorstate = SDMMC_GetCmdResp1(SDMMCx, SDMMC_CMD_WRITE_MULT_BLOCK, SDMMC_CMDTIMEOUT);
 8006554:	f241 3288 	movw	r2, #5000	@ 0x1388
 8006558:	4621      	mov	r1, r4
 800655a:	4628      	mov	r0, r5
 800655c:	f7ff fee0 	bl	8006320 <SDMMC_GetCmdResp1>
}
 8006560:	b007      	add	sp, #28
 8006562:	bd30      	pop	{r4, r5, pc}

08006564 <SDMMC_CmdStopTransfer>:
{
 8006564:	b530      	push	{r4, r5, lr}
 8006566:	b087      	sub	sp, #28
 8006568:	4605      	mov	r5, r0
  sdmmc_cmdinit.Argument         = 0U;
 800656a:	2300      	movs	r3, #0
 800656c:	9301      	str	r3, [sp, #4]
  sdmmc_cmdinit.CmdIndex         = SDMMC_CMD_STOP_TRANSMISSION;
 800656e:	240c      	movs	r4, #12
 8006570:	9402      	str	r4, [sp, #8]
  sdmmc_cmdinit.Response         = SDMMC_RESPONSE_SHORT;
 8006572:	2240      	movs	r2, #64	@ 0x40
 8006574:	9203      	str	r2, [sp, #12]
  sdmmc_cmdinit.WaitForInterrupt = SDMMC_WAIT_NO;
 8006576:	9304      	str	r3, [sp, #16]
  sdmmc_cmdinit.CPSM             = SDMMC_CPSM_ENABLE;
 8006578:	f44f 6380 	mov.w	r3, #1024	@ 0x400
 800657c:	9305      	str	r3, [sp, #20]
  (void)SDMMC_SendCommand(SDMMCx, &sdmmc_cmdinit);
 800657e:	a901      	add	r1, sp, #4
 8006580:	f7ff fe92 	bl	80062a8 <SDMMC_SendCommand>
  errorstate = SDMMC_GetCmdResp1(SDMMCx, SDMMC_CMD_STOP_TRANSMISSION, SDMMC_STOPTRANSFERTIMEOUT);
 8006584:	4a03      	ldr	r2, [pc, #12]	@ (8006594 <SDMMC_CmdStopTransfer+0x30>)
 8006586:	4621      	mov	r1, r4
 8006588:	4628      	mov	r0, r5
 800658a:	f7ff fec9 	bl	8006320 <SDMMC_GetCmdResp1>
}
 800658e:	b007      	add	sp, #28
 8006590:	bd30      	pop	{r4, r5, pc}
 8006592:	bf00      	nop
 8006594:	05f5e100 	.word	0x05f5e100

08006598 <SDMMC_CmdSelDesel>:
{
 8006598:	b530      	push	{r4, r5, lr}
 800659a:	b087      	sub	sp, #28
 800659c:	4605      	mov	r5, r0
  sdmmc_cmdinit.Argument         = (uint32_t)Addr;
 800659e:	9201      	str	r2, [sp, #4]
  sdmmc_cmdinit.CmdIndex         = SDMMC_CMD_SEL_DESEL_CARD;
 80065a0:	2407      	movs	r4, #7
 80065a2:	9402      	str	r4, [sp, #8]
  sdmmc_cmdinit.Response         = SDMMC_RESPONSE_SHORT;
 80065a4:	2340      	movs	r3, #64	@ 0x40
 80065a6:	9303      	str	r3, [sp, #12]
  sdmmc_cmdinit.WaitForInterrupt = SDMMC_WAIT_NO;
 80065a8:	2300      	movs	r3, #0
 80065aa:	9304      	str	r3, [sp, #16]
  sdmmc_cmdinit.CPSM             = SDMMC_CPSM_ENABLE;
 80065ac:	f44f 6380 	mov.w	r3, #1024	@ 0x400
 80065b0:	9305      	str	r3, [sp, #20]
  (void)SDMMC_SendCommand(SDMMCx, &sdmmc_cmdinit);
 80065b2:	a901      	add	r1, sp, #4
 80065b4:	f7ff fe78 	bl	80062a8 <SDMMC_SendCommand>
  errorstate = SDMMC_GetCmdResp1(SDMMCx, SDMMC_CMD_SEL_DESEL_CARD, SDMMC_CMDTIMEOUT);
 80065b8:	f241 3288 	movw	r2, #5000	@ 0x1388
 80065bc:	4621      	mov	r1, r4
 80065be:	4628      	mov	r0, r5
 80065c0:	f7ff feae 	bl	8006320 <SDMMC_GetCmdResp1>
}
 80065c4:	b007      	add	sp, #28
 80065c6:	bd30      	pop	{r4, r5, pc}

080065c8 <SDMMC_CmdAppCommand>:
{
 80065c8:	b530      	push	{r4, r5, lr}
 80065ca:	b087      	sub	sp, #28
 80065cc:	4605      	mov	r5, r0
  sdmmc_cmdinit.Argument         = (uint32_t)Argument;
 80065ce:	9101      	str	r1, [sp, #4]
  sdmmc_cmdinit.CmdIndex         = SDMMC_CMD_APP_CMD;
 80065d0:	2437      	movs	r4, #55	@ 0x37
 80065d2:	9402      	str	r4, [sp, #8]
  sdmmc_cmdinit.Response         = SDMMC_RESPONSE_SHORT;
 80065d4:	2340      	movs	r3, #64	@ 0x40
 80065d6:	9303      	str	r3, [sp, #12]
  sdmmc_cmdinit.WaitForInterrupt = SDMMC_WAIT_NO;
 80065d8:	2300      	movs	r3, #0
 80065da:	9304      	str	r3, [sp, #16]
  sdmmc_cmdinit.CPSM             = SDMMC_CPSM_ENABLE;
 80065dc:	f44f 6380 	mov.w	r3, #1024	@ 0x400
 80065e0:	9305      	str	r3, [sp, #20]
  (void)SDMMC_SendCommand(SDMMCx, &sdmmc_cmdinit);
 80065e2:	a901      	add	r1, sp, #4
 80065e4:	f7ff fe60 	bl	80062a8 <SDMMC_SendCommand>
  errorstate = SDMMC_GetCmdResp1(SDMMCx, SDMMC_CMD_APP_CMD, SDMMC_CMDTIMEOUT);
 80065e8:	f241 3288 	movw	r2, #5000	@ 0x1388
 80065ec:	4621      	mov	r1, r4
 80065ee:	4628      	mov	r0, r5
 80065f0:	f7ff fe96 	bl	8006320 <SDMMC_GetCmdResp1>
}
 80065f4:	b007      	add	sp, #28
 80065f6:	bd30      	pop	{r4, r5, pc}

080065f8 <SDMMC_CmdBusWidth>:
{
 80065f8:	b530      	push	{r4, r5, lr}
 80065fa:	b087      	sub	sp, #28
 80065fc:	4605      	mov	r5, r0
  sdmmc_cmdinit.Argument         = (uint32_t)BusWidth;
 80065fe:	9101      	str	r1, [sp, #4]
  sdmmc_cmdinit.CmdIndex         = SDMMC_CMD_APP_SD_SET_BUSWIDTH;
 8006600:	2406      	movs	r4, #6
 8006602:	9402      	str	r4, [sp, #8]
  sdmmc_cmdinit.Response         = SDMMC_RESPONSE_SHORT;
 8006604:	2340      	movs	r3, #64	@ 0x40
 8006606:	9303      	str	r3, [sp, #12]
  sdmmc_cmdinit.WaitForInterrupt = SDMMC_WAIT_NO;
 8006608:	2300      	movs	r3, #0
 800660a:	9304      	str	r3, [sp, #16]
  sdmmc_cmdinit.CPSM             = SDMMC_CPSM_ENABLE;
 800660c:	f44f 6380 	mov.w	r3, #1024	@ 0x400
 8006610:	9305      	str	r3, [sp, #20]
  (void)SDMMC_SendCommand(SDMMCx, &sdmmc_cmdinit);
 8006612:	a901      	add	r1, sp, #4
 8006614:	f7ff fe48 	bl	80062a8 <SDMMC_SendCommand>
  errorstate = SDMMC_GetCmdResp1(SDMMCx, SDMMC_CMD_APP_SD_SET_BUSWIDTH, SDMMC_CMDTIMEOUT);
 8006618:	f241 3288 	movw	r2, #5000	@ 0x1388
 800661c:	4621      	mov	r1, r4
 800661e:	4628      	mov	r0, r5
 8006620:	f7ff fe7e 	bl	8006320 <SDMMC_GetCmdResp1>
}
 8006624:	b007      	add	sp, #28
 8006626:	bd30      	pop	{r4, r5, pc}

08006628 <SDMMC_CmdSendSCR>:
{
 8006628:	b530      	push	{r4, r5, lr}
 800662a:	b087      	sub	sp, #28
 800662c:	4605      	mov	r5, r0
  sdmmc_cmdinit.Argument         = 0U;
 800662e:	2300      	movs	r3, #0
 8006630:	9301      	str	r3, [sp, #4]
  sdmmc_cmdinit.CmdIndex         = SDMMC_CMD_SD_APP_SEND_SCR;
 8006632:	2433      	movs	r4, #51	@ 0x33
 8006634:	9402      	str	r4, [sp, #8]
  sdmmc_cmdinit.Response         = SDMMC_RESPONSE_SHORT;
 8006636:	2240      	movs	r2, #64	@ 0x40
 8006638:	9203      	str	r2, [sp, #12]
  sdmmc_cmdinit.WaitForInterrupt = SDMMC_WAIT_NO;
 800663a:	9304      	str	r3, [sp, #16]
  sdmmc_cmdinit.CPSM             = SDMMC_CPSM_ENABLE;
 800663c:	f44f 6380 	mov.w	r3, #1024	@ 0x400
 8006640:	9305      	str	r3, [sp, #20]
  (void)SDMMC_SendCommand(SDMMCx, &sdmmc_cmdinit);
 8006642:	a901      	add	r1, sp, #4
 8006644:	f7ff fe30 	bl	80062a8 <SDMMC_SendCommand>
  errorstate = SDMMC_GetCmdResp1(SDMMCx, SDMMC_CMD_SD_APP_SEND_SCR, SDMMC_CMDTIMEOUT);
 8006648:	f241 3288 	movw	r2, #5000	@ 0x1388
 800664c:	4621      	mov	r1, r4
 800664e:	4628      	mov	r0, r5
 8006650:	f7ff fe66 	bl	8006320 <SDMMC_GetCmdResp1>
}
 8006654:	b007      	add	sp, #28
 8006656:	bd30      	pop	{r4, r5, pc}

08006658 <SDMMC_CmdSendStatus>:
{
 8006658:	b530      	push	{r4, r5, lr}
 800665a:	b087      	sub	sp, #28
 800665c:	4605      	mov	r5, r0
  sdmmc_cmdinit.Argument         = Argument;
 800665e:	9101      	str	r1, [sp, #4]
  sdmmc_cmdinit.CmdIndex         = SDMMC_CMD_SEND_STATUS;
 8006660:	240d      	movs	r4, #13
 8006662:	9402      	str	r4, [sp, #8]
  sdmmc_cmdinit.Response         = SDMMC_RESPONSE_SHORT;
 8006664:	2340      	movs	r3, #64	@ 0x40
 8006666:	9303      	str	r3, [sp, #12]
  sdmmc_cmdinit.WaitForInterrupt = SDMMC_WAIT_NO;
 8006668:	2300      	movs	r3, #0
 800666a:	9304      	str	r3, [sp, #16]
  sdmmc_cmdinit.CPSM             = SDMMC_CPSM_ENABLE;
 800666c:	f44f 6380 	mov.w	r3, #1024	@ 0x400
 8006670:	9305      	str	r3, [sp, #20]
  (void)SDMMC_SendCommand(SDMMCx, &sdmmc_cmdinit);
 8006672:	a901      	add	r1, sp, #4
 8006674:	f7ff fe18 	bl	80062a8 <SDMMC_SendCommand>
  errorstate = SDMMC_GetCmdResp1(SDMMCx, SDMMC_CMD_SEND_STATUS, SDMMC_CMDTIMEOUT);
 8006678:	f241 3288 	movw	r2, #5000	@ 0x1388
 800667c:	4621      	mov	r1, r4
 800667e:	4628      	mov	r0, r5
 8006680:	f7ff fe4e 	bl	8006320 <SDMMC_GetCmdResp1>
}
 8006684:	b007      	add	sp, #28
 8006686:	bd30      	pop	{r4, r5, pc}

08006688 <SDMMC_GetCmdResp2>:
{
 8006688:	4601      	mov	r1, r0
  uint32_t count = SDMMC_CMDTIMEOUT * (SystemCoreClock / 8U / 1000U);
 800668a:	4b14      	ldr	r3, [pc, #80]	@ (80066dc <SDMMC_GetCmdResp2+0x54>)
 800668c:	681b      	ldr	r3, [r3, #0]
 800668e:	4a14      	ldr	r2, [pc, #80]	@ (80066e0 <SDMMC_GetCmdResp2+0x58>)
 8006690:	fba2 2303 	umull	r2, r3, r2, r3
 8006694:	0a5b      	lsrs	r3, r3, #9
 8006696:	f241 3288 	movw	r2, #5000	@ 0x1388
 800669a:	fb02 f303 	mul.w	r3, r2, r3
    if (count-- == 0U)
 800669e:	3b01      	subs	r3, #1
 80066a0:	f1b3 3fff 	cmp.w	r3, #4294967295	@ 0xffffffff
 80066a4:	d017      	beq.n	80066d6 <SDMMC_GetCmdResp2+0x4e>
    sta_reg = SDMMCx->STA;
 80066a6:	6b4a      	ldr	r2, [r1, #52]	@ 0x34
  } while (((sta_reg & (SDMMC_FLAG_CCRCFAIL | SDMMC_FLAG_CMDREND | SDMMC_FLAG_CTIMEOUT)) == 0U) ||
 80066a8:	f012 0f45 	tst.w	r2, #69	@ 0x45
 80066ac:	d0f7      	beq.n	800669e <SDMMC_GetCmdResp2+0x16>
 80066ae:	f412 6f00 	tst.w	r2, #2048	@ 0x800
 80066b2:	d1f4      	bne.n	800669e <SDMMC_GetCmdResp2+0x16>
  if (__SDMMC_GET_FLAG(SDMMCx, SDMMC_FLAG_CTIMEOUT))
 80066b4:	6b4b      	ldr	r3, [r1, #52]	@ 0x34
 80066b6:	f013 0f04 	tst.w	r3, #4
 80066ba:	d106      	bne.n	80066ca <SDMMC_GetCmdResp2+0x42>
  else if (__SDMMC_GET_FLAG(SDMMCx, SDMMC_FLAG_CCRCFAIL))
 80066bc:	6b48      	ldr	r0, [r1, #52]	@ 0x34
 80066be:	f010 0001 	ands.w	r0, r0, #1
 80066c2:	d105      	bne.n	80066d0 <SDMMC_GetCmdResp2+0x48>
    __SDMMC_CLEAR_FLAG(SDMMCx, SDMMC_STATIC_CMD_FLAGS);
 80066c4:	23c5      	movs	r3, #197	@ 0xc5
 80066c6:	638b      	str	r3, [r1, #56]	@ 0x38
  return SDMMC_ERROR_NONE;
 80066c8:	4770      	bx	lr
    __SDMMC_CLEAR_FLAG(SDMMCx, SDMMC_FLAG_CTIMEOUT);
 80066ca:	2004      	movs	r0, #4
 80066cc:	6388      	str	r0, [r1, #56]	@ 0x38
    return SDMMC_ERROR_CMD_RSP_TIMEOUT;
 80066ce:	4770      	bx	lr
    __SDMMC_CLEAR_FLAG(SDMMCx, SDMMC_FLAG_CCRCFAIL);
 80066d0:	2301      	movs	r3, #1
 80066d2:	638b      	str	r3, [r1, #56]	@ 0x38
    return SDMMC_ERROR_CMD_CRC_FAIL;
 80066d4:	4770      	bx	lr
      return SDMMC_ERROR_TIMEOUT;
 80066d6:	f04f 4000 	mov.w	r0, #2147483648	@ 0x80000000
}
 80066da:	4770      	bx	lr
 80066dc:	2000000c 	.word	0x2000000c
 80066e0:	10624dd3 	.word	0x10624dd3

080066e4 <SDMMC_CmdSendCID>:
{
 80066e4:	b510      	push	{r4, lr}
 80066e6:	b086      	sub	sp, #24
 80066e8:	4604      	mov	r4, r0
  sdmmc_cmdinit.Argument         = 0U;
 80066ea:	2300      	movs	r3, #0
 80066ec:	9301      	str	r3, [sp, #4]
  sdmmc_cmdinit.CmdIndex         = SDMMC_CMD_ALL_SEND_CID;
 80066ee:	2202      	movs	r2, #2
 80066f0:	9202      	str	r2, [sp, #8]
  sdmmc_cmdinit.Response         = SDMMC_RESPONSE_LONG;
 80066f2:	22c0      	movs	r2, #192	@ 0xc0
 80066f4:	9203      	str	r2, [sp, #12]
  sdmmc_cmdinit.WaitForInterrupt = SDMMC_WAIT_NO;
 80066f6:	9304      	str	r3, [sp, #16]
  sdmmc_cmdinit.CPSM             = SDMMC_CPSM_ENABLE;
 80066f8:	f44f 6380 	mov.w	r3, #1024	@ 0x400
 80066fc:	9305      	str	r3, [sp, #20]
  (void)SDMMC_SendCommand(SDMMCx, &sdmmc_cmdinit);
 80066fe:	a901      	add	r1, sp, #4
 8006700:	f7ff fdd2 	bl	80062a8 <SDMMC_SendCommand>
  errorstate = SDMMC_GetCmdResp2(SDMMCx);
 8006704:	4620      	mov	r0, r4
 8006706:	f7ff ffbf 	bl	8006688 <SDMMC_GetCmdResp2>
}
 800670a:	b006      	add	sp, #24
 800670c:	bd10      	pop	{r4, pc}

0800670e <SDMMC_CmdSendCSD>:
{
 800670e:	b510      	push	{r4, lr}
 8006710:	b086      	sub	sp, #24
 8006712:	4604      	mov	r4, r0
  sdmmc_cmdinit.Argument         = Argument;
 8006714:	9101      	str	r1, [sp, #4]
  sdmmc_cmdinit.CmdIndex         = SDMMC_CMD_SEND_CSD;
 8006716:	2309      	movs	r3, #9
 8006718:	9302      	str	r3, [sp, #8]
  sdmmc_cmdinit.Response         = SDMMC_RESPONSE_LONG;
 800671a:	23c0      	movs	r3, #192	@ 0xc0
 800671c:	9303      	str	r3, [sp, #12]
  sdmmc_cmdinit.WaitForInterrupt = SDMMC_WAIT_NO;
 800671e:	2300      	movs	r3, #0
 8006720:	9304      	str	r3, [sp, #16]
  sdmmc_cmdinit.CPSM             = SDMMC_CPSM_ENABLE;
 8006722:	f44f 6380 	mov.w	r3, #1024	@ 0x400
 8006726:	9305      	str	r3, [sp, #20]
  (void)SDMMC_SendCommand(SDMMCx, &sdmmc_cmdinit);
 8006728:	a901      	add	r1, sp, #4
 800672a:	f7ff fdbd 	bl	80062a8 <SDMMC_SendCommand>
  errorstate = SDMMC_GetCmdResp2(SDMMCx);
 800672e:	4620      	mov	r0, r4
 8006730:	f7ff ffaa 	bl	8006688 <SDMMC_GetCmdResp2>
}
 8006734:	b006      	add	sp, #24
 8006736:	bd10      	pop	{r4, pc}

08006738 <SDMMC_GetCmdResp3>:
{
 8006738:	4601      	mov	r1, r0
  uint32_t count = SDMMC_CMDTIMEOUT * (SystemCoreClock / 8U / 1000U);
 800673a:	4b11      	ldr	r3, [pc, #68]	@ (8006780 <SDMMC_GetCmdResp3+0x48>)
 800673c:	681b      	ldr	r3, [r3, #0]
 800673e:	4a11      	ldr	r2, [pc, #68]	@ (8006784 <SDMMC_GetCmdResp3+0x4c>)
 8006740:	fba2 2303 	umull	r2, r3, r2, r3
 8006744:	0a5b      	lsrs	r3, r3, #9
 8006746:	f241 3288 	movw	r2, #5000	@ 0x1388
 800674a:	fb02 f303 	mul.w	r3, r2, r3
    if (count-- == 0U)
 800674e:	3b01      	subs	r3, #1
 8006750:	f1b3 3fff 	cmp.w	r3, #4294967295	@ 0xffffffff
 8006754:	d010      	beq.n	8006778 <SDMMC_GetCmdResp3+0x40>
    sta_reg = SDMMCx->STA;
 8006756:	6b4a      	ldr	r2, [r1, #52]	@ 0x34
  } while (((sta_reg & (SDMMC_FLAG_CCRCFAIL | SDMMC_FLAG_CMDREND | SDMMC_FLAG_CTIMEOUT)) == 0U) ||
 8006758:	f012 0f45 	tst.w	r2, #69	@ 0x45
 800675c:	d0f7      	beq.n	800674e <SDMMC_GetCmdResp3+0x16>
 800675e:	f412 6f00 	tst.w	r2, #2048	@ 0x800
 8006762:	d1f4      	bne.n	800674e <SDMMC_GetCmdResp3+0x16>
  if (__SDMMC_GET_FLAG(SDMMCx, SDMMC_FLAG_CTIMEOUT))
 8006764:	6b48      	ldr	r0, [r1, #52]	@ 0x34
 8006766:	f010 0004 	ands.w	r0, r0, #4
 800676a:	d102      	bne.n	8006772 <SDMMC_GetCmdResp3+0x3a>
    __SDMMC_CLEAR_FLAG(SDMMCx, SDMMC_STATIC_CMD_FLAGS);
 800676c:	23c5      	movs	r3, #197	@ 0xc5
 800676e:	638b      	str	r3, [r1, #56]	@ 0x38
  return SDMMC_ERROR_NONE;
 8006770:	4770      	bx	lr
    __SDMMC_CLEAR_FLAG(SDMMCx, SDMMC_FLAG_CTIMEOUT);
 8006772:	2004      	movs	r0, #4
 8006774:	6388      	str	r0, [r1, #56]	@ 0x38
    return SDMMC_ERROR_CMD_RSP_TIMEOUT;
 8006776:	4770      	bx	lr
      return SDMMC_ERROR_TIMEOUT;
 8006778:	f04f 4000 	mov.w	r0, #2147483648	@ 0x80000000
}
 800677c:	4770      	bx	lr
 800677e:	bf00      	nop
 8006780:	2000000c 	.word	0x2000000c
 8006784:	10624dd3 	.word	0x10624dd3

08006788 <SDMMC_CmdAppOperCommand>:
{
 8006788:	b510      	push	{r4, lr}
 800678a:	b086      	sub	sp, #24
 800678c:	4604      	mov	r4, r0
  sdmmc_cmdinit.Argument         = SDMMC_VOLTAGE_WINDOW_SD | Argument;
 800678e:	f041 4100 	orr.w	r1, r1, #2147483648	@ 0x80000000
 8006792:	f441 1180 	orr.w	r1, r1, #1048576	@ 0x100000
 8006796:	9101      	str	r1, [sp, #4]
  sdmmc_cmdinit.CmdIndex         = SDMMC_CMD_SD_APP_OP_COND;
 8006798:	2329      	movs	r3, #41	@ 0x29
 800679a:	9302      	str	r3, [sp, #8]
  sdmmc_cmdinit.Response         = SDMMC_RESPONSE_SHORT;
 800679c:	2340      	movs	r3, #64	@ 0x40
 800679e:	9303      	str	r3, [sp, #12]
  sdmmc_cmdinit.WaitForInterrupt = SDMMC_WAIT_NO;
 80067a0:	2300      	movs	r3, #0
 80067a2:	9304      	str	r3, [sp, #16]
  sdmmc_cmdinit.CPSM             = SDMMC_CPSM_ENABLE;
 80067a4:	f44f 6380 	mov.w	r3, #1024	@ 0x400
 80067a8:	9305      	str	r3, [sp, #20]
  (void)SDMMC_SendCommand(SDMMCx, &sdmmc_cmdinit);
 80067aa:	a901      	add	r1, sp, #4
 80067ac:	f7ff fd7c 	bl	80062a8 <SDMMC_SendCommand>
  errorstate = SDMMC_GetCmdResp3(SDMMCx);
 80067b0:	4620      	mov	r0, r4
 80067b2:	f7ff ffc1 	bl	8006738 <SDMMC_GetCmdResp3>
}
 80067b6:	b006      	add	sp, #24
 80067b8:	bd10      	pop	{r4, pc}
	...

080067bc <SDMMC_GetCmdResp6>:
{
 80067bc:	b570      	push	{r4, r5, r6, lr}
 80067be:	4604      	mov	r4, r0
 80067c0:	460d      	mov	r5, r1
 80067c2:	4616      	mov	r6, r2
  uint32_t count = SDMMC_CMDTIMEOUT * (SystemCoreClock / 8U / 1000U);
 80067c4:	4b24      	ldr	r3, [pc, #144]	@ (8006858 <SDMMC_GetCmdResp6+0x9c>)
 80067c6:	681b      	ldr	r3, [r3, #0]
 80067c8:	4a24      	ldr	r2, [pc, #144]	@ (800685c <SDMMC_GetCmdResp6+0xa0>)
 80067ca:	fba2 2303 	umull	r2, r3, r2, r3
 80067ce:	0a5b      	lsrs	r3, r3, #9
 80067d0:	f241 3288 	movw	r2, #5000	@ 0x1388
 80067d4:	fb02 f303 	mul.w	r3, r2, r3
    if (count-- == 0U)
 80067d8:	3b01      	subs	r3, #1
 80067da:	f1b3 3fff 	cmp.w	r3, #4294967295	@ 0xffffffff
 80067de:	d031      	beq.n	8006844 <SDMMC_GetCmdResp6+0x88>
    sta_reg = SDMMCx->STA;
 80067e0:	6b62      	ldr	r2, [r4, #52]	@ 0x34
  } while (((sta_reg & (SDMMC_FLAG_CCRCFAIL | SDMMC_FLAG_CMDREND | SDMMC_FLAG_CTIMEOUT)) == 0U) ||
 80067e2:	f012 0f45 	tst.w	r2, #69	@ 0x45
 80067e6:	d0f7      	beq.n	80067d8 <SDMMC_GetCmdResp6+0x1c>
 80067e8:	f412 6f00 	tst.w	r2, #2048	@ 0x800
 80067ec:	d1f4      	bne.n	80067d8 <SDMMC_GetCmdResp6+0x1c>
  if (__SDMMC_GET_FLAG(SDMMCx, SDMMC_FLAG_CTIMEOUT))
 80067ee:	6b63      	ldr	r3, [r4, #52]	@ 0x34
 80067f0:	f013 0f04 	tst.w	r3, #4
 80067f4:	d106      	bne.n	8006804 <SDMMC_GetCmdResp6+0x48>
  else if (__SDMMC_GET_FLAG(SDMMCx, SDMMC_FLAG_CCRCFAIL))
 80067f6:	6b60      	ldr	r0, [r4, #52]	@ 0x34
 80067f8:	f010 0001 	ands.w	r0, r0, #1
 80067fc:	d005      	beq.n	800680a <SDMMC_GetCmdResp6+0x4e>
    __SDMMC_CLEAR_FLAG(SDMMCx, SDMMC_FLAG_CCRCFAIL);
 80067fe:	2301      	movs	r3, #1
 8006800:	63a3      	str	r3, [r4, #56]	@ 0x38
    return SDMMC_ERROR_CMD_CRC_FAIL;
 8006802:	e021      	b.n	8006848 <SDMMC_GetCmdResp6+0x8c>
    __SDMMC_CLEAR_FLAG(SDMMCx, SDMMC_FLAG_CTIMEOUT);
 8006804:	2004      	movs	r0, #4
 8006806:	63a0      	str	r0, [r4, #56]	@ 0x38
    return SDMMC_ERROR_CMD_RSP_TIMEOUT;
 8006808:	e01e      	b.n	8006848 <SDMMC_GetCmdResp6+0x8c>
  if (SDMMC_GetCommandResponse(SDMMCx) != SD_CMD)
 800680a:	4620      	mov	r0, r4
 800680c:	f7ff fd5c 	bl	80062c8 <SDMMC_GetCommandResponse>
 8006810:	42a8      	cmp	r0, r5
 8006812:	d001      	beq.n	8006818 <SDMMC_GetCmdResp6+0x5c>
    return SDMMC_ERROR_CMD_CRC_FAIL;
 8006814:	2001      	movs	r0, #1
 8006816:	e017      	b.n	8006848 <SDMMC_GetCmdResp6+0x8c>
  __SDMMC_CLEAR_FLAG(SDMMCx, SDMMC_STATIC_CMD_FLAGS);
 8006818:	23c5      	movs	r3, #197	@ 0xc5
 800681a:	63a3      	str	r3, [r4, #56]	@ 0x38
  response_r1 = SDMMC_GetResponse(SDMMCx, SDMMC_RESP1);
 800681c:	2100      	movs	r1, #0
 800681e:	4620      	mov	r0, r4
 8006820:	f7ff fd55 	bl	80062ce <SDMMC_GetResponse>
 8006824:	4603      	mov	r3, r0
  if ((response_r1 & (SDMMC_R6_GENERAL_UNKNOWN_ERROR | SDMMC_R6_ILLEGAL_CMD | SDMMC_R6_COM_CRC_FAILED)) == SDMMC_ALLZERO)
 8006826:	f410 4060 	ands.w	r0, r0, #57344	@ 0xe000
 800682a:	d008      	beq.n	800683e <SDMMC_GetCmdResp6+0x82>
  else if ((response_r1 & SDMMC_R6_ILLEGAL_CMD) == SDMMC_R6_ILLEGAL_CMD)
 800682c:	f413 4f80 	tst.w	r3, #16384	@ 0x4000
 8006830:	d10b      	bne.n	800684a <SDMMC_GetCmdResp6+0x8e>
  else if ((response_r1 & SDMMC_R6_COM_CRC_FAILED) == SDMMC_R6_COM_CRC_FAILED)
 8006832:	f413 4f00 	tst.w	r3, #32768	@ 0x8000
 8006836:	d00b      	beq.n	8006850 <SDMMC_GetCmdResp6+0x94>
    return SDMMC_ERROR_COM_CRC_FAILED;
 8006838:	f44f 5080 	mov.w	r0, #4096	@ 0x1000
 800683c:	e004      	b.n	8006848 <SDMMC_GetCmdResp6+0x8c>
    *pRCA = (uint16_t)(response_r1 >> 16);
 800683e:	0c1b      	lsrs	r3, r3, #16
 8006840:	8033      	strh	r3, [r6, #0]
    return SDMMC_ERROR_NONE;
 8006842:	e001      	b.n	8006848 <SDMMC_GetCmdResp6+0x8c>
      return SDMMC_ERROR_TIMEOUT;
 8006844:	f04f 4000 	mov.w	r0, #2147483648	@ 0x80000000
}
 8006848:	bd70      	pop	{r4, r5, r6, pc}
    return SDMMC_ERROR_ILLEGAL_CMD;
 800684a:	f44f 5000 	mov.w	r0, #8192	@ 0x2000
 800684e:	e7fb      	b.n	8006848 <SDMMC_GetCmdResp6+0x8c>
    return SDMMC_ERROR_GENERAL_UNKNOWN_ERR;
 8006850:	f44f 3080 	mov.w	r0, #65536	@ 0x10000
 8006854:	e7f8      	b.n	8006848 <SDMMC_GetCmdResp6+0x8c>
 8006856:	bf00      	nop
 8006858:	2000000c 	.word	0x2000000c
 800685c:	10624dd3 	.word	0x10624dd3

08006860 <SDMMC_CmdSetRelAdd>:
{
 8006860:	b570      	push	{r4, r5, r6, lr}
 8006862:	b086      	sub	sp, #24
 8006864:	4606      	mov	r6, r0
 8006866:	460d      	mov	r5, r1
  sdmmc_cmdinit.Argument         = 0U;
 8006868:	2300      	movs	r3, #0
 800686a:	9301      	str	r3, [sp, #4]
  sdmmc_cmdinit.CmdIndex         = SDMMC_CMD_SET_REL_ADDR;
 800686c:	2403      	movs	r4, #3
 800686e:	9402      	str	r4, [sp, #8]
  sdmmc_cmdinit.Response         = SDMMC_RESPONSE_SHORT;
 8006870:	2240      	movs	r2, #64	@ 0x40
 8006872:	9203      	str	r2, [sp, #12]
  sdmmc_cmdinit.WaitForInterrupt = SDMMC_WAIT_NO;
 8006874:	9304      	str	r3, [sp, #16]
  sdmmc_cmdinit.CPSM             = SDMMC_CPSM_ENABLE;
 8006876:	f44f 6380 	mov.w	r3, #1024	@ 0x400
 800687a:	9305      	str	r3, [sp, #20]
  (void)SDMMC_SendCommand(SDMMCx, &sdmmc_cmdinit);
 800687c:	a901      	add	r1, sp, #4
 800687e:	f7ff fd13 	bl	80062a8 <SDMMC_SendCommand>
  errorstate = SDMMC_GetCmdResp6(SDMMCx, SDMMC_CMD_SET_REL_ADDR, pRCA);
 8006882:	462a      	mov	r2, r5
 8006884:	4621      	mov	r1, r4
 8006886:	4630      	mov	r0, r6
 8006888:	f7ff ff98 	bl	80067bc <SDMMC_GetCmdResp6>
}
 800688c:	b006      	add	sp, #24
 800688e:	bd70      	pop	{r4, r5, r6, pc}

08006890 <SDMMC_GetCmdResp7>:
{
 8006890:	4601      	mov	r1, r0
  uint32_t count = SDMMC_CMDTIMEOUT * (SystemCoreClock / 8U / 1000U);
 8006892:	4b17      	ldr	r3, [pc, #92]	@ (80068f0 <SDMMC_GetCmdResp7+0x60>)
 8006894:	681b      	ldr	r3, [r3, #0]
 8006896:	4a17      	ldr	r2, [pc, #92]	@ (80068f4 <SDMMC_GetCmdResp7+0x64>)
 8006898:	fba2 2303 	umull	r2, r3, r2, r3
 800689c:	0a5b      	lsrs	r3, r3, #9
 800689e:	f241 3288 	movw	r2, #5000	@ 0x1388
 80068a2:	fb02 f303 	mul.w	r3, r2, r3
    if (count-- == 0U)
 80068a6:	3b01      	subs	r3, #1
 80068a8:	f1b3 3fff 	cmp.w	r3, #4294967295	@ 0xffffffff
 80068ac:	d01b      	beq.n	80068e6 <SDMMC_GetCmdResp7+0x56>
    sta_reg = SDMMCx->STA;
 80068ae:	6b4a      	ldr	r2, [r1, #52]	@ 0x34
  } while (((sta_reg & (SDMMC_FLAG_CCRCFAIL | SDMMC_FLAG_CMDREND | SDMMC_FLAG_CTIMEOUT)) == 0U) ||
 80068b0:	f012 0f45 	tst.w	r2, #69	@ 0x45
 80068b4:	d0f7      	beq.n	80068a6 <SDMMC_GetCmdResp7+0x16>
 80068b6:	f412 6f00 	tst.w	r2, #2048	@ 0x800
 80068ba:	d1f4      	bne.n	80068a6 <SDMMC_GetCmdResp7+0x16>
  if (__SDMMC_GET_FLAG(SDMMCx, SDMMC_FLAG_CTIMEOUT))
 80068bc:	6b4b      	ldr	r3, [r1, #52]	@ 0x34
 80068be:	f013 0f04 	tst.w	r3, #4
 80068c2:	d10a      	bne.n	80068da <SDMMC_GetCmdResp7+0x4a>
  else if (__SDMMC_GET_FLAG(SDMMCx, SDMMC_FLAG_CCRCFAIL))
 80068c4:	6b48      	ldr	r0, [r1, #52]	@ 0x34
 80068c6:	f010 0001 	ands.w	r0, r0, #1
 80068ca:	d109      	bne.n	80068e0 <SDMMC_GetCmdResp7+0x50>
  if (__SDMMC_GET_FLAG(SDMMCx, SDMMC_FLAG_CMDREND))
 80068cc:	6b4b      	ldr	r3, [r1, #52]	@ 0x34
 80068ce:	f013 0340 	ands.w	r3, r3, #64	@ 0x40
 80068d2:	d00b      	beq.n	80068ec <SDMMC_GetCmdResp7+0x5c>
    __SDMMC_CLEAR_FLAG(SDMMCx, SDMMC_FLAG_CMDREND);
 80068d4:	2340      	movs	r3, #64	@ 0x40
 80068d6:	638b      	str	r3, [r1, #56]	@ 0x38
 80068d8:	4770      	bx	lr
    __SDMMC_CLEAR_FLAG(SDMMCx, SDMMC_FLAG_CTIMEOUT);
 80068da:	2004      	movs	r0, #4
 80068dc:	6388      	str	r0, [r1, #56]	@ 0x38
    return SDMMC_ERROR_CMD_RSP_TIMEOUT;
 80068de:	4770      	bx	lr
    __SDMMC_CLEAR_FLAG(SDMMCx, SDMMC_FLAG_CCRCFAIL);
 80068e0:	2301      	movs	r3, #1
 80068e2:	638b      	str	r3, [r1, #56]	@ 0x38
    return SDMMC_ERROR_CMD_CRC_FAIL;
 80068e4:	4770      	bx	lr
      return SDMMC_ERROR_TIMEOUT;
 80068e6:	f04f 4000 	mov.w	r0, #2147483648	@ 0x80000000
 80068ea:	4770      	bx	lr
  return SDMMC_ERROR_NONE;
 80068ec:	4618      	mov	r0, r3
}
 80068ee:	4770      	bx	lr
 80068f0:	2000000c 	.word	0x2000000c
 80068f4:	10624dd3 	.word	0x10624dd3

080068f8 <SDMMC_CmdOperCond>:
{
 80068f8:	b510      	push	{r4, lr}
 80068fa:	b086      	sub	sp, #24
 80068fc:	4604      	mov	r4, r0
  sdmmc_cmdinit.Argument         = SDMMC_CHECK_PATTERN;
 80068fe:	f44f 73d5 	mov.w	r3, #426	@ 0x1aa
 8006902:	9301      	str	r3, [sp, #4]
  sdmmc_cmdinit.CmdIndex         = SDMMC_CMD_HS_SEND_EXT_CSD;
 8006904:	2308      	movs	r3, #8
 8006906:	9302      	str	r3, [sp, #8]
  sdmmc_cmdinit.Response         = SDMMC_RESPONSE_SHORT;
 8006908:	2340      	movs	r3, #64	@ 0x40
 800690a:	9303      	str	r3, [sp, #12]
  sdmmc_cmdinit.WaitForInterrupt = SDMMC_WAIT_NO;
 800690c:	2300      	movs	r3, #0
 800690e:	9304      	str	r3, [sp, #16]
  sdmmc_cmdinit.CPSM             = SDMMC_CPSM_ENABLE;
 8006910:	f44f 6380 	mov.w	r3, #1024	@ 0x400
 8006914:	9305      	str	r3, [sp, #20]
  (void)SDMMC_SendCommand(SDMMCx, &sdmmc_cmdinit);
 8006916:	a901      	add	r1, sp, #4
 8006918:	f7ff fcc6 	bl	80062a8 <SDMMC_SendCommand>
  errorstate = SDMMC_GetCmdResp7(SDMMCx);
 800691c:	4620      	mov	r0, r4
 800691e:	f7ff ffb7 	bl	8006890 <SDMMC_GetCmdResp7>
}
 8006922:	b006      	add	sp, #24
 8006924:	bd10      	pop	{r4, pc}
	...

08006928 <_sbrk>:
 *
 * @param incr Memory size
 * @return Pointer to allocated memory
 */
void *_sbrk(ptrdiff_t incr)
{
 8006928:	b508      	push	{r3, lr}
 800692a:	4603      	mov	r3, r0
  extern uint8_t _end; /* Symbol defined in the linker script */
  extern uint8_t _estack; /* Symbol defined in the linker script */
  extern uint32_t _Min_Stack_Size; /* Symbol defined in the linker script */
  const uint32_t stack_limit = (uint32_t)&_estack - (uint32_t)&_Min_Stack_Size;
 800692c:	4a0d      	ldr	r2, [pc, #52]	@ (8006964 <_sbrk+0x3c>)
 800692e:	490e      	ldr	r1, [pc, #56]	@ (8006968 <_sbrk+0x40>)
  const uint8_t *max_heap = (uint8_t *)stack_limit;
  uint8_t *prev_heap_end;

  /* Initialize heap end at first call */
  if (NULL == __sbrk_heap_end)
 8006930:	480e      	ldr	r0, [pc, #56]	@ (800696c <_sbrk+0x44>)
 8006932:	6800      	ldr	r0, [r0, #0]
 8006934:	b140      	cbz	r0, 8006948 <_sbrk+0x20>
  {
    __sbrk_heap_end = &_end;
  }

  /* Protect heap from growing into the reserved MSP stack */
  if (__sbrk_heap_end + incr > max_heap)
 8006936:	480d      	ldr	r0, [pc, #52]	@ (800696c <_sbrk+0x44>)
 8006938:	6800      	ldr	r0, [r0, #0]
 800693a:	4403      	add	r3, r0
 800693c:	1a52      	subs	r2, r2, r1
 800693e:	4293      	cmp	r3, r2
 8006940:	d808      	bhi.n	8006954 <_sbrk+0x2c>
    errno = ENOMEM;
    return (void *)-1;
  }

  prev_heap_end = __sbrk_heap_end;
  __sbrk_heap_end += incr;
 8006942:	4a0a      	ldr	r2, [pc, #40]	@ (800696c <_sbrk+0x44>)
 8006944:	6013      	str	r3, [r2, #0]

  return (void *)prev_heap_end;
}
 8006946:	bd08      	pop	{r3, pc}
    __sbrk_heap_end = &_end;
 8006948:	4808      	ldr	r0, [pc, #32]	@ (800696c <_sbrk+0x44>)
 800694a:	f8df c024 	ldr.w	ip, [pc, #36]	@ 8006970 <_sbrk+0x48>
 800694e:	f8c0 c000 	str.w	ip, [r0]
 8006952:	e7f0      	b.n	8006936 <_sbrk+0xe>
    errno = ENOMEM;
 8006954:	f000 f92c 	bl	8006bb0 <__errno>
 8006958:	230c      	movs	r3, #12
 800695a:	6003      	str	r3, [r0, #0]
    return (void *)-1;
 800695c:	f04f 30ff 	mov.w	r0, #4294967295	@ 0xffffffff
 8006960:	e7f1      	b.n	8006946 <_sbrk+0x1e>
 8006962:	bf00      	nop
 8006964:	20018000 	.word	0x20018000
 8006968:	00000400 	.word	0x00000400
 800696c:	20012e7c 	.word	0x20012e7c
 8006970:	20012fc8 	.word	0x20012fc8

08006974 <SystemInit>:
  SCB->VTOR = VECT_TAB_BASE_ADDRESS | VECT_TAB_OFFSET;
#endif

  /* FPU settings ------------------------------------------------------------*/
#if (__FPU_PRESENT == 1) && (__FPU_USED == 1)
  SCB->CPACR |= ((3UL << 20U)|(3UL << 22U));  /* set CP10 and CP11 Full Access */
 8006974:	4a03      	ldr	r2, [pc, #12]	@ (8006984 <SystemInit+0x10>)
 8006976:	f8d2 3088 	ldr.w	r3, [r2, #136]	@ 0x88
 800697a:	f443 0370 	orr.w	r3, r3, #15728640	@ 0xf00000
 800697e:	f8c2 3088 	str.w	r3, [r2, #136]	@ 0x88
#endif
}
 8006982:	4770      	bx	lr
 8006984:	e000ed00 	.word	0xe000ed00

08006988 <Reset_Handler>:

    .section	.text.Reset_Handler
	.weak	Reset_Handler
	.type	Reset_Handler, %function
Reset_Handler:
  ldr   sp, =_estack    /* Set stack pointer */
 8006988:	f8df d034 	ldr.w	sp, [pc, #52]	@ 80069c0 <LoopForever+0x2>

/* Call the clock system initialization function.*/
    bl  SystemInit
 800698c:	f7ff fff2 	bl	8006974 <SystemInit>

/* Copy the data segment initializers from flash to SRAM */
  ldr r0, =_sdata
 8006990:	480c      	ldr	r0, [pc, #48]	@ (80069c4 <LoopForever+0x6>)
  ldr r1, =_edata
 8006992:	490d      	ldr	r1, [pc, #52]	@ (80069c8 <LoopForever+0xa>)
  ldr r2, =_sidata
 8006994:	4a0d      	ldr	r2, [pc, #52]	@ (80069cc <LoopForever+0xe>)
  movs r3, #0
 8006996:	2300      	movs	r3, #0
  b LoopCopyDataInit
 8006998:	e002      	b.n	80069a0 <LoopCopyDataInit>

0800699a <CopyDataInit>:

CopyDataInit:
  ldr r4, [r2, r3]
 800699a:	58d4      	ldr	r4, [r2, r3]
  str r4, [r0, r3]
 800699c:	50c4      	str	r4, [r0, r3]
  adds r3, r3, #4
 800699e:	3304      	adds	r3, #4

080069a0 <LoopCopyDataInit>:

LoopCopyDataInit:
  adds r4, r0, r3
 80069a0:	18c4      	adds	r4, r0, r3
  cmp r4, r1
 80069a2:	428c      	cmp	r4, r1
  bcc CopyDataInit
 80069a4:	d3f9      	bcc.n	800699a <CopyDataInit>
  
/* Zero fill the bss segment. */
  ldr r2, =_sbss
 80069a6:	4a0a      	ldr	r2, [pc, #40]	@ (80069d0 <LoopForever+0x12>)
  ldr r4, =_ebss
 80069a8:	4c0a      	ldr	r4, [pc, #40]	@ (80069d4 <LoopForever+0x16>)
  movs r3, #0
 80069aa:	2300      	movs	r3, #0
  b LoopFillZerobss
 80069ac:	e001      	b.n	80069b2 <LoopFillZerobss>

080069ae <FillZerobss>:

FillZerobss:
  str  r3, [r2]
 80069ae:	6013      	str	r3, [r2, #0]
  adds r2, r2, #4
 80069b0:	3204      	adds	r2, #4

080069b2 <LoopFillZerobss>:

LoopFillZerobss:
  cmp r2, r4
 80069b2:	42a2      	cmp	r2, r4
  bcc FillZerobss
 80069b4:	d3fb      	bcc.n	80069ae <FillZerobss>

/* Call static constructors */
    bl __libc_init_array
 80069b6:	f000 f901 	bl	8006bbc <__libc_init_array>
/* Call the application's entry point.*/
	bl	main
 80069ba:	f7fa fabd 	bl	8000f38 <main>

080069be <LoopForever>:

LoopForever:
    b LoopForever
 80069be:	e7fe      	b.n	80069be <LoopForever>
  ldr   sp, =_estack    /* Set stack pointer */
 80069c0:	20018000 	.word	0x20018000
  ldr r0, =_sdata
 80069c4:	20000000 	.word	0x20000000
  ldr r1, =_edata
 80069c8:	20000060 	.word	0x20000060
  ldr r2, =_sidata
 80069cc:	08008000 	.word	0x08008000
  ldr r2, =_sbss
 80069d0:	20000060 	.word	0x20000060
  ldr r4, =_ebss
 80069d4:	20012fc8 	.word	0x20012fc8

080069d8 <ADC1_2_IRQHandler>:
 * @retval : None
*/
    .section	.text.Default_Handler,"ax",%progbits
Default_Handler:
Infinite_Loop:
	b	Infinite_Loop
 80069d8:	e7fe      	b.n	80069d8 <ADC1_2_IRQHandler>
	...

080069dc <_strtoul_l.isra.0>:
 80069dc:	e92d 43f0 	stmdb	sp!, {r4, r5, r6, r7, r8, r9, lr}
 80069e0:	4e34      	ldr	r6, [pc, #208]	@ (8006ab4 <_strtoul_l.isra.0+0xd8>)
 80069e2:	4686      	mov	lr, r0
 80069e4:	460d      	mov	r5, r1
 80069e6:	4628      	mov	r0, r5
 80069e8:	f815 4b01 	ldrb.w	r4, [r5], #1
 80069ec:	5d37      	ldrb	r7, [r6, r4]
 80069ee:	f017 0708 	ands.w	r7, r7, #8
 80069f2:	d1f8      	bne.n	80069e6 <_strtoul_l.isra.0+0xa>
 80069f4:	2c2d      	cmp	r4, #45	@ 0x2d
 80069f6:	d110      	bne.n	8006a1a <_strtoul_l.isra.0+0x3e>
 80069f8:	782c      	ldrb	r4, [r5, #0]
 80069fa:	2701      	movs	r7, #1
 80069fc:	1c85      	adds	r5, r0, #2
 80069fe:	f033 0010 	bics.w	r0, r3, #16
 8006a02:	d115      	bne.n	8006a30 <_strtoul_l.isra.0+0x54>
 8006a04:	2c30      	cmp	r4, #48	@ 0x30
 8006a06:	d10d      	bne.n	8006a24 <_strtoul_l.isra.0+0x48>
 8006a08:	7828      	ldrb	r0, [r5, #0]
 8006a0a:	f000 00df 	and.w	r0, r0, #223	@ 0xdf
 8006a0e:	2858      	cmp	r0, #88	@ 0x58
 8006a10:	d108      	bne.n	8006a24 <_strtoul_l.isra.0+0x48>
 8006a12:	786c      	ldrb	r4, [r5, #1]
 8006a14:	3502      	adds	r5, #2
 8006a16:	2310      	movs	r3, #16
 8006a18:	e00a      	b.n	8006a30 <_strtoul_l.isra.0+0x54>
 8006a1a:	2c2b      	cmp	r4, #43	@ 0x2b
 8006a1c:	bf04      	itt	eq
 8006a1e:	782c      	ldrbeq	r4, [r5, #0]
 8006a20:	1c85      	addeq	r5, r0, #2
 8006a22:	e7ec      	b.n	80069fe <_strtoul_l.isra.0+0x22>
 8006a24:	2b00      	cmp	r3, #0
 8006a26:	d1f6      	bne.n	8006a16 <_strtoul_l.isra.0+0x3a>
 8006a28:	2c30      	cmp	r4, #48	@ 0x30
 8006a2a:	bf14      	ite	ne
 8006a2c:	230a      	movne	r3, #10
 8006a2e:	2308      	moveq	r3, #8
 8006a30:	f04f 38ff 	mov.w	r8, #4294967295	@ 0xffffffff
 8006a34:	2600      	movs	r6, #0
 8006a36:	fbb8 f8f3 	udiv	r8, r8, r3
 8006a3a:	fb03 f908 	mul.w	r9, r3, r8
 8006a3e:	ea6f 0909 	mvn.w	r9, r9
 8006a42:	4630      	mov	r0, r6
 8006a44:	f1a4 0c30 	sub.w	ip, r4, #48	@ 0x30
 8006a48:	f1bc 0f09 	cmp.w	ip, #9
 8006a4c:	d810      	bhi.n	8006a70 <_strtoul_l.isra.0+0x94>
 8006a4e:	4664      	mov	r4, ip
 8006a50:	42a3      	cmp	r3, r4
 8006a52:	dd1e      	ble.n	8006a92 <_strtoul_l.isra.0+0xb6>
 8006a54:	f1b6 3fff 	cmp.w	r6, #4294967295	@ 0xffffffff
 8006a58:	d007      	beq.n	8006a6a <_strtoul_l.isra.0+0x8e>
 8006a5a:	4580      	cmp	r8, r0
 8006a5c:	d316      	bcc.n	8006a8c <_strtoul_l.isra.0+0xb0>
 8006a5e:	d101      	bne.n	8006a64 <_strtoul_l.isra.0+0x88>
 8006a60:	45a1      	cmp	r9, r4
 8006a62:	db13      	blt.n	8006a8c <_strtoul_l.isra.0+0xb0>
 8006a64:	fb00 4003 	mla	r0, r0, r3, r4
 8006a68:	2601      	movs	r6, #1
 8006a6a:	f815 4b01 	ldrb.w	r4, [r5], #1
 8006a6e:	e7e9      	b.n	8006a44 <_strtoul_l.isra.0+0x68>
 8006a70:	f1a4 0c41 	sub.w	ip, r4, #65	@ 0x41
 8006a74:	f1bc 0f19 	cmp.w	ip, #25
 8006a78:	d801      	bhi.n	8006a7e <_strtoul_l.isra.0+0xa2>
 8006a7a:	3c37      	subs	r4, #55	@ 0x37
 8006a7c:	e7e8      	b.n	8006a50 <_strtoul_l.isra.0+0x74>
 8006a7e:	f1a4 0c61 	sub.w	ip, r4, #97	@ 0x61
 8006a82:	f1bc 0f19 	cmp.w	ip, #25
 8006a86:	d804      	bhi.n	8006a92 <_strtoul_l.isra.0+0xb6>
 8006a88:	3c57      	subs	r4, #87	@ 0x57
 8006a8a:	e7e1      	b.n	8006a50 <_strtoul_l.isra.0+0x74>
 8006a8c:	f04f 36ff 	mov.w	r6, #4294967295	@ 0xffffffff
 8006a90:	e7eb      	b.n	8006a6a <_strtoul_l.isra.0+0x8e>
 8006a92:	1c73      	adds	r3, r6, #1
 8006a94:	d106      	bne.n	8006aa4 <_strtoul_l.isra.0+0xc8>
 8006a96:	2322      	movs	r3, #34	@ 0x22
 8006a98:	f8ce 3000 	str.w	r3, [lr]
 8006a9c:	4630      	mov	r0, r6
 8006a9e:	b932      	cbnz	r2, 8006aae <_strtoul_l.isra.0+0xd2>
 8006aa0:	e8bd 83f0 	ldmia.w	sp!, {r4, r5, r6, r7, r8, r9, pc}
 8006aa4:	b107      	cbz	r7, 8006aa8 <_strtoul_l.isra.0+0xcc>
 8006aa6:	4240      	negs	r0, r0
 8006aa8:	2a00      	cmp	r2, #0
 8006aaa:	d0f9      	beq.n	8006aa0 <_strtoul_l.isra.0+0xc4>
 8006aac:	b106      	cbz	r6, 8006ab0 <_strtoul_l.isra.0+0xd4>
 8006aae:	1e69      	subs	r1, r5, #1
 8006ab0:	6011      	str	r1, [r2, #0]
 8006ab2:	e7f5      	b.n	8006aa0 <_strtoul_l.isra.0+0xc4>
 8006ab4:	08007eb1 	.word	0x08007eb1

08006ab8 <strtoul>:
 8006ab8:	4613      	mov	r3, r2
 8006aba:	460a      	mov	r2, r1
 8006abc:	4601      	mov	r1, r0
 8006abe:	4802      	ldr	r0, [pc, #8]	@ (8006ac8 <strtoul+0x10>)
 8006ac0:	6800      	ldr	r0, [r0, #0]
 8006ac2:	f7ff bf8b 	b.w	80069dc <_strtoul_l.isra.0>
 8006ac6:	bf00      	nop
 8006ac8:	20000010 	.word	0x20000010

08006acc <sniprintf>:
 8006acc:	b40c      	push	{r2, r3}
 8006ace:	b530      	push	{r4, r5, lr}
 8006ad0:	4b15      	ldr	r3, [pc, #84]	@ (8006b28 <sniprintf+0x5c>)
 8006ad2:	1e0c      	subs	r4, r1, #0
 8006ad4:	681d      	ldr	r5, [r3, #0]
 8006ad6:	b09d      	sub	sp, #116	@ 0x74
 8006ad8:	da08      	bge.n	8006aec <sniprintf+0x20>
 8006ada:	238b      	movs	r3, #139	@ 0x8b
 8006adc:	602b      	str	r3, [r5, #0]
 8006ade:	f04f 30ff 	mov.w	r0, #4294967295	@ 0xffffffff
 8006ae2:	b01d      	add	sp, #116	@ 0x74
 8006ae4:	e8bd 4030 	ldmia.w	sp!, {r4, r5, lr}
 8006ae8:	b002      	add	sp, #8
 8006aea:	4770      	bx	lr
 8006aec:	f04f 0300 	mov.w	r3, #0
 8006af0:	931b      	str	r3, [sp, #108]	@ 0x6c
 8006af2:	bf18      	it	ne
 8006af4:	2301      	movne	r3, #1
 8006af6:	1ae3      	subs	r3, r4, r3
 8006af8:	9304      	str	r3, [sp, #16]
 8006afa:	9307      	str	r3, [sp, #28]
 8006afc:	4b0b      	ldr	r3, [pc, #44]	@ (8006b2c <sniprintf+0x60>)
 8006afe:	9002      	str	r0, [sp, #8]
 8006b00:	9006      	str	r0, [sp, #24]
 8006b02:	9305      	str	r3, [sp, #20]
 8006b04:	9a20      	ldr	r2, [sp, #128]	@ 0x80
 8006b06:	ab21      	add	r3, sp, #132	@ 0x84
 8006b08:	a902      	add	r1, sp, #8
 8006b0a:	4628      	mov	r0, r5
 8006b0c:	9301      	str	r3, [sp, #4]
 8006b0e:	f000 f9df 	bl	8006ed0 <_svfiprintf_r>
 8006b12:	1c43      	adds	r3, r0, #1
 8006b14:	bfbc      	itt	lt
 8006b16:	238b      	movlt	r3, #139	@ 0x8b
 8006b18:	602b      	strlt	r3, [r5, #0]
 8006b1a:	2c00      	cmp	r4, #0
 8006b1c:	d0e1      	beq.n	8006ae2 <sniprintf+0x16>
 8006b1e:	9b02      	ldr	r3, [sp, #8]
 8006b20:	2200      	movs	r2, #0
 8006b22:	701a      	strb	r2, [r3, #0]
 8006b24:	e7dd      	b.n	8006ae2 <sniprintf+0x16>
 8006b26:	bf00      	nop
 8006b28:	20000010 	.word	0x20000010
 8006b2c:	ffff0208 	.word	0xffff0208

08006b30 <siprintf>:
 8006b30:	b40e      	push	{r1, r2, r3}
 8006b32:	b510      	push	{r4, lr}
 8006b34:	b09d      	sub	sp, #116	@ 0x74
 8006b36:	ab1f      	add	r3, sp, #124	@ 0x7c
 8006b38:	9002      	str	r0, [sp, #8]
 8006b3a:	9006      	str	r0, [sp, #24]
 8006b3c:	f06f 4100 	mvn.w	r1, #2147483648	@ 0x80000000
 8006b40:	480a      	ldr	r0, [pc, #40]	@ (8006b6c <siprintf+0x3c>)
 8006b42:	9107      	str	r1, [sp, #28]
 8006b44:	9104      	str	r1, [sp, #16]
 8006b46:	490a      	ldr	r1, [pc, #40]	@ (8006b70 <siprintf+0x40>)
 8006b48:	f853 2b04 	ldr.w	r2, [r3], #4
 8006b4c:	9105      	str	r1, [sp, #20]
 8006b4e:	2400      	movs	r4, #0
 8006b50:	a902      	add	r1, sp, #8
 8006b52:	6800      	ldr	r0, [r0, #0]
 8006b54:	9301      	str	r3, [sp, #4]
 8006b56:	941b      	str	r4, [sp, #108]	@ 0x6c
 8006b58:	f000 f9ba 	bl	8006ed0 <_svfiprintf_r>
 8006b5c:	9b02      	ldr	r3, [sp, #8]
 8006b5e:	701c      	strb	r4, [r3, #0]
 8006b60:	b01d      	add	sp, #116	@ 0x74
 8006b62:	e8bd 4010 	ldmia.w	sp!, {r4, lr}
 8006b66:	b003      	add	sp, #12
 8006b68:	4770      	bx	lr
 8006b6a:	bf00      	nop
 8006b6c:	20000010 	.word	0x20000010
 8006b70:	ffff0208 	.word	0xffff0208

08006b74 <memset>:
 8006b74:	4402      	add	r2, r0
 8006b76:	4603      	mov	r3, r0
 8006b78:	4293      	cmp	r3, r2
 8006b7a:	d100      	bne.n	8006b7e <memset+0xa>
 8006b7c:	4770      	bx	lr
 8006b7e:	f803 1b01 	strb.w	r1, [r3], #1
 8006b82:	e7f9      	b.n	8006b78 <memset+0x4>

08006b84 <strstr>:
 8006b84:	780a      	ldrb	r2, [r1, #0]
 8006b86:	b570      	push	{r4, r5, r6, lr}
 8006b88:	b96a      	cbnz	r2, 8006ba6 <strstr+0x22>
 8006b8a:	bd70      	pop	{r4, r5, r6, pc}
 8006b8c:	429a      	cmp	r2, r3
 8006b8e:	d109      	bne.n	8006ba4 <strstr+0x20>
 8006b90:	460c      	mov	r4, r1
 8006b92:	4605      	mov	r5, r0
 8006b94:	f814 3f01 	ldrb.w	r3, [r4, #1]!
 8006b98:	2b00      	cmp	r3, #0
 8006b9a:	d0f6      	beq.n	8006b8a <strstr+0x6>
 8006b9c:	f815 6f01 	ldrb.w	r6, [r5, #1]!
 8006ba0:	429e      	cmp	r6, r3
 8006ba2:	d0f7      	beq.n	8006b94 <strstr+0x10>
 8006ba4:	3001      	adds	r0, #1
 8006ba6:	7803      	ldrb	r3, [r0, #0]
 8006ba8:	2b00      	cmp	r3, #0
 8006baa:	d1ef      	bne.n	8006b8c <strstr+0x8>
 8006bac:	4618      	mov	r0, r3
 8006bae:	e7ec      	b.n	8006b8a <strstr+0x6>

08006bb0 <__errno>:
 8006bb0:	4b01      	ldr	r3, [pc, #4]	@ (8006bb8 <__errno+0x8>)
 8006bb2:	6818      	ldr	r0, [r3, #0]
 8006bb4:	4770      	bx	lr
 8006bb6:	bf00      	nop
 8006bb8:	20000010 	.word	0x20000010

08006bbc <__libc_init_array>:
 8006bbc:	b570      	push	{r4, r5, r6, lr}
 8006bbe:	4b0d      	ldr	r3, [pc, #52]	@ (8006bf4 <__libc_init_array+0x38>)
 8006bc0:	4c0d      	ldr	r4, [pc, #52]	@ (8006bf8 <__libc_init_array+0x3c>)
 8006bc2:	2600      	movs	r6, #0
 8006bc4:	1b1d      	subs	r5, r3, r4
 8006bc6:	ebb6 0fa5 	cmp.w	r6, r5, asr #2
 8006bca:	d109      	bne.n	8006be0 <__libc_init_array+0x24>
 8006bcc:	f000 fe08 	bl	80077e0 <_init>
 8006bd0:	4c0a      	ldr	r4, [pc, #40]	@ (8006bfc <__libc_init_array+0x40>)
 8006bd2:	4b0b      	ldr	r3, [pc, #44]	@ (8006c00 <__libc_init_array+0x44>)
 8006bd4:	2600      	movs	r6, #0
 8006bd6:	1b1d      	subs	r5, r3, r4
 8006bd8:	ebb6 0fa5 	cmp.w	r6, r5, asr #2
 8006bdc:	d105      	bne.n	8006bea <__libc_init_array+0x2e>
 8006bde:	bd70      	pop	{r4, r5, r6, pc}
 8006be0:	f854 3b04 	ldr.w	r3, [r4], #4
 8006be4:	4798      	blx	r3
 8006be6:	3601      	adds	r6, #1
 8006be8:	e7ed      	b.n	8006bc6 <__libc_init_array+0xa>
 8006bea:	f854 3b04 	ldr.w	r3, [r4], #4
 8006bee:	4798      	blx	r3
 8006bf0:	3601      	adds	r6, #1
 8006bf2:	e7f1      	b.n	8006bd8 <__libc_init_array+0x1c>
 8006bf4:	08007ff0 	.word	0x08007ff0
 8006bf8:	08007ff0 	.word	0x08007ff0
 8006bfc:	08007ff0 	.word	0x08007ff0
 8006c00:	08007ff4 	.word	0x08007ff4

08006c04 <__retarget_lock_acquire_recursive>:
 8006c04:	4770      	bx	lr

08006c06 <__retarget_lock_release_recursive>:
 8006c06:	4770      	bx	lr

08006c08 <memcpy>:
 8006c08:	440a      	add	r2, r1
 8006c0a:	4291      	cmp	r1, r2
 8006c0c:	f100 33ff 	add.w	r3, r0, #4294967295	@ 0xffffffff
 8006c10:	d100      	bne.n	8006c14 <memcpy+0xc>
 8006c12:	4770      	bx	lr
 8006c14:	b510      	push	{r4, lr}
 8006c16:	f811 4b01 	ldrb.w	r4, [r1], #1
 8006c1a:	f803 4f01 	strb.w	r4, [r3, #1]!
 8006c1e:	4291      	cmp	r1, r2
 8006c20:	d1f9      	bne.n	8006c16 <memcpy+0xe>
 8006c22:	bd10      	pop	{r4, pc}

08006c24 <_free_r>:
 8006c24:	b537      	push	{r0, r1, r2, r4, r5, lr}
 8006c26:	2900      	cmp	r1, #0
 8006c28:	d044      	beq.n	8006cb4 <_free_r+0x90>
 8006c2a:	f851 3c04 	ldr.w	r3, [r1, #-4]
 8006c2e:	9001      	str	r0, [sp, #4]
 8006c30:	2b00      	cmp	r3, #0
 8006c32:	f1a1 0404 	sub.w	r4, r1, #4
 8006c36:	bfb8      	it	lt
 8006c38:	18e4      	addlt	r4, r4, r3
 8006c3a:	f000 f8dd 	bl	8006df8 <__malloc_lock>
 8006c3e:	4a1e      	ldr	r2, [pc, #120]	@ (8006cb8 <_free_r+0x94>)
 8006c40:	9801      	ldr	r0, [sp, #4]
 8006c42:	6813      	ldr	r3, [r2, #0]
 8006c44:	b933      	cbnz	r3, 8006c54 <_free_r+0x30>
 8006c46:	6063      	str	r3, [r4, #4]
 8006c48:	6014      	str	r4, [r2, #0]
 8006c4a:	b003      	add	sp, #12
 8006c4c:	e8bd 4030 	ldmia.w	sp!, {r4, r5, lr}
 8006c50:	f000 b8d8 	b.w	8006e04 <__malloc_unlock>
 8006c54:	42a3      	cmp	r3, r4
 8006c56:	d908      	bls.n	8006c6a <_free_r+0x46>
 8006c58:	6825      	ldr	r5, [r4, #0]
 8006c5a:	1961      	adds	r1, r4, r5
 8006c5c:	428b      	cmp	r3, r1
 8006c5e:	bf01      	itttt	eq
 8006c60:	6819      	ldreq	r1, [r3, #0]
 8006c62:	685b      	ldreq	r3, [r3, #4]
 8006c64:	1949      	addeq	r1, r1, r5
 8006c66:	6021      	streq	r1, [r4, #0]
 8006c68:	e7ed      	b.n	8006c46 <_free_r+0x22>
 8006c6a:	461a      	mov	r2, r3
 8006c6c:	685b      	ldr	r3, [r3, #4]
 8006c6e:	b10b      	cbz	r3, 8006c74 <_free_r+0x50>
 8006c70:	42a3      	cmp	r3, r4
 8006c72:	d9fa      	bls.n	8006c6a <_free_r+0x46>
 8006c74:	6811      	ldr	r1, [r2, #0]
 8006c76:	1855      	adds	r5, r2, r1
 8006c78:	42a5      	cmp	r5, r4
 8006c7a:	d10b      	bne.n	8006c94 <_free_r+0x70>
 8006c7c:	6824      	ldr	r4, [r4, #0]
 8006c7e:	4421      	add	r1, r4
 8006c80:	1854      	adds	r4, r2, r1
 8006c82:	42a3      	cmp	r3, r4
 8006c84:	6011      	str	r1, [r2, #0]
 8006c86:	d1e0      	bne.n	8006c4a <_free_r+0x26>
 8006c88:	681c      	ldr	r4, [r3, #0]
 8006c8a:	685b      	ldr	r3, [r3, #4]
 8006c8c:	6053      	str	r3, [r2, #4]
 8006c8e:	440c      	add	r4, r1
 8006c90:	6014      	str	r4, [r2, #0]
 8006c92:	e7da      	b.n	8006c4a <_free_r+0x26>
 8006c94:	d902      	bls.n	8006c9c <_free_r+0x78>
 8006c96:	230c      	movs	r3, #12
 8006c98:	6003      	str	r3, [r0, #0]
 8006c9a:	e7d6      	b.n	8006c4a <_free_r+0x26>
 8006c9c:	6825      	ldr	r5, [r4, #0]
 8006c9e:	1961      	adds	r1, r4, r5
 8006ca0:	428b      	cmp	r3, r1
 8006ca2:	bf04      	itt	eq
 8006ca4:	6819      	ldreq	r1, [r3, #0]
 8006ca6:	685b      	ldreq	r3, [r3, #4]
 8006ca8:	6063      	str	r3, [r4, #4]
 8006caa:	bf04      	itt	eq
 8006cac:	1949      	addeq	r1, r1, r5
 8006cae:	6021      	streq	r1, [r4, #0]
 8006cb0:	6054      	str	r4, [r2, #4]
 8006cb2:	e7ca      	b.n	8006c4a <_free_r+0x26>
 8006cb4:	b003      	add	sp, #12
 8006cb6:	bd30      	pop	{r4, r5, pc}
 8006cb8:	20012fc4 	.word	0x20012fc4

08006cbc <sbrk_aligned>:
 8006cbc:	b570      	push	{r4, r5, r6, lr}
 8006cbe:	4c0f      	ldr	r4, [pc, #60]	@ (8006cfc <sbrk_aligned+0x40>)
 8006cc0:	460e      	mov	r6, r1
 8006cc2:	6821      	ldr	r1, [r4, #0]
 8006cc4:	4605      	mov	r5, r0
 8006cc6:	b911      	cbnz	r1, 8006cce <sbrk_aligned+0x12>
 8006cc8:	f000 fbb4 	bl	8007434 <_sbrk_r>
 8006ccc:	6020      	str	r0, [r4, #0]
 8006cce:	4631      	mov	r1, r6
 8006cd0:	4628      	mov	r0, r5
 8006cd2:	f000 fbaf 	bl	8007434 <_sbrk_r>
 8006cd6:	1c43      	adds	r3, r0, #1
 8006cd8:	d103      	bne.n	8006ce2 <sbrk_aligned+0x26>
 8006cda:	f04f 34ff 	mov.w	r4, #4294967295	@ 0xffffffff
 8006cde:	4620      	mov	r0, r4
 8006ce0:	bd70      	pop	{r4, r5, r6, pc}
 8006ce2:	1cc4      	adds	r4, r0, #3
 8006ce4:	f024 0403 	bic.w	r4, r4, #3
 8006ce8:	42a0      	cmp	r0, r4
 8006cea:	d0f8      	beq.n	8006cde <sbrk_aligned+0x22>
 8006cec:	1a21      	subs	r1, r4, r0
 8006cee:	4628      	mov	r0, r5
 8006cf0:	f000 fba0 	bl	8007434 <_sbrk_r>
 8006cf4:	3001      	adds	r0, #1
 8006cf6:	d1f2      	bne.n	8006cde <sbrk_aligned+0x22>
 8006cf8:	e7ef      	b.n	8006cda <sbrk_aligned+0x1e>
 8006cfa:	bf00      	nop
 8006cfc:	20012fc0 	.word	0x20012fc0

08006d00 <_malloc_r>:
 8006d00:	e92d 43f8 	stmdb	sp!, {r3, r4, r5, r6, r7, r8, r9, lr}
 8006d04:	1ccd      	adds	r5, r1, #3
 8006d06:	f025 0503 	bic.w	r5, r5, #3
 8006d0a:	3508      	adds	r5, #8
 8006d0c:	2d0c      	cmp	r5, #12
 8006d0e:	bf38      	it	cc
 8006d10:	250c      	movcc	r5, #12
 8006d12:	2d00      	cmp	r5, #0
 8006d14:	4606      	mov	r6, r0
 8006d16:	db01      	blt.n	8006d1c <_malloc_r+0x1c>
 8006d18:	42a9      	cmp	r1, r5
 8006d1a:	d904      	bls.n	8006d26 <_malloc_r+0x26>
 8006d1c:	230c      	movs	r3, #12
 8006d1e:	6033      	str	r3, [r6, #0]
 8006d20:	2000      	movs	r0, #0
 8006d22:	e8bd 83f8 	ldmia.w	sp!, {r3, r4, r5, r6, r7, r8, r9, pc}
 8006d26:	4f33      	ldr	r7, [pc, #204]	@ (8006df4 <_malloc_r+0xf4>)
 8006d28:	f000 f866 	bl	8006df8 <__malloc_lock>
 8006d2c:	683b      	ldr	r3, [r7, #0]
 8006d2e:	461c      	mov	r4, r3
 8006d30:	bb3c      	cbnz	r4, 8006d82 <_malloc_r+0x82>
 8006d32:	4629      	mov	r1, r5
 8006d34:	4630      	mov	r0, r6
 8006d36:	f7ff ffc1 	bl	8006cbc <sbrk_aligned>
 8006d3a:	1c43      	adds	r3, r0, #1
 8006d3c:	4604      	mov	r4, r0
 8006d3e:	d156      	bne.n	8006dee <_malloc_r+0xee>
 8006d40:	683c      	ldr	r4, [r7, #0]
 8006d42:	46a0      	mov	r8, r4
 8006d44:	f1b8 0f00 	cmp.w	r8, #0
 8006d48:	d140      	bne.n	8006dcc <_malloc_r+0xcc>
 8006d4a:	2c00      	cmp	r4, #0
 8006d4c:	d049      	beq.n	8006de2 <_malloc_r+0xe2>
 8006d4e:	6823      	ldr	r3, [r4, #0]
 8006d50:	4641      	mov	r1, r8
 8006d52:	4630      	mov	r0, r6
 8006d54:	eb04 0903 	add.w	r9, r4, r3
 8006d58:	f000 fb6c 	bl	8007434 <_sbrk_r>
 8006d5c:	4581      	cmp	r9, r0
 8006d5e:	d140      	bne.n	8006de2 <_malloc_r+0xe2>
 8006d60:	6821      	ldr	r1, [r4, #0]
 8006d62:	1a6d      	subs	r5, r5, r1
 8006d64:	4629      	mov	r1, r5
 8006d66:	4630      	mov	r0, r6
 8006d68:	f7ff ffa8 	bl	8006cbc <sbrk_aligned>
 8006d6c:	3001      	adds	r0, #1
 8006d6e:	d038      	beq.n	8006de2 <_malloc_r+0xe2>
 8006d70:	6823      	ldr	r3, [r4, #0]
 8006d72:	442b      	add	r3, r5
 8006d74:	6023      	str	r3, [r4, #0]
 8006d76:	683b      	ldr	r3, [r7, #0]
 8006d78:	685a      	ldr	r2, [r3, #4]
 8006d7a:	bb5a      	cbnz	r2, 8006dd4 <_malloc_r+0xd4>
 8006d7c:	f8c7 8000 	str.w	r8, [r7]
 8006d80:	e00e      	b.n	8006da0 <_malloc_r+0xa0>
 8006d82:	6822      	ldr	r2, [r4, #0]
 8006d84:	1b52      	subs	r2, r2, r5
 8006d86:	d41e      	bmi.n	8006dc6 <_malloc_r+0xc6>
 8006d88:	2a0b      	cmp	r2, #11
 8006d8a:	d916      	bls.n	8006dba <_malloc_r+0xba>
 8006d8c:	1961      	adds	r1, r4, r5
 8006d8e:	42a3      	cmp	r3, r4
 8006d90:	6025      	str	r5, [r4, #0]
 8006d92:	bf18      	it	ne
 8006d94:	6059      	strne	r1, [r3, #4]
 8006d96:	6863      	ldr	r3, [r4, #4]
 8006d98:	bf08      	it	eq
 8006d9a:	6039      	streq	r1, [r7, #0]
 8006d9c:	5162      	str	r2, [r4, r5]
 8006d9e:	604b      	str	r3, [r1, #4]
 8006da0:	4630      	mov	r0, r6
 8006da2:	f000 f82f 	bl	8006e04 <__malloc_unlock>
 8006da6:	f104 000b 	add.w	r0, r4, #11
 8006daa:	1d23      	adds	r3, r4, #4
 8006dac:	f020 0007 	bic.w	r0, r0, #7
 8006db0:	1ac2      	subs	r2, r0, r3
 8006db2:	bf1c      	itt	ne
 8006db4:	1a1b      	subne	r3, r3, r0
 8006db6:	50a3      	strne	r3, [r4, r2]
 8006db8:	e7b3      	b.n	8006d22 <_malloc_r+0x22>
 8006dba:	6862      	ldr	r2, [r4, #4]
 8006dbc:	42a3      	cmp	r3, r4
 8006dbe:	bf0c      	ite	eq
 8006dc0:	603a      	streq	r2, [r7, #0]
 8006dc2:	605a      	strne	r2, [r3, #4]
 8006dc4:	e7ec      	b.n	8006da0 <_malloc_r+0xa0>
 8006dc6:	4623      	mov	r3, r4
 8006dc8:	6864      	ldr	r4, [r4, #4]
 8006dca:	e7b1      	b.n	8006d30 <_malloc_r+0x30>
 8006dcc:	4644      	mov	r4, r8
 8006dce:	f8d8 8004 	ldr.w	r8, [r8, #4]
 8006dd2:	e7b7      	b.n	8006d44 <_malloc_r+0x44>
 8006dd4:	461a      	mov	r2, r3
 8006dd6:	685b      	ldr	r3, [r3, #4]
 8006dd8:	42a3      	cmp	r3, r4
 8006dda:	d1fb      	bne.n	8006dd4 <_malloc_r+0xd4>
 8006ddc:	2300      	movs	r3, #0
 8006dde:	6053      	str	r3, [r2, #4]
 8006de0:	e7de      	b.n	8006da0 <_malloc_r+0xa0>
 8006de2:	230c      	movs	r3, #12
 8006de4:	6033      	str	r3, [r6, #0]
 8006de6:	4630      	mov	r0, r6
 8006de8:	f000 f80c 	bl	8006e04 <__malloc_unlock>
 8006dec:	e798      	b.n	8006d20 <_malloc_r+0x20>
 8006dee:	6005      	str	r5, [r0, #0]
 8006df0:	e7d6      	b.n	8006da0 <_malloc_r+0xa0>
 8006df2:	bf00      	nop
 8006df4:	20012fc4 	.word	0x20012fc4

08006df8 <__malloc_lock>:
 8006df8:	4801      	ldr	r0, [pc, #4]	@ (8006e00 <__malloc_lock+0x8>)
 8006dfa:	f7ff bf03 	b.w	8006c04 <__retarget_lock_acquire_recursive>
 8006dfe:	bf00      	nop
 8006e00:	20012fbc 	.word	0x20012fbc

08006e04 <__malloc_unlock>:
 8006e04:	4801      	ldr	r0, [pc, #4]	@ (8006e0c <__malloc_unlock+0x8>)
 8006e06:	f7ff befe 	b.w	8006c06 <__retarget_lock_release_recursive>
 8006e0a:	bf00      	nop
 8006e0c:	20012fbc 	.word	0x20012fbc

08006e10 <__ssputs_r>:
 8006e10:	e92d 47f0 	stmdb	sp!, {r4, r5, r6, r7, r8, r9, sl, lr}
 8006e14:	688e      	ldr	r6, [r1, #8]
 8006e16:	461f      	mov	r7, r3
 8006e18:	42be      	cmp	r6, r7
 8006e1a:	4682      	mov	sl, r0
 8006e1c:	460c      	mov	r4, r1
 8006e1e:	4690      	mov	r8, r2
 8006e20:	4633      	mov	r3, r6
 8006e22:	d853      	bhi.n	8006ecc <__ssputs_r+0xbc>
 8006e24:	f9b1 000c 	ldrsh.w	r0, [r1, #12]
 8006e28:	f410 6f90 	tst.w	r0, #1152	@ 0x480
 8006e2c:	d02b      	beq.n	8006e86 <__ssputs_r+0x76>
 8006e2e:	6965      	ldr	r5, [r4, #20]
 8006e30:	6823      	ldr	r3, [r4, #0]
 8006e32:	6909      	ldr	r1, [r1, #16]
 8006e34:	eb05 0545 	add.w	r5, r5, r5, lsl #1
 8006e38:	eba3 0901 	sub.w	r9, r3, r1
 8006e3c:	eb05 75d5 	add.w	r5, r5, r5, lsr #31
 8006e40:	1c7b      	adds	r3, r7, #1
 8006e42:	106d      	asrs	r5, r5, #1
 8006e44:	444b      	add	r3, r9
 8006e46:	42ab      	cmp	r3, r5
 8006e48:	462a      	mov	r2, r5
 8006e4a:	bf84      	itt	hi
 8006e4c:	461d      	movhi	r5, r3
 8006e4e:	462a      	movhi	r2, r5
 8006e50:	0543      	lsls	r3, r0, #21
 8006e52:	d527      	bpl.n	8006ea4 <__ssputs_r+0x94>
 8006e54:	4611      	mov	r1, r2
 8006e56:	4650      	mov	r0, sl
 8006e58:	f7ff ff52 	bl	8006d00 <_malloc_r>
 8006e5c:	4606      	mov	r6, r0
 8006e5e:	b358      	cbz	r0, 8006eb8 <__ssputs_r+0xa8>
 8006e60:	6921      	ldr	r1, [r4, #16]
 8006e62:	464a      	mov	r2, r9
 8006e64:	f7ff fed0 	bl	8006c08 <memcpy>
 8006e68:	89a3      	ldrh	r3, [r4, #12]
 8006e6a:	f423 6390 	bic.w	r3, r3, #1152	@ 0x480
 8006e6e:	f043 0380 	orr.w	r3, r3, #128	@ 0x80
 8006e72:	81a3      	strh	r3, [r4, #12]
 8006e74:	6126      	str	r6, [r4, #16]
 8006e76:	6165      	str	r5, [r4, #20]
 8006e78:	444e      	add	r6, r9
 8006e7a:	eba5 0509 	sub.w	r5, r5, r9
 8006e7e:	6026      	str	r6, [r4, #0]
 8006e80:	60a5      	str	r5, [r4, #8]
 8006e82:	463e      	mov	r6, r7
 8006e84:	463b      	mov	r3, r7
 8006e86:	461f      	mov	r7, r3
 8006e88:	6820      	ldr	r0, [r4, #0]
 8006e8a:	463a      	mov	r2, r7
 8006e8c:	4641      	mov	r1, r8
 8006e8e:	f000 fab7 	bl	8007400 <memmove>
 8006e92:	68a3      	ldr	r3, [r4, #8]
 8006e94:	1b9b      	subs	r3, r3, r6
 8006e96:	60a3      	str	r3, [r4, #8]
 8006e98:	6823      	ldr	r3, [r4, #0]
 8006e9a:	443b      	add	r3, r7
 8006e9c:	6023      	str	r3, [r4, #0]
 8006e9e:	2000      	movs	r0, #0
 8006ea0:	e8bd 87f0 	ldmia.w	sp!, {r4, r5, r6, r7, r8, r9, sl, pc}
 8006ea4:	4650      	mov	r0, sl
 8006ea6:	f000 fad5 	bl	8007454 <_realloc_r>
 8006eaa:	4606      	mov	r6, r0
 8006eac:	2800      	cmp	r0, #0
 8006eae:	d1e1      	bne.n	8006e74 <__ssputs_r+0x64>
 8006eb0:	6921      	ldr	r1, [r4, #16]
 8006eb2:	4650      	mov	r0, sl
 8006eb4:	f7ff feb6 	bl	8006c24 <_free_r>
 8006eb8:	230c      	movs	r3, #12
 8006eba:	f8ca 3000 	str.w	r3, [sl]
 8006ebe:	89a3      	ldrh	r3, [r4, #12]
 8006ec0:	f043 0340 	orr.w	r3, r3, #64	@ 0x40
 8006ec4:	81a3      	strh	r3, [r4, #12]
 8006ec6:	f04f 30ff 	mov.w	r0, #4294967295	@ 0xffffffff
 8006eca:	e7e9      	b.n	8006ea0 <__ssputs_r+0x90>
 8006ecc:	463e      	mov	r6, r7
 8006ece:	e7db      	b.n	8006e88 <__ssputs_r+0x78>

08006ed0 <_svfiprintf_r>:
 8006ed0:	e92d 47f0 	stmdb	sp!, {r4, r5, r6, r7, r8, r9, sl, lr}
 8006ed4:	461f      	mov	r7, r3
 8006ed6:	898b      	ldrh	r3, [r1, #12]
 8006ed8:	061b      	lsls	r3, r3, #24
 8006eda:	b09c      	sub	sp, #112	@ 0x70
 8006edc:	4606      	mov	r6, r0
 8006ede:	460d      	mov	r5, r1
 8006ee0:	4614      	mov	r4, r2
 8006ee2:	d510      	bpl.n	8006f06 <_svfiprintf_r+0x36>
 8006ee4:	690b      	ldr	r3, [r1, #16]
 8006ee6:	b973      	cbnz	r3, 8006f06 <_svfiprintf_r+0x36>
 8006ee8:	2140      	movs	r1, #64	@ 0x40
 8006eea:	f7ff ff09 	bl	8006d00 <_malloc_r>
 8006eee:	6028      	str	r0, [r5, #0]
 8006ef0:	6128      	str	r0, [r5, #16]
 8006ef2:	b930      	cbnz	r0, 8006f02 <_svfiprintf_r+0x32>
 8006ef4:	230c      	movs	r3, #12
 8006ef6:	6033      	str	r3, [r6, #0]
 8006ef8:	f04f 30ff 	mov.w	r0, #4294967295	@ 0xffffffff
 8006efc:	b01c      	add	sp, #112	@ 0x70
 8006efe:	e8bd 87f0 	ldmia.w	sp!, {r4, r5, r6, r7, r8, r9, sl, pc}
 8006f02:	2340      	movs	r3, #64	@ 0x40
 8006f04:	616b      	str	r3, [r5, #20]
 8006f06:	2300      	movs	r3, #0
 8006f08:	9309      	str	r3, [sp, #36]	@ 0x24
 8006f0a:	2320      	movs	r3, #32
 8006f0c:	f88d 3029 	strb.w	r3, [sp, #41]	@ 0x29
 8006f10:	9703      	str	r7, [sp, #12]
 8006f12:	2330      	movs	r3, #48	@ 0x30
 8006f14:	4f65      	ldr	r7, [pc, #404]	@ (80070ac <_svfiprintf_r+0x1dc>)
 8006f16:	f88d 302a 	strb.w	r3, [sp, #42]	@ 0x2a
 8006f1a:	f04f 0801 	mov.w	r8, #1
 8006f1e:	4623      	mov	r3, r4
 8006f20:	781a      	ldrb	r2, [r3, #0]
 8006f22:	4699      	mov	r9, r3
 8006f24:	b11a      	cbz	r2, 8006f2e <_svfiprintf_r+0x5e>
 8006f26:	2a25      	cmp	r2, #37	@ 0x25
 8006f28:	f103 0301 	add.w	r3, r3, #1
 8006f2c:	d1f8      	bne.n	8006f20 <_svfiprintf_r+0x50>
 8006f2e:	ebb9 0a04 	subs.w	sl, r9, r4
 8006f32:	d00b      	beq.n	8006f4c <_svfiprintf_r+0x7c>
 8006f34:	4653      	mov	r3, sl
 8006f36:	4622      	mov	r2, r4
 8006f38:	4629      	mov	r1, r5
 8006f3a:	4630      	mov	r0, r6
 8006f3c:	f7ff ff68 	bl	8006e10 <__ssputs_r>
 8006f40:	3001      	adds	r0, #1
 8006f42:	f000 80a3 	beq.w	800708c <_svfiprintf_r+0x1bc>
 8006f46:	9a09      	ldr	r2, [sp, #36]	@ 0x24
 8006f48:	4452      	add	r2, sl
 8006f4a:	9209      	str	r2, [sp, #36]	@ 0x24
 8006f4c:	f899 3000 	ldrb.w	r3, [r9]
 8006f50:	2b00      	cmp	r3, #0
 8006f52:	f000 809b 	beq.w	800708c <_svfiprintf_r+0x1bc>
 8006f56:	2200      	movs	r2, #0
 8006f58:	f04f 33ff 	mov.w	r3, #4294967295	@ 0xffffffff
 8006f5c:	e9cd 3205 	strd	r3, r2, [sp, #20]
 8006f60:	f109 0901 	add.w	r9, r9, #1
 8006f64:	9204      	str	r2, [sp, #16]
 8006f66:	9207      	str	r2, [sp, #28]
 8006f68:	f88d 2053 	strb.w	r2, [sp, #83]	@ 0x53
 8006f6c:	921a      	str	r2, [sp, #104]	@ 0x68
 8006f6e:	464c      	mov	r4, r9
 8006f70:	2205      	movs	r2, #5
 8006f72:	f814 1b01 	ldrb.w	r1, [r4], #1
 8006f76:	484d      	ldr	r0, [pc, #308]	@ (80070ac <_svfiprintf_r+0x1dc>)
 8006f78:	f7f9 f912 	bl	80001a0 <memchr>
 8006f7c:	9a04      	ldr	r2, [sp, #16]
 8006f7e:	b9d0      	cbnz	r0, 8006fb6 <_svfiprintf_r+0xe6>
 8006f80:	06d0      	lsls	r0, r2, #27
 8006f82:	bf44      	itt	mi
 8006f84:	2320      	movmi	r3, #32
 8006f86:	f88d 3053 	strbmi.w	r3, [sp, #83]	@ 0x53
 8006f8a:	0711      	lsls	r1, r2, #28
 8006f8c:	bf44      	itt	mi
 8006f8e:	232b      	movmi	r3, #43	@ 0x2b
 8006f90:	f88d 3053 	strbmi.w	r3, [sp, #83]	@ 0x53
 8006f94:	f899 3000 	ldrb.w	r3, [r9]
 8006f98:	2b2a      	cmp	r3, #42	@ 0x2a
 8006f9a:	d013      	beq.n	8006fc4 <_svfiprintf_r+0xf4>
 8006f9c:	9907      	ldr	r1, [sp, #28]
 8006f9e:	464b      	mov	r3, r9
 8006fa0:	2000      	movs	r0, #0
 8006fa2:	f04f 0c0a 	mov.w	ip, #10
 8006fa6:	781a      	ldrb	r2, [r3, #0]
 8006fa8:	3a30      	subs	r2, #48	@ 0x30
 8006faa:	2a09      	cmp	r2, #9
 8006fac:	461c      	mov	r4, r3
 8006fae:	d94a      	bls.n	8007046 <_svfiprintf_r+0x176>
 8006fb0:	b1a8      	cbz	r0, 8006fde <_svfiprintf_r+0x10e>
 8006fb2:	9107      	str	r1, [sp, #28]
 8006fb4:	e013      	b.n	8006fde <_svfiprintf_r+0x10e>
 8006fb6:	1bc0      	subs	r0, r0, r7
 8006fb8:	fa08 f000 	lsl.w	r0, r8, r0
 8006fbc:	4310      	orrs	r0, r2
 8006fbe:	9004      	str	r0, [sp, #16]
 8006fc0:	46a1      	mov	r9, r4
 8006fc2:	e7d4      	b.n	8006f6e <_svfiprintf_r+0x9e>
 8006fc4:	9b03      	ldr	r3, [sp, #12]
 8006fc6:	1d19      	adds	r1, r3, #4
 8006fc8:	681b      	ldr	r3, [r3, #0]
 8006fca:	9103      	str	r1, [sp, #12]
 8006fcc:	2b00      	cmp	r3, #0
 8006fce:	bfbb      	ittet	lt
 8006fd0:	425b      	neglt	r3, r3
 8006fd2:	f042 0202 	orrlt.w	r2, r2, #2
 8006fd6:	9307      	strge	r3, [sp, #28]
 8006fd8:	9307      	strlt	r3, [sp, #28]
 8006fda:	bfb8      	it	lt
 8006fdc:	9204      	strlt	r2, [sp, #16]
 8006fde:	7823      	ldrb	r3, [r4, #0]
 8006fe0:	2b2e      	cmp	r3, #46	@ 0x2e
 8006fe2:	d10a      	bne.n	8006ffa <_svfiprintf_r+0x12a>
 8006fe4:	7863      	ldrb	r3, [r4, #1]
 8006fe6:	2b2a      	cmp	r3, #42	@ 0x2a
 8006fe8:	d132      	bne.n	8007050 <_svfiprintf_r+0x180>
 8006fea:	9b03      	ldr	r3, [sp, #12]
 8006fec:	1d1a      	adds	r2, r3, #4
 8006fee:	681b      	ldr	r3, [r3, #0]
 8006ff0:	9203      	str	r2, [sp, #12]
 8006ff2:	ea43 73e3 	orr.w	r3, r3, r3, asr #31
 8006ff6:	3402      	adds	r4, #2
 8006ff8:	9305      	str	r3, [sp, #20]
 8006ffa:	f8df 90c0 	ldr.w	r9, [pc, #192]	@ 80070bc <_svfiprintf_r+0x1ec>
 8006ffe:	7821      	ldrb	r1, [r4, #0]
 8007000:	2203      	movs	r2, #3
 8007002:	4648      	mov	r0, r9
 8007004:	f7f9 f8cc 	bl	80001a0 <memchr>
 8007008:	b138      	cbz	r0, 800701a <_svfiprintf_r+0x14a>
 800700a:	9b04      	ldr	r3, [sp, #16]
 800700c:	eba0 0009 	sub.w	r0, r0, r9
 8007010:	2240      	movs	r2, #64	@ 0x40
 8007012:	4082      	lsls	r2, r0
 8007014:	4313      	orrs	r3, r2
 8007016:	3401      	adds	r4, #1
 8007018:	9304      	str	r3, [sp, #16]
 800701a:	7821      	ldrb	r1, [r4, #0]
 800701c:	4824      	ldr	r0, [pc, #144]	@ (80070b0 <_svfiprintf_r+0x1e0>)
 800701e:	f88d 1028 	strb.w	r1, [sp, #40]	@ 0x28
 8007022:	2206      	movs	r2, #6
 8007024:	f7f9 f8bc 	bl	80001a0 <memchr>
 8007028:	2800      	cmp	r0, #0
 800702a:	d035      	beq.n	8007098 <_svfiprintf_r+0x1c8>
 800702c:	4821      	ldr	r0, [pc, #132]	@ (80070b4 <_svfiprintf_r+0x1e4>)
 800702e:	bb18      	cbnz	r0, 8007078 <_svfiprintf_r+0x1a8>
 8007030:	9b03      	ldr	r3, [sp, #12]
 8007032:	3307      	adds	r3, #7
 8007034:	f023 0307 	bic.w	r3, r3, #7
 8007038:	3308      	adds	r3, #8
 800703a:	9303      	str	r3, [sp, #12]
 800703c:	9b09      	ldr	r3, [sp, #36]	@ 0x24
 800703e:	4403      	add	r3, r0
 8007040:	3401      	adds	r4, #1
 8007042:	9309      	str	r3, [sp, #36]	@ 0x24
 8007044:	e76b      	b.n	8006f1e <_svfiprintf_r+0x4e>
 8007046:	3301      	adds	r3, #1
 8007048:	fb0c 2101 	mla	r1, ip, r1, r2
 800704c:	2001      	movs	r0, #1
 800704e:	e7aa      	b.n	8006fa6 <_svfiprintf_r+0xd6>
 8007050:	2300      	movs	r3, #0
 8007052:	9305      	str	r3, [sp, #20]
 8007054:	1c61      	adds	r1, r4, #1
 8007056:	4618      	mov	r0, r3
 8007058:	f04f 0c0a 	mov.w	ip, #10
 800705c:	780a      	ldrb	r2, [r1, #0]
 800705e:	3a30      	subs	r2, #48	@ 0x30
 8007060:	2a09      	cmp	r2, #9
 8007062:	460c      	mov	r4, r1
 8007064:	d903      	bls.n	800706e <_svfiprintf_r+0x19e>
 8007066:	2b00      	cmp	r3, #0
 8007068:	d0c7      	beq.n	8006ffa <_svfiprintf_r+0x12a>
 800706a:	9005      	str	r0, [sp, #20]
 800706c:	e7c5      	b.n	8006ffa <_svfiprintf_r+0x12a>
 800706e:	3101      	adds	r1, #1
 8007070:	fb0c 2000 	mla	r0, ip, r0, r2
 8007074:	2301      	movs	r3, #1
 8007076:	e7f1      	b.n	800705c <_svfiprintf_r+0x18c>
 8007078:	ab03      	add	r3, sp, #12
 800707a:	9300      	str	r3, [sp, #0]
 800707c:	462a      	mov	r2, r5
 800707e:	4b0e      	ldr	r3, [pc, #56]	@ (80070b8 <_svfiprintf_r+0x1e8>)
 8007080:	a904      	add	r1, sp, #16
 8007082:	4630      	mov	r0, r6
 8007084:	f3af 8000 	nop.w
 8007088:	1c42      	adds	r2, r0, #1
 800708a:	d1d7      	bne.n	800703c <_svfiprintf_r+0x16c>
 800708c:	89ab      	ldrh	r3, [r5, #12]
 800708e:	065b      	lsls	r3, r3, #25
 8007090:	f53f af32 	bmi.w	8006ef8 <_svfiprintf_r+0x28>
 8007094:	9809      	ldr	r0, [sp, #36]	@ 0x24
 8007096:	e731      	b.n	8006efc <_svfiprintf_r+0x2c>
 8007098:	ab03      	add	r3, sp, #12
 800709a:	9300      	str	r3, [sp, #0]
 800709c:	462a      	mov	r2, r5
 800709e:	4b06      	ldr	r3, [pc, #24]	@ (80070b8 <_svfiprintf_r+0x1e8>)
 80070a0:	a904      	add	r1, sp, #16
 80070a2:	4630      	mov	r0, r6
 80070a4:	f000 f882 	bl	80071ac <_printf_i>
 80070a8:	e7ee      	b.n	8007088 <_svfiprintf_r+0x1b8>
 80070aa:	bf00      	nop
 80070ac:	08007fb1 	.word	0x08007fb1
 80070b0:	08007fbb 	.word	0x08007fbb
 80070b4:	00000000 	.word	0x00000000
 80070b8:	08006e11 	.word	0x08006e11
 80070bc:	08007fb7 	.word	0x08007fb7

080070c0 <_printf_common>:
 80070c0:	e92d 47f0 	stmdb	sp!, {r4, r5, r6, r7, r8, r9, sl, lr}
 80070c4:	4691      	mov	r9, r2
 80070c6:	4698      	mov	r8, r3
 80070c8:	688a      	ldr	r2, [r1, #8]
 80070ca:	690b      	ldr	r3, [r1, #16]
 80070cc:	9e08      	ldr	r6, [sp, #32]
 80070ce:	4293      	cmp	r3, r2
 80070d0:	bfb8      	it	lt
 80070d2:	4613      	movlt	r3, r2
 80070d4:	f8c9 3000 	str.w	r3, [r9]
 80070d8:	f891 2043 	ldrb.w	r2, [r1, #67]	@ 0x43
 80070dc:	4607      	mov	r7, r0
 80070de:	460c      	mov	r4, r1
 80070e0:	b112      	cbz	r2, 80070e8 <_printf_common+0x28>
 80070e2:	3301      	adds	r3, #1
 80070e4:	f8c9 3000 	str.w	r3, [r9]
 80070e8:	6823      	ldr	r3, [r4, #0]
 80070ea:	0699      	lsls	r1, r3, #26
 80070ec:	bf42      	ittt	mi
 80070ee:	f8d9 3000 	ldrmi.w	r3, [r9]
 80070f2:	3302      	addmi	r3, #2
 80070f4:	f8c9 3000 	strmi.w	r3, [r9]
 80070f8:	6825      	ldr	r5, [r4, #0]
 80070fa:	f015 0506 	ands.w	r5, r5, #6
 80070fe:	d107      	bne.n	8007110 <_printf_common+0x50>
 8007100:	f104 0a19 	add.w	sl, r4, #25
 8007104:	68e3      	ldr	r3, [r4, #12]
 8007106:	f8d9 2000 	ldr.w	r2, [r9]
 800710a:	1a9b      	subs	r3, r3, r2
 800710c:	42ab      	cmp	r3, r5
 800710e:	dc29      	bgt.n	8007164 <_printf_common+0xa4>
 8007110:	f894 3043 	ldrb.w	r3, [r4, #67]	@ 0x43
 8007114:	6822      	ldr	r2, [r4, #0]
 8007116:	3b00      	subs	r3, #0
 8007118:	bf18      	it	ne
 800711a:	2301      	movne	r3, #1
 800711c:	0692      	lsls	r2, r2, #26
 800711e:	d42e      	bmi.n	800717e <_printf_common+0xbe>
 8007120:	f104 0243 	add.w	r2, r4, #67	@ 0x43
 8007124:	4641      	mov	r1, r8
 8007126:	4638      	mov	r0, r7
 8007128:	47b0      	blx	r6
 800712a:	3001      	adds	r0, #1
 800712c:	d021      	beq.n	8007172 <_printf_common+0xb2>
 800712e:	6823      	ldr	r3, [r4, #0]
 8007130:	68a1      	ldr	r1, [r4, #8]
 8007132:	6922      	ldr	r2, [r4, #16]
 8007134:	f003 0306 	and.w	r3, r3, #6
 8007138:	2b04      	cmp	r3, #4
 800713a:	bf01      	itttt	eq
 800713c:	68e5      	ldreq	r5, [r4, #12]
 800713e:	f8d9 3000 	ldreq.w	r3, [r9]
 8007142:	1aed      	subeq	r5, r5, r3
 8007144:	ea25 75e5 	biceq.w	r5, r5, r5, asr #31
 8007148:	bf18      	it	ne
 800714a:	2500      	movne	r5, #0
 800714c:	1a8b      	subs	r3, r1, r2
 800714e:	442b      	add	r3, r5
 8007150:	4291      	cmp	r1, r2
 8007152:	bfc8      	it	gt
 8007154:	461d      	movgt	r5, r3
 8007156:	f04f 0900 	mov.w	r9, #0
 800715a:	341a      	adds	r4, #26
 800715c:	454d      	cmp	r5, r9
 800715e:	d11a      	bne.n	8007196 <_printf_common+0xd6>
 8007160:	2000      	movs	r0, #0
 8007162:	e008      	b.n	8007176 <_printf_common+0xb6>
 8007164:	2301      	movs	r3, #1
 8007166:	4652      	mov	r2, sl
 8007168:	4641      	mov	r1, r8
 800716a:	4638      	mov	r0, r7
 800716c:	47b0      	blx	r6
 800716e:	3001      	adds	r0, #1
 8007170:	d103      	bne.n	800717a <_printf_common+0xba>
 8007172:	f04f 30ff 	mov.w	r0, #4294967295	@ 0xffffffff
 8007176:	e8bd 87f0 	ldmia.w	sp!, {r4, r5, r6, r7, r8, r9, sl, pc}
 800717a:	3501      	adds	r5, #1
 800717c:	e7c2      	b.n	8007104 <_printf_common+0x44>
 800717e:	18e1      	adds	r1, r4, r3
 8007180:	1c5a      	adds	r2, r3, #1
 8007182:	2030      	movs	r0, #48	@ 0x30
 8007184:	f881 0043 	strb.w	r0, [r1, #67]	@ 0x43
 8007188:	4422      	add	r2, r4
 800718a:	f894 1045 	ldrb.w	r1, [r4, #69]	@ 0x45
 800718e:	f882 1043 	strb.w	r1, [r2, #67]	@ 0x43
 8007192:	3302      	adds	r3, #2
 8007194:	e7c4      	b.n	8007120 <_printf_common+0x60>
 8007196:	2301      	movs	r3, #1
 8007198:	4622      	mov	r2, r4
 800719a:	4641      	mov	r1, r8
 800719c:	4638      	mov	r0, r7
 800719e:	47b0      	blx	r6
 80071a0:	3001      	adds	r0, #1
 80071a2:	d0e6      	beq.n	8007172 <_printf_common+0xb2>
 80071a4:	f109 0901 	add.w	r9, r9, #1
 80071a8:	e7d8      	b.n	800715c <_printf_common+0x9c>
	...

080071ac <_printf_i>:
 80071ac:	e92d 43f0 	stmdb	sp!, {r4, r5, r6, r7, r8, r9, lr}
 80071b0:	4698      	mov	r8, r3
 80071b2:	7e0b      	ldrb	r3, [r1, #24]
 80071b4:	b085      	sub	sp, #20
 80071b6:	2b78      	cmp	r3, #120	@ 0x78
 80071b8:	4617      	mov	r7, r2
 80071ba:	4606      	mov	r6, r0
 80071bc:	9a0c      	ldr	r2, [sp, #48]	@ 0x30
 80071be:	460c      	mov	r4, r1
 80071c0:	d809      	bhi.n	80071d6 <_printf_i+0x2a>
 80071c2:	2b62      	cmp	r3, #98	@ 0x62
 80071c4:	f101 0143 	add.w	r1, r1, #67	@ 0x43
 80071c8:	d808      	bhi.n	80071dc <_printf_i+0x30>
 80071ca:	2b00      	cmp	r3, #0
 80071cc:	f000 80dc 	beq.w	8007388 <_printf_i+0x1dc>
 80071d0:	2b58      	cmp	r3, #88	@ 0x58
 80071d2:	f000 80bd 	beq.w	8007350 <_printf_i+0x1a4>
 80071d6:	f104 0542 	add.w	r5, r4, #66	@ 0x42
 80071da:	e039      	b.n	8007250 <_printf_i+0xa4>
 80071dc:	f1a3 0063 	sub.w	r0, r3, #99	@ 0x63
 80071e0:	2815      	cmp	r0, #21
 80071e2:	d8f8      	bhi.n	80071d6 <_printf_i+0x2a>
 80071e4:	a501      	add	r5, pc, #4	@ (adr r5, 80071ec <_printf_i+0x40>)
 80071e6:	f855 f020 	ldr.w	pc, [r5, r0, lsl #2]
 80071ea:	bf00      	nop
 80071ec:	08007245 	.word	0x08007245
 80071f0:	08007259 	.word	0x08007259
 80071f4:	080071d7 	.word	0x080071d7
 80071f8:	080071d7 	.word	0x080071d7
 80071fc:	080071d7 	.word	0x080071d7
 8007200:	080071d7 	.word	0x080071d7
 8007204:	08007259 	.word	0x08007259
 8007208:	080071d7 	.word	0x080071d7
 800720c:	080071d7 	.word	0x080071d7
 8007210:	080071d7 	.word	0x080071d7
 8007214:	080071d7 	.word	0x080071d7
 8007218:	08007369 	.word	0x08007369
 800721c:	08007285 	.word	0x08007285
 8007220:	08007317 	.word	0x08007317
 8007224:	080071d7 	.word	0x080071d7
 8007228:	080071d7 	.word	0x080071d7
 800722c:	08007391 	.word	0x08007391
 8007230:	080071d7 	.word	0x080071d7
 8007234:	08007285 	.word	0x08007285
 8007238:	080071d7 	.word	0x080071d7
 800723c:	080071d7 	.word	0x080071d7
 8007240:	0800731f 	.word	0x0800731f
 8007244:	6813      	ldr	r3, [r2, #0]
 8007246:	1d19      	adds	r1, r3, #4
 8007248:	681b      	ldr	r3, [r3, #0]
 800724a:	6011      	str	r1, [r2, #0]
 800724c:	f104 0542 	add.w	r5, r4, #66	@ 0x42
 8007250:	f884 3042 	strb.w	r3, [r4, #66]	@ 0x42
 8007254:	2301      	movs	r3, #1
 8007256:	e0a8      	b.n	80073aa <_printf_i+0x1fe>
 8007258:	6813      	ldr	r3, [r2, #0]
 800725a:	6825      	ldr	r5, [r4, #0]
 800725c:	1d18      	adds	r0, r3, #4
 800725e:	6010      	str	r0, [r2, #0]
 8007260:	0628      	lsls	r0, r5, #24
 8007262:	d501      	bpl.n	8007268 <_printf_i+0xbc>
 8007264:	681b      	ldr	r3, [r3, #0]
 8007266:	e003      	b.n	8007270 <_printf_i+0xc4>
 8007268:	066a      	lsls	r2, r5, #25
 800726a:	d5fb      	bpl.n	8007264 <_printf_i+0xb8>
 800726c:	f9b3 3000 	ldrsh.w	r3, [r3]
 8007270:	2b00      	cmp	r3, #0
 8007272:	da03      	bge.n	800727c <_printf_i+0xd0>
 8007274:	222d      	movs	r2, #45	@ 0x2d
 8007276:	425b      	negs	r3, r3
 8007278:	f884 2043 	strb.w	r2, [r4, #67]	@ 0x43
 800727c:	f8df c178 	ldr.w	ip, [pc, #376]	@ 80073f8 <_printf_i+0x24c>
 8007280:	220a      	movs	r2, #10
 8007282:	e013      	b.n	80072ac <_printf_i+0x100>
 8007284:	6825      	ldr	r5, [r4, #0]
 8007286:	6810      	ldr	r0, [r2, #0]
 8007288:	f015 0f80 	tst.w	r5, #128	@ 0x80
 800728c:	f850 3b04 	ldr.w	r3, [r0], #4
 8007290:	d102      	bne.n	8007298 <_printf_i+0xec>
 8007292:	066d      	lsls	r5, r5, #25
 8007294:	bf48      	it	mi
 8007296:	b29b      	uxthmi	r3, r3
 8007298:	6010      	str	r0, [r2, #0]
 800729a:	7e22      	ldrb	r2, [r4, #24]
 800729c:	f8df c158 	ldr.w	ip, [pc, #344]	@ 80073f8 <_printf_i+0x24c>
 80072a0:	2a6f      	cmp	r2, #111	@ 0x6f
 80072a2:	d15d      	bne.n	8007360 <_printf_i+0x1b4>
 80072a4:	2208      	movs	r2, #8
 80072a6:	2000      	movs	r0, #0
 80072a8:	f884 0043 	strb.w	r0, [r4, #67]	@ 0x43
 80072ac:	6865      	ldr	r5, [r4, #4]
 80072ae:	60a5      	str	r5, [r4, #8]
 80072b0:	2d00      	cmp	r5, #0
 80072b2:	db05      	blt.n	80072c0 <_printf_i+0x114>
 80072b4:	6820      	ldr	r0, [r4, #0]
 80072b6:	431d      	orrs	r5, r3
 80072b8:	f020 0004 	bic.w	r0, r0, #4
 80072bc:	6020      	str	r0, [r4, #0]
 80072be:	d051      	beq.n	8007364 <_printf_i+0x1b8>
 80072c0:	460d      	mov	r5, r1
 80072c2:	fbb3 f0f2 	udiv	r0, r3, r2
 80072c6:	fb02 3e10 	mls	lr, r2, r0, r3
 80072ca:	429a      	cmp	r2, r3
 80072cc:	f81c e00e 	ldrb.w	lr, [ip, lr]
 80072d0:	f805 ed01 	strb.w	lr, [r5, #-1]!
 80072d4:	4603      	mov	r3, r0
 80072d6:	d9f4      	bls.n	80072c2 <_printf_i+0x116>
 80072d8:	2a08      	cmp	r2, #8
 80072da:	d10b      	bne.n	80072f4 <_printf_i+0x148>
 80072dc:	6823      	ldr	r3, [r4, #0]
 80072de:	07da      	lsls	r2, r3, #31
 80072e0:	d508      	bpl.n	80072f4 <_printf_i+0x148>
 80072e2:	6923      	ldr	r3, [r4, #16]
 80072e4:	6862      	ldr	r2, [r4, #4]
 80072e6:	429a      	cmp	r2, r3
 80072e8:	bfde      	ittt	le
 80072ea:	2330      	movle	r3, #48	@ 0x30
 80072ec:	f805 3c01 	strble.w	r3, [r5, #-1]
 80072f0:	f105 35ff 	addle.w	r5, r5, #4294967295	@ 0xffffffff
 80072f4:	1b49      	subs	r1, r1, r5
 80072f6:	6121      	str	r1, [r4, #16]
 80072f8:	f8cd 8000 	str.w	r8, [sp]
 80072fc:	463b      	mov	r3, r7
 80072fe:	aa03      	add	r2, sp, #12
 8007300:	4621      	mov	r1, r4
 8007302:	4630      	mov	r0, r6
 8007304:	f7ff fedc 	bl	80070c0 <_printf_common>
 8007308:	3001      	adds	r0, #1
 800730a:	d153      	bne.n	80073b4 <_printf_i+0x208>
 800730c:	f04f 30ff 	mov.w	r0, #4294967295	@ 0xffffffff
 8007310:	b005      	add	sp, #20
 8007312:	e8bd 83f0 	ldmia.w	sp!, {r4, r5, r6, r7, r8, r9, pc}
 8007316:	6823      	ldr	r3, [r4, #0]
 8007318:	f043 0320 	orr.w	r3, r3, #32
 800731c:	6023      	str	r3, [r4, #0]
 800731e:	f8df c0dc 	ldr.w	ip, [pc, #220]	@ 80073fc <_printf_i+0x250>
 8007322:	2378      	movs	r3, #120	@ 0x78
 8007324:	f884 3045 	strb.w	r3, [r4, #69]	@ 0x45
 8007328:	6820      	ldr	r0, [r4, #0]
 800732a:	6815      	ldr	r5, [r2, #0]
 800732c:	f010 0f80 	tst.w	r0, #128	@ 0x80
 8007330:	f855 3b04 	ldr.w	r3, [r5], #4
 8007334:	d103      	bne.n	800733e <_printf_i+0x192>
 8007336:	f010 0f40 	tst.w	r0, #64	@ 0x40
 800733a:	bf18      	it	ne
 800733c:	b29b      	uxthne	r3, r3
 800733e:	6015      	str	r5, [r2, #0]
 8007340:	07c5      	lsls	r5, r0, #31
 8007342:	bf44      	itt	mi
 8007344:	f040 0020 	orrmi.w	r0, r0, #32
 8007348:	6020      	strmi	r0, [r4, #0]
 800734a:	b123      	cbz	r3, 8007356 <_printf_i+0x1aa>
 800734c:	2210      	movs	r2, #16
 800734e:	e7aa      	b.n	80072a6 <_printf_i+0xfa>
 8007350:	f8df c0a4 	ldr.w	ip, [pc, #164]	@ 80073f8 <_printf_i+0x24c>
 8007354:	e7e6      	b.n	8007324 <_printf_i+0x178>
 8007356:	6822      	ldr	r2, [r4, #0]
 8007358:	f022 0220 	bic.w	r2, r2, #32
 800735c:	6022      	str	r2, [r4, #0]
 800735e:	e7f5      	b.n	800734c <_printf_i+0x1a0>
 8007360:	220a      	movs	r2, #10
 8007362:	e7a0      	b.n	80072a6 <_printf_i+0xfa>
 8007364:	460d      	mov	r5, r1
 8007366:	e7b7      	b.n	80072d8 <_printf_i+0x12c>
 8007368:	6813      	ldr	r3, [r2, #0]
 800736a:	f8d4 c000 	ldr.w	ip, [r4]
 800736e:	6960      	ldr	r0, [r4, #20]
 8007370:	1d1d      	adds	r5, r3, #4
 8007372:	6015      	str	r5, [r2, #0]
 8007374:	f01c 0f80 	tst.w	ip, #128	@ 0x80
 8007378:	681b      	ldr	r3, [r3, #0]
 800737a:	d001      	beq.n	8007380 <_printf_i+0x1d4>
 800737c:	6018      	str	r0, [r3, #0]
 800737e:	e003      	b.n	8007388 <_printf_i+0x1dc>
 8007380:	f01c 0f40 	tst.w	ip, #64	@ 0x40
 8007384:	d0fa      	beq.n	800737c <_printf_i+0x1d0>
 8007386:	8018      	strh	r0, [r3, #0]
 8007388:	2300      	movs	r3, #0
 800738a:	6123      	str	r3, [r4, #16]
 800738c:	460d      	mov	r5, r1
 800738e:	e7b3      	b.n	80072f8 <_printf_i+0x14c>
 8007390:	6813      	ldr	r3, [r2, #0]
 8007392:	1d19      	adds	r1, r3, #4
 8007394:	6011      	str	r1, [r2, #0]
 8007396:	681d      	ldr	r5, [r3, #0]
 8007398:	6862      	ldr	r2, [r4, #4]
 800739a:	2100      	movs	r1, #0
 800739c:	4628      	mov	r0, r5
 800739e:	f7f8 feff 	bl	80001a0 <memchr>
 80073a2:	b108      	cbz	r0, 80073a8 <_printf_i+0x1fc>
 80073a4:	1b40      	subs	r0, r0, r5
 80073a6:	6060      	str	r0, [r4, #4]
 80073a8:	6863      	ldr	r3, [r4, #4]
 80073aa:	6123      	str	r3, [r4, #16]
 80073ac:	2300      	movs	r3, #0
 80073ae:	f884 3043 	strb.w	r3, [r4, #67]	@ 0x43
 80073b2:	e7a1      	b.n	80072f8 <_printf_i+0x14c>
 80073b4:	6923      	ldr	r3, [r4, #16]
 80073b6:	462a      	mov	r2, r5
 80073b8:	4639      	mov	r1, r7
 80073ba:	4630      	mov	r0, r6
 80073bc:	47c0      	blx	r8
 80073be:	3001      	adds	r0, #1
 80073c0:	d0a4      	beq.n	800730c <_printf_i+0x160>
 80073c2:	6823      	ldr	r3, [r4, #0]
 80073c4:	079b      	lsls	r3, r3, #30
 80073c6:	d414      	bmi.n	80073f2 <_printf_i+0x246>
 80073c8:	68e0      	ldr	r0, [r4, #12]
 80073ca:	9b03      	ldr	r3, [sp, #12]
 80073cc:	4298      	cmp	r0, r3
 80073ce:	bfb8      	it	lt
 80073d0:	4618      	movlt	r0, r3
 80073d2:	e79d      	b.n	8007310 <_printf_i+0x164>
 80073d4:	2301      	movs	r3, #1
 80073d6:	f104 0219 	add.w	r2, r4, #25
 80073da:	4639      	mov	r1, r7
 80073dc:	4630      	mov	r0, r6
 80073de:	47c0      	blx	r8
 80073e0:	3001      	adds	r0, #1
 80073e2:	d093      	beq.n	800730c <_printf_i+0x160>
 80073e4:	3501      	adds	r5, #1
 80073e6:	68e3      	ldr	r3, [r4, #12]
 80073e8:	9903      	ldr	r1, [sp, #12]
 80073ea:	1a5b      	subs	r3, r3, r1
 80073ec:	42ab      	cmp	r3, r5
 80073ee:	dcf1      	bgt.n	80073d4 <_printf_i+0x228>
 80073f0:	e7ea      	b.n	80073c8 <_printf_i+0x21c>
 80073f2:	2500      	movs	r5, #0
 80073f4:	e7f7      	b.n	80073e6 <_printf_i+0x23a>
 80073f6:	bf00      	nop
 80073f8:	08007fc2 	.word	0x08007fc2
 80073fc:	08007fd3 	.word	0x08007fd3

08007400 <memmove>:
 8007400:	4288      	cmp	r0, r1
 8007402:	b510      	push	{r4, lr}
 8007404:	eb01 0402 	add.w	r4, r1, r2
 8007408:	d902      	bls.n	8007410 <memmove+0x10>
 800740a:	4284      	cmp	r4, r0
 800740c:	4623      	mov	r3, r4
 800740e:	d807      	bhi.n	8007420 <memmove+0x20>
 8007410:	1e43      	subs	r3, r0, #1
 8007412:	42a1      	cmp	r1, r4
 8007414:	d007      	beq.n	8007426 <memmove+0x26>
 8007416:	f811 2b01 	ldrb.w	r2, [r1], #1
 800741a:	f803 2f01 	strb.w	r2, [r3, #1]!
 800741e:	e7f8      	b.n	8007412 <memmove+0x12>
 8007420:	4402      	add	r2, r0
 8007422:	4282      	cmp	r2, r0
 8007424:	d100      	bne.n	8007428 <memmove+0x28>
 8007426:	bd10      	pop	{r4, pc}
 8007428:	f813 1d01 	ldrb.w	r1, [r3, #-1]!
 800742c:	f802 1d01 	strb.w	r1, [r2, #-1]!
 8007430:	e7f7      	b.n	8007422 <memmove+0x22>
	...

08007434 <_sbrk_r>:
 8007434:	b538      	push	{r3, r4, r5, lr}
 8007436:	4c06      	ldr	r4, [pc, #24]	@ (8007450 <_sbrk_r+0x1c>)
 8007438:	2300      	movs	r3, #0
 800743a:	4605      	mov	r5, r0
 800743c:	4608      	mov	r0, r1
 800743e:	6023      	str	r3, [r4, #0]
 8007440:	f7ff fa72 	bl	8006928 <_sbrk>
 8007444:	1c43      	adds	r3, r0, #1
 8007446:	d102      	bne.n	800744e <_sbrk_r+0x1a>
 8007448:	6823      	ldr	r3, [r4, #0]
 800744a:	b103      	cbz	r3, 800744e <_sbrk_r+0x1a>
 800744c:	602b      	str	r3, [r5, #0]
 800744e:	bd38      	pop	{r3, r4, r5, pc}
 8007450:	20012fb8 	.word	0x20012fb8

08007454 <_realloc_r>:
 8007454:	e92d 41f0 	stmdb	sp!, {r4, r5, r6, r7, r8, lr}
 8007458:	4607      	mov	r7, r0
 800745a:	4615      	mov	r5, r2
 800745c:	460c      	mov	r4, r1
 800745e:	b921      	cbnz	r1, 800746a <_realloc_r+0x16>
 8007460:	e8bd 41f0 	ldmia.w	sp!, {r4, r5, r6, r7, r8, lr}
 8007464:	4611      	mov	r1, r2
 8007466:	f7ff bc4b 	b.w	8006d00 <_malloc_r>
 800746a:	b92a      	cbnz	r2, 8007478 <_realloc_r+0x24>
 800746c:	f7ff fbda 	bl	8006c24 <_free_r>
 8007470:	462c      	mov	r4, r5
 8007472:	4620      	mov	r0, r4
 8007474:	e8bd 81f0 	ldmia.w	sp!, {r4, r5, r6, r7, r8, pc}
 8007478:	f000 f81a 	bl	80074b0 <_malloc_usable_size_r>
 800747c:	4285      	cmp	r5, r0
 800747e:	4606      	mov	r6, r0
 8007480:	d802      	bhi.n	8007488 <_realloc_r+0x34>
 8007482:	ebb5 0f50 	cmp.w	r5, r0, lsr #1
 8007486:	d8f4      	bhi.n	8007472 <_realloc_r+0x1e>
 8007488:	4629      	mov	r1, r5
 800748a:	4638      	mov	r0, r7
 800748c:	f7ff fc38 	bl	8006d00 <_malloc_r>
 8007490:	4680      	mov	r8, r0
 8007492:	b908      	cbnz	r0, 8007498 <_realloc_r+0x44>
 8007494:	4644      	mov	r4, r8
 8007496:	e7ec      	b.n	8007472 <_realloc_r+0x1e>
 8007498:	42b5      	cmp	r5, r6
 800749a:	462a      	mov	r2, r5
 800749c:	4621      	mov	r1, r4
 800749e:	bf28      	it	cs
 80074a0:	4632      	movcs	r2, r6
 80074a2:	f7ff fbb1 	bl	8006c08 <memcpy>
 80074a6:	4621      	mov	r1, r4
 80074a8:	4638      	mov	r0, r7
 80074aa:	f7ff fbbb 	bl	8006c24 <_free_r>
 80074ae:	e7f1      	b.n	8007494 <_realloc_r+0x40>

080074b0 <_malloc_usable_size_r>:
 80074b0:	f851 3c04 	ldr.w	r3, [r1, #-4]
 80074b4:	1f18      	subs	r0, r3, #4
 80074b6:	2b00      	cmp	r3, #0
 80074b8:	bfbc      	itt	lt
 80074ba:	580b      	ldrlt	r3, [r1, r0]
 80074bc:	18c0      	addlt	r0, r0, r3
 80074be:	4770      	bx	lr

080074c0 <__udivmoddi4>:
 80074c0:	e92d 47f0 	stmdb	sp!, {r4, r5, r6, r7, r8, r9, sl, lr}
 80074c4:	b082      	sub	sp, #8
 80074c6:	4606      	mov	r6, r0
 80074c8:	f8dd e028 	ldr.w	lr, [sp, #40]	@ 0x28
 80074cc:	4608      	mov	r0, r1
 80074ce:	46b4      	mov	ip, r6
 80074d0:	460d      	mov	r5, r1
 80074d2:	2b00      	cmp	r3, #0
 80074d4:	d14e      	bne.n	8007574 <__udivmoddi4+0xb4>
 80074d6:	428a      	cmp	r2, r1
 80074d8:	4614      	mov	r4, r2
 80074da:	d96d      	bls.n	80075b8 <__udivmoddi4+0xf8>
 80074dc:	fab2 f282 	clz	r2, r2
 80074e0:	b142      	cbz	r2, 80074f4 <__udivmoddi4+0x34>
 80074e2:	f1c2 0320 	rsb	r3, r2, #32
 80074e6:	4095      	lsls	r5, r2
 80074e8:	fa26 f303 	lsr.w	r3, r6, r3
 80074ec:	4094      	lsls	r4, r2
 80074ee:	431d      	orrs	r5, r3
 80074f0:	fa06 fc02 	lsl.w	ip, r6, r2
 80074f4:	0c26      	lsrs	r6, r4, #16
 80074f6:	b2a7      	uxth	r7, r4
 80074f8:	fbb5 f1f6 	udiv	r1, r5, r6
 80074fc:	ea4f 431c 	mov.w	r3, ip, lsr #16
 8007500:	fb06 5511 	mls	r5, r6, r1, r5
 8007504:	ea43 4305 	orr.w	r3, r3, r5, lsl #16
 8007508:	fb01 f007 	mul.w	r0, r1, r7
 800750c:	4298      	cmp	r0, r3
 800750e:	d909      	bls.n	8007524 <__udivmoddi4+0x64>
 8007510:	18e3      	adds	r3, r4, r3
 8007512:	f101 35ff 	add.w	r5, r1, #4294967295	@ 0xffffffff
 8007516:	f080 8103 	bcs.w	8007720 <__udivmoddi4+0x260>
 800751a:	4298      	cmp	r0, r3
 800751c:	f240 8100 	bls.w	8007720 <__udivmoddi4+0x260>
 8007520:	3902      	subs	r1, #2
 8007522:	4423      	add	r3, r4
 8007524:	1a1b      	subs	r3, r3, r0
 8007526:	fa1f fc8c 	uxth.w	ip, ip
 800752a:	fbb3 f0f6 	udiv	r0, r3, r6
 800752e:	fb06 3310 	mls	r3, r6, r0, r3
 8007532:	ea4c 4c03 	orr.w	ip, ip, r3, lsl #16
 8007536:	fb00 f307 	mul.w	r3, r0, r7
 800753a:	4563      	cmp	r3, ip
 800753c:	d90a      	bls.n	8007554 <__udivmoddi4+0x94>
 800753e:	eb14 0c0c 	adds.w	ip, r4, ip
 8007542:	f100 35ff 	add.w	r5, r0, #4294967295	@ 0xffffffff
 8007546:	f080 80ed 	bcs.w	8007724 <__udivmoddi4+0x264>
 800754a:	4563      	cmp	r3, ip
 800754c:	f240 80ea 	bls.w	8007724 <__udivmoddi4+0x264>
 8007550:	44a4      	add	ip, r4
 8007552:	3802      	subs	r0, #2
 8007554:	ea40 4001 	orr.w	r0, r0, r1, lsl #16
 8007558:	ebac 0c03 	sub.w	ip, ip, r3
 800755c:	2100      	movs	r1, #0
 800755e:	f1be 0f00 	cmp.w	lr, #0
 8007562:	d004      	beq.n	800756e <__udivmoddi4+0xae>
 8007564:	fa2c f302 	lsr.w	r3, ip, r2
 8007568:	2200      	movs	r2, #0
 800756a:	e9ce 3200 	strd	r3, r2, [lr]
 800756e:	b002      	add	sp, #8
 8007570:	e8bd 87f0 	ldmia.w	sp!, {r4, r5, r6, r7, r8, r9, sl, pc}
 8007574:	428b      	cmp	r3, r1
 8007576:	d909      	bls.n	800758c <__udivmoddi4+0xcc>
 8007578:	f1be 0f00 	cmp.w	lr, #0
 800757c:	d001      	beq.n	8007582 <__udivmoddi4+0xc2>
 800757e:	e9ce 6100 	strd	r6, r1, [lr]
 8007582:	2100      	movs	r1, #0
 8007584:	4608      	mov	r0, r1
 8007586:	b002      	add	sp, #8
 8007588:	e8bd 87f0 	ldmia.w	sp!, {r4, r5, r6, r7, r8, r9, sl, pc}
 800758c:	fab3 f183 	clz	r1, r3
 8007590:	4617      	mov	r7, r2
 8007592:	2900      	cmp	r1, #0
 8007594:	d14d      	bne.n	8007632 <__udivmoddi4+0x172>
 8007596:	4283      	cmp	r3, r0
 8007598:	d302      	bcc.n	80075a0 <__udivmoddi4+0xe0>
 800759a:	42b2      	cmp	r2, r6
 800759c:	f200 810f 	bhi.w	80077be <__udivmoddi4+0x2fe>
 80075a0:	ebb6 0c07 	subs.w	ip, r6, r7
 80075a4:	eb60 0303 	sbc.w	r3, r0, r3
 80075a8:	2001      	movs	r0, #1
 80075aa:	461d      	mov	r5, r3
 80075ac:	f1be 0f00 	cmp.w	lr, #0
 80075b0:	d0dd      	beq.n	800756e <__udivmoddi4+0xae>
 80075b2:	e9ce c500 	strd	ip, r5, [lr]
 80075b6:	e7da      	b.n	800756e <__udivmoddi4+0xae>
 80075b8:	2a00      	cmp	r2, #0
 80075ba:	f000 8098 	beq.w	80076ee <__udivmoddi4+0x22e>
 80075be:	461a      	mov	r2, r3
 80075c0:	fab4 f384 	clz	r3, r4
 80075c4:	2b00      	cmp	r3, #0
 80075c6:	f040 80af 	bne.w	8007728 <__udivmoddi4+0x268>
 80075ca:	1b0b      	subs	r3, r1, r4
 80075cc:	0c27      	lsrs	r7, r4, #16
 80075ce:	b2a6      	uxth	r6, r4
 80075d0:	2101      	movs	r1, #1
 80075d2:	fbb3 f5f7 	udiv	r5, r3, r7
 80075d6:	ea4f 401c 	mov.w	r0, ip, lsr #16
 80075da:	fb07 3315 	mls	r3, r7, r5, r3
 80075de:	ea40 4303 	orr.w	r3, r0, r3, lsl #16
 80075e2:	fb06 f805 	mul.w	r8, r6, r5
 80075e6:	4598      	cmp	r8, r3
 80075e8:	d907      	bls.n	80075fa <__udivmoddi4+0x13a>
 80075ea:	18e3      	adds	r3, r4, r3
 80075ec:	f105 30ff 	add.w	r0, r5, #4294967295	@ 0xffffffff
 80075f0:	d202      	bcs.n	80075f8 <__udivmoddi4+0x138>
 80075f2:	4598      	cmp	r8, r3
 80075f4:	f200 80e8 	bhi.w	80077c8 <__udivmoddi4+0x308>
 80075f8:	4605      	mov	r5, r0
 80075fa:	eba3 0308 	sub.w	r3, r3, r8
 80075fe:	fa1f fc8c 	uxth.w	ip, ip
 8007602:	fbb3 f0f7 	udiv	r0, r3, r7
 8007606:	fb07 3310 	mls	r3, r7, r0, r3
 800760a:	ea4c 4c03 	orr.w	ip, ip, r3, lsl #16
 800760e:	fb06 f300 	mul.w	r3, r6, r0
 8007612:	4563      	cmp	r3, ip
 8007614:	d908      	bls.n	8007628 <__udivmoddi4+0x168>
 8007616:	eb14 0c0c 	adds.w	ip, r4, ip
 800761a:	f100 36ff 	add.w	r6, r0, #4294967295	@ 0xffffffff
 800761e:	d202      	bcs.n	8007626 <__udivmoddi4+0x166>
 8007620:	4563      	cmp	r3, ip
 8007622:	f200 80ce 	bhi.w	80077c2 <__udivmoddi4+0x302>
 8007626:	4630      	mov	r0, r6
 8007628:	ebac 0c03 	sub.w	ip, ip, r3
 800762c:	ea40 4005 	orr.w	r0, r0, r5, lsl #16
 8007630:	e795      	b.n	800755e <__udivmoddi4+0x9e>
 8007632:	f1c1 0520 	rsb	r5, r1, #32
 8007636:	408b      	lsls	r3, r1
 8007638:	fa22 fc05 	lsr.w	ip, r2, r5
 800763c:	ea4c 0c03 	orr.w	ip, ip, r3
 8007640:	fa00 f401 	lsl.w	r4, r0, r1
 8007644:	fa26 f305 	lsr.w	r3, r6, r5
 8007648:	40e8      	lsrs	r0, r5
 800764a:	fa02 f901 	lsl.w	r9, r2, r1
 800764e:	ea43 0804 	orr.w	r8, r3, r4
 8007652:	ea4f 421c 	mov.w	r2, ip, lsr #16
 8007656:	fa06 fa01 	lsl.w	sl, r6, r1
 800765a:	fbb0 f7f2 	udiv	r7, r0, r2
 800765e:	fa1f f68c 	uxth.w	r6, ip
 8007662:	fb02 0017 	mls	r0, r2, r7, r0
 8007666:	ea4f 4418 	mov.w	r4, r8, lsr #16
 800766a:	ea44 4400 	orr.w	r4, r4, r0, lsl #16
 800766e:	fb07 f006 	mul.w	r0, r7, r6
 8007672:	42a0      	cmp	r0, r4
 8007674:	d90a      	bls.n	800768c <__udivmoddi4+0x1cc>
 8007676:	eb1c 0404 	adds.w	r4, ip, r4
 800767a:	f107 33ff 	add.w	r3, r7, #4294967295	@ 0xffffffff
 800767e:	f080 809c 	bcs.w	80077ba <__udivmoddi4+0x2fa>
 8007682:	42a0      	cmp	r0, r4
 8007684:	f240 8099 	bls.w	80077ba <__udivmoddi4+0x2fa>
 8007688:	3f02      	subs	r7, #2
 800768a:	4464      	add	r4, ip
 800768c:	1a24      	subs	r4, r4, r0
 800768e:	fa1f f388 	uxth.w	r3, r8
 8007692:	fbb4 f0f2 	udiv	r0, r4, r2
 8007696:	fb02 4410 	mls	r4, r2, r0, r4
 800769a:	ea43 4304 	orr.w	r3, r3, r4, lsl #16
 800769e:	fb00 f606 	mul.w	r6, r0, r6
 80076a2:	429e      	cmp	r6, r3
 80076a4:	d909      	bls.n	80076ba <__udivmoddi4+0x1fa>
 80076a6:	eb1c 0303 	adds.w	r3, ip, r3
 80076aa:	f100 34ff 	add.w	r4, r0, #4294967295	@ 0xffffffff
 80076ae:	f080 8082 	bcs.w	80077b6 <__udivmoddi4+0x2f6>
 80076b2:	429e      	cmp	r6, r3
 80076b4:	d97f      	bls.n	80077b6 <__udivmoddi4+0x2f6>
 80076b6:	3802      	subs	r0, #2
 80076b8:	4463      	add	r3, ip
 80076ba:	ea40 4007 	orr.w	r0, r0, r7, lsl #16
 80076be:	fba0 7409 	umull	r7, r4, r0, r9
 80076c2:	1b9b      	subs	r3, r3, r6
 80076c4:	42a3      	cmp	r3, r4
 80076c6:	463e      	mov	r6, r7
 80076c8:	46a0      	mov	r8, r4
 80076ca:	d364      	bcc.n	8007796 <__udivmoddi4+0x2d6>
 80076cc:	d061      	beq.n	8007792 <__udivmoddi4+0x2d2>
 80076ce:	f1be 0f00 	cmp.w	lr, #0
 80076d2:	d00a      	beq.n	80076ea <__udivmoddi4+0x22a>
 80076d4:	ebba 0206 	subs.w	r2, sl, r6
 80076d8:	eb63 0308 	sbc.w	r3, r3, r8
 80076dc:	fa03 f505 	lsl.w	r5, r3, r5
 80076e0:	40ca      	lsrs	r2, r1
 80076e2:	4315      	orrs	r5, r2
 80076e4:	40cb      	lsrs	r3, r1
 80076e6:	e9ce 5300 	strd	r5, r3, [lr]
 80076ea:	2100      	movs	r1, #0
 80076ec:	e73f      	b.n	800756e <__udivmoddi4+0xae>
 80076ee:	0873      	lsrs	r3, r6, #1
 80076f0:	ea43 73c1 	orr.w	r3, r3, r1, lsl #31
 80076f4:	084a      	lsrs	r2, r1, #1
 80076f6:	0c19      	lsrs	r1, r3, #16
 80076f8:	ea41 4102 	orr.w	r1, r1, r2, lsl #16
 80076fc:	ea4f 7cc6 	mov.w	ip, r6, lsl #31
 8007700:	b29b      	uxth	r3, r3
 8007702:	fbb2 f0f4 	udiv	r0, r2, r4
 8007706:	4626      	mov	r6, r4
 8007708:	46a0      	mov	r8, r4
 800770a:	4627      	mov	r7, r4
 800770c:	221f      	movs	r2, #31
 800770e:	ea43 4301 	orr.w	r3, r3, r1, lsl #16
 8007712:	fbb1 f1f4 	udiv	r1, r1, r4
 8007716:	eba3 0308 	sub.w	r3, r3, r8
 800771a:	ea41 4100 	orr.w	r1, r1, r0, lsl #16
 800771e:	e758      	b.n	80075d2 <__udivmoddi4+0x112>
 8007720:	4629      	mov	r1, r5
 8007722:	e6ff      	b.n	8007524 <__udivmoddi4+0x64>
 8007724:	4628      	mov	r0, r5
 8007726:	e715      	b.n	8007554 <__udivmoddi4+0x94>
 8007728:	461a      	mov	r2, r3
 800772a:	f1c3 0120 	rsb	r1, r3, #32
 800772e:	409c      	lsls	r4, r3
 8007730:	fa26 f301 	lsr.w	r3, r6, r1
 8007734:	fa20 f101 	lsr.w	r1, r0, r1
 8007738:	4090      	lsls	r0, r2
 800773a:	4303      	orrs	r3, r0
 800773c:	0c27      	lsrs	r7, r4, #16
 800773e:	fa06 fc02 	lsl.w	ip, r6, r2
 8007742:	fbb1 f0f7 	udiv	r0, r1, r7
 8007746:	b2a6      	uxth	r6, r4
 8007748:	fb07 1510 	mls	r5, r7, r0, r1
 800774c:	0c19      	lsrs	r1, r3, #16
 800774e:	ea41 4105 	orr.w	r1, r1, r5, lsl #16
 8007752:	fb00 f506 	mul.w	r5, r0, r6
 8007756:	428d      	cmp	r5, r1
 8007758:	d93b      	bls.n	80077d2 <__udivmoddi4+0x312>
 800775a:	1861      	adds	r1, r4, r1
 800775c:	d201      	bcs.n	8007762 <__udivmoddi4+0x2a2>
 800775e:	428d      	cmp	r5, r1
 8007760:	d820      	bhi.n	80077a4 <__udivmoddi4+0x2e4>
 8007762:	1b49      	subs	r1, r1, r5
 8007764:	3801      	subs	r0, #1
 8007766:	fbb1 f5f7 	udiv	r5, r1, r7
 800776a:	9501      	str	r5, [sp, #4]
 800776c:	fb05 f806 	mul.w	r8, r5, r6
 8007770:	9d01      	ldr	r5, [sp, #4]
 8007772:	b29b      	uxth	r3, r3
 8007774:	fb07 1115 	mls	r1, r7, r5, r1
 8007778:	ea43 4301 	orr.w	r3, r3, r1, lsl #16
 800777c:	4543      	cmp	r3, r8
 800777e:	d226      	bcs.n	80077ce <__udivmoddi4+0x30e>
 8007780:	18e3      	adds	r3, r4, r3
 8007782:	f105 31ff 	add.w	r1, r5, #4294967295	@ 0xffffffff
 8007786:	d2c6      	bcs.n	8007716 <__udivmoddi4+0x256>
 8007788:	4543      	cmp	r3, r8
 800778a:	d2c4      	bcs.n	8007716 <__udivmoddi4+0x256>
 800778c:	1ea9      	subs	r1, r5, #2
 800778e:	4423      	add	r3, r4
 8007790:	e7c1      	b.n	8007716 <__udivmoddi4+0x256>
 8007792:	45ba      	cmp	sl, r7
 8007794:	d29b      	bcs.n	80076ce <__udivmoddi4+0x20e>
 8007796:	ebb7 0609 	subs.w	r6, r7, r9
 800779a:	eb64 040c 	sbc.w	r4, r4, ip
 800779e:	3801      	subs	r0, #1
 80077a0:	46a0      	mov	r8, r4
 80077a2:	e794      	b.n	80076ce <__udivmoddi4+0x20e>
 80077a4:	1b65      	subs	r5, r4, r5
 80077a6:	4429      	add	r1, r5
 80077a8:	3802      	subs	r0, #2
 80077aa:	fbb1 f5f7 	udiv	r5, r1, r7
 80077ae:	9501      	str	r5, [sp, #4]
 80077b0:	fb05 f806 	mul.w	r8, r5, r6
 80077b4:	e7dc      	b.n	8007770 <__udivmoddi4+0x2b0>
 80077b6:	4620      	mov	r0, r4
 80077b8:	e77f      	b.n	80076ba <__udivmoddi4+0x1fa>
 80077ba:	461f      	mov	r7, r3
 80077bc:	e766      	b.n	800768c <__udivmoddi4+0x1cc>
 80077be:	4608      	mov	r0, r1
 80077c0:	e6f4      	b.n	80075ac <__udivmoddi4+0xec>
 80077c2:	44a4      	add	ip, r4
 80077c4:	3802      	subs	r0, #2
 80077c6:	e72f      	b.n	8007628 <__udivmoddi4+0x168>
 80077c8:	3d02      	subs	r5, #2
 80077ca:	4423      	add	r3, r4
 80077cc:	e715      	b.n	80075fa <__udivmoddi4+0x13a>
 80077ce:	9901      	ldr	r1, [sp, #4]
 80077d0:	e7a1      	b.n	8007716 <__udivmoddi4+0x256>
 80077d2:	1b49      	subs	r1, r1, r5
 80077d4:	fbb1 f5f7 	udiv	r5, r1, r7
 80077d8:	9501      	str	r5, [sp, #4]
 80077da:	fb05 f806 	mul.w	r8, r5, r6
 80077de:	e7c7      	b.n	8007770 <__udivmoddi4+0x2b0>

080077e0 <_init>:
 80077e0:	b5f8      	push	{r3, r4, r5, r6, r7, lr}
 80077e2:	bf00      	nop
 80077e4:	bcf8      	pop	{r3, r4, r5, r6, r7}
 80077e6:	bc08      	pop	{r3}
 80077e8:	469e      	mov	lr, r3
 80077ea:	4770      	bx	lr

080077ec <_fini>:
 80077ec:	b5f8      	push	{r3, r4, r5, r6, r7, lr}
 80077ee:	bf00      	nop
 80077f0:	bcf8      	pop	{r3, r4, r5, r6, r7}
 80077f2:	bc08      	pop	{r3}
 80077f4:	469e      	mov	lr, r3
 80077f6:	4770      	bx	lr
