
build/debug/L4_V3.elf:     file format elf32-littlearm

Sections:
Idx Name          Size      VMA       LMA       File off  Algn
  0 .isr_vector   00000188  08000000  08000000  00001000  2**0
                  CONTENTS, ALLOC, LOAD, READONLY, DATA
  1 .text         00008a20  08000190  08000190  00001190  2**4
                  CONTENTS, ALLOC, LOAD, READONLY, CODE
  2 .rodata       00000828  08008bb0  08008bb0  00009bb0  2**2
                  CONTENTS, ALLOC, LOAD, READONLY, DATA
  3 .ARM.extab    00000000  080093d8  080093d8  0000b060  2**0
                  CONTENTS, READONLY
  4 .ARM          00000008  080093d8  080093d8  0000a3d8  2**2
                  CONTENTS, ALLOC, LOAD, READONLY, DATA
  5 .preinit_array 00000000  080093e0  080093e0  0000b060  2**0
                  CONTENTS, ALLOC, LOAD, DATA
  6 .init_array   00000008  080093e0  080093e0  0000a3e0  2**2
                  CONTENTS, ALLOC, LOAD, READONLY, DATA
  7 .fini_array   00000008  080093e8  080093e8  0000a3e8  2**2
                  CONTENTS, ALLOC, LOAD, READONLY, DATA
  8 .data         00000060  20000000  080093f0  0000b000  2**2
                  CONTENTS, ALLOC, LOAD, DATA
  9 .bss          00001274  20000060  08009450  0000b060  2**3
                  ALLOC
 10 ._user_heap_stack 00000604  200012d4  08009450  0000b2d4  2**0
                  ALLOC
 11 .ARM.attributes 00000030  00000000  00000000  0000b060  2**0
                  CONTENTS, READONLY
 12 .comment      00000039  00000000  00000000  0000b090  2**0
                  CONTENTS, READONLY
 13 .debug_info   00025672  00000000  00000000  0000b0c9  2**0
                  CONTENTS, READONLY, DEBUGGING, OCTETS
 14 .debug_abbrev 00003e78  00000000  00000000  0003073b  2**0
                  CONTENTS, READONLY, DEBUGGING, OCTETS
 15 .debug_loclists 00015398  00000000  00000000  000345b3  2**0
                  CONTENTS, READONLY, DEBUGGING, OCTETS
 16 .debug_aranges 00001748  00000000  00000000  00049950  2**3
                  CONTENTS, READONLY, DEBUGGING, OCTETS
 17 .debug_rnglists 00001257  00000000  00000000  0004b098  2**0
                  CONTENTS, READONLY, DEBUGGING, OCTETS
 18 .debug_line   00020ed8  00000000  00000000  0004c2ef  2**0
                  CONTENTS, READONLY, DEBUGGING, OCTETS
 19 .debug_str    000066b7  00000000  00000000  0006d1c7  2**0
                  CONTENTS, READONLY, DEBUGGING, OCTETS
 20 .debug_frame  00004240  00000000  00000000  00073880  2**2
                  CONTENTS, READONLY, DEBUGGING, OCTETS
 21 .debug_line_str 00000051  00000000  00000000  00077ac0  2**0
                  CONTENTS, READONLY, DEBUGGING, OCTETS

Disassembly of section .text:

08000190 <strlen>:
 8000190:	4603      	mov	r3, r0
 8000192:	f813 2b01 	ldrb.w	r2, [r3], #1
 8000196:	2a00      	cmp	r2, #0
 8000198:	d1fb      	bne.n	8000192 <strlen+0x2>
 800019a:	1a18      	subs	r0, r3, r0
 800019c:	3801      	subs	r0, #1
 800019e:	4770      	bx	lr

080001a0 <memchr>:
 80001a0:	f001 01ff 	and.w	r1, r1, #255	@ 0xff
 80001a4:	2a10      	cmp	r2, #16
 80001a6:	db2b      	blt.n	8000200 <memchr+0x60>
 80001a8:	f010 0f07 	tst.w	r0, #7
 80001ac:	d008      	beq.n	80001c0 <memchr+0x20>
 80001ae:	f810 3b01 	ldrb.w	r3, [r0], #1
 80001b2:	3a01      	subs	r2, #1
 80001b4:	428b      	cmp	r3, r1
 80001b6:	d02d      	beq.n	8000214 <memchr+0x74>
 80001b8:	f010 0f07 	tst.w	r0, #7
 80001bc:	b342      	cbz	r2, 8000210 <memchr+0x70>
 80001be:	d1f6      	bne.n	80001ae <memchr+0xe>
 80001c0:	b4f0      	push	{r4, r5, r6, r7}
 80001c2:	ea41 2101 	orr.w	r1, r1, r1, lsl #8
 80001c6:	ea41 4101 	orr.w	r1, r1, r1, lsl #16
 80001ca:	f022 0407 	bic.w	r4, r2, #7
 80001ce:	f07f 0700 	mvns.w	r7, #0
 80001d2:	2300      	movs	r3, #0
 80001d4:	e8f0 5602 	ldrd	r5, r6, [r0], #8
 80001d8:	3c08      	subs	r4, #8
 80001da:	ea85 0501 	eor.w	r5, r5, r1
 80001de:	ea86 0601 	eor.w	r6, r6, r1
 80001e2:	fa85 f547 	uadd8	r5, r5, r7
 80001e6:	faa3 f587 	sel	r5, r3, r7
 80001ea:	fa86 f647 	uadd8	r6, r6, r7
 80001ee:	faa5 f687 	sel	r6, r5, r7
 80001f2:	b98e      	cbnz	r6, 8000218 <memchr+0x78>
 80001f4:	d1ee      	bne.n	80001d4 <memchr+0x34>
 80001f6:	bcf0      	pop	{r4, r5, r6, r7}
 80001f8:	f001 01ff 	and.w	r1, r1, #255	@ 0xff
 80001fc:	f002 0207 	and.w	r2, r2, #7
 8000200:	b132      	cbz	r2, 8000210 <memchr+0x70>
 8000202:	f810 3b01 	ldrb.w	r3, [r0], #1
 8000206:	3a01      	subs	r2, #1
 8000208:	ea83 0301 	eor.w	r3, r3, r1
 800020c:	b113      	cbz	r3, 8000214 <memchr+0x74>
 800020e:	d1f8      	bne.n	8000202 <memchr+0x62>
 8000210:	2000      	movs	r0, #0
 8000212:	4770      	bx	lr
 8000214:	3801      	subs	r0, #1
 8000216:	4770      	bx	lr
 8000218:	2d00      	cmp	r5, #0
 800021a:	bf06      	itte	eq
 800021c:	4635      	moveq	r5, r6
 800021e:	3803      	subeq	r0, #3
 8000220:	3807      	subne	r0, #7
 8000222:	f015 0f01 	tst.w	r5, #1
 8000226:	d107      	bne.n	8000238 <memchr+0x98>
 8000228:	3001      	adds	r0, #1
 800022a:	f415 7f80 	tst.w	r5, #256	@ 0x100
 800022e:	bf02      	ittt	eq
 8000230:	3001      	addeq	r0, #1
 8000232:	f415 3fc0 	tsteq.w	r5, #98304	@ 0x18000
 8000236:	3001      	addeq	r0, #1
 8000238:	bcf0      	pop	{r4, r5, r6, r7}
 800023a:	3801      	subs	r0, #1
 800023c:	4770      	bx	lr
 800023e:	bf00      	nop

08000240 <__aeabi_uldivmod>:
 8000240:	b953      	cbnz	r3, 8000258 <__aeabi_uldivmod+0x18>
 8000242:	b94a      	cbnz	r2, 8000258 <__aeabi_uldivmod+0x18>
 8000244:	2900      	cmp	r1, #0
 8000246:	bf08      	it	eq
 8000248:	2800      	cmpeq	r0, #0
 800024a:	bf1c      	itt	ne
 800024c:	f04f 31ff 	movne.w	r1, #4294967295	@ 0xffffffff
 8000250:	f04f 30ff 	movne.w	r0, #4294967295	@ 0xffffffff
 8000254:	f000 b80c 	b.w	8000270 <__aeabi_idiv0>
 8000258:	f1ad 0c08 	sub.w	ip, sp, #8
 800025c:	e96d ce04 	strd	ip, lr, [sp, #-16]!
 8000260:	f008 fb0a 	bl	8008878 <__udivmoddi4>
 8000264:	f8dd e004 	ldr.w	lr, [sp, #4]
 8000268:	e9dd 2302 	ldrd	r2, r3, [sp, #8]
 800026c:	b004      	add	sp, #16
 800026e:	4770      	bx	lr

08000270 <__aeabi_idiv0>:
 8000270:	4770      	bx	lr
 8000272:	bf00      	nop

08000274 <__do_global_dtors_aux>:
 8000274:	b508      	push	{r3, lr}
 8000276:	4b06      	ldr	r3, [pc, #24]	@ (8000290 <__do_global_dtors_aux+0x1c>)
 8000278:	781a      	ldrb	r2, [r3, #0]
 800027a:	b93a      	cbnz	r2, 800028c <__do_global_dtors_aux+0x18>
 800027c:	4a05      	ldr	r2, [pc, #20]	@ (8000294 <__do_global_dtors_aux+0x20>)
 800027e:	b11a      	cbz	r2, 8000288 <__do_global_dtors_aux+0x14>
 8000280:	4805      	ldr	r0, [pc, #20]	@ (8000298 <__do_global_dtors_aux+0x24>)
 8000282:	f3af 8000 	nop.w
 8000286:	4b02      	ldr	r3, [pc, #8]	@ (8000290 <__do_global_dtors_aux+0x1c>)
 8000288:	2201      	movs	r2, #1
 800028a:	701a      	strb	r2, [r3, #0]
 800028c:	bd08      	pop	{r3, pc}
 800028e:	bf00      	nop
 8000290:	20000060 	.word	0x20000060
 8000294:	00000000 	.word	0x00000000
 8000298:	08008b98 	.word	0x08008b98

0800029c <frame_dummy>:
 800029c:	b508      	push	{r3, lr}
 800029e:	4b03      	ldr	r3, [pc, #12]	@ (80002ac <frame_dummy+0x10>)
 80002a0:	b11b      	cbz	r3, 80002aa <frame_dummy+0xe>
 80002a2:	4903      	ldr	r1, [pc, #12]	@ (80002b0 <frame_dummy+0x14>)
 80002a4:	4803      	ldr	r0, [pc, #12]	@ (80002b4 <frame_dummy+0x18>)
 80002a6:	f3af 8000 	nop.w
 80002aa:	bd08      	pop	{r3, pc}
 80002ac:	00000000 	.word	0x00000000
 80002b0:	20000064 	.word	0x20000064
 80002b4:	08008b98 	.word	0x08008b98

080002b8 <BSP_SD_ReadBlocks_DMA>:
  * @param  ReadAddr: Address from where data is to be read
  * @param  NumOfBlocks: Number of SD blocks to read
  * @retval SD status
  */
__weak uint8_t BSP_SD_ReadBlocks_DMA(uint32_t *pData, uint32_t ReadAddr, uint32_t NumOfBlocks)
{
 80002b8:	b508      	push	{r3, lr}
 80002ba:	4613      	mov	r3, r2
  uint8_t sd_state = MSD_OK;

  /* Read block(s) in DMA transfer mode */
  if (HAL_SD_ReadBlocks_DMA(&hsd1, (uint8_t *)pData, ReadAddr, NumOfBlocks) != HAL_OK)
 80002bc:	460a      	mov	r2, r1
 80002be:	4601      	mov	r1, r0
 80002c0:	4802      	ldr	r0, [pc, #8]	@ (80002cc <BSP_SD_ReadBlocks_DMA+0x14>)
 80002c2:	f006 fa1f 	bl	8006704 <HAL_SD_ReadBlocks_DMA>
 80002c6:	b100      	cbz	r0, 80002ca <BSP_SD_ReadBlocks_DMA+0x12>
  {
    sd_state = MSD_ERROR;
 80002c8:	2001      	movs	r0, #1
  }

  return sd_state;
}
 80002ca:	bd08      	pop	{r3, pc}
 80002cc:	20000a14 	.word	0x20000a14

080002d0 <BSP_SD_WriteBlocks_DMA>:
  * @param  WriteAddr: Address from where data is to be written
  * @param  NumOfBlocks: Number of SD blocks to write
  * @retval SD status
  */
__weak uint8_t BSP_SD_WriteBlocks_DMA(uint32_t *pData, uint32_t WriteAddr, uint32_t NumOfBlocks)
{
 80002d0:	b508      	push	{r3, lr}
 80002d2:	4613      	mov	r3, r2
  uint8_t sd_state = MSD_OK;

  /* Write block(s) in DMA transfer mode */
  if (HAL_SD_WriteBlocks_DMA(&hsd1, (uint8_t *)pData, WriteAddr, NumOfBlocks) != HAL_OK)
 80002d4:	460a      	mov	r2, r1
 80002d6:	4601      	mov	r1, r0
 80002d8:	4802      	ldr	r0, [pc, #8]	@ (80002e4 <BSP_SD_WriteBlocks_DMA+0x14>)
 80002da:	f006 faab 	bl	8006834 <HAL_SD_WriteBlocks_DMA>
 80002de:	b100      	cbz	r0, 80002e2 <BSP_SD_WriteBlocks_DMA+0x12>
  {
    sd_state = MSD_ERROR;
 80002e0:	2001      	movs	r0, #1
  }

  return sd_state;
}
 80002e2:	bd08      	pop	{r3, pc}
 80002e4:	20000a14 	.word	0x20000a14

080002e8 <BSP_SD_GetCardState>:
  *          This value can be one of the following values:
  *            @arg  SD_TRANSFER_OK: No data transfer is acting
  *            @arg  SD_TRANSFER_BUSY: Data transfer is acting
  */
__weak uint8_t BSP_SD_GetCardState(void)
{
 80002e8:	b508      	push	{r3, lr}
  return ((HAL_SD_GetCardState(&hsd1) == HAL_SD_CARD_TRANSFER ) ? SD_TRANSFER_OK : SD_TRANSFER_BUSY);
 80002ea:	4803      	ldr	r0, [pc, #12]	@ (80002f8 <BSP_SD_GetCardState+0x10>)
 80002ec:	f006 fdc3 	bl	8006e76 <HAL_SD_GetCardState>
}
 80002f0:	3804      	subs	r0, #4
 80002f2:	bf18      	it	ne
 80002f4:	2001      	movne	r0, #1
 80002f6:	bd08      	pop	{r3, pc}
 80002f8:	20000a14 	.word	0x20000a14

080002fc <BSP_SD_GetCardInfo>:
  * @brief  Get SD information about specific SD card.
  * @param  CardInfo: Pointer to HAL_SD_CardInfoTypedef structure
  * @retval None
  */
__weak void BSP_SD_GetCardInfo(BSP_SD_CardInfo *CardInfo)
{
 80002fc:	b508      	push	{r3, lr}
 80002fe:	4601      	mov	r1, r0
  /* Get SD card Information */
  HAL_SD_GetCardInfo(&hsd1, CardInfo);
 8000300:	4801      	ldr	r0, [pc, #4]	@ (8000308 <BSP_SD_GetCardInfo+0xc>)
 8000302:	f006 fcfd 	bl	8006d00 <HAL_SD_GetCardInfo>
}
 8000306:	bd08      	pop	{r3, pc}
 8000308:	20000a14 	.word	0x20000a14

0800030c <HAL_SD_RxCpltCallback>:
  * @brief Rx Transfer completed callback
  * @param hsd: SD handle
  * @retval None
  */
void HAL_SD_RxCpltCallback(SD_HandleTypeDef *hsd)
{
 800030c:	b508      	push	{r3, lr}
  BSP_SD_ReadCpltCallback();
 800030e:	f003 fa35 	bl	800377c <BSP_SD_ReadCpltCallback>
}
 8000312:	bd08      	pop	{r3, pc}

08000314 <BSP_SD_IsDetected>:
 * @brief  Detects if SD card is correctly plugged in the memory slot or not.
 * @param  None
 * @retval Returns if SD is detected or not
 */
__weak uint8_t BSP_SD_IsDetected(void)
{
 8000314:	b500      	push	{lr}
 8000316:	b083      	sub	sp, #12
  __IO uint8_t status = SD_PRESENT;
 8000318:	2301      	movs	r3, #1
 800031a:	f88d 3007 	strb.w	r3, [sp, #7]

  if (BSP_PlatformIsDetected() == 0x0)
 800031e:	f000 f8f3 	bl	8000508 <BSP_PlatformIsDetected>
 8000322:	b908      	cbnz	r0, 8000328 <BSP_SD_IsDetected+0x14>
  {
    status = SD_NOT_PRESENT;
 8000324:	f88d 0007 	strb.w	r0, [sp, #7]
  }

  return status;
 8000328:	f89d 0007 	ldrb.w	r0, [sp, #7]
}
 800032c:	b003      	add	sp, #12
 800032e:	bd00      	pop	{pc}

08000330 <BSP_SD_Init>:
{
 8000330:	b538      	push	{r3, r4, r5, lr}
  if (BSP_SD_IsDetected() != SD_PRESENT)
 8000332:	f7ff ffef 	bl	8000314 <BSP_SD_IsDetected>
 8000336:	2801      	cmp	r0, #1
 8000338:	d003      	beq.n	8000342 <BSP_SD_Init+0x12>
    return MSD_ERROR_SD_NOT_PRESENT;
 800033a:	2302      	movs	r3, #2
 800033c:	461c      	mov	r4, r3
}
 800033e:	4620      	mov	r0, r4
 8000340:	bd38      	pop	{r3, r4, r5, pc}
 8000342:	4605      	mov	r5, r0
  sd_state = HAL_SD_Init(&hsd1);
 8000344:	4807      	ldr	r0, [pc, #28]	@ (8000364 <BSP_SD_Init+0x34>)
 8000346:	f006 fd6d 	bl	8006e24 <HAL_SD_Init>
  if (sd_state == MSD_OK)
 800034a:	4604      	mov	r4, r0
 800034c:	2800      	cmp	r0, #0
 800034e:	d1f6      	bne.n	800033e <BSP_SD_Init+0xe>
    if (HAL_SD_ConfigWideBusOperation(&hsd1, SDMMC_BUS_WIDE_4B) != HAL_OK)
 8000350:	f44f 6100 	mov.w	r1, #2048	@ 0x800
 8000354:	4803      	ldr	r0, [pc, #12]	@ (8000364 <BSP_SD_Init+0x34>)
 8000356:	f006 fce5 	bl	8006d24 <HAL_SD_ConfigWideBusOperation>
 800035a:	2800      	cmp	r0, #0
 800035c:	d0ef      	beq.n	800033e <BSP_SD_Init+0xe>
      sd_state = MSD_ERROR;
 800035e:	462c      	mov	r4, r5
 8000360:	e7ed      	b.n	800033e <BSP_SD_Init+0xe>
 8000362:	bf00      	nop
 8000364:	20000a14 	.word	0x20000a14

08000368 <ff_convert>:
)
{
	WCHAR c;


	if (chr < 0x80) {	/* ASCII */
 8000368:	287f      	cmp	r0, #127	@ 0x7f
 800036a:	d917      	bls.n	800039c <ff_convert+0x34>
		c = chr;

	} else {
		if (dir) {		/* OEM code to Unicode */
 800036c:	b131      	cbz	r1, 800037c <ff_convert+0x14>
			c = (chr >= 0x100) ? 0 : Tbl[chr - 0x80];
 800036e:	28ff      	cmp	r0, #255	@ 0xff
 8000370:	d813      	bhi.n	800039a <ff_convert+0x32>
 8000372:	3880      	subs	r0, #128	@ 0x80
 8000374:	4b0a      	ldr	r3, [pc, #40]	@ (80003a0 <ff_convert+0x38>)
 8000376:	f833 0010 	ldrh.w	r0, [r3, r0, lsl #1]
 800037a:	4770      	bx	lr

		} else {		/* Unicode to OEM code */
			for (c = 0; c < 0x80; c++) {
 800037c:	460b      	mov	r3, r1
 800037e:	2b7f      	cmp	r3, #127	@ 0x7f
 8000380:	d807      	bhi.n	8000392 <ff_convert+0x2a>
				if (chr == Tbl[c]) break;
 8000382:	4a07      	ldr	r2, [pc, #28]	@ (80003a0 <ff_convert+0x38>)
 8000384:	f832 2013 	ldrh.w	r2, [r2, r3, lsl #1]
 8000388:	4282      	cmp	r2, r0
 800038a:	d002      	beq.n	8000392 <ff_convert+0x2a>
			for (c = 0; c < 0x80; c++) {
 800038c:	3301      	adds	r3, #1
 800038e:	b29b      	uxth	r3, r3
 8000390:	e7f5      	b.n	800037e <ff_convert+0x16>
			}
			c = (c + 0x80) & 0xFF;
 8000392:	f103 0080 	add.w	r0, r3, #128	@ 0x80
 8000396:	b2c0      	uxtb	r0, r0
 8000398:	4770      	bx	lr
			c = (chr >= 0x100) ? 0 : Tbl[chr - 0x80];
 800039a:	2000      	movs	r0, #0
		}
	}

	return c;
}
 800039c:	4770      	bx	lr
 800039e:	bf00      	nop
 80003a0:	08008e60 	.word	0x08008e60

080003a4 <ff_wtoupper>:
	};
	const WCHAR *p;
	WCHAR bc, nc, cmd;


	p = chr < 0x1000 ? cvt1 : cvt2;
 80003a4:	f5b0 5f80 	cmp.w	r0, #4096	@ 0x1000
 80003a8:	d207      	bcs.n	80003ba <ff_wtoupper+0x16>
 80003aa:	4b29      	ldr	r3, [pc, #164]	@ (8000450 <ff_wtoupper+0xac>)
	for (;;) {
		bc = *p++;								/* Get block base */
 80003ac:	881a      	ldrh	r2, [r3, #0]
		if (!bc || chr < bc) break;
 80003ae:	2a00      	cmp	r2, #0
 80003b0:	d04c      	beq.n	800044c <ff_wtoupper+0xa8>
 80003b2:	4290      	cmp	r0, r2
 80003b4:	d34a      	bcc.n	800044c <ff_wtoupper+0xa8>
{
 80003b6:	b510      	push	{r4, lr}
 80003b8:	e006      	b.n	80003c8 <ff_wtoupper+0x24>
	p = chr < 0x1000 ? cvt1 : cvt2;
 80003ba:	4b26      	ldr	r3, [pc, #152]	@ (8000454 <ff_wtoupper+0xb0>)
 80003bc:	e7f6      	b.n	80003ac <ff_wtoupper+0x8>
		nc = *p++; cmd = nc >> 8; nc &= 0xFF;	/* Get processing command and block size */
 80003be:	4673      	mov	r3, lr
		bc = *p++;								/* Get block base */
 80003c0:	881a      	ldrh	r2, [r3, #0]
		if (!bc || chr < bc) break;
 80003c2:	b3b2      	cbz	r2, 8000432 <ff_wtoupper+0x8e>
 80003c4:	4290      	cmp	r0, r2
 80003c6:	d334      	bcc.n	8000432 <ff_wtoupper+0x8e>
		nc = *p++; cmd = nc >> 8; nc &= 0xFF;	/* Get processing command and block size */
 80003c8:	f103 0e04 	add.w	lr, r3, #4
 80003cc:	885b      	ldrh	r3, [r3, #2]
 80003ce:	0a19      	lsrs	r1, r3, #8
 80003d0:	b2db      	uxtb	r3, r3
		if (chr < bc + nc) {	/* In the block? */
 80003d2:	eb03 0c02 	add.w	ip, r3, r2
 80003d6:	4560      	cmp	r0, ip
 80003d8:	db04      	blt.n	80003e4 <ff_wtoupper+0x40>
			case 7: chr -= 80; break;				/* Shift -80 */
			case 8:	chr -= 0x1C60; break;			/* Shift -0x1C60 */
			}
			break;
		}
		if (!cmd) p += nc;
 80003da:	2900      	cmp	r1, #0
 80003dc:	d1ef      	bne.n	80003be <ff_wtoupper+0x1a>
 80003de:	eb0e 0343 	add.w	r3, lr, r3, lsl #1
 80003e2:	e7ed      	b.n	80003c0 <ff_wtoupper+0x1c>
			switch (cmd) {
 80003e4:	2904      	cmp	r1, #4
 80003e6:	d028      	beq.n	800043a <ff_wtoupper+0x96>
 80003e8:	d810      	bhi.n	800040c <ff_wtoupper+0x68>
 80003ea:	2902      	cmp	r1, #2
 80003ec:	d022      	beq.n	8000434 <ff_wtoupper+0x90>
 80003ee:	d808      	bhi.n	8000402 <ff_wtoupper+0x5e>
 80003f0:	b1e1      	cbz	r1, 800042c <ff_wtoupper+0x88>
 80003f2:	2901      	cmp	r1, #1
 80003f4:	d11d      	bne.n	8000432 <ff_wtoupper+0x8e>
			case 1:	chr -= (chr - bc) & 1; break;	/* Case pairs */
 80003f6:	1a83      	subs	r3, r0, r2
 80003f8:	f003 0301 	and.w	r3, r3, #1
 80003fc:	1ac0      	subs	r0, r0, r3
 80003fe:	b280      	uxth	r0, r0
 8000400:	e017      	b.n	8000432 <ff_wtoupper+0x8e>
			switch (cmd) {
 8000402:	2903      	cmp	r1, #3
 8000404:	d115      	bne.n	8000432 <ff_wtoupper+0x8e>
			case 3:	chr -= 32; break;				/* Shift -32 */
 8000406:	3820      	subs	r0, #32
 8000408:	b280      	uxth	r0, r0
 800040a:	e012      	b.n	8000432 <ff_wtoupper+0x8e>
			switch (cmd) {
 800040c:	2907      	cmp	r1, #7
 800040e:	d01a      	beq.n	8000446 <ff_wtoupper+0xa2>
 8000410:	d806      	bhi.n	8000420 <ff_wtoupper+0x7c>
 8000412:	2905      	cmp	r1, #5
 8000414:	d014      	beq.n	8000440 <ff_wtoupper+0x9c>
 8000416:	2906      	cmp	r1, #6
 8000418:	d10b      	bne.n	8000432 <ff_wtoupper+0x8e>
			case 6:	chr += 8; break;				/* Shift +8 */
 800041a:	3008      	adds	r0, #8
 800041c:	b280      	uxth	r0, r0
 800041e:	e008      	b.n	8000432 <ff_wtoupper+0x8e>
			switch (cmd) {
 8000420:	2908      	cmp	r1, #8
 8000422:	d106      	bne.n	8000432 <ff_wtoupper+0x8e>
			case 8:	chr -= 0x1C60; break;			/* Shift -0x1C60 */
 8000424:	f5a0 50e3 	sub.w	r0, r0, #7264	@ 0x1c60
 8000428:	b280      	uxth	r0, r0
 800042a:	e002      	b.n	8000432 <ff_wtoupper+0x8e>
			case 0:	chr = p[chr - bc]; break;		/* Table conversion */
 800042c:	1a83      	subs	r3, r0, r2
 800042e:	f83e 0013 	ldrh.w	r0, [lr, r3, lsl #1]
	}

	return chr;
}
 8000432:	bd10      	pop	{r4, pc}
			case 2: chr -= 16; break;				/* Shift -16 */
 8000434:	3810      	subs	r0, #16
 8000436:	b280      	uxth	r0, r0
 8000438:	e7fb      	b.n	8000432 <ff_wtoupper+0x8e>
			case 4:	chr -= 48; break;				/* Shift -48 */
 800043a:	3830      	subs	r0, #48	@ 0x30
 800043c:	b280      	uxth	r0, r0
 800043e:	e7f8      	b.n	8000432 <ff_wtoupper+0x8e>
			case 5:	chr -= 26; break;				/* Shift -26 */
 8000440:	381a      	subs	r0, #26
 8000442:	b280      	uxth	r0, r0
 8000444:	e7f5      	b.n	8000432 <ff_wtoupper+0x8e>
			case 7: chr -= 80; break;				/* Shift -80 */
 8000446:	3850      	subs	r0, #80	@ 0x50
 8000448:	b280      	uxth	r0, r0
 800044a:	e7f2      	b.n	8000432 <ff_wtoupper+0x8e>
}
 800044c:	4770      	bx	lr
 800044e:	bf00      	nop
 8000450:	08008c6c 	.word	0x08008c6c
 8000454:	08008bb0 	.word	0x08008bb0

08000458 <disk_status>:
  * @retval DSTATUS: Operation status
  */
DSTATUS disk_status (
	BYTE pdrv		/* Physical drive number to identify the drive */
)
{
 8000458:	b508      	push	{r3, lr}
  DSTATUS stat;

  stat = disk.drv[pdrv]->disk_status(disk.lun[pdrv]);
 800045a:	4b04      	ldr	r3, [pc, #16]	@ (800046c <disk_status+0x14>)
 800045c:	eb03 0280 	add.w	r2, r3, r0, lsl #2
 8000460:	6852      	ldr	r2, [r2, #4]
 8000462:	6852      	ldr	r2, [r2, #4]
 8000464:	4403      	add	r3, r0
 8000466:	7a18      	ldrb	r0, [r3, #8]
 8000468:	4790      	blx	r2
  return stat;
}
 800046a:	bd08      	pop	{r3, pc}
 800046c:	200009a0 	.word	0x200009a0

08000470 <disk_initialize>:
  * @retval DSTATUS: Operation status
  */
DSTATUS disk_initialize (
	BYTE pdrv				/* Physical drive nmuber to identify the drive */
)
{
 8000470:	b508      	push	{r3, lr}
  DSTATUS stat = RES_OK;

  if(disk.is_initialized[pdrv] == 0)
 8000472:	4b08      	ldr	r3, [pc, #32]	@ (8000494 <disk_initialize+0x24>)
 8000474:	5c1b      	ldrb	r3, [r3, r0]
 8000476:	b953      	cbnz	r3, 800048e <disk_initialize+0x1e>
  {
    disk.is_initialized[pdrv] = 1;
 8000478:	4b06      	ldr	r3, [pc, #24]	@ (8000494 <disk_initialize+0x24>)
 800047a:	2201      	movs	r2, #1
 800047c:	541a      	strb	r2, [r3, r0]
    stat = disk.drv[pdrv]->disk_initialize(disk.lun[pdrv]);
 800047e:	eb03 0280 	add.w	r2, r3, r0, lsl #2
 8000482:	6852      	ldr	r2, [r2, #4]
 8000484:	6812      	ldr	r2, [r2, #0]
 8000486:	4403      	add	r3, r0
 8000488:	7a18      	ldrb	r0, [r3, #8]
 800048a:	4790      	blx	r2
  }
  return stat;
}
 800048c:	bd08      	pop	{r3, pc}
  DSTATUS stat = RES_OK;
 800048e:	2000      	movs	r0, #0
 8000490:	e7fc      	b.n	800048c <disk_initialize+0x1c>
 8000492:	bf00      	nop
 8000494:	200009a0 	.word	0x200009a0

08000498 <disk_read>:
	BYTE pdrv,		/* Physical drive nmuber to identify the drive */
	BYTE *buff,		/* Data buffer to store read data */
	DWORD sector,	        /* Sector address in LBA */
	UINT count		/* Number of sectors to read */
)
{
 8000498:	b510      	push	{r4, lr}
 800049a:	4684      	mov	ip, r0
  DRESULT res;

  res = disk.drv[pdrv]->disk_read(disk.lun[pdrv], buff, sector, count);
 800049c:	4804      	ldr	r0, [pc, #16]	@ (80004b0 <disk_read+0x18>)
 800049e:	eb00 048c 	add.w	r4, r0, ip, lsl #2
 80004a2:	6864      	ldr	r4, [r4, #4]
 80004a4:	68a4      	ldr	r4, [r4, #8]
 80004a6:	4460      	add	r0, ip
 80004a8:	7a00      	ldrb	r0, [r0, #8]
 80004aa:	47a0      	blx	r4
  return res;
}
 80004ac:	bd10      	pop	{r4, pc}
 80004ae:	bf00      	nop
 80004b0:	200009a0 	.word	0x200009a0

080004b4 <disk_write>:
	BYTE pdrv,		/* Physical drive nmuber to identify the drive */
	const BYTE *buff,	/* Data to be written */
	DWORD sector,		/* Sector address in LBA */
	UINT count        	/* Number of sectors to write */
)
{
 80004b4:	b510      	push	{r4, lr}
 80004b6:	4684      	mov	ip, r0
  DRESULT res;

  res = disk.drv[pdrv]->disk_write(disk.lun[pdrv], buff, sector, count);
 80004b8:	4804      	ldr	r0, [pc, #16]	@ (80004cc <disk_write+0x18>)
 80004ba:	eb00 048c 	add.w	r4, r0, ip, lsl #2
 80004be:	6864      	ldr	r4, [r4, #4]
 80004c0:	68e4      	ldr	r4, [r4, #12]
 80004c2:	4460      	add	r0, ip
 80004c4:	7a00      	ldrb	r0, [r0, #8]
 80004c6:	47a0      	blx	r4
  return res;
}
 80004c8:	bd10      	pop	{r4, pc}
 80004ca:	bf00      	nop
 80004cc:	200009a0 	.word	0x200009a0

080004d0 <disk_ioctl>:
DRESULT disk_ioctl (
	BYTE pdrv,		/* Physical drive nmuber (0..) */
	BYTE cmd,		/* Control code */
	void *buff		/* Buffer to send/receive control data */
)
{
 80004d0:	b510      	push	{r4, lr}
  DRESULT res;

  res = disk.drv[pdrv]->disk_ioctl(disk.lun[pdrv], cmd, buff);
 80004d2:	4b04      	ldr	r3, [pc, #16]	@ (80004e4 <disk_ioctl+0x14>)
 80004d4:	eb03 0480 	add.w	r4, r3, r0, lsl #2
 80004d8:	6864      	ldr	r4, [r4, #4]
 80004da:	6924      	ldr	r4, [r4, #16]
 80004dc:	4403      	add	r3, r0
 80004de:	7a18      	ldrb	r0, [r3, #8]
 80004e0:	47a0      	blx	r4
  return res;
}
 80004e2:	bd10      	pop	{r4, pc}
 80004e4:	200009a0 	.word	0x200009a0

080004e8 <MX_FATFS_Init>:
/* USER CODE BEGIN Variables */

/* USER CODE END Variables */

void MX_FATFS_Init(void)
{
 80004e8:	b508      	push	{r3, lr}
  /*## FatFS: Link the SD driver ###########################*/
  retSD = FATFS_LinkDriver(&SD_Driver, SDPath);
 80004ea:	4903      	ldr	r1, [pc, #12]	@ (80004f8 <MX_FATFS_Init+0x10>)
 80004ec:	4803      	ldr	r0, [pc, #12]	@ (80004fc <MX_FATFS_Init+0x14>)
 80004ee:	f002 fc39 	bl	8002d64 <FATFS_LinkDriver>
 80004f2:	4b03      	ldr	r3, [pc, #12]	@ (8000500 <MX_FATFS_Init+0x18>)
 80004f4:	7018      	strb	r0, [r3, #0]

  /* USER CODE BEGIN Init */
  /* additional user code for init */
  /* USER CODE END Init */
}
 80004f6:	bd08      	pop	{r3, pc}
 80004f8:	20000510 	.word	0x20000510
 80004fc:	08009344 	.word	0x08009344
 8000500:	20000514 	.word	0x20000514

08000504 <get_fattime>:
DWORD get_fattime(void)
{
  /* USER CODE BEGIN get_fattime */
  return 0;
  /* USER CODE END get_fattime */
}
 8000504:	2000      	movs	r0, #0
 8000506:	4770      	bx	lr

08000508 <BSP_PlatformIsDetected>:
  ******************************************************************************
*/
/* USER CODE END Header */
#include "fatfs_platform.h"

uint8_t	BSP_PlatformIsDetected(void) {
 8000508:	b508      	push	{r3, lr}
    uint8_t status = SD_PRESENT;
    /* Check SD card detect pin */
    if(HAL_GPIO_ReadPin(SD_DETECT_GPIO_PORT, SD_DETECT_PIN) != GPIO_PIN_RESET)
 800050a:	2110      	movs	r1, #16
 800050c:	f04f 4090 	mov.w	r0, #1207959552	@ 0x48000000
 8000510:	f003 fc82 	bl	8003e18 <HAL_GPIO_ReadPin>
 8000514:	b908      	cbnz	r0, 800051a <BSP_PlatformIsDetected+0x12>
    uint8_t status = SD_PRESENT;
 8000516:	2001      	movs	r0, #1
    }
    /* USER CODE BEGIN 1 */
    /* user code can be inserted here */
    /* USER CODE END 1 */
    return status;
}
 8000518:	bd08      	pop	{r3, pc}
        status = SD_NOT_PRESENT;
 800051a:	2000      	movs	r0, #0
 800051c:	e7fc      	b.n	8000518 <BSP_PlatformIsDetected+0x10>

0800051e <ld_word>:
static
WORD ld_word (const BYTE* ptr)	/*	 Load a 2-byte little-endian word */
{
	WORD rv;

	rv = ptr[1];
 800051e:	7842      	ldrb	r2, [r0, #1]
	rv = rv << 8 | ptr[0];
 8000520:	7800      	ldrb	r0, [r0, #0]
	return rv;
}
 8000522:	ea40 2002 	orr.w	r0, r0, r2, lsl #8
 8000526:	4770      	bx	lr

08000528 <ld_dword>:
static
DWORD ld_dword (const BYTE* ptr)	/* Load a 4-byte little-endian word */
{
	DWORD rv;

	rv = ptr[3];
 8000528:	78c3      	ldrb	r3, [r0, #3]
	rv = rv << 8 | ptr[2];
 800052a:	7882      	ldrb	r2, [r0, #2]
 800052c:	ea42 2203 	orr.w	r2, r2, r3, lsl #8
	rv = rv << 8 | ptr[1];
 8000530:	7843      	ldrb	r3, [r0, #1]
 8000532:	ea43 2302 	orr.w	r3, r3, r2, lsl #8
	rv = rv << 8 | ptr[0];
 8000536:	7800      	ldrb	r0, [r0, #0]
	return rv;
}
 8000538:	ea40 2003 	orr.w	r0, r0, r3, lsl #8
 800053c:	4770      	bx	lr

0800053e <ld_qword>:
static
QWORD ld_qword (const BYTE* ptr)	/* Load an 8-byte little-endian word */
{
	QWORD rv;

	rv = ptr[7];
 800053e:	79c3      	ldrb	r3, [r0, #7]
	rv = rv << 8 | ptr[6];
 8000540:	7982      	ldrb	r2, [r0, #6]
 8000542:	ea42 2203 	orr.w	r2, r2, r3, lsl #8
	rv = rv << 8 | ptr[5];
 8000546:	7943      	ldrb	r3, [r0, #5]
 8000548:	ea43 2302 	orr.w	r3, r3, r2, lsl #8
	rv = rv << 8 | ptr[4];
 800054c:	7902      	ldrb	r2, [r0, #4]
 800054e:	ea42 2203 	orr.w	r2, r2, r3, lsl #8
	rv = rv << 8 | ptr[3];
 8000552:	f3c3 4307 	ubfx	r3, r3, #16, #8
 8000556:	78c1      	ldrb	r1, [r0, #3]
 8000558:	ea41 2102 	orr.w	r1, r1, r2, lsl #8
	rv = rv << 8 | ptr[2];
 800055c:	021b      	lsls	r3, r3, #8
 800055e:	ea43 6311 	orr.w	r3, r3, r1, lsr #24
 8000562:	7882      	ldrb	r2, [r0, #2]
 8000564:	ea42 2201 	orr.w	r2, r2, r1, lsl #8
	rv = rv << 8 | ptr[1];
 8000568:	021b      	lsls	r3, r3, #8
 800056a:	ea43 6312 	orr.w	r3, r3, r2, lsr #24
 800056e:	7841      	ldrb	r1, [r0, #1]
 8000570:	ea41 2102 	orr.w	r1, r1, r2, lsl #8
	rv = rv << 8 | ptr[0];
 8000574:	021b      	lsls	r3, r3, #8
 8000576:	7800      	ldrb	r0, [r0, #0]
	return rv;
}
 8000578:	ea40 2001 	orr.w	r0, r0, r1, lsl #8
 800057c:	ea43 6111 	orr.w	r1, r3, r1, lsr #24
 8000580:	4770      	bx	lr

08000582 <st_word>:

#if !_FS_READONLY
static
void st_word (BYTE* ptr, WORD val)	/* Store a 2-byte word in little-endian */
{
	*ptr++ = (BYTE)val; val >>= 8;
 8000582:	7001      	strb	r1, [r0, #0]
	*ptr++ = (BYTE)val;
 8000584:	0a09      	lsrs	r1, r1, #8
 8000586:	7041      	strb	r1, [r0, #1]
}
 8000588:	4770      	bx	lr

0800058a <st_dword>:

static
void st_dword (BYTE* ptr, DWORD val)	/* Store a 4-byte word in little-endian */
{
	*ptr++ = (BYTE)val; val >>= 8;
 800058a:	7001      	strb	r1, [r0, #0]
	*ptr++ = (BYTE)val; val >>= 8;
 800058c:	f3c1 2307 	ubfx	r3, r1, #8, #8
 8000590:	7043      	strb	r3, [r0, #1]
	*ptr++ = (BYTE)val; val >>= 8;
 8000592:	f3c1 4307 	ubfx	r3, r1, #16, #8
 8000596:	7083      	strb	r3, [r0, #2]
	*ptr++ = (BYTE)val;
 8000598:	0e09      	lsrs	r1, r1, #24
 800059a:	70c1      	strb	r1, [r0, #3]
}
 800059c:	4770      	bx	lr

0800059e <st_qword>:

#if _FS_EXFAT
static
void st_qword (BYTE* ptr, QWORD val)	/* Store an 8-byte word in little-endian */
{
	*ptr++ = (BYTE)val; val >>= 8;
 800059e:	7002      	strb	r2, [r0, #0]
	*ptr++ = (BYTE)val; val >>= 8;
 80005a0:	f3c2 2107 	ubfx	r1, r2, #8, #8
 80005a4:	7041      	strb	r1, [r0, #1]
	*ptr++ = (BYTE)val; val >>= 8;
 80005a6:	f3c2 4107 	ubfx	r1, r2, #16, #8
 80005aa:	7081      	strb	r1, [r0, #2]
	*ptr++ = (BYTE)val; val >>= 8;
 80005ac:	0e12      	lsrs	r2, r2, #24
 80005ae:	70c2      	strb	r2, [r0, #3]
	*ptr++ = (BYTE)val; val >>= 8;
 80005b0:	7103      	strb	r3, [r0, #4]
	*ptr++ = (BYTE)val; val >>= 8;
 80005b2:	f3c3 2207 	ubfx	r2, r3, #8, #8
 80005b6:	7142      	strb	r2, [r0, #5]
	*ptr++ = (BYTE)val; val >>= 8;
 80005b8:	f3c3 4207 	ubfx	r2, r3, #16, #8
 80005bc:	7182      	strb	r2, [r0, #6]
	*ptr++ = (BYTE)val;
 80005be:	0e1b      	lsrs	r3, r3, #24
 80005c0:	71c3      	strb	r3, [r0, #7]
}
 80005c2:	4770      	bx	lr

080005c4 <mem_cpy>:
static
void mem_cpy (void* dst, const void* src, UINT cnt) {
	BYTE *d = (BYTE*)dst;
	const BYTE *s = (const BYTE*)src;

	if (cnt) {
 80005c4:	4694      	mov	ip, r2
 80005c6:	b132      	cbz	r2, 80005d6 <mem_cpy+0x12>
		do {
			*d++ = *s++;
 80005c8:	780a      	ldrb	r2, [r1, #0]
 80005ca:	3101      	adds	r1, #1
 80005cc:	7002      	strb	r2, [r0, #0]
 80005ce:	3001      	adds	r0, #1
		} while (--cnt);
 80005d0:	f1bc 0c01 	subs.w	ip, ip, #1
 80005d4:	d1f8      	bne.n	80005c8 <mem_cpy+0x4>
	}
}
 80005d6:	4770      	bx	lr

080005d8 <mem_set>:
static
void mem_set (void* dst, int val, UINT cnt) {
	BYTE *d = (BYTE*)dst;

	do {
		*d++ = (BYTE)val;
 80005d8:	7001      	strb	r1, [r0, #0]
 80005da:	3001      	adds	r0, #1
	} while (--cnt);
 80005dc:	3a01      	subs	r2, #1
 80005de:	d1fb      	bne.n	80005d8 <mem_set>
}
 80005e0:	4770      	bx	lr

080005e2 <mem_cmp>:

/* Compare memory block */
static
int mem_cmp (const void* dst, const void* src, UINT cnt) {	/* ZR:same, NZ:different */
 80005e2:	4684      	mov	ip, r0
	const BYTE *d = (const BYTE *)dst, *s = (const BYTE *)src;
	int r = 0;

	do {
		r = *d++ - *s++;
 80005e4:	f89c 0000 	ldrb.w	r0, [ip]
 80005e8:	f10c 0c01 	add.w	ip, ip, #1
 80005ec:	780b      	ldrb	r3, [r1, #0]
 80005ee:	3101      	adds	r1, #1
 80005f0:	1ac0      	subs	r0, r0, r3
	} while (--cnt && r == 0);
 80005f2:	3a01      	subs	r2, #1
 80005f4:	d001      	beq.n	80005fa <mem_cmp+0x18>
 80005f6:	2800      	cmp	r0, #0
 80005f8:	d0f4      	beq.n	80005e4 <mem_cmp+0x2>

	return r;
}
 80005fa:	4770      	bx	lr

080005fc <chk_chr>:

/* Check if chr is contained in the string */
static
int chk_chr (const char* str, int chr) {	/* NZ:contained, ZR:not contained */
 80005fc:	4603      	mov	r3, r0
	while (*str && *str != chr) str++;
 80005fe:	e000      	b.n	8000602 <chk_chr+0x6>
 8000600:	3301      	adds	r3, #1
 8000602:	7818      	ldrb	r0, [r3, #0]
 8000604:	b108      	cbz	r0, 800060a <chk_chr+0xe>
 8000606:	4288      	cmp	r0, r1
 8000608:	d1fa      	bne.n	8000600 <chk_chr+0x4>
	return *str;
}
 800060a:	4770      	bx	lr

0800060c <chk_lock>:
static
FRESULT chk_lock (	/* Check if the file can be accessed */
	DIR* dp,		/* Directory object pointing the file to be checked */
	int acc			/* Desired access type (0:Read, 1:Write, 2:Delete/Rename) */
)
{
 800060c:	b500      	push	{lr}
 800060e:	468c      	mov	ip, r1
	UINT i, be;

	/* Search file semaphore table */
	for (i = be = 0; i < _FS_LOCK; i++) {
 8000610:	f04f 0e00 	mov.w	lr, #0
 8000614:	4673      	mov	r3, lr
 8000616:	e002      	b.n	800061e <chk_lock+0x12>
		if (Files[i].fs) {	/* Existing entry */
			if (Files[i].fs == dp->obj.fs &&	 	/* Check if the object matched with an open object */
				Files[i].clu == dp->obj.sclust &&
				Files[i].ofs == dp->dptr) break;
		} else {			/* Blank entry */
			be = 1;
 8000618:	f04f 0e01 	mov.w	lr, #1
	for (i = be = 0; i < _FS_LOCK; i++) {
 800061c:	3301      	adds	r3, #1
 800061e:	2b01      	cmp	r3, #1
 8000620:	d815      	bhi.n	800064e <chk_lock+0x42>
		if (Files[i].fs) {	/* Existing entry */
 8000622:	011a      	lsls	r2, r3, #4
 8000624:	4919      	ldr	r1, [pc, #100]	@ (800068c <chk_lock+0x80>)
 8000626:	588a      	ldr	r2, [r1, r2]
 8000628:	2a00      	cmp	r2, #0
 800062a:	d0f5      	beq.n	8000618 <chk_lock+0xc>
			if (Files[i].fs == dp->obj.fs &&	 	/* Check if the object matched with an open object */
 800062c:	6801      	ldr	r1, [r0, #0]
 800062e:	428a      	cmp	r2, r1
 8000630:	d1f4      	bne.n	800061c <chk_lock+0x10>
				Files[i].clu == dp->obj.sclust &&
 8000632:	4a16      	ldr	r2, [pc, #88]	@ (800068c <chk_lock+0x80>)
 8000634:	eb02 1203 	add.w	r2, r2, r3, lsl #4
 8000638:	6851      	ldr	r1, [r2, #4]
 800063a:	6882      	ldr	r2, [r0, #8]
			if (Files[i].fs == dp->obj.fs &&	 	/* Check if the object matched with an open object */
 800063c:	4291      	cmp	r1, r2
 800063e:	d1ed      	bne.n	800061c <chk_lock+0x10>
				Files[i].ofs == dp->dptr) break;
 8000640:	4a12      	ldr	r2, [pc, #72]	@ (800068c <chk_lock+0x80>)
 8000642:	eb02 1203 	add.w	r2, r2, r3, lsl #4
 8000646:	6891      	ldr	r1, [r2, #8]
 8000648:	6b02      	ldr	r2, [r0, #48]	@ 0x30
				Files[i].clu == dp->obj.sclust &&
 800064a:	4291      	cmp	r1, r2
 800064c:	d1e6      	bne.n	800061c <chk_lock+0x10>
		}
	}
	if (i == _FS_LOCK) {	/* The object is not opened */
 800064e:	2b02      	cmp	r3, #2
 8000650:	d00b      	beq.n	800066a <chk_lock+0x5e>
		return (be || acc == 2) ? FR_OK : FR_TOO_MANY_OPEN_FILES;	/* Is there a blank entry for new object? */
	}

	/* The object has been opened. Reject any open against writing file and all write mode open */
	return (acc || Files[i].ctr == 0x100) ? FR_LOCKED : FR_OK;
 8000652:	f1bc 0f00 	cmp.w	ip, #0
 8000656:	d116      	bne.n	8000686 <chk_lock+0x7a>
 8000658:	4a0c      	ldr	r2, [pc, #48]	@ (800068c <chk_lock+0x80>)
 800065a:	eb02 1303 	add.w	r3, r2, r3, lsl #4
 800065e:	899b      	ldrh	r3, [r3, #12]
 8000660:	f5b3 7f80 	cmp.w	r3, #256	@ 0x100
 8000664:	d00d      	beq.n	8000682 <chk_lock+0x76>
 8000666:	2000      	movs	r0, #0
}
 8000668:	bd00      	pop	{pc}
		return (be || acc == 2) ? FR_OK : FR_TOO_MANY_OPEN_FILES;	/* Is there a blank entry for new object? */
 800066a:	f1be 0f00 	cmp.w	lr, #0
 800066e:	d106      	bne.n	800067e <chk_lock+0x72>
 8000670:	f1bc 0f02 	cmp.w	ip, #2
 8000674:	d001      	beq.n	800067a <chk_lock+0x6e>
 8000676:	2012      	movs	r0, #18
 8000678:	e7f6      	b.n	8000668 <chk_lock+0x5c>
 800067a:	4670      	mov	r0, lr
 800067c:	e7f4      	b.n	8000668 <chk_lock+0x5c>
 800067e:	2000      	movs	r0, #0
 8000680:	e7f2      	b.n	8000668 <chk_lock+0x5c>
	return (acc || Files[i].ctr == 0x100) ? FR_LOCKED : FR_OK;
 8000682:	2010      	movs	r0, #16
 8000684:	e7f0      	b.n	8000668 <chk_lock+0x5c>
 8000686:	2010      	movs	r0, #16
 8000688:	e7ee      	b.n	8000668 <chk_lock+0x5c>
 800068a:	bf00      	nop
 800068c:	20000978 	.word	0x20000978

08000690 <enq_lock>:
static
int enq_lock (void)	/* Check if an entry is available for a new object */
{
	UINT i;

	for (i = 0; i < _FS_LOCK && Files[i].fs; i++) ;
 8000690:	2000      	movs	r0, #0
 8000692:	e000      	b.n	8000696 <enq_lock+0x6>
 8000694:	3001      	adds	r0, #1
 8000696:	2801      	cmp	r0, #1
 8000698:	d804      	bhi.n	80006a4 <enq_lock+0x14>
 800069a:	0103      	lsls	r3, r0, #4
 800069c:	4a03      	ldr	r2, [pc, #12]	@ (80006ac <enq_lock+0x1c>)
 800069e:	58d3      	ldr	r3, [r2, r3]
 80006a0:	2b00      	cmp	r3, #0
 80006a2:	d1f7      	bne.n	8000694 <enq_lock+0x4>
	return (i == _FS_LOCK) ? 0 : 1;
}
 80006a4:	3802      	subs	r0, #2
 80006a6:	bf18      	it	ne
 80006a8:	2001      	movne	r0, #1
 80006aa:	4770      	bx	lr
 80006ac:	20000978 	.word	0x20000978

080006b0 <inc_lock>:
static
UINT inc_lock (	/* Increment object open counter and returns its index (0:Internal error) */
	DIR* dp,	/* Directory object pointing the file to register or increment */
	int acc		/* Desired access (0:Read, 1:Write, 2:Delete/Rename) */
)
{
 80006b0:	b510      	push	{r4, lr}
 80006b2:	468c      	mov	ip, r1
	UINT i;


	for (i = 0; i < _FS_LOCK; i++) {	/* Find the object */
 80006b4:	2300      	movs	r3, #0
 80006b6:	e000      	b.n	80006ba <inc_lock+0xa>
 80006b8:	3301      	adds	r3, #1
 80006ba:	2b01      	cmp	r3, #1
 80006bc:	d813      	bhi.n	80006e6 <inc_lock+0x36>
		if (Files[i].fs == dp->obj.fs &&
 80006be:	011a      	lsls	r2, r3, #4
 80006c0:	4924      	ldr	r1, [pc, #144]	@ (8000754 <inc_lock+0xa4>)
 80006c2:	5889      	ldr	r1, [r1, r2]
 80006c4:	6802      	ldr	r2, [r0, #0]
 80006c6:	4291      	cmp	r1, r2
 80006c8:	d1f6      	bne.n	80006b8 <inc_lock+0x8>
			Files[i].clu == dp->obj.sclust &&
 80006ca:	4a22      	ldr	r2, [pc, #136]	@ (8000754 <inc_lock+0xa4>)
 80006cc:	eb02 1203 	add.w	r2, r2, r3, lsl #4
 80006d0:	6851      	ldr	r1, [r2, #4]
 80006d2:	6882      	ldr	r2, [r0, #8]
		if (Files[i].fs == dp->obj.fs &&
 80006d4:	4291      	cmp	r1, r2
 80006d6:	d1ef      	bne.n	80006b8 <inc_lock+0x8>
			Files[i].ofs == dp->dptr) break;
 80006d8:	4a1e      	ldr	r2, [pc, #120]	@ (8000754 <inc_lock+0xa4>)
 80006da:	eb02 1203 	add.w	r2, r2, r3, lsl #4
 80006de:	6891      	ldr	r1, [r2, #8]
 80006e0:	6b02      	ldr	r2, [r0, #48]	@ 0x30
			Files[i].clu == dp->obj.sclust &&
 80006e2:	4291      	cmp	r1, r2
 80006e4:	d1e8      	bne.n	80006b8 <inc_lock+0x8>
	}

	if (i == _FS_LOCK) {				/* Not opened. Register it as new. */
 80006e6:	2b02      	cmp	r3, #2
 80006e8:	d00a      	beq.n	8000700 <inc_lock+0x50>
		Files[i].clu = dp->obj.sclust;
		Files[i].ofs = dp->dptr;
		Files[i].ctr = 0;
	}

	if (acc && Files[i].ctr) return 0;	/* Access violation (int err) */
 80006ea:	f1bc 0f00 	cmp.w	ip, #0
 80006ee:	d021      	beq.n	8000734 <inc_lock+0x84>
 80006f0:	4a18      	ldr	r2, [pc, #96]	@ (8000754 <inc_lock+0xa4>)
 80006f2:	eb02 1203 	add.w	r2, r2, r3, lsl #4
 80006f6:	8992      	ldrh	r2, [r2, #12]
 80006f8:	bb52      	cbnz	r2, 8000750 <inc_lock+0xa0>

	Files[i].ctr = acc ? 0x100 : Files[i].ctr + 1;	/* Set semaphore value */
 80006fa:	f44f 7280 	mov.w	r2, #256	@ 0x100
 80006fe:	e01f      	b.n	8000740 <inc_lock+0x90>
		for (i = 0; i < _FS_LOCK && Files[i].fs; i++) ;
 8000700:	2300      	movs	r3, #0
 8000702:	2b01      	cmp	r3, #1
 8000704:	d805      	bhi.n	8000712 <inc_lock+0x62>
 8000706:	011a      	lsls	r2, r3, #4
 8000708:	4912      	ldr	r1, [pc, #72]	@ (8000754 <inc_lock+0xa4>)
 800070a:	588a      	ldr	r2, [r1, r2]
 800070c:	b10a      	cbz	r2, 8000712 <inc_lock+0x62>
 800070e:	3301      	adds	r3, #1
 8000710:	e7f7      	b.n	8000702 <inc_lock+0x52>
		if (i == _FS_LOCK) return 0;	/* No free entry to register (int err) */
 8000712:	2b02      	cmp	r3, #2
 8000714:	d01a      	beq.n	800074c <inc_lock+0x9c>
		Files[i].fs = dp->obj.fs;
 8000716:	f8df e03c 	ldr.w	lr, [pc, #60]	@ 8000754 <inc_lock+0xa4>
 800071a:	0119      	lsls	r1, r3, #4
 800071c:	eb0e 1203 	add.w	r2, lr, r3, lsl #4
 8000720:	6804      	ldr	r4, [r0, #0]
 8000722:	f84e 4001 	str.w	r4, [lr, r1]
		Files[i].clu = dp->obj.sclust;
 8000726:	6881      	ldr	r1, [r0, #8]
 8000728:	6051      	str	r1, [r2, #4]
		Files[i].ofs = dp->dptr;
 800072a:	6b01      	ldr	r1, [r0, #48]	@ 0x30
 800072c:	6091      	str	r1, [r2, #8]
		Files[i].ctr = 0;
 800072e:	2100      	movs	r1, #0
 8000730:	8191      	strh	r1, [r2, #12]
 8000732:	e7da      	b.n	80006ea <inc_lock+0x3a>
	Files[i].ctr = acc ? 0x100 : Files[i].ctr + 1;	/* Set semaphore value */
 8000734:	4a07      	ldr	r2, [pc, #28]	@ (8000754 <inc_lock+0xa4>)
 8000736:	eb02 1203 	add.w	r2, r2, r3, lsl #4
 800073a:	8992      	ldrh	r2, [r2, #12]
 800073c:	3201      	adds	r2, #1
 800073e:	b292      	uxth	r2, r2
 8000740:	4904      	ldr	r1, [pc, #16]	@ (8000754 <inc_lock+0xa4>)
 8000742:	eb01 1103 	add.w	r1, r1, r3, lsl #4
 8000746:	818a      	strh	r2, [r1, #12]

	return i + 1;
 8000748:	1c58      	adds	r0, r3, #1
}
 800074a:	bd10      	pop	{r4, pc}
		if (i == _FS_LOCK) return 0;	/* No free entry to register (int err) */
 800074c:	2000      	movs	r0, #0
 800074e:	e7fc      	b.n	800074a <inc_lock+0x9a>
	if (acc && Files[i].ctr) return 0;	/* Access violation (int err) */
 8000750:	2000      	movs	r0, #0
 8000752:	e7fa      	b.n	800074a <inc_lock+0x9a>
 8000754:	20000978 	.word	0x20000978

08000758 <dec_lock>:
{
	WORD n;
	FRESULT res;


	if (--i < _FS_LOCK) {	/* Shift index number origin from 0 */
 8000758:	3801      	subs	r0, #1
 800075a:	2801      	cmp	r0, #1
 800075c:	d815      	bhi.n	800078a <dec_lock+0x32>
		n = Files[i].ctr;
 800075e:	4b0d      	ldr	r3, [pc, #52]	@ (8000794 <dec_lock+0x3c>)
 8000760:	eb03 1300 	add.w	r3, r3, r0, lsl #4
 8000764:	899b      	ldrh	r3, [r3, #12]
		if (n == 0x100) n = 0;		/* If write mode open, delete the entry */
 8000766:	f5b3 7f80 	cmp.w	r3, #256	@ 0x100
 800076a:	d003      	beq.n	8000774 <dec_lock+0x1c>
		if (n > 0) n--;				/* Decrement read mode open count */
 800076c:	b143      	cbz	r3, 8000780 <dec_lock+0x28>
 800076e:	3b01      	subs	r3, #1
 8000770:	b29b      	uxth	r3, r3
 8000772:	e000      	b.n	8000776 <dec_lock+0x1e>
		if (n == 0x100) n = 0;		/* If write mode open, delete the entry */
 8000774:	2300      	movs	r3, #0
		Files[i].ctr = n;
 8000776:	4a07      	ldr	r2, [pc, #28]	@ (8000794 <dec_lock+0x3c>)
 8000778:	eb02 1200 	add.w	r2, r2, r0, lsl #4
 800077c:	8193      	strh	r3, [r2, #12]
		if (n == 0) Files[i].fs = 0;	/* Delete the entry if open count gets zero */
 800077e:	b933      	cbnz	r3, 800078e <dec_lock+0x36>
 8000780:	0103      	lsls	r3, r0, #4
 8000782:	2000      	movs	r0, #0
 8000784:	4a03      	ldr	r2, [pc, #12]	@ (8000794 <dec_lock+0x3c>)
 8000786:	50d0      	str	r0, [r2, r3]
 8000788:	4770      	bx	lr
		res = FR_OK;
	} else {
		res = FR_INT_ERR;			/* Invalid index nunber */
 800078a:	2002      	movs	r0, #2
 800078c:	4770      	bx	lr
		res = FR_OK;
 800078e:	2000      	movs	r0, #0
	}
	return res;
}
 8000790:	4770      	bx	lr
 8000792:	bf00      	nop
 8000794:	20000978 	.word	0x20000978

08000798 <clear_lock>:
	FATFS *fs
)
{
	UINT i;

	for (i = 0; i < _FS_LOCK; i++) {
 8000798:	2300      	movs	r3, #0
 800079a:	e005      	b.n	80007a8 <clear_lock+0x10>
		if (Files[i].fs == fs) Files[i].fs = 0;
 800079c:	011a      	lsls	r2, r3, #4
 800079e:	f04f 0c00 	mov.w	ip, #0
 80007a2:	f841 c002 	str.w	ip, [r1, r2]
	for (i = 0; i < _FS_LOCK; i++) {
 80007a6:	3301      	adds	r3, #1
 80007a8:	2b01      	cmp	r3, #1
 80007aa:	d805      	bhi.n	80007b8 <clear_lock+0x20>
		if (Files[i].fs == fs) Files[i].fs = 0;
 80007ac:	011a      	lsls	r2, r3, #4
 80007ae:	4903      	ldr	r1, [pc, #12]	@ (80007bc <clear_lock+0x24>)
 80007b0:	588a      	ldr	r2, [r1, r2]
 80007b2:	4282      	cmp	r2, r0
 80007b4:	d1f7      	bne.n	80007a6 <clear_lock+0xe>
 80007b6:	e7f1      	b.n	800079c <clear_lock+0x4>
	}
}
 80007b8:	4770      	bx	lr
 80007ba:	bf00      	nop
 80007bc:	20000978 	.word	0x20000978

080007c0 <clust2sect>:
DWORD clust2sect (	/* !=0:Sector number, 0:Failed (invalid cluster#) */
	FATFS* fs,		/* File system object */
	DWORD clst		/* Cluster# to be converted */
)
{
	clst -= 2;
 80007c0:	3902      	subs	r1, #2
	if (clst >= fs->n_fatent - 2) return 0;		/* Invalid cluster# */
 80007c2:	69c3      	ldr	r3, [r0, #28]
 80007c4:	3b02      	subs	r3, #2
 80007c6:	428b      	cmp	r3, r1
 80007c8:	d904      	bls.n	80007d4 <clust2sect+0x14>
	return clst * fs->csize + fs->database;
 80007ca:	8943      	ldrh	r3, [r0, #10]
 80007cc:	6b00      	ldr	r0, [r0, #48]	@ 0x30
 80007ce:	fb01 0003 	mla	r0, r1, r3, r0
 80007d2:	4770      	bx	lr
	if (clst >= fs->n_fatent - 2) return 0;		/* Invalid cluster# */
 80007d4:	2000      	movs	r0, #0
}
 80007d6:	4770      	bx	lr

080007d8 <clmt_clust>:
static
DWORD clmt_clust (	/* <2:Error, >=2:Cluster number */
	FIL* fp,		/* Pointer to the file object */
	FSIZE_t ofs		/* File offset to be converted to cluster# */
)
{
 80007d8:	b510      	push	{r4, lr}
 80007da:	4619      	mov	r1, r3
	DWORD cl, ncl, *tbl;
	FATFS *fs = fp->obj.fs;
 80007dc:	6803      	ldr	r3, [r0, #0]


	tbl = fp->cltbl + 1;	/* Top of CLMT */
 80007de:	6d04      	ldr	r4, [r0, #80]	@ 0x50
 80007e0:	3404      	adds	r4, #4
	cl = (DWORD)(ofs / SS(fs) / fs->csize);	/* Cluster order from top of the file */
 80007e2:	0a50      	lsrs	r0, r2, #9
 80007e4:	895a      	ldrh	r2, [r3, #10]
 80007e6:	2300      	movs	r3, #0
 80007e8:	ea40 50c1 	orr.w	r0, r0, r1, lsl #23
 80007ec:	0a49      	lsrs	r1, r1, #9
 80007ee:	f7ff fd27 	bl	8000240 <__aeabi_uldivmod>
 80007f2:	4602      	mov	r2, r0
 80007f4:	e001      	b.n	80007fa <clmt_clust+0x22>
	for (;;) {
		ncl = *tbl++;			/* Number of cluters in the fragment */
		if (ncl == 0) return 0;	/* End of table? (error) */
		if (cl < ncl) break;	/* In this fragment? */
		cl -= ncl; tbl++;		/* Next fragment */
 80007f6:	1a12      	subs	r2, r2, r0
 80007f8:	3408      	adds	r4, #8
		ncl = *tbl++;			/* Number of cluters in the fragment */
 80007fa:	6820      	ldr	r0, [r4, #0]
		if (ncl == 0) return 0;	/* End of table? (error) */
 80007fc:	b118      	cbz	r0, 8000806 <clmt_clust+0x2e>
		if (cl < ncl) break;	/* In this fragment? */
 80007fe:	4282      	cmp	r2, r0
 8000800:	d2f9      	bcs.n	80007f6 <clmt_clust+0x1e>
	}
	return cl + *tbl;	/* Return the cluster number */
 8000802:	6860      	ldr	r0, [r4, #4]
 8000804:	4410      	add	r0, r2
}
 8000806:	bd10      	pop	{r4, pc}

08000808 <ld_clust>:
static
DWORD ld_clust (	/* Returns the top cluster value of the SFN entry */
	FATFS* fs,		/* Pointer to the fs object */
	const BYTE* dir	/* Pointer to the key entry */
)
{
 8000808:	b570      	push	{r4, r5, r6, lr}
 800080a:	4604      	mov	r4, r0
 800080c:	460d      	mov	r5, r1
	DWORD cl;

	cl = ld_word(dir + DIR_FstClusLO);
 800080e:	f101 001a 	add.w	r0, r1, #26
 8000812:	f7ff fe84 	bl	800051e <ld_word>
	if (fs->fs_type == FS_FAT32) {
 8000816:	7823      	ldrb	r3, [r4, #0]
 8000818:	2b03      	cmp	r3, #3
 800081a:	d000      	beq.n	800081e <ld_clust+0x16>
		cl |= (DWORD)ld_word(dir + DIR_FstClusHI) << 16;
	}

	return cl;
}
 800081c:	bd70      	pop	{r4, r5, r6, pc}
 800081e:	4606      	mov	r6, r0
		cl |= (DWORD)ld_word(dir + DIR_FstClusHI) << 16;
 8000820:	4628      	mov	r0, r5
 8000822:	3014      	adds	r0, #20
 8000824:	f7ff fe7b 	bl	800051e <ld_word>
 8000828:	ea46 4000 	orr.w	r0, r6, r0, lsl #16
	return cl;
 800082c:	e7f6      	b.n	800081c <ld_clust+0x14>

0800082e <st_clust>:
void st_clust (
	FATFS* fs,	/* Pointer to the fs object */
	BYTE* dir,	/* Pointer to the key entry */
	DWORD cl	/* Value to be set */
)
{
 800082e:	b570      	push	{r4, r5, r6, lr}
 8000830:	4604      	mov	r4, r0
 8000832:	460b      	mov	r3, r1
 8000834:	460d      	mov	r5, r1
 8000836:	4616      	mov	r6, r2
	st_word(dir + DIR_FstClusLO, (WORD)cl);
 8000838:	b291      	uxth	r1, r2
 800083a:	f103 001a 	add.w	r0, r3, #26
 800083e:	f7ff fea0 	bl	8000582 <st_word>
	if (fs->fs_type == FS_FAT32) {
 8000842:	7823      	ldrb	r3, [r4, #0]
 8000844:	2b03      	cmp	r3, #3
 8000846:	d000      	beq.n	800084a <st_clust+0x1c>
		st_word(dir + DIR_FstClusHI, (WORD)(cl >> 16));
	}
}
 8000848:	bd70      	pop	{r4, r5, r6, pc}
		st_word(dir + DIR_FstClusHI, (WORD)(cl >> 16));
 800084a:	0c31      	lsrs	r1, r6, #16
 800084c:	4628      	mov	r0, r5
 800084e:	3014      	adds	r0, #20
 8000850:	f7ff fe97 	bl	8000582 <st_word>
}
 8000854:	e7f8      	b.n	8000848 <st_clust+0x1a>
	...

08000858 <pick_lfn>:
static
int pick_lfn (			/* 1:succeeded, 0:buffer overflow or invalid LFN entry */
	WCHAR* lfnbuf,		/* Pointer to the LFN working buffer */
	BYTE* dir			/* Pointer to the LFN entry */
)
{
 8000858:	e92d 41f0 	stmdb	sp!, {r4, r5, r6, r7, r8, lr}
 800085c:	4680      	mov	r8, r0
 800085e:	460e      	mov	r6, r1
	UINT i, s;
	WCHAR wc, uc;


	if (ld_word(dir + LDIR_FstClusLO) != 0) return 0;	/* Check LDIR_FstClusLO is 0 */
 8000860:	f101 001a 	add.w	r0, r1, #26
 8000864:	f7ff fe5b 	bl	800051e <ld_word>
 8000868:	bb50      	cbnz	r0, 80008c0 <pick_lfn+0x68>

	i = ((dir[LDIR_Ord] & ~LLEF) - 1) * 13;	/* Offset in the LFN buffer */
 800086a:	7835      	ldrb	r5, [r6, #0]
 800086c:	f025 0540 	bic.w	r5, r5, #64	@ 0x40
 8000870:	3d01      	subs	r5, #1
 8000872:	eb05 0345 	add.w	r3, r5, r5, lsl #1
 8000876:	eb05 0583 	add.w	r5, r5, r3, lsl #2

	for (wc = 1, s = 0; s < 13; s++) {		/* Process all characters in the entry */
 800087a:	2701      	movs	r7, #1
 800087c:	4604      	mov	r4, r0
 800087e:	e004      	b.n	800088a <pick_lfn+0x32>
		uc = ld_word(dir + LfnOfs[s]);		/* Pick an LFN character */
		if (wc) {
			if (i >= _MAX_LFN) return 0;	/* Buffer overflow? */
			lfnbuf[i++] = wc = uc;			/* Store it */
		} else {
			if (uc != 0xFFFF) return 0;		/* Check filler */
 8000880:	f64f 73ff 	movw	r3, #65535	@ 0xffff
 8000884:	4298      	cmp	r0, r3
 8000886:	d120      	bne.n	80008ca <pick_lfn+0x72>
	for (wc = 1, s = 0; s < 13; s++) {		/* Process all characters in the entry */
 8000888:	3401      	adds	r4, #1
 800088a:	2c0c      	cmp	r4, #12
 800088c:	d80d      	bhi.n	80008aa <pick_lfn+0x52>
		uc = ld_word(dir + LfnOfs[s]);		/* Pick an LFN character */
 800088e:	4b12      	ldr	r3, [pc, #72]	@ (80008d8 <pick_lfn+0x80>)
 8000890:	5d18      	ldrb	r0, [r3, r4]
 8000892:	4430      	add	r0, r6
 8000894:	f7ff fe43 	bl	800051e <ld_word>
		if (wc) {
 8000898:	2f00      	cmp	r7, #0
 800089a:	d0f1      	beq.n	8000880 <pick_lfn+0x28>
			if (i >= _MAX_LFN) return 0;	/* Buffer overflow? */
 800089c:	2dfe      	cmp	r5, #254	@ 0xfe
 800089e:	d812      	bhi.n	80008c6 <pick_lfn+0x6e>
			lfnbuf[i++] = wc = uc;			/* Store it */
 80008a0:	f828 0015 	strh.w	r0, [r8, r5, lsl #1]
 80008a4:	4607      	mov	r7, r0
 80008a6:	3501      	adds	r5, #1
 80008a8:	e7ee      	b.n	8000888 <pick_lfn+0x30>
		}
	}

	if (dir[LDIR_Ord] & LLEF) {				/* Put terminator if it is the last LFN part */
 80008aa:	7833      	ldrb	r3, [r6, #0]
 80008ac:	f013 0f40 	tst.w	r3, #64	@ 0x40
 80008b0:	d00d      	beq.n	80008ce <pick_lfn+0x76>
		if (i >= _MAX_LFN) return 0;		/* Buffer overflow? */
 80008b2:	2dfe      	cmp	r5, #254	@ 0xfe
 80008b4:	d80d      	bhi.n	80008d2 <pick_lfn+0x7a>
		lfnbuf[i] = 0;
 80008b6:	2300      	movs	r3, #0
 80008b8:	f828 3015 	strh.w	r3, [r8, r5, lsl #1]
	}

	return 1;		/* The part of LFN is valid */
 80008bc:	2001      	movs	r0, #1
 80008be:	e000      	b.n	80008c2 <pick_lfn+0x6a>
	if (ld_word(dir + LDIR_FstClusLO) != 0) return 0;	/* Check LDIR_FstClusLO is 0 */
 80008c0:	2000      	movs	r0, #0
}
 80008c2:	e8bd 81f0 	ldmia.w	sp!, {r4, r5, r6, r7, r8, pc}
			if (i >= _MAX_LFN) return 0;	/* Buffer overflow? */
 80008c6:	2000      	movs	r0, #0
 80008c8:	e7fb      	b.n	80008c2 <pick_lfn+0x6a>
			if (uc != 0xFFFF) return 0;		/* Check filler */
 80008ca:	2000      	movs	r0, #0
 80008cc:	e7f9      	b.n	80008c2 <pick_lfn+0x6a>
	return 1;		/* The part of LFN is valid */
 80008ce:	2001      	movs	r0, #1
 80008d0:	e7f7      	b.n	80008c2 <pick_lfn+0x6a>
		if (i >= _MAX_LFN) return 0;		/* Buffer overflow? */
 80008d2:	2000      	movs	r0, #0
 80008d4:	e7f5      	b.n	80008c2 <pick_lfn+0x6a>
 80008d6:	bf00      	nop
 80008d8:	080092a8 	.word	0x080092a8

080008dc <put_lfn>:
	const WCHAR* lfn,	/* Pointer to the LFN */
	BYTE* dir,			/* Pointer to the LFN entry to be created */
	BYTE ord,			/* LFN order (1-20) */
	BYTE sum			/* Checksum of the corresponding SFN */
)
{
 80008dc:	e92d 43f8 	stmdb	sp!, {r3, r4, r5, r6, r7, r8, r9, lr}
 80008e0:	4680      	mov	r8, r0
 80008e2:	460f      	mov	r7, r1
 80008e4:	4691      	mov	r9, r2
	UINT i, s;
	WCHAR wc;


	dir[LDIR_Chksum] = sum;			/* Set checksum */
 80008e6:	734b      	strb	r3, [r1, #13]
	dir[LDIR_Attr] = AM_LFN;		/* Set attribute. LFN entry */
 80008e8:	230f      	movs	r3, #15
 80008ea:	72cb      	strb	r3, [r1, #11]
	dir[LDIR_Type] = 0;
 80008ec:	2400      	movs	r4, #0
 80008ee:	730c      	strb	r4, [r1, #12]
	st_word(dir + LDIR_FstClusLO, 0);
 80008f0:	4621      	mov	r1, r4
 80008f2:	f107 001a 	add.w	r0, r7, #26
 80008f6:	f7ff fe44 	bl	8000582 <st_word>

	i = (ord - 1) * 13;				/* Get offset in the LFN working buffer */
 80008fa:	f109 36ff 	add.w	r6, r9, #4294967295	@ 0xffffffff
 80008fe:	eb06 0346 	add.w	r3, r6, r6, lsl #1
 8000902:	eb06 0683 	add.w	r6, r6, r3, lsl #2
	s = wc = 0;
 8000906:	4625      	mov	r5, r4
 8000908:	e002      	b.n	8000910 <put_lfn+0x34>
	do {
		if (wc != 0xFFFF) wc = lfn[i++];	/* Get an effective character */
		st_word(dir + LfnOfs[s], wc);		/* Put it */
		if (wc == 0) wc = 0xFFFF;		/* Padding characters for left locations */
	} while (++s < 13);
 800090a:	3401      	adds	r4, #1
 800090c:	2c0c      	cmp	r4, #12
 800090e:	d811      	bhi.n	8000934 <put_lfn+0x58>
		if (wc != 0xFFFF) wc = lfn[i++];	/* Get an effective character */
 8000910:	f64f 73ff 	movw	r3, #65535	@ 0xffff
 8000914:	429d      	cmp	r5, r3
 8000916:	d002      	beq.n	800091e <put_lfn+0x42>
 8000918:	f838 5016 	ldrh.w	r5, [r8, r6, lsl #1]
 800091c:	3601      	adds	r6, #1
		st_word(dir + LfnOfs[s], wc);		/* Put it */
 800091e:	4b0c      	ldr	r3, [pc, #48]	@ (8000950 <put_lfn+0x74>)
 8000920:	5d18      	ldrb	r0, [r3, r4]
 8000922:	4629      	mov	r1, r5
 8000924:	4438      	add	r0, r7
 8000926:	f7ff fe2c 	bl	8000582 <st_word>
		if (wc == 0) wc = 0xFFFF;		/* Padding characters for left locations */
 800092a:	2d00      	cmp	r5, #0
 800092c:	d1ed      	bne.n	800090a <put_lfn+0x2e>
 800092e:	f64f 75ff 	movw	r5, #65535	@ 0xffff
 8000932:	e7ea      	b.n	800090a <put_lfn+0x2e>
	if (wc == 0xFFFF || !lfn[i]) ord |= LLEF;	/* Last LFN part is the start of LFN sequence */
 8000934:	f64f 73ff 	movw	r3, #65535	@ 0xffff
 8000938:	429d      	cmp	r5, r3
 800093a:	d002      	beq.n	8000942 <put_lfn+0x66>
 800093c:	f838 3016 	ldrh.w	r3, [r8, r6, lsl #1]
 8000940:	b90b      	cbnz	r3, 8000946 <put_lfn+0x6a>
 8000942:	f049 0940 	orr.w	r9, r9, #64	@ 0x40
	dir[LDIR_Ord] = ord;			/* Set the LFN order */
 8000946:	f887 9000 	strb.w	r9, [r7]
}
 800094a:	e8bd 83f8 	ldmia.w	sp!, {r3, r4, r5, r6, r7, r8, r9, pc}
 800094e:	bf00      	nop
 8000950:	080092a8 	.word	0x080092a8

08000954 <gen_numname>:
	BYTE* dst,			/* Pointer to the buffer to store numbered SFN */
	const BYTE* src,	/* Pointer to SFN */
	const WCHAR* lfn,	/* Pointer to LFN */
	UINT seq			/* Sequence number */
)
{
 8000954:	b570      	push	{r4, r5, r6, lr}
 8000956:	b082      	sub	sp, #8
 8000958:	4605      	mov	r5, r0
 800095a:	4616      	mov	r6, r2
 800095c:	461c      	mov	r4, r3
	UINT i, j;
	WCHAR wc;
	DWORD sr;


	mem_cpy(dst, src, 11);
 800095e:	220b      	movs	r2, #11
 8000960:	f7ff fe30 	bl	80005c4 <mem_cpy>

	if (seq > 5) {	/* In case of many collisions, generate a hash number instead of sequential number */
 8000964:	2c05      	cmp	r4, #5
 8000966:	d811      	bhi.n	800098c <gen_numname+0x38>
		sr = seq;
		while (*lfn) {	/* Create a CRC */
			wc = *lfn++;
			for (i = 0; i < 16; i++) {
 8000968:	2207      	movs	r2, #7
 800096a:	e01d      	b.n	80009a8 <gen_numname+0x54>
 800096c:	3101      	adds	r1, #1
 800096e:	290f      	cmp	r1, #15
 8000970:	d80c      	bhi.n	800098c <gen_numname+0x38>
				sr = (sr << 1) + (wc & 1);
 8000972:	f003 0c01 	and.w	ip, r3, #1
 8000976:	eb0c 0444 	add.w	r4, ip, r4, lsl #1
				wc >>= 1;
 800097a:	085b      	lsrs	r3, r3, #1
				if (sr & 0x10000) sr ^= 0x11021;
 800097c:	f414 3f80 	tst.w	r4, #65536	@ 0x10000
 8000980:	d0f4      	beq.n	800096c <gen_numname+0x18>
 8000982:	f484 3488 	eor.w	r4, r4, #69632	@ 0x11000
 8000986:	f084 0421 	eor.w	r4, r4, #33	@ 0x21
 800098a:	e7ef      	b.n	800096c <gen_numname+0x18>
		while (*lfn) {	/* Create a CRC */
 800098c:	8833      	ldrh	r3, [r6, #0]
 800098e:	2b00      	cmp	r3, #0
 8000990:	d0ea      	beq.n	8000968 <gen_numname+0x14>
			wc = *lfn++;
 8000992:	3602      	adds	r6, #2
			for (i = 0; i < 16; i++) {
 8000994:	2100      	movs	r1, #0
 8000996:	e7ea      	b.n	800096e <gen_numname+0x1a>
	/* itoa (hexdecimal) */
	i = 7;
	do {
		c = (BYTE)((seq % 16) + '0');
		if (c > '9') c += 7;
		ns[i--] = c;
 8000998:	1e53      	subs	r3, r2, #1
 800099a:	3208      	adds	r2, #8
 800099c:	446a      	add	r2, sp
 800099e:	f802 1c08 	strb.w	r1, [r2, #-8]
		seq /= 16;
	} while (seq);
 80009a2:	0924      	lsrs	r4, r4, #4
 80009a4:	d009      	beq.n	80009ba <gen_numname+0x66>
		ns[i--] = c;
 80009a6:	461a      	mov	r2, r3
		c = (BYTE)((seq % 16) + '0');
 80009a8:	f004 030f 	and.w	r3, r4, #15
 80009ac:	f103 0130 	add.w	r1, r3, #48	@ 0x30
		if (c > '9') c += 7;
 80009b0:	2939      	cmp	r1, #57	@ 0x39
 80009b2:	d9f1      	bls.n	8000998 <gen_numname+0x44>
 80009b4:	f103 0137 	add.w	r1, r3, #55	@ 0x37
 80009b8:	e7ee      	b.n	8000998 <gen_numname+0x44>
	ns[i] = '~';
 80009ba:	217e      	movs	r1, #126	@ 0x7e
 80009bc:	f103 0208 	add.w	r2, r3, #8
 80009c0:	446a      	add	r2, sp
 80009c2:	f802 1c08 	strb.w	r1, [r2, #-8]

	/* Append the number */
	for (j = 0; j < i && dst[j] != ' '; j++) {
 80009c6:	e000      	b.n	80009ca <gen_numname+0x76>
 80009c8:	3401      	adds	r4, #1
 80009ca:	429c      	cmp	r4, r3
 80009cc:	d209      	bcs.n	80009e2 <gen_numname+0x8e>
 80009ce:	5d2a      	ldrb	r2, [r5, r4]
 80009d0:	2a20      	cmp	r2, #32
 80009d2:	d1f9      	bne.n	80009c8 <gen_numname+0x74>
 80009d4:	e005      	b.n	80009e2 <gen_numname+0x8e>
			if (j == i - 1) break;
			j++;
		}
	}
	do {
		dst[j++] = (i < 8) ? ns[i++] : ' ';
 80009d6:	2120      	movs	r1, #32
 80009d8:	1c62      	adds	r2, r4, #1
 80009da:	5529      	strb	r1, [r5, r4]
	} while (j < 8);
 80009dc:	2a07      	cmp	r2, #7
 80009de:	d809      	bhi.n	80009f4 <gen_numname+0xa0>
		dst[j++] = (i < 8) ? ns[i++] : ' ';
 80009e0:	4614      	mov	r4, r2
 80009e2:	2b07      	cmp	r3, #7
 80009e4:	d8f7      	bhi.n	80009d6 <gen_numname+0x82>
 80009e6:	f103 0208 	add.w	r2, r3, #8
 80009ea:	446a      	add	r2, sp
 80009ec:	f812 1c08 	ldrb.w	r1, [r2, #-8]
 80009f0:	3301      	adds	r3, #1
 80009f2:	e7f1      	b.n	80009d8 <gen_numname+0x84>
}
 80009f4:	b002      	add	sp, #8
 80009f6:	bd70      	pop	{r4, r5, r6, pc}

080009f8 <sum_sfn>:

static
BYTE sum_sfn (
	const BYTE* dir		/* Pointer to the SFN entry */
)
{
 80009f8:	4601      	mov	r1, r0
	BYTE sum = 0;
	UINT n = 11;
 80009fa:	f04f 0c0b 	mov.w	ip, #11
	BYTE sum = 0;
 80009fe:	2000      	movs	r0, #0

	do {
		sum = (sum >> 1) + (sum << 7) + *dir++;
 8000a00:	01c3      	lsls	r3, r0, #7
 8000a02:	eb03 0350 	add.w	r3, r3, r0, lsr #1
 8000a06:	780a      	ldrb	r2, [r1, #0]
 8000a08:	3101      	adds	r1, #1
 8000a0a:	fa52 f383 	uxtab	r3, r2, r3
 8000a0e:	b2d8      	uxtb	r0, r3
	} while (--n);
 8000a10:	f1bc 0c01 	subs.w	ip, ip, #1
 8000a14:	d1f4      	bne.n	8000a00 <sum_sfn+0x8>
	return sum;
}
 8000a16:	4770      	bx	lr

08000a18 <xdir_sum>:

static
WORD xdir_sum (			/* Get checksum of the directoly block */
	const BYTE* dir		/* Directory entry block to be calculated */
)
{
 8000a18:	b500      	push	{lr}
 8000a1a:	4686      	mov	lr, r0
	UINT i, szblk;
	WORD sum;


	szblk = (dir[XDIR_NumSec] + 1) * SZDIRE;
 8000a1c:	7841      	ldrb	r1, [r0, #1]
 8000a1e:	3101      	adds	r1, #1
 8000a20:	0149      	lsls	r1, r1, #5
	for (i = sum = 0; i < szblk; i++) {
 8000a22:	2000      	movs	r0, #0
 8000a24:	4603      	mov	r3, r0
 8000a26:	e001      	b.n	8000a2c <xdir_sum+0x14>
		if (i == XDIR_SetSum) {	/* Skip sum field */
			i++;
 8000a28:	3301      	adds	r3, #1
	for (i = sum = 0; i < szblk; i++) {
 8000a2a:	3301      	adds	r3, #1
 8000a2c:	428b      	cmp	r3, r1
 8000a2e:	d20a      	bcs.n	8000a46 <xdir_sum+0x2e>
		if (i == XDIR_SetSum) {	/* Skip sum field */
 8000a30:	2b02      	cmp	r3, #2
 8000a32:	d0f9      	beq.n	8000a28 <xdir_sum+0x10>
		} else {
			sum = ((sum & 1) ? 0x8000 : 0) + (sum >> 1) + dir[i];
 8000a34:	03c2      	lsls	r2, r0, #15
 8000a36:	eb02 0250 	add.w	r2, r2, r0, lsr #1
 8000a3a:	f81e c003 	ldrb.w	ip, [lr, r3]
 8000a3e:	fa1c f282 	uxtah	r2, ip, r2
 8000a42:	b290      	uxth	r0, r2
 8000a44:	e7f1      	b.n	8000a2a <xdir_sum+0x12>
		}
	}
	return sum;
}
 8000a46:	bd00      	pop	{pc}

08000a48 <get_ldnumber>:

static
int get_ldnumber (		/* Returns logical drive number (-1:invalid drive) */
	const TCHAR** path	/* Pointer to pointer to the path name */
)
{
 8000a48:	4601      	mov	r1, r0
	char c;
	TCHAR tc;
#endif


	if (*path) {	/* If the pointer is not a null */
 8000a4a:	6800      	ldr	r0, [r0, #0]
 8000a4c:	b138      	cbz	r0, 8000a5e <get_ldnumber+0x16>
		for (tt = *path; (UINT)*tt >= (_USE_LFN ? ' ' : '!') && *tt != ':'; tt++) ;	/* Find ':' in the path */
 8000a4e:	4602      	mov	r2, r0
 8000a50:	7813      	ldrb	r3, [r2, #0]
 8000a52:	2b1f      	cmp	r3, #31
 8000a54:	d906      	bls.n	8000a64 <get_ldnumber+0x1c>
 8000a56:	2b3a      	cmp	r3, #58	@ 0x3a
 8000a58:	d004      	beq.n	8000a64 <get_ldnumber+0x1c>
 8000a5a:	3201      	adds	r2, #1
 8000a5c:	e7f8      	b.n	8000a50 <get_ldnumber+0x8>
	int vol = -1;
 8000a5e:	f04f 30ff 	mov.w	r0, #4294967295	@ 0xffffffff
 8000a62:	4770      	bx	lr
		if (*tt == ':') {	/* If a ':' is exist in the path name */
 8000a64:	2b3a      	cmp	r3, #58	@ 0x3a
 8000a66:	d001      	beq.n	8000a6c <get_ldnumber+0x24>
			return vol;
		}
#if _FS_RPATH != 0 && _VOLUMES >= 2
		vol = CurrVol;	/* Current drive */
#else
		vol = 0;		/* Drive 0 */
 8000a68:	2000      	movs	r0, #0
#endif
	}
	return vol;
}
 8000a6a:	4770      	bx	lr
			i = *tp++ - '0';
 8000a6c:	4603      	mov	r3, r0
 8000a6e:	f813 0b01 	ldrb.w	r0, [r3], #1
 8000a72:	3830      	subs	r0, #48	@ 0x30
			if (i < 10 && tp == tt) {	/* Is there a numeric drive id? */
 8000a74:	2809      	cmp	r0, #9
 8000a76:	d808      	bhi.n	8000a8a <get_ldnumber+0x42>
 8000a78:	429a      	cmp	r2, r3
 8000a7a:	d002      	beq.n	8000a82 <get_ldnumber+0x3a>
	int vol = -1;
 8000a7c:	f04f 30ff 	mov.w	r0, #4294967295	@ 0xffffffff
 8000a80:	4770      	bx	lr
				if (i < _VOLUMES) {	/* If a drive id is found, get the value and strip it */
 8000a82:	b928      	cbnz	r0, 8000a90 <get_ldnumber+0x48>
					*path = ++tt;
 8000a84:	3201      	adds	r2, #1
 8000a86:	600a      	str	r2, [r1, #0]
 8000a88:	4770      	bx	lr
	int vol = -1;
 8000a8a:	f04f 30ff 	mov.w	r0, #4294967295	@ 0xffffffff
 8000a8e:	4770      	bx	lr
 8000a90:	f04f 30ff 	mov.w	r0, #4294967295	@ 0xffffffff
			return vol;
 8000a94:	4770      	bx	lr

08000a96 <validate>:
static
FRESULT validate (	/* Returns FR_OK or FR_INVALID_OBJECT */
	_FDID* obj,		/* Pointer to the _OBJ, the 1st member in the FIL/DIR object, to check validity */
	FATFS** fs		/* Pointer to pointer to the owner file system object to return */
)
{
 8000a96:	b538      	push	{r3, r4, r5, lr}
 8000a98:	460d      	mov	r5, r1
	FRESULT res = FR_INVALID_OBJECT;


	if (obj && obj->fs && obj->fs->fs_type && obj->id == obj->fs->id) {	/* Test if the object is valid */
 8000a9a:	4604      	mov	r4, r0
 8000a9c:	b198      	cbz	r0, 8000ac6 <validate+0x30>
 8000a9e:	6803      	ldr	r3, [r0, #0]
 8000aa0:	b19b      	cbz	r3, 8000aca <validate+0x34>
 8000aa2:	781a      	ldrb	r2, [r3, #0]
 8000aa4:	b1a2      	cbz	r2, 8000ad0 <validate+0x3a>
 8000aa6:	8881      	ldrh	r1, [r0, #4]
 8000aa8:	88da      	ldrh	r2, [r3, #6]
 8000aaa:	4291      	cmp	r1, r2
 8000aac:	d003      	beq.n	8000ab6 <validate+0x20>
	FRESULT res = FR_INVALID_OBJECT;
 8000aae:	2009      	movs	r0, #9
		if (!(disk_status(obj->fs->drv) & STA_NOINIT)) { /* Test if the phsical drive is kept initialized */
			res = FR_OK;
		}
#endif
	}
	*fs = (res == FR_OK) ? obj->fs : 0;	/* Corresponding filesystem object */
 8000ab0:	2400      	movs	r4, #0
 8000ab2:	602c      	str	r4, [r5, #0]
	return res;
}
 8000ab4:	bd38      	pop	{r3, r4, r5, pc}
		if (!(disk_status(obj->fs->drv) & STA_NOINIT)) { /* Test if the phsical drive is kept initialized */
 8000ab6:	7858      	ldrb	r0, [r3, #1]
 8000ab8:	f7ff fcce 	bl	8000458 <disk_status>
 8000abc:	f010 0001 	ands.w	r0, r0, #1
 8000ac0:	d109      	bne.n	8000ad6 <validate+0x40>
	*fs = (res == FR_OK) ? obj->fs : 0;	/* Corresponding filesystem object */
 8000ac2:	6824      	ldr	r4, [r4, #0]
 8000ac4:	e7f5      	b.n	8000ab2 <validate+0x1c>
	FRESULT res = FR_INVALID_OBJECT;
 8000ac6:	2009      	movs	r0, #9
 8000ac8:	e7f3      	b.n	8000ab2 <validate+0x1c>
	*fs = (res == FR_OK) ? obj->fs : 0;	/* Corresponding filesystem object */
 8000aca:	461c      	mov	r4, r3
	FRESULT res = FR_INVALID_OBJECT;
 8000acc:	2009      	movs	r0, #9
 8000ace:	e7f0      	b.n	8000ab2 <validate+0x1c>
 8000ad0:	2009      	movs	r0, #9
	*fs = (res == FR_OK) ? obj->fs : 0;	/* Corresponding filesystem object */
 8000ad2:	4614      	mov	r4, r2
 8000ad4:	e7ed      	b.n	8000ab2 <validate+0x1c>
	FRESULT res = FR_INVALID_OBJECT;
 8000ad6:	2009      	movs	r0, #9
	*fs = (res == FR_OK) ? obj->fs : 0;	/* Corresponding filesystem object */
 8000ad8:	2400      	movs	r4, #0
 8000ada:	e7ea      	b.n	8000ab2 <validate+0x1c>

08000adc <sync_window>:
{
 8000adc:	e92d 41f0 	stmdb	sp!, {r4, r5, r6, r7, r8, lr}
	if (fs->wflag) {	/* Write back the sector if it is dirty */
 8000ae0:	78c5      	ldrb	r5, [r0, #3]
 8000ae2:	b915      	cbnz	r5, 8000aea <sync_window+0xe>
}
 8000ae4:	4628      	mov	r0, r5
 8000ae6:	e8bd 81f0 	ldmia.w	sp!, {r4, r5, r6, r7, r8, pc}
 8000aea:	4604      	mov	r4, r0
		wsect = fs->winsect;	/* Current sector number */
 8000aec:	6b47      	ldr	r7, [r0, #52]	@ 0x34
		if (disk_write(fs->drv, fs->win, wsect, 1) != RES_OK) {
 8000aee:	f100 0338 	add.w	r3, r0, #56	@ 0x38
 8000af2:	4619      	mov	r1, r3
 8000af4:	4698      	mov	r8, r3
 8000af6:	2301      	movs	r3, #1
 8000af8:	463a      	mov	r2, r7
 8000afa:	7840      	ldrb	r0, [r0, #1]
 8000afc:	f7ff fcda 	bl	80004b4 <disk_write>
 8000b00:	4605      	mov	r5, r0
 8000b02:	b998      	cbnz	r0, 8000b2c <sync_window+0x50>
			fs->wflag = 0;
 8000b04:	70e0      	strb	r0, [r4, #3]
			if (wsect - fs->fatbase < fs->fsize) {		/* Is it in the FAT area? */
 8000b06:	6aa3      	ldr	r3, [r4, #40]	@ 0x28
 8000b08:	1afb      	subs	r3, r7, r3
 8000b0a:	6a22      	ldr	r2, [r4, #32]
 8000b0c:	4293      	cmp	r3, r2
 8000b0e:	d2e9      	bcs.n	8000ae4 <sync_window+0x8>
				for (nf = fs->n_fats; nf >= 2; nf--) {	/* Reflect the change to all FAT copies */
 8000b10:	78a6      	ldrb	r6, [r4, #2]
 8000b12:	e008      	b.n	8000b26 <sync_window+0x4a>
					wsect += fs->fsize;
 8000b14:	6a23      	ldr	r3, [r4, #32]
 8000b16:	441f      	add	r7, r3
					disk_write(fs->drv, fs->win, wsect, 1);
 8000b18:	2301      	movs	r3, #1
 8000b1a:	463a      	mov	r2, r7
 8000b1c:	4641      	mov	r1, r8
 8000b1e:	7860      	ldrb	r0, [r4, #1]
 8000b20:	f7ff fcc8 	bl	80004b4 <disk_write>
				for (nf = fs->n_fats; nf >= 2; nf--) {	/* Reflect the change to all FAT copies */
 8000b24:	3e01      	subs	r6, #1
 8000b26:	2e01      	cmp	r6, #1
 8000b28:	d8f4      	bhi.n	8000b14 <sync_window+0x38>
 8000b2a:	e7db      	b.n	8000ae4 <sync_window+0x8>
			res = FR_DISK_ERR;
 8000b2c:	2501      	movs	r5, #1
 8000b2e:	e7d9      	b.n	8000ae4 <sync_window+0x8>

08000b30 <move_window>:
{
 8000b30:	b570      	push	{r4, r5, r6, lr}
	if (sector != fs->winsect) {	/* Window offset changed? */
 8000b32:	6b43      	ldr	r3, [r0, #52]	@ 0x34
 8000b34:	428b      	cmp	r3, r1
 8000b36:	d103      	bne.n	8000b40 <move_window+0x10>
	FRESULT res = FR_OK;
 8000b38:	2300      	movs	r3, #0
 8000b3a:	461d      	mov	r5, r3
}
 8000b3c:	4628      	mov	r0, r5
 8000b3e:	bd70      	pop	{r4, r5, r6, pc}
 8000b40:	4604      	mov	r4, r0
 8000b42:	460e      	mov	r6, r1
		res = sync_window(fs);		/* Write-back changes */
 8000b44:	f7ff ffca 	bl	8000adc <sync_window>
		if (res == FR_OK) {			/* Fill sector window with new data */
 8000b48:	4605      	mov	r5, r0
 8000b4a:	2800      	cmp	r0, #0
 8000b4c:	d1f6      	bne.n	8000b3c <move_window+0xc>
			if (disk_read(fs->drv, fs->win, sector, 1) != RES_OK) {
 8000b4e:	2301      	movs	r3, #1
 8000b50:	4632      	mov	r2, r6
 8000b52:	f104 0138 	add.w	r1, r4, #56	@ 0x38
 8000b56:	7860      	ldrb	r0, [r4, #1]
 8000b58:	f7ff fc9e 	bl	8000498 <disk_read>
 8000b5c:	b120      	cbz	r0, 8000b68 <move_window+0x38>
				res = FR_DISK_ERR;
 8000b5e:	2301      	movs	r3, #1
 8000b60:	461d      	mov	r5, r3
				sector = 0xFFFFFFFF;	/* Invalidate window if data is not reliable */
 8000b62:	f04f 33ff 	mov.w	r3, #4294967295	@ 0xffffffff
 8000b66:	461e      	mov	r6, r3
			fs->winsect = sector;
 8000b68:	6366      	str	r6, [r4, #52]	@ 0x34
 8000b6a:	e7e7      	b.n	8000b3c <move_window+0xc>

08000b6c <check_fs>:
{
 8000b6c:	b538      	push	{r3, r4, r5, lr}
 8000b6e:	4604      	mov	r4, r0
	fs->wflag = 0; fs->winsect = 0xFFFFFFFF;		/* Invaidate window */
 8000b70:	2300      	movs	r3, #0
 8000b72:	70c3      	strb	r3, [r0, #3]
 8000b74:	f04f 33ff 	mov.w	r3, #4294967295	@ 0xffffffff
 8000b78:	6343      	str	r3, [r0, #52]	@ 0x34
	if (move_window(fs, sect) != FR_OK) return 4;	/* Load boot record */
 8000b7a:	f7ff ffd9 	bl	8000b30 <move_window>
 8000b7e:	bb68      	cbnz	r0, 8000bdc <check_fs+0x70>
 8000b80:	4605      	mov	r5, r0
	if (ld_word(fs->win + BS_55AA) != 0xAA55) return 3;	/* Check boot record signature (always placed here even if the sector size is >512) */
 8000b82:	f204 2036 	addw	r0, r4, #566	@ 0x236
 8000b86:	f7ff fcca 	bl	800051e <ld_word>
 8000b8a:	f64a 2355 	movw	r3, #43605	@ 0xaa55
 8000b8e:	4298      	cmp	r0, r3
 8000b90:	d127      	bne.n	8000be2 <check_fs+0x76>
	if (fs->win[BS_JmpBoot] == 0xE9 || (fs->win[BS_JmpBoot] == 0xEB && fs->win[BS_JmpBoot + 2] == 0x90)) {
 8000b92:	f894 3038 	ldrb.w	r3, [r4, #56]	@ 0x38
 8000b96:	2be9      	cmp	r3, #233	@ 0xe9
 8000b98:	d00f      	beq.n	8000bba <check_fs+0x4e>
 8000b9a:	2beb      	cmp	r3, #235	@ 0xeb
 8000b9c:	d009      	beq.n	8000bb2 <check_fs+0x46>
	if (!mem_cmp(fs->win + BS_JmpBoot, "\xEB\x76\x90" "EXFAT   ", 11)) return 1;
 8000b9e:	220b      	movs	r2, #11
 8000ba0:	4913      	ldr	r1, [pc, #76]	@ (8000bf0 <check_fs+0x84>)
 8000ba2:	f104 0038 	add.w	r0, r4, #56	@ 0x38
 8000ba6:	f7ff fd1c 	bl	80005e2 <mem_cmp>
 8000baa:	b1f0      	cbz	r0, 8000bea <check_fs+0x7e>
	return 2;
 8000bac:	2302      	movs	r3, #2
 8000bae:	461d      	mov	r5, r3
 8000bb0:	e019      	b.n	8000be6 <check_fs+0x7a>
	if (fs->win[BS_JmpBoot] == 0xE9 || (fs->win[BS_JmpBoot] == 0xEB && fs->win[BS_JmpBoot + 2] == 0x90)) {
 8000bb2:	f894 303a 	ldrb.w	r3, [r4, #58]	@ 0x3a
 8000bb6:	2b90      	cmp	r3, #144	@ 0x90
 8000bb8:	d1f1      	bne.n	8000b9e <check_fs+0x32>
		if ((ld_dword(fs->win + BS_FilSysType) & 0xFFFFFF) == 0x544146) return 0;	/* Check "FAT" string */
 8000bba:	f104 006e 	add.w	r0, r4, #110	@ 0x6e
 8000bbe:	f7ff fcb3 	bl	8000528 <ld_dword>
 8000bc2:	f020 407f 	bic.w	r0, r0, #4278190080	@ 0xff000000
 8000bc6:	4b0b      	ldr	r3, [pc, #44]	@ (8000bf4 <check_fs+0x88>)
 8000bc8:	4298      	cmp	r0, r3
 8000bca:	d00c      	beq.n	8000be6 <check_fs+0x7a>
		if (ld_dword(fs->win + BS_FilSysType32) == 0x33544146) return 0;			/* Check "FAT3" string */
 8000bcc:	f104 008a 	add.w	r0, r4, #138	@ 0x8a
 8000bd0:	f7ff fcaa 	bl	8000528 <ld_dword>
 8000bd4:	4b08      	ldr	r3, [pc, #32]	@ (8000bf8 <check_fs+0x8c>)
 8000bd6:	4298      	cmp	r0, r3
 8000bd8:	d1e1      	bne.n	8000b9e <check_fs+0x32>
 8000bda:	e004      	b.n	8000be6 <check_fs+0x7a>
	if (move_window(fs, sect) != FR_OK) return 4;	/* Load boot record */
 8000bdc:	2304      	movs	r3, #4
 8000bde:	461d      	mov	r5, r3
 8000be0:	e001      	b.n	8000be6 <check_fs+0x7a>
	if (ld_word(fs->win + BS_55AA) != 0xAA55) return 3;	/* Check boot record signature (always placed here even if the sector size is >512) */
 8000be2:	2303      	movs	r3, #3
 8000be4:	461d      	mov	r5, r3
}
 8000be6:	4628      	mov	r0, r5
 8000be8:	bd38      	pop	{r3, r4, r5, pc}
	if (!mem_cmp(fs->win + BS_JmpBoot, "\xEB\x76\x90" "EXFAT   ", 11)) return 1;
 8000bea:	2301      	movs	r3, #1
 8000bec:	461d      	mov	r5, r3
 8000bee:	e7fa      	b.n	8000be6 <check_fs+0x7a>
 8000bf0:	08008f60 	.word	0x08008f60
 8000bf4:	00544146 	.word	0x00544146
 8000bf8:	33544146 	.word	0x33544146

08000bfc <find_volume>:
{
 8000bfc:	e92d 4ff0 	stmdb	sp!, {r4, r5, r6, r7, r8, r9, sl, fp, lr}
 8000c00:	b089      	sub	sp, #36	@ 0x24
 8000c02:	460d      	mov	r5, r1
 8000c04:	4617      	mov	r7, r2
	*rfs = 0;
 8000c06:	2300      	movs	r3, #0
 8000c08:	600b      	str	r3, [r1, #0]
	vol = get_ldnumber(path);
 8000c0a:	f7ff ff1d 	bl	8000a48 <get_ldnumber>
	if (vol < 0) return FR_INVALID_DRIVE;
 8000c0e:	1e06      	subs	r6, r0, #0
 8000c10:	f2c0 81e6 	blt.w	8000fe0 <find_volume+0x3e4>
	fs = FatFs[vol];					/* Get pointer to the file system object */
 8000c14:	4bb1      	ldr	r3, [pc, #708]	@ (8000edc <find_volume+0x2e0>)
 8000c16:	f853 4026 	ldr.w	r4, [r3, r6, lsl #2]
	if (!fs) return FR_NOT_ENABLED;		/* Is the file system object available? */
 8000c1a:	2c00      	cmp	r4, #0
 8000c1c:	f000 81e5 	beq.w	8000fea <find_volume+0x3ee>
	*rfs = fs;							/* Return pointer to the file system object */
 8000c20:	602c      	str	r4, [r5, #0]
	mode &= (BYTE)~FA_READ;				/* Desired access mode, write access or not */
 8000c22:	f007 07fe 	and.w	r7, r7, #254	@ 0xfe
	if (fs->fs_type) {					/* If the volume has been mounted */
 8000c26:	7823      	ldrb	r3, [r4, #0]
 8000c28:	b173      	cbz	r3, 8000c48 <find_volume+0x4c>
		stat = disk_status(fs->drv);
 8000c2a:	7860      	ldrb	r0, [r4, #1]
 8000c2c:	f7ff fc14 	bl	8000458 <disk_status>
		if (!(stat & STA_NOINIT)) {		/* and the physical drive is kept initialized */
 8000c30:	f010 0501 	ands.w	r5, r0, #1
 8000c34:	d108      	bne.n	8000c48 <find_volume+0x4c>
			if (!_FS_READONLY && mode && (stat & STA_PROTECT)) {	/* Check write protection if needed */
 8000c36:	2f00      	cmp	r7, #0
 8000c38:	f000 81d3 	beq.w	8000fe2 <find_volume+0x3e6>
 8000c3c:	f010 0f04 	tst.w	r0, #4
 8000c40:	f000 81cf 	beq.w	8000fe2 <find_volume+0x3e6>
				return FR_WRITE_PROTECTED;
 8000c44:	250a      	movs	r5, #10
 8000c46:	e1cc      	b.n	8000fe2 <find_volume+0x3e6>
	fs->fs_type = 0;					/* Clear the file system object */
 8000c48:	2300      	movs	r3, #0
 8000c4a:	7023      	strb	r3, [r4, #0]
	fs->drv = LD2PD(vol);				/* Bind the logical drive and a physical drive */
 8000c4c:	b2f0      	uxtb	r0, r6
 8000c4e:	7060      	strb	r0, [r4, #1]
	stat = disk_initialize(fs->drv);	/* Initialize the physical drive */
 8000c50:	f7ff fc0e 	bl	8000470 <disk_initialize>
	if (stat & STA_NOINIT) { 			/* Check if the initialization succeeded */
 8000c54:	f010 0501 	ands.w	r5, r0, #1
 8000c58:	f040 81c9 	bne.w	8000fee <find_volume+0x3f2>
	if (!_FS_READONLY && mode && (stat & STA_PROTECT)) { /* Check disk write protection if needed */
 8000c5c:	b11f      	cbz	r7, 8000c66 <find_volume+0x6a>
 8000c5e:	f010 0f04 	tst.w	r0, #4
 8000c62:	f040 81c6 	bne.w	8000ff2 <find_volume+0x3f6>
	fmt = check_fs(fs, bsect);			/* Load sector 0 and check if it is an FAT-VBR as SFD */
 8000c66:	2100      	movs	r1, #0
 8000c68:	4620      	mov	r0, r4
 8000c6a:	f7ff ff7f 	bl	8000b6c <check_fs>
	if (fmt == 2 || (fmt < 2 && LD2PT(vol) != 0)) {	/* Not an FAT-VBR or forced partition number */
 8000c6e:	2802      	cmp	r0, #2
 8000c70:	f000 8082 	beq.w	8000d78 <find_volume+0x17c>
	bsect = 0;
 8000c74:	2300      	movs	r3, #0
 8000c76:	461f      	mov	r7, r3
	if (fmt == 4) return FR_DISK_ERR;		/* An error occured in the disk I/O layer */
 8000c78:	2804      	cmp	r0, #4
 8000c7a:	f000 81bc 	beq.w	8000ff6 <find_volume+0x3fa>
	if (fmt >= 2) return FR_NO_FILESYSTEM;	/* No FAT volume is found */
 8000c7e:	2801      	cmp	r0, #1
 8000c80:	f200 81bb 	bhi.w	8000ffa <find_volume+0x3fe>
	if (fmt == 1) {
 8000c84:	f000 810b 	beq.w	8000e9e <find_volume+0x2a2>
		if (ld_word(fs->win + BPB_BytsPerSec) != SS(fs)) return FR_NO_FILESYSTEM;	/* (BPB_BytsPerSec must be equal to the physical sector size) */
 8000c88:	f104 0043 	add.w	r0, r4, #67	@ 0x43
 8000c8c:	f7ff fc47 	bl	800051e <ld_word>
 8000c90:	f5b0 7f00 	cmp.w	r0, #512	@ 0x200
 8000c94:	f040 81c7 	bne.w	8001026 <find_volume+0x42a>
		fasize = ld_word(fs->win + BPB_FATSz16);		/* Number of sectors per FAT */
 8000c98:	f104 004e 	add.w	r0, r4, #78	@ 0x4e
 8000c9c:	f7ff fc3f 	bl	800051e <ld_word>
 8000ca0:	4680      	mov	r8, r0
		if (fasize == 0) fasize = ld_dword(fs->win + BPB_FATSz32);
 8000ca2:	b920      	cbnz	r0, 8000cae <find_volume+0xb2>
 8000ca4:	f104 005c 	add.w	r0, r4, #92	@ 0x5c
 8000ca8:	f7ff fc3e 	bl	8000528 <ld_dword>
 8000cac:	4680      	mov	r8, r0
		fs->fsize = fasize;
 8000cae:	f8c4 8020 	str.w	r8, [r4, #32]
		fs->n_fats = fs->win[BPB_NumFATs];				/* Number of FATs */
 8000cb2:	f894 2048 	ldrb.w	r2, [r4, #72]	@ 0x48
 8000cb6:	70a2      	strb	r2, [r4, #2]
		if (fs->n_fats != 1 && fs->n_fats != 2) return FR_NO_FILESYSTEM;	/* (Must be 1 or 2) */
 8000cb8:	1e53      	subs	r3, r2, #1
 8000cba:	b2db      	uxtb	r3, r3
 8000cbc:	2b01      	cmp	r3, #1
 8000cbe:	f200 81b4 	bhi.w	800102a <find_volume+0x42e>
		fasize *= fs->n_fats;							/* Number of sectors for FAT area */
 8000cc2:	fb08 f302 	mul.w	r3, r8, r2
 8000cc6:	4699      	mov	r9, r3
		fs->csize = fs->win[BPB_SecPerClus];			/* Cluster size */
 8000cc8:	f894 6045 	ldrb.w	r6, [r4, #69]	@ 0x45
 8000ccc:	8166      	strh	r6, [r4, #10]
		if (fs->csize == 0 || (fs->csize & (fs->csize - 1))) return FR_NO_FILESYSTEM;	/* (Must be power of 2) */
 8000cce:	2e00      	cmp	r6, #0
 8000cd0:	f000 81ad 	beq.w	800102e <find_volume+0x432>
 8000cd4:	1e73      	subs	r3, r6, #1
 8000cd6:	421e      	tst	r6, r3
 8000cd8:	f040 81ab 	bne.w	8001032 <find_volume+0x436>
		fs->n_rootdir = ld_word(fs->win + BPB_RootEntCnt);	/* Number of root directory entries */
 8000cdc:	f104 0049 	add.w	r0, r4, #73	@ 0x49
 8000ce0:	f7ff fc1d 	bl	800051e <ld_word>
 8000ce4:	4682      	mov	sl, r0
 8000ce6:	8120      	strh	r0, [r4, #8]
		if (fs->n_rootdir % (SS(fs) / SZDIRE)) return FR_NO_FILESYSTEM;	/* (Must be sector aligned) */
 8000ce8:	f010 0f0f 	tst.w	r0, #15
 8000cec:	f040 81a3 	bne.w	8001036 <find_volume+0x43a>
		tsect = ld_word(fs->win + BPB_TotSec16);		/* Number of sectors on the volume */
 8000cf0:	f104 004b 	add.w	r0, r4, #75	@ 0x4b
 8000cf4:	f7ff fc13 	bl	800051e <ld_word>
 8000cf8:	4683      	mov	fp, r0
		if (tsect == 0) tsect = ld_dword(fs->win + BPB_TotSec32);
 8000cfa:	b920      	cbnz	r0, 8000d06 <find_volume+0x10a>
 8000cfc:	f104 0058 	add.w	r0, r4, #88	@ 0x58
 8000d00:	f7ff fc12 	bl	8000528 <ld_dword>
 8000d04:	4683      	mov	fp, r0
		nrsv = ld_word(fs->win + BPB_RsvdSecCnt);		/* Number of reserved sectors */
 8000d06:	f104 0046 	add.w	r0, r4, #70	@ 0x46
 8000d0a:	f7ff fc08 	bl	800051e <ld_word>
		if (nrsv == 0) return FR_NO_FILESYSTEM;			/* (Must not be 0) */
 8000d0e:	4684      	mov	ip, r0
 8000d10:	2800      	cmp	r0, #0
 8000d12:	f000 8192 	beq.w	800103a <find_volume+0x43e>
		sysect = nrsv + fasize + fs->n_rootdir / (SS(fs) / SZDIRE);	/* RSV + FAT + DIR */
 8000d16:	eb00 0309 	add.w	r3, r0, r9
 8000d1a:	eb03 131a 	add.w	r3, r3, sl, lsr #4
		if (tsect < sysect) return FR_NO_FILESYSTEM;	/* (Invalid volume size) */
 8000d1e:	465a      	mov	r2, fp
 8000d20:	459b      	cmp	fp, r3
 8000d22:	f0c0 818c 	bcc.w	800103e <find_volume+0x442>
		nclst = (tsect - sysect) / fs->csize;			/* Number of clusters */
 8000d26:	1ad2      	subs	r2, r2, r3
 8000d28:	fbb2 f1f6 	udiv	r1, r2, r6
		if (nclst == 0) return FR_NO_FILESYSTEM;		/* (Invalid volume size) */
 8000d2c:	42b2      	cmp	r2, r6
 8000d2e:	f0c0 8188 	bcc.w	8001042 <find_volume+0x446>
		if (nclst <= MAX_FAT16) fmt = FS_FAT16;
 8000d32:	f64f 72f5 	movw	r2, #65525	@ 0xfff5
 8000d36:	4291      	cmp	r1, r2
 8000d38:	f200 80d4 	bhi.w	8000ee4 <find_volume+0x2e8>
		if (nclst <= MAX_FAT12) fmt = FS_FAT12;
 8000d3c:	f640 72f5 	movw	r2, #4085	@ 0xff5
 8000d40:	4291      	cmp	r1, r2
 8000d42:	f240 8107 	bls.w	8000f54 <find_volume+0x358>
 8000d46:	2202      	movs	r2, #2
 8000d48:	4616      	mov	r6, r2
 8000d4a:	e0cd      	b.n	8000ee8 <find_volume+0x2ec>
			br[i] = pt[PTE_System] ? ld_dword(pt + PTE_StLba) : 0;
 8000d4c:	4618      	mov	r0, r3
 8000d4e:	ab08      	add	r3, sp, #32
 8000d50:	eb03 0386 	add.w	r3, r3, r6, lsl #2
 8000d54:	f843 0c10 	str.w	r0, [r3, #-16]
		for (i = 0; i < 4; i++) {		/* Get partition offset */
 8000d58:	3601      	adds	r6, #1
 8000d5a:	2e03      	cmp	r6, #3
 8000d5c:	d80e      	bhi.n	8000d7c <find_volume+0x180>
			pt = fs->win + (MBR_Table + i * SZ_PTE);
 8000d5e:	f104 0038 	add.w	r0, r4, #56	@ 0x38
 8000d62:	0133      	lsls	r3, r6, #4
 8000d64:	f503 73df 	add.w	r3, r3, #446	@ 0x1be
 8000d68:	4418      	add	r0, r3
			br[i] = pt[PTE_System] ? ld_dword(pt + PTE_StLba) : 0;
 8000d6a:	7903      	ldrb	r3, [r0, #4]
 8000d6c:	2b00      	cmp	r3, #0
 8000d6e:	d0ed      	beq.n	8000d4c <find_volume+0x150>
 8000d70:	3008      	adds	r0, #8
 8000d72:	f7ff fbd9 	bl	8000528 <ld_dword>
 8000d76:	e7ea      	b.n	8000d4e <find_volume+0x152>
		for (i = 0; i < 4; i++) {		/* Get partition offset */
 8000d78:	2600      	movs	r6, #0
 8000d7a:	e7ee      	b.n	8000d5a <find_volume+0x15e>
 8000d7c:	2600      	movs	r6, #0
 8000d7e:	e00a      	b.n	8000d96 <find_volume+0x19a>
			fmt = bsect ? check_fs(fs, bsect) : 3;	/* Check the partition */
 8000d80:	4619      	mov	r1, r3
 8000d82:	4620      	mov	r0, r4
 8000d84:	f7ff fef2 	bl	8000b6c <check_fs>
		} while (LD2PT(vol) == 0 && fmt >= 2 && ++i < 4);
 8000d88:	2801      	cmp	r0, #1
 8000d8a:	f67f af75 	bls.w	8000c78 <find_volume+0x7c>
 8000d8e:	3601      	adds	r6, #1
 8000d90:	2e03      	cmp	r6, #3
 8000d92:	f63f af71 	bhi.w	8000c78 <find_volume+0x7c>
			bsect = br[i];
 8000d96:	ab08      	add	r3, sp, #32
 8000d98:	eb03 0386 	add.w	r3, r3, r6, lsl #2
 8000d9c:	f853 3c10 	ldr.w	r3, [r3, #-16]
 8000da0:	461f      	mov	r7, r3
			fmt = bsect ? check_fs(fs, bsect) : 3;	/* Check the partition */
 8000da2:	2b00      	cmp	r3, #0
 8000da4:	d1ec      	bne.n	8000d80 <find_volume+0x184>
 8000da6:	2003      	movs	r0, #3
 8000da8:	e7f1      	b.n	8000d8e <find_volume+0x192>
		for (i = BPB_ZeroedEx; i < BPB_ZeroedEx + 53 && fs->win[i] == 0; i++) ;	/* Check zero filler */
 8000daa:	3301      	adds	r3, #1
 8000dac:	2b3f      	cmp	r3, #63	@ 0x3f
 8000dae:	d804      	bhi.n	8000dba <find_volume+0x1be>
 8000db0:	18e2      	adds	r2, r4, r3
 8000db2:	f892 2038 	ldrb.w	r2, [r2, #56]	@ 0x38
 8000db6:	2a00      	cmp	r2, #0
 8000db8:	d0f7      	beq.n	8000daa <find_volume+0x1ae>
		if (i < BPB_ZeroedEx + 53) return FR_NO_FILESYSTEM;
 8000dba:	2b3f      	cmp	r3, #63	@ 0x3f
 8000dbc:	f240 811f 	bls.w	8000ffe <find_volume+0x402>
		if (ld_word(fs->win + BPB_FSVerEx) != 0x100) return FR_NO_FILESYSTEM;	/* Check exFAT revision (Must be 1.0) */
 8000dc0:	f104 00a0 	add.w	r0, r4, #160	@ 0xa0
 8000dc4:	f7ff fbab 	bl	800051e <ld_word>
 8000dc8:	f5b0 7f80 	cmp.w	r0, #256	@ 0x100
 8000dcc:	f040 8119 	bne.w	8001002 <find_volume+0x406>
		if (1 << fs->win[BPB_BytsPerSecEx] != SS(fs)) {	/* (BPB_BytsPerSecEx must be equal to the physical sector size) */
 8000dd0:	f894 30a4 	ldrb.w	r3, [r4, #164]	@ 0xa4
 8000dd4:	2b09      	cmp	r3, #9
 8000dd6:	f040 8116 	bne.w	8001006 <find_volume+0x40a>
		maxlba = ld_qword(fs->win + BPB_TotSecEx) + bsect;	/* Last LBA + 1 of the volume */
 8000dda:	f104 0080 	add.w	r0, r4, #128	@ 0x80
 8000dde:	f7ff fbae 	bl	800053e <ld_qword>
 8000de2:	19c2      	adds	r2, r0, r7
 8000de4:	f141 0000 	adc.w	r0, r1, #0
		if (maxlba >= 0x100000000) return FR_NO_FILESYSTEM;	/* (It cannot be handled in 32-bit LBA) */
 8000de8:	f04f 33ff 	mov.w	r3, #4294967295	@ 0xffffffff
 8000dec:	9200      	str	r2, [sp, #0]
 8000dee:	4293      	cmp	r3, r2
 8000df0:	f04f 0300 	mov.w	r3, #0
 8000df4:	9001      	str	r0, [sp, #4]
 8000df6:	4183      	sbcs	r3, r0
 8000df8:	f0c0 8107 	bcc.w	800100a <find_volume+0x40e>
		fs->fsize = ld_dword(fs->win + BPB_FatSzEx);	/* Number of sectors per FAT */
 8000dfc:	f104 008c 	add.w	r0, r4, #140	@ 0x8c
 8000e00:	f7ff fb92 	bl	8000528 <ld_dword>
 8000e04:	6220      	str	r0, [r4, #32]
		fs->n_fats = fs->win[BPB_NumFATsEx];			/* Number of FATs */
 8000e06:	f894 60a6 	ldrb.w	r6, [r4, #166]	@ 0xa6
 8000e0a:	70a6      	strb	r6, [r4, #2]
		if (fs->n_fats != 1) return FR_NO_FILESYSTEM;	/* (Supports only 1 FAT) */
 8000e0c:	2e01      	cmp	r6, #1
 8000e0e:	f040 80fe 	bne.w	800100e <find_volume+0x412>
		fs->csize = 1 << fs->win[BPB_SecPerClusEx];		/* Cluster size */
 8000e12:	f894 30a5 	ldrb.w	r3, [r4, #165]	@ 0xa5
 8000e16:	2201      	movs	r2, #1
 8000e18:	fa02 f303 	lsl.w	r3, r2, r3
 8000e1c:	4698      	mov	r8, r3
 8000e1e:	b29b      	uxth	r3, r3
 8000e20:	8163      	strh	r3, [r4, #10]
		if (fs->csize == 0)	return FR_NO_FILESYSTEM;	/* (Must be 1..32768) */
 8000e22:	2b00      	cmp	r3, #0
 8000e24:	f000 80f5 	beq.w	8001012 <find_volume+0x416>
		nclst = ld_dword(fs->win + BPB_NumClusEx);		/* Number of clusters */
 8000e28:	f104 0094 	add.w	r0, r4, #148	@ 0x94
 8000e2c:	f7ff fb7c 	bl	8000528 <ld_dword>
		if (nclst > MAX_EXFAT) return FR_NO_FILESYSTEM;	/* (Too many clusters) */
 8000e30:	4b2b      	ldr	r3, [pc, #172]	@ (8000ee0 <find_volume+0x2e4>)
 8000e32:	4298      	cmp	r0, r3
 8000e34:	f200 80ef 	bhi.w	8001016 <find_volume+0x41a>
		fs->n_fatent = nclst + 2;
 8000e38:	9003      	str	r0, [sp, #12]
 8000e3a:	4603      	mov	r3, r0
 8000e3c:	3302      	adds	r3, #2
 8000e3e:	61e3      	str	r3, [r4, #28]
		fs->volbase = bsect;
 8000e40:	6267      	str	r7, [r4, #36]	@ 0x24
		fs->database = bsect + ld_dword(fs->win + BPB_DataOfsEx);
 8000e42:	f104 0090 	add.w	r0, r4, #144	@ 0x90
 8000e46:	f7ff fb6f 	bl	8000528 <ld_dword>
 8000e4a:	19c1      	adds	r1, r0, r7
 8000e4c:	9102      	str	r1, [sp, #8]
 8000e4e:	6321      	str	r1, [r4, #48]	@ 0x30
		fs->fatbase = bsect + ld_dword(fs->win + BPB_FatOfsEx);
 8000e50:	f104 0088 	add.w	r0, r4, #136	@ 0x88
 8000e54:	f7ff fb68 	bl	8000528 <ld_dword>
 8000e58:	4438      	add	r0, r7
 8000e5a:	62a0      	str	r0, [r4, #40]	@ 0x28
		if (maxlba < (QWORD)fs->database + nclst * fs->csize) return FR_NO_FILESYSTEM;	/* (Volume size must not be smaller than the size requiered) */
 8000e5c:	2200      	movs	r2, #0
 8000e5e:	fa1f f388 	uxth.w	r3, r8
 8000e62:	9f03      	ldr	r7, [sp, #12]
 8000e64:	fb07 f303 	mul.w	r3, r7, r3
 8000e68:	9f02      	ldr	r7, [sp, #8]
 8000e6a:	18fb      	adds	r3, r7, r3
 8000e6c:	4152      	adcs	r2, r2
 8000e6e:	9900      	ldr	r1, [sp, #0]
 8000e70:	4299      	cmp	r1, r3
 8000e72:	9801      	ldr	r0, [sp, #4]
 8000e74:	4190      	sbcs	r0, r2
 8000e76:	f0c0 80d0 	bcc.w	800101a <find_volume+0x41e>
		fs->dirbase = ld_dword(fs->win + BPB_RootClusEx);
 8000e7a:	f104 0098 	add.w	r0, r4, #152	@ 0x98
 8000e7e:	f7ff fb53 	bl	8000528 <ld_dword>
 8000e82:	4601      	mov	r1, r0
 8000e84:	62e0      	str	r0, [r4, #44]	@ 0x2c
		if (move_window(fs, clust2sect(fs, fs->dirbase)) != FR_OK) return FR_DISK_ERR;
 8000e86:	4620      	mov	r0, r4
 8000e88:	f7ff fc9a 	bl	80007c0 <clust2sect>
 8000e8c:	4601      	mov	r1, r0
 8000e8e:	4620      	mov	r0, r4
 8000e90:	f7ff fe4e 	bl	8000b30 <move_window>
 8000e94:	2800      	cmp	r0, #0
 8000e96:	f040 80c2 	bne.w	800101e <find_volume+0x422>
		for (i = 0; i < SS(fs); i += SZDIRE) {
 8000e9a:	4606      	mov	r6, r0
 8000e9c:	e002      	b.n	8000ea4 <find_volume+0x2a8>
		for (i = BPB_ZeroedEx; i < BPB_ZeroedEx + 53 && fs->win[i] == 0; i++) ;	/* Check zero filler */
 8000e9e:	230b      	movs	r3, #11
 8000ea0:	e784      	b.n	8000dac <find_volume+0x1b0>
		for (i = 0; i < SS(fs); i += SZDIRE) {
 8000ea2:	3620      	adds	r6, #32
 8000ea4:	f5b6 7f00 	cmp.w	r6, #512	@ 0x200
 8000ea8:	d20d      	bcs.n	8000ec6 <find_volume+0x2ca>
			if (fs->win[i] == 0x81 && ld_dword(fs->win + i + 20) == 2) break;	/* 81 entry with cluster #2? */
 8000eaa:	19a3      	adds	r3, r4, r6
 8000eac:	f893 3038 	ldrb.w	r3, [r3, #56]	@ 0x38
 8000eb0:	2b81      	cmp	r3, #129	@ 0x81
 8000eb2:	d1f6      	bne.n	8000ea2 <find_volume+0x2a6>
 8000eb4:	f104 0338 	add.w	r3, r4, #56	@ 0x38
 8000eb8:	f106 0014 	add.w	r0, r6, #20
 8000ebc:	4418      	add	r0, r3
 8000ebe:	f7ff fb33 	bl	8000528 <ld_dword>
 8000ec2:	2802      	cmp	r0, #2
 8000ec4:	d1ed      	bne.n	8000ea2 <find_volume+0x2a6>
		if (i == SS(fs)) return FR_NO_FILESYSTEM;
 8000ec6:	f5b6 7f00 	cmp.w	r6, #512	@ 0x200
 8000eca:	f000 80aa 	beq.w	8001022 <find_volume+0x426>
		fs->last_clst = fs->free_clst = 0xFFFFFFFF;		/* Initialize cluster allocation information */
 8000ece:	f04f 33ff 	mov.w	r3, #4294967295	@ 0xffffffff
 8000ed2:	61a3      	str	r3, [r4, #24]
 8000ed4:	6163      	str	r3, [r4, #20]
		fmt = FS_EXFAT;			/* FAT sub-type */
 8000ed6:	2304      	movs	r3, #4
 8000ed8:	461e      	mov	r6, r3
 8000eda:	e02c      	b.n	8000f36 <find_volume+0x33a>
 8000edc:	2000099c 	.word	0x2000099c
 8000ee0:	7ffffffd 	.word	0x7ffffffd
		fmt = FS_FAT32;
 8000ee4:	2203      	movs	r2, #3
 8000ee6:	4616      	mov	r6, r2
		fs->n_fatent = nclst + 2;						/* Number of FAT entries */
 8000ee8:	1c8a      	adds	r2, r1, #2
 8000eea:	4693      	mov	fp, r2
 8000eec:	61e2      	str	r2, [r4, #28]
		fs->volbase = bsect;							/* Volume start sector */
 8000eee:	6267      	str	r7, [r4, #36]	@ 0x24
		fs->fatbase = bsect + nrsv; 					/* FAT start sector */
 8000ef0:	eb0c 0207 	add.w	r2, ip, r7
 8000ef4:	62a2      	str	r2, [r4, #40]	@ 0x28
		fs->database = bsect + sysect;					/* Data start sector */
 8000ef6:	443b      	add	r3, r7
 8000ef8:	6323      	str	r3, [r4, #48]	@ 0x30
		if (fmt == FS_FAT32) {
 8000efa:	2e03      	cmp	r6, #3
 8000efc:	d02d      	beq.n	8000f5a <find_volume+0x35e>
			if (fs->n_rootdir == 0)	return FR_NO_FILESYSTEM;/* (BPB_RootEntCnt must not be 0) */
 8000efe:	4653      	mov	r3, sl
 8000f00:	2b00      	cmp	r3, #0
 8000f02:	f000 80a4 	beq.w	800104e <find_volume+0x452>
			fs->dirbase = fs->fatbase + fasize;			/* Root directory start sector */
 8000f06:	444a      	add	r2, r9
 8000f08:	62e2      	str	r2, [r4, #44]	@ 0x2c
				fs->n_fatent * 2 : fs->n_fatent * 3 / 2 + (fs->n_fatent & 1);
 8000f0a:	2e02      	cmp	r6, #2
 8000f0c:	d036      	beq.n	8000f7c <find_volume+0x380>
 8000f0e:	eb0b 024b 	add.w	r2, fp, fp, lsl #1
 8000f12:	f00b 0301 	and.w	r3, fp, #1
			szbfat = (fmt == FS_FAT16) ?				/* (Needed FAT size) */
 8000f16:	eb03 0352 	add.w	r3, r3, r2, lsr #1
		if (fs->fsize < (szbfat + (SS(fs) - 1)) / SS(fs)) return FR_NO_FILESYSTEM;	/* (BPB_FATSz must not be less than the size needed) */
 8000f1a:	f203 13ff 	addw	r3, r3, #511	@ 0x1ff
 8000f1e:	ebb8 2f53 	cmp.w	r8, r3, lsr #9
 8000f22:	f0c0 8096 	bcc.w	8001052 <find_volume+0x456>
		fs->last_clst = fs->free_clst = 0xFFFFFFFF;		/* Initialize cluster allocation information */
 8000f26:	f04f 33ff 	mov.w	r3, #4294967295	@ 0xffffffff
 8000f2a:	61a3      	str	r3, [r4, #24]
 8000f2c:	6163      	str	r3, [r4, #20]
		fs->fsi_flag = 0x80;
 8000f2e:	2380      	movs	r3, #128	@ 0x80
 8000f30:	7123      	strb	r3, [r4, #4]
		if (fmt == FS_FAT32				/* Enable FSINFO only if FAT32 and BPB_FSInfo32 == 1 */
 8000f32:	2e03      	cmp	r6, #3
 8000f34:	d025      	beq.n	8000f82 <find_volume+0x386>
	fs->fs_type = fmt;		/* FAT sub-type */
 8000f36:	7026      	strb	r6, [r4, #0]
	fs->id = ++Fsid;		/* File system mount ID */
 8000f38:	4a47      	ldr	r2, [pc, #284]	@ (8001058 <find_volume+0x45c>)
 8000f3a:	8813      	ldrh	r3, [r2, #0]
 8000f3c:	3301      	adds	r3, #1
 8000f3e:	b29b      	uxth	r3, r3
 8000f40:	8013      	strh	r3, [r2, #0]
 8000f42:	80e3      	strh	r3, [r4, #6]
	fs->lfnbuf = LfnBuf;	/* Static LFN working buffer */
 8000f44:	4b45      	ldr	r3, [pc, #276]	@ (800105c <find_volume+0x460>)
 8000f46:	60e3      	str	r3, [r4, #12]
	fs->dirbuf = DirBuf;	/* Static directory block scratchpad buuffer */
 8000f48:	4b45      	ldr	r3, [pc, #276]	@ (8001060 <find_volume+0x464>)
 8000f4a:	6123      	str	r3, [r4, #16]
	clear_lock(fs);
 8000f4c:	4620      	mov	r0, r4
 8000f4e:	f7ff fc23 	bl	8000798 <clear_lock>
	return FR_OK;
 8000f52:	e046      	b.n	8000fe2 <find_volume+0x3e6>
		if (nclst <= MAX_FAT12) fmt = FS_FAT12;
 8000f54:	2201      	movs	r2, #1
 8000f56:	4616      	mov	r6, r2
 8000f58:	e7c6      	b.n	8000ee8 <find_volume+0x2ec>
			if (ld_word(fs->win + BPB_FSVer32) != 0) return FR_NO_FILESYSTEM;	/* (Must be FAT32 revision 0.0) */
 8000f5a:	f104 0062 	add.w	r0, r4, #98	@ 0x62
 8000f5e:	f7ff fade 	bl	800051e <ld_word>
 8000f62:	2800      	cmp	r0, #0
 8000f64:	d16f      	bne.n	8001046 <find_volume+0x44a>
			if (fs->n_rootdir) return FR_NO_FILESYSTEM;	/* (BPB_RootEntCnt must be 0) */
 8000f66:	4653      	mov	r3, sl
 8000f68:	2b00      	cmp	r3, #0
 8000f6a:	d16e      	bne.n	800104a <find_volume+0x44e>
			fs->dirbase = ld_dword(fs->win + BPB_RootClus32);	/* Root directory start cluster */
 8000f6c:	f104 0064 	add.w	r0, r4, #100	@ 0x64
 8000f70:	f7ff fada 	bl	8000528 <ld_dword>
 8000f74:	62e0      	str	r0, [r4, #44]	@ 0x2c
			szbfat = fs->n_fatent * 4;					/* (Needed FAT size) */
 8000f76:	465b      	mov	r3, fp
 8000f78:	009b      	lsls	r3, r3, #2
 8000f7a:	e7ce      	b.n	8000f1a <find_volume+0x31e>
			szbfat = (fmt == FS_FAT16) ?				/* (Needed FAT size) */
 8000f7c:	465b      	mov	r3, fp
 8000f7e:	005b      	lsls	r3, r3, #1
 8000f80:	e7cb      	b.n	8000f1a <find_volume+0x31e>
			&& ld_word(fs->win + BPB_FSInfo32) == 1
 8000f82:	f104 0068 	add.w	r0, r4, #104	@ 0x68
 8000f86:	f7ff faca 	bl	800051e <ld_word>
 8000f8a:	2801      	cmp	r0, #1
 8000f8c:	d1d3      	bne.n	8000f36 <find_volume+0x33a>
			&& move_window(fs, bsect + 1) == FR_OK)
 8000f8e:	4639      	mov	r1, r7
 8000f90:	3101      	adds	r1, #1
 8000f92:	4620      	mov	r0, r4
 8000f94:	f7ff fdcc 	bl	8000b30 <move_window>
 8000f98:	2800      	cmp	r0, #0
 8000f9a:	d1cc      	bne.n	8000f36 <find_volume+0x33a>
			fs->fsi_flag = 0;
 8000f9c:	7120      	strb	r0, [r4, #4]
			if (ld_word(fs->win + BS_55AA) == 0xAA55	/* Load FSINFO data if available */
 8000f9e:	f204 2036 	addw	r0, r4, #566	@ 0x236
 8000fa2:	f7ff fabc 	bl	800051e <ld_word>
 8000fa6:	f64a 2355 	movw	r3, #43605	@ 0xaa55
 8000faa:	4298      	cmp	r0, r3
 8000fac:	d1c3      	bne.n	8000f36 <find_volume+0x33a>
				&& ld_dword(fs->win + FSI_LeadSig) == 0x41615252
 8000fae:	f104 0038 	add.w	r0, r4, #56	@ 0x38
 8000fb2:	f7ff fab9 	bl	8000528 <ld_dword>
 8000fb6:	4b2b      	ldr	r3, [pc, #172]	@ (8001064 <find_volume+0x468>)
 8000fb8:	4298      	cmp	r0, r3
 8000fba:	d1bc      	bne.n	8000f36 <find_volume+0x33a>
				&& ld_dword(fs->win + FSI_StrucSig) == 0x61417272)
 8000fbc:	f504 7007 	add.w	r0, r4, #540	@ 0x21c
 8000fc0:	f7ff fab2 	bl	8000528 <ld_dword>
 8000fc4:	4b28      	ldr	r3, [pc, #160]	@ (8001068 <find_volume+0x46c>)
 8000fc6:	4298      	cmp	r0, r3
 8000fc8:	d1b5      	bne.n	8000f36 <find_volume+0x33a>
				fs->free_clst = ld_dword(fs->win + FSI_Free_Count);
 8000fca:	f504 7008 	add.w	r0, r4, #544	@ 0x220
 8000fce:	f7ff faab 	bl	8000528 <ld_dword>
 8000fd2:	61a0      	str	r0, [r4, #24]
				fs->last_clst = ld_dword(fs->win + FSI_Nxt_Free);
 8000fd4:	f504 7009 	add.w	r0, r4, #548	@ 0x224
 8000fd8:	f7ff faa6 	bl	8000528 <ld_dword>
 8000fdc:	6160      	str	r0, [r4, #20]
 8000fde:	e7aa      	b.n	8000f36 <find_volume+0x33a>
	if (vol < 0) return FR_INVALID_DRIVE;
 8000fe0:	250b      	movs	r5, #11
}
 8000fe2:	4628      	mov	r0, r5
 8000fe4:	b009      	add	sp, #36	@ 0x24
 8000fe6:	e8bd 8ff0 	ldmia.w	sp!, {r4, r5, r6, r7, r8, r9, sl, fp, pc}
	if (!fs) return FR_NOT_ENABLED;		/* Is the file system object available? */
 8000fea:	250c      	movs	r5, #12
 8000fec:	e7f9      	b.n	8000fe2 <find_volume+0x3e6>
		return FR_NOT_READY;			/* Failed to initialize due to no medium or hard error */
 8000fee:	2503      	movs	r5, #3
 8000ff0:	e7f7      	b.n	8000fe2 <find_volume+0x3e6>
		return FR_WRITE_PROTECTED;
 8000ff2:	250a      	movs	r5, #10
 8000ff4:	e7f5      	b.n	8000fe2 <find_volume+0x3e6>
	if (fmt == 4) return FR_DISK_ERR;		/* An error occured in the disk I/O layer */
 8000ff6:	2501      	movs	r5, #1
 8000ff8:	e7f3      	b.n	8000fe2 <find_volume+0x3e6>
	if (fmt >= 2) return FR_NO_FILESYSTEM;	/* No FAT volume is found */
 8000ffa:	250d      	movs	r5, #13
 8000ffc:	e7f1      	b.n	8000fe2 <find_volume+0x3e6>
		if (i < BPB_ZeroedEx + 53) return FR_NO_FILESYSTEM;
 8000ffe:	250d      	movs	r5, #13
 8001000:	e7ef      	b.n	8000fe2 <find_volume+0x3e6>
		if (ld_word(fs->win + BPB_FSVerEx) != 0x100) return FR_NO_FILESYSTEM;	/* Check exFAT revision (Must be 1.0) */
 8001002:	250d      	movs	r5, #13
 8001004:	e7ed      	b.n	8000fe2 <find_volume+0x3e6>
			return FR_NO_FILESYSTEM;
 8001006:	250d      	movs	r5, #13
 8001008:	e7eb      	b.n	8000fe2 <find_volume+0x3e6>
		if (maxlba >= 0x100000000) return FR_NO_FILESYSTEM;	/* (It cannot be handled in 32-bit LBA) */
 800100a:	250d      	movs	r5, #13
 800100c:	e7e9      	b.n	8000fe2 <find_volume+0x3e6>
		if (fs->n_fats != 1) return FR_NO_FILESYSTEM;	/* (Supports only 1 FAT) */
 800100e:	250d      	movs	r5, #13
 8001010:	e7e7      	b.n	8000fe2 <find_volume+0x3e6>
		if (fs->csize == 0)	return FR_NO_FILESYSTEM;	/* (Must be 1..32768) */
 8001012:	250d      	movs	r5, #13
 8001014:	e7e5      	b.n	8000fe2 <find_volume+0x3e6>
		if (nclst > MAX_EXFAT) return FR_NO_FILESYSTEM;	/* (Too many clusters) */
 8001016:	250d      	movs	r5, #13
 8001018:	e7e3      	b.n	8000fe2 <find_volume+0x3e6>
		if (maxlba < (QWORD)fs->database + nclst * fs->csize) return FR_NO_FILESYSTEM;	/* (Volume size must not be smaller than the size requiered) */
 800101a:	250d      	movs	r5, #13
 800101c:	e7e1      	b.n	8000fe2 <find_volume+0x3e6>
		if (move_window(fs, clust2sect(fs, fs->dirbase)) != FR_OK) return FR_DISK_ERR;
 800101e:	4635      	mov	r5, r6
 8001020:	e7df      	b.n	8000fe2 <find_volume+0x3e6>
		if (i == SS(fs)) return FR_NO_FILESYSTEM;
 8001022:	250d      	movs	r5, #13
 8001024:	e7dd      	b.n	8000fe2 <find_volume+0x3e6>
		if (ld_word(fs->win + BPB_BytsPerSec) != SS(fs)) return FR_NO_FILESYSTEM;	/* (BPB_BytsPerSec must be equal to the physical sector size) */
 8001026:	250d      	movs	r5, #13
 8001028:	e7db      	b.n	8000fe2 <find_volume+0x3e6>
		if (fs->n_fats != 1 && fs->n_fats != 2) return FR_NO_FILESYSTEM;	/* (Must be 1 or 2) */
 800102a:	250d      	movs	r5, #13
 800102c:	e7d9      	b.n	8000fe2 <find_volume+0x3e6>
		if (fs->csize == 0 || (fs->csize & (fs->csize - 1))) return FR_NO_FILESYSTEM;	/* (Must be power of 2) */
 800102e:	250d      	movs	r5, #13
 8001030:	e7d7      	b.n	8000fe2 <find_volume+0x3e6>
 8001032:	250d      	movs	r5, #13
 8001034:	e7d5      	b.n	8000fe2 <find_volume+0x3e6>
		if (fs->n_rootdir % (SS(fs) / SZDIRE)) return FR_NO_FILESYSTEM;	/* (Must be sector aligned) */
 8001036:	250d      	movs	r5, #13
 8001038:	e7d3      	b.n	8000fe2 <find_volume+0x3e6>
		if (nrsv == 0) return FR_NO_FILESYSTEM;			/* (Must not be 0) */
 800103a:	250d      	movs	r5, #13
 800103c:	e7d1      	b.n	8000fe2 <find_volume+0x3e6>
		if (tsect < sysect) return FR_NO_FILESYSTEM;	/* (Invalid volume size) */
 800103e:	250d      	movs	r5, #13
 8001040:	e7cf      	b.n	8000fe2 <find_volume+0x3e6>
		if (nclst == 0) return FR_NO_FILESYSTEM;		/* (Invalid volume size) */
 8001042:	250d      	movs	r5, #13
 8001044:	e7cd      	b.n	8000fe2 <find_volume+0x3e6>
			if (ld_word(fs->win + BPB_FSVer32) != 0) return FR_NO_FILESYSTEM;	/* (Must be FAT32 revision 0.0) */
 8001046:	250d      	movs	r5, #13
 8001048:	e7cb      	b.n	8000fe2 <find_volume+0x3e6>
			if (fs->n_rootdir) return FR_NO_FILESYSTEM;	/* (BPB_RootEntCnt must be 0) */
 800104a:	250d      	movs	r5, #13
 800104c:	e7c9      	b.n	8000fe2 <find_volume+0x3e6>
			if (fs->n_rootdir == 0)	return FR_NO_FILESYSTEM;/* (BPB_RootEntCnt must not be 0) */
 800104e:	250d      	movs	r5, #13
 8001050:	e7c7      	b.n	8000fe2 <find_volume+0x3e6>
		if (fs->fsize < (szbfat + (SS(fs) - 1)) / SS(fs)) return FR_NO_FILESYSTEM;	/* (BPB_FATSz must not be less than the size needed) */
 8001052:	250d      	movs	r5, #13
 8001054:	e7c5      	b.n	8000fe2 <find_volume+0x3e6>
 8001056:	bf00      	nop
 8001058:	20000998 	.word	0x20000998
 800105c:	20000518 	.word	0x20000518
 8001060:	20000718 	.word	0x20000718
 8001064:	41615252 	.word	0x41615252
 8001068:	61417272 	.word	0x61417272

0800106c <find_bitmap>:
{
 800106c:	e92d 43f8 	stmdb	sp!, {r3, r4, r5, r6, r7, r8, r9, lr}
 8001070:	4605      	mov	r5, r0
 8001072:	4690      	mov	r8, r2
	clst -= 2;	/* The first bit in the bitmap corresponds to cluster #2 */
 8001074:	1e8f      	subs	r7, r1, #2
	if (clst >= fs->n_fatent - 2) clst = 0;
 8001076:	69c3      	ldr	r3, [r0, #28]
 8001078:	3b02      	subs	r3, #2
 800107a:	42bb      	cmp	r3, r7
 800107c:	d800      	bhi.n	8001080 <find_bitmap+0x14>
 800107e:	2700      	movs	r7, #0
	scl = val = clst; ctr = 0;
 8001080:	46b9      	mov	r9, r7
 8001082:	463c      	mov	r4, r7
 8001084:	2600      	movs	r6, #0
		if (move_window(fs, fs->database + val / 8 / SS(fs)) != FR_OK) return 0xFFFFFFFF;	/* (assuming bitmap is located top of the cluster heap) */
 8001086:	6b29      	ldr	r1, [r5, #48]	@ 0x30
 8001088:	eb01 3114 	add.w	r1, r1, r4, lsr #12
 800108c:	4628      	mov	r0, r5
 800108e:	f7ff fd4f 	bl	8000b30 <move_window>
 8001092:	4684      	mov	ip, r0
 8001094:	bb40      	cbnz	r0, 80010e8 <find_bitmap+0x7c>
		i = val / 8 % SS(fs); bm = 1 << (val % 8);
 8001096:	f3c4 00c8 	ubfx	r0, r4, #3, #9
 800109a:	f004 0207 	and.w	r2, r4, #7
 800109e:	2301      	movs	r3, #1
 80010a0:	4093      	lsls	r3, r2
 80010a2:	b2db      	uxtb	r3, r3
 80010a4:	e009      	b.n	80010ba <find_bitmap+0x4e>
					scl = val; ctr = 0;		/* Encountered a cluster in-use, restart to scan */
 80010a6:	46a1      	mov	r9, r4
 80010a8:	2600      	movs	r6, #0
				if (val == clst) return 0;	/* All cluster scanned? */
 80010aa:	42a7      	cmp	r7, r4
 80010ac:	d01f      	beq.n	80010ee <find_bitmap+0x82>
			} while (bm);
 80010ae:	b923      	cbnz	r3, 80010ba <find_bitmap+0x4e>
		} while (++i < SS(fs));
 80010b0:	3001      	adds	r0, #1
 80010b2:	f5b0 7f00 	cmp.w	r0, #512	@ 0x200
 80010b6:	d2e6      	bcs.n	8001086 <find_bitmap+0x1a>
			bm = 1;
 80010b8:	2301      	movs	r3, #1
				bv = fs->win[i] & bm; bm <<= 1;		/* Get bit value */
 80010ba:	182a      	adds	r2, r5, r0
 80010bc:	f892 2038 	ldrb.w	r2, [r2, #56]	@ 0x38
 80010c0:	401a      	ands	r2, r3
 80010c2:	005b      	lsls	r3, r3, #1
 80010c4:	b2db      	uxtb	r3, r3
				if (++val >= fs->n_fatent - 2) {	/* Next cluster (with wrap-around) */
 80010c6:	3401      	adds	r4, #1
 80010c8:	69e9      	ldr	r1, [r5, #28]
 80010ca:	3902      	subs	r1, #2
 80010cc:	42a1      	cmp	r1, r4
 80010ce:	d803      	bhi.n	80010d8 <find_bitmap+0x6c>
					val = 0; bm = 0; i = SS(fs);
 80010d0:	4663      	mov	r3, ip
 80010d2:	2400      	movs	r4, #0
 80010d4:	f44f 7000 	mov.w	r0, #512	@ 0x200
				if (!bv) {	/* Is it a free cluster? */
 80010d8:	2a00      	cmp	r2, #0
 80010da:	d1e4      	bne.n	80010a6 <find_bitmap+0x3a>
					if (++ctr == ncl) return scl + 2;	/* Check if run length is sufficient for required */
 80010dc:	3601      	adds	r6, #1
 80010de:	4546      	cmp	r6, r8
 80010e0:	d1e3      	bne.n	80010aa <find_bitmap+0x3e>
 80010e2:	4648      	mov	r0, r9
 80010e4:	3002      	adds	r0, #2
 80010e6:	e003      	b.n	80010f0 <find_bitmap+0x84>
		if (move_window(fs, fs->database + val / 8 / SS(fs)) != FR_OK) return 0xFFFFFFFF;	/* (assuming bitmap is located top of the cluster heap) */
 80010e8:	f04f 30ff 	mov.w	r0, #4294967295	@ 0xffffffff
 80010ec:	e000      	b.n	80010f0 <find_bitmap+0x84>
				if (val == clst) return 0;	/* All cluster scanned? */
 80010ee:	2000      	movs	r0, #0
}
 80010f0:	e8bd 83f8 	ldmia.w	sp!, {r3, r4, r5, r6, r7, r8, r9, pc}

080010f4 <change_bitmap>:
{
 80010f4:	e92d 43f8 	stmdb	sp!, {r3, r4, r5, r6, r7, r8, r9, lr}
 80010f8:	4606      	mov	r6, r0
 80010fa:	4617      	mov	r7, r2
 80010fc:	4698      	mov	r8, r3
	clst -= 2;	/* The first bit corresponds to cluster #2 */
 80010fe:	1e8b      	subs	r3, r1, #2
	sect = fs->database + clst / 8 / SS(fs);	/* Sector address (assuming bitmap is located top of the cluster heap) */
 8001100:	6b01      	ldr	r1, [r0, #48]	@ 0x30
 8001102:	eb01 3113 	add.w	r1, r1, r3, lsr #12
	i = clst / 8 % SS(fs);						/* Byte offset in the sector */
 8001106:	f3c3 05c8 	ubfx	r5, r3, #3, #9
	bm = 1 << (clst % 8);						/* Bit mask in the byte */
 800110a:	f003 0307 	and.w	r3, r3, #7
 800110e:	2401      	movs	r4, #1
 8001110:	409c      	lsls	r4, r3
 8001112:	b2e4      	uxtb	r4, r4
		if (move_window(fs, sect++) != FR_OK) return FR_DISK_ERR;
 8001114:	1c4b      	adds	r3, r1, #1
 8001116:	4699      	mov	r9, r3
 8001118:	4630      	mov	r0, r6
 800111a:	f7ff fd09 	bl	8000b30 <move_window>
 800111e:	4602      	mov	r2, r0
 8001120:	b110      	cbz	r0, 8001128 <change_bitmap+0x34>
 8001122:	2201      	movs	r2, #1
 8001124:	e01e      	b.n	8001164 <change_bitmap+0x70>
			bm = 1;
 8001126:	2401      	movs	r4, #1
				if (bv == (int)((fs->win[i] & bm) != 0)) return FR_INT_ERR;	/* Is the bit expected value? */
 8001128:	1973      	adds	r3, r6, r5
 800112a:	f893 1038 	ldrb.w	r1, [r3, #56]	@ 0x38
 800112e:	4221      	tst	r1, r4
 8001130:	bf14      	ite	ne
 8001132:	2301      	movne	r3, #1
 8001134:	2300      	moveq	r3, #0
 8001136:	4543      	cmp	r3, r8
 8001138:	d013      	beq.n	8001162 <change_bitmap+0x6e>
				fs->win[i] ^= bm;	/* Flip the bit */
 800113a:	1973      	adds	r3, r6, r5
 800113c:	4061      	eors	r1, r4
 800113e:	f883 1038 	strb.w	r1, [r3, #56]	@ 0x38
				fs->wflag = 1;
 8001142:	2301      	movs	r3, #1
 8001144:	70f3      	strb	r3, [r6, #3]
				if (--ncl == 0) return FR_OK;	/* All bits processed? */
 8001146:	3f01      	subs	r7, #1
 8001148:	d00c      	beq.n	8001164 <change_bitmap+0x70>
			} while (bm <<= 1);		/* Next bit */
 800114a:	409c      	lsls	r4, r3
 800114c:	f014 04ff 	ands.w	r4, r4, #255	@ 0xff
 8001150:	d1ea      	bne.n	8001128 <change_bitmap+0x34>
		} while (++i < SS(fs));		/* Next byte */
 8001152:	441d      	add	r5, r3
			bm = 1;
 8001154:	461c      	mov	r4, r3
		} while (++i < SS(fs));		/* Next byte */
 8001156:	f5b5 7f00 	cmp.w	r5, #512	@ 0x200
 800115a:	d3e4      	bcc.n	8001126 <change_bitmap+0x32>
		if (move_window(fs, sect++) != FR_OK) return FR_DISK_ERR;
 800115c:	4649      	mov	r1, r9
		i = 0;
 800115e:	2500      	movs	r5, #0
 8001160:	e7d8      	b.n	8001114 <change_bitmap+0x20>
				if (bv == (int)((fs->win[i] & bm) != 0)) return FR_INT_ERR;	/* Is the bit expected value? */
 8001162:	2202      	movs	r2, #2
}
 8001164:	4610      	mov	r0, r2
 8001166:	e8bd 83f8 	ldmia.w	sp!, {r3, r4, r5, r6, r7, r8, r9, pc}

0800116a <put_fat>:
{
 800116a:	e92d 43f8 	stmdb	sp!, {r3, r4, r5, r6, r7, r8, r9, lr}
	if (clst >= 2 && clst < fs->n_fatent) {	/* Check if in valid range */
 800116e:	2901      	cmp	r1, #1
 8001170:	f240 808b 	bls.w	800128a <put_fat+0x120>
 8001174:	4605      	mov	r5, r0
 8001176:	460c      	mov	r4, r1
 8001178:	4690      	mov	r8, r2
 800117a:	69c3      	ldr	r3, [r0, #28]
 800117c:	428b      	cmp	r3, r1
 800117e:	f240 8089 	bls.w	8001294 <put_fat+0x12a>
		switch (fs->fs_type) {
 8001182:	7803      	ldrb	r3, [r0, #0]
 8001184:	2b02      	cmp	r3, #2
 8001186:	d06c      	beq.n	8001262 <put_fat+0xf8>
 8001188:	d836      	bhi.n	80011f8 <put_fat+0x8e>
 800118a:	2b01      	cmp	r3, #1
 800118c:	d131      	bne.n	80011f2 <put_fat+0x88>
			bc = (UINT)clst; bc += bc / 2;
 800118e:	eb01 0651 	add.w	r6, r1, r1, lsr #1
			res = move_window(fs, fs->fatbase + (bc / SS(fs)));
 8001192:	6a81      	ldr	r1, [r0, #40]	@ 0x28
 8001194:	eb01 2156 	add.w	r1, r1, r6, lsr #9
 8001198:	f7ff fcca 	bl	8000b30 <move_window>
			if (res != FR_OK) break;
 800119c:	4607      	mov	r7, r0
 800119e:	2800      	cmp	r0, #0
 80011a0:	d175      	bne.n	800128e <put_fat+0x124>
			p = fs->win + bc++ % SS(fs);
 80011a2:	f105 0238 	add.w	r2, r5, #56	@ 0x38
 80011a6:	4691      	mov	r9, r2
 80011a8:	1c73      	adds	r3, r6, #1
 80011aa:	4618      	mov	r0, r3
 80011ac:	f3c6 0308 	ubfx	r3, r6, #0, #9
			*p = (clst & 1) ? ((*p & 0x0F) | ((BYTE)val << 4)) : (BYTE)val;
 80011b0:	f014 0401 	ands.w	r4, r4, #1
 80011b4:	d04a      	beq.n	800124c <put_fat+0xe2>
 80011b6:	5cd2      	ldrb	r2, [r2, r3]
 80011b8:	f002 020f 	and.w	r2, r2, #15
 80011bc:	ea42 1208 	orr.w	r2, r2, r8, lsl #4
 80011c0:	b2d2      	uxtb	r2, r2
 80011c2:	f809 2003 	strb.w	r2, [r9, r3]
			fs->wflag = 1;
 80011c6:	2301      	movs	r3, #1
 80011c8:	70eb      	strb	r3, [r5, #3]
			res = move_window(fs, fs->fatbase + (bc / SS(fs)));
 80011ca:	6aa9      	ldr	r1, [r5, #40]	@ 0x28
 80011cc:	4606      	mov	r6, r0
 80011ce:	eb01 2150 	add.w	r1, r1, r0, lsr #9
 80011d2:	4628      	mov	r0, r5
 80011d4:	f7ff fcac 	bl	8000b30 <move_window>
			if (res != FR_OK) break;
 80011d8:	4607      	mov	r7, r0
 80011da:	2800      	cmp	r0, #0
 80011dc:	d157      	bne.n	800128e <put_fat+0x124>
			p = fs->win + bc % SS(fs);
 80011de:	f3c6 0308 	ubfx	r3, r6, #0, #9
			*p = (clst & 1) ? (BYTE)(val >> 4) : ((*p & 0xF0) | ((BYTE)(val >> 8) & 0x0F));
 80011e2:	b3b4      	cbz	r4, 8001252 <put_fat+0xe8>
 80011e4:	f3c8 1207 	ubfx	r2, r8, #4, #8
 80011e8:	f809 2003 	strb.w	r2, [r9, r3]
			fs->wflag = 1;
 80011ec:	2301      	movs	r3, #1
 80011ee:	70eb      	strb	r3, [r5, #3]
			break;
 80011f0:	e04d      	b.n	800128e <put_fat+0x124>
		switch (fs->fs_type) {
 80011f2:	2302      	movs	r3, #2
 80011f4:	461f      	mov	r7, r3
 80011f6:	e04a      	b.n	800128e <put_fat+0x124>
 80011f8:	3b03      	subs	r3, #3
 80011fa:	b2db      	uxtb	r3, r3
 80011fc:	2b01      	cmp	r3, #1
 80011fe:	d84c      	bhi.n	800129a <put_fat+0x130>
			res = move_window(fs, fs->fatbase + (clst / (SS(fs) / 4)));
 8001200:	6a81      	ldr	r1, [r0, #40]	@ 0x28
 8001202:	eb01 11d4 	add.w	r1, r1, r4, lsr #7
 8001206:	f7ff fc93 	bl	8000b30 <move_window>
			if (res != FR_OK) break;
 800120a:	4607      	mov	r7, r0
 800120c:	2800      	cmp	r0, #0
 800120e:	d13e      	bne.n	800128e <put_fat+0x124>
			if (!_FS_EXFAT || fs->fs_type != FS_EXFAT) {
 8001210:	782b      	ldrb	r3, [r5, #0]
 8001212:	2b04      	cmp	r3, #4
 8001214:	d00e      	beq.n	8001234 <put_fat+0xca>
				val = (val & 0x0FFFFFFF) | (ld_dword(fs->win + clst * 4 % SS(fs)) & 0xF0000000);
 8001216:	f028 4670 	bic.w	r6, r8, #4026531840	@ 0xf0000000
 800121a:	f105 0038 	add.w	r0, r5, #56	@ 0x38
 800121e:	00a3      	lsls	r3, r4, #2
 8001220:	f403 73fe 	and.w	r3, r3, #508	@ 0x1fc
 8001224:	4418      	add	r0, r3
 8001226:	f7ff f97f 	bl	8000528 <ld_dword>
 800122a:	f000 4070 	and.w	r0, r0, #4026531840	@ 0xf0000000
 800122e:	ea46 0300 	orr.w	r3, r6, r0
 8001232:	4698      	mov	r8, r3
			st_dword(fs->win + clst * 4 % SS(fs), val);
 8001234:	f105 0038 	add.w	r0, r5, #56	@ 0x38
 8001238:	00a4      	lsls	r4, r4, #2
 800123a:	f404 74fe 	and.w	r4, r4, #508	@ 0x1fc
 800123e:	4641      	mov	r1, r8
 8001240:	4420      	add	r0, r4
 8001242:	f7ff f9a2 	bl	800058a <st_dword>
			fs->wflag = 1;
 8001246:	2301      	movs	r3, #1
 8001248:	70eb      	strb	r3, [r5, #3]
			break;
 800124a:	e020      	b.n	800128e <put_fat+0x124>
			*p = (clst & 1) ? ((*p & 0x0F) | ((BYTE)val << 4)) : (BYTE)val;
 800124c:	fa5f f288 	uxtb.w	r2, r8
 8001250:	e7b7      	b.n	80011c2 <put_fat+0x58>
			*p = (clst & 1) ? (BYTE)(val >> 4) : ((*p & 0xF0) | ((BYTE)(val >> 8) & 0x0F));
 8001252:	f819 2003 	ldrb.w	r2, [r9, r3]
 8001256:	f3c8 2103 	ubfx	r1, r8, #8, #4
 800125a:	f022 020f 	bic.w	r2, r2, #15
 800125e:	430a      	orrs	r2, r1
 8001260:	e7c2      	b.n	80011e8 <put_fat+0x7e>
			res = move_window(fs, fs->fatbase + (clst / (SS(fs) / 2)));
 8001262:	6a81      	ldr	r1, [r0, #40]	@ 0x28
 8001264:	eb01 2114 	add.w	r1, r1, r4, lsr #8
 8001268:	f7ff fc62 	bl	8000b30 <move_window>
			if (res != FR_OK) break;
 800126c:	4607      	mov	r7, r0
 800126e:	b970      	cbnz	r0, 800128e <put_fat+0x124>
			st_word(fs->win + clst * 2 % SS(fs), (WORD)val);
 8001270:	f105 0038 	add.w	r0, r5, #56	@ 0x38
 8001274:	0064      	lsls	r4, r4, #1
 8001276:	f404 74ff 	and.w	r4, r4, #510	@ 0x1fe
 800127a:	fa1f f188 	uxth.w	r1, r8
 800127e:	4420      	add	r0, r4
 8001280:	f7ff f97f 	bl	8000582 <st_word>
			fs->wflag = 1;
 8001284:	2301      	movs	r3, #1
 8001286:	70eb      	strb	r3, [r5, #3]
			break;
 8001288:	e001      	b.n	800128e <put_fat+0x124>
	FRESULT res = FR_INT_ERR;
 800128a:	2302      	movs	r3, #2
 800128c:	461f      	mov	r7, r3
}
 800128e:	4638      	mov	r0, r7
 8001290:	e8bd 83f8 	ldmia.w	sp!, {r3, r4, r5, r6, r7, r8, r9, pc}
	FRESULT res = FR_INT_ERR;
 8001294:	2302      	movs	r3, #2
 8001296:	461f      	mov	r7, r3
 8001298:	e7f9      	b.n	800128e <put_fat+0x124>
		switch (fs->fs_type) {
 800129a:	2302      	movs	r3, #2
 800129c:	461f      	mov	r7, r3
 800129e:	e7f6      	b.n	800128e <put_fat+0x124>

080012a0 <fill_last_frag>:
{
 80012a0:	b570      	push	{r4, r5, r6, lr}
 80012a2:	4604      	mov	r4, r0
 80012a4:	460d      	mov	r5, r1
 80012a6:	4616      	mov	r6, r2
	while (obj->n_frag > 0) {	/* Create the last chain on the FAT */
 80012a8:	e007      	b.n	80012ba <fill_last_frag+0x1a>
		res = put_fat(obj->fs, lcl - obj->n_frag + 1, (obj->n_frag > 1) ? lcl - obj->n_frag + 2 : term);
 80012aa:	4632      	mov	r2, r6
 80012ac:	f7ff ff5d 	bl	800116a <put_fat>
		if (res != FR_OK) return res;
 80012b0:	4603      	mov	r3, r0
 80012b2:	b958      	cbnz	r0, 80012cc <fill_last_frag+0x2c>
		obj->n_frag--;
 80012b4:	69e3      	ldr	r3, [r4, #28]
 80012b6:	3b01      	subs	r3, #1
 80012b8:	61e3      	str	r3, [r4, #28]
	while (obj->n_frag > 0) {	/* Create the last chain on the FAT */
 80012ba:	69e3      	ldr	r3, [r4, #28]
 80012bc:	b133      	cbz	r3, 80012cc <fill_last_frag+0x2c>
		res = put_fat(obj->fs, lcl - obj->n_frag + 1, (obj->n_frag > 1) ? lcl - obj->n_frag + 2 : term);
 80012be:	6820      	ldr	r0, [r4, #0]
 80012c0:	1aea      	subs	r2, r5, r3
 80012c2:	1c51      	adds	r1, r2, #1
 80012c4:	2b01      	cmp	r3, #1
 80012c6:	d9f0      	bls.n	80012aa <fill_last_frag+0xa>
 80012c8:	3202      	adds	r2, #2
 80012ca:	e7ef      	b.n	80012ac <fill_last_frag+0xc>
}
 80012cc:	4618      	mov	r0, r3
 80012ce:	bd70      	pop	{r4, r5, r6, pc}

080012d0 <fill_first_frag>:
	if (obj->stat == 3) {	/* Has the object been changed 'fragmented'? */
 80012d0:	79c3      	ldrb	r3, [r0, #7]
 80012d2:	2b03      	cmp	r3, #3
 80012d4:	d002      	beq.n	80012dc <fill_first_frag+0xc>
	return FR_OK;
 80012d6:	2300      	movs	r3, #0
}
 80012d8:	4618      	mov	r0, r3
 80012da:	4770      	bx	lr
{
 80012dc:	b570      	push	{r4, r5, r6, lr}
 80012de:	4606      	mov	r6, r0
		for (cl = obj->sclust, n = obj->n_cont; n; cl++, n--) {	/* Create cluster chain on the FAT */
 80012e0:	6881      	ldr	r1, [r0, #8]
 80012e2:	6984      	ldr	r4, [r0, #24]
 80012e4:	b14c      	cbz	r4, 80012fa <fill_first_frag+0x2a>
			res = put_fat(obj->fs, cl, cl + 1);
 80012e6:	1c4d      	adds	r5, r1, #1
 80012e8:	462a      	mov	r2, r5
 80012ea:	6830      	ldr	r0, [r6, #0]
 80012ec:	f7ff ff3d 	bl	800116a <put_fat>
			if (res != FR_OK) return res;
 80012f0:	4603      	mov	r3, r0
 80012f2:	b920      	cbnz	r0, 80012fe <fill_first_frag+0x2e>
		for (cl = obj->sclust, n = obj->n_cont; n; cl++, n--) {	/* Create cluster chain on the FAT */
 80012f4:	3c01      	subs	r4, #1
 80012f6:	4629      	mov	r1, r5
 80012f8:	e7f4      	b.n	80012e4 <fill_first_frag+0x14>
		obj->stat = 0;	/* Change status 'FAT chain is valid' */
 80012fa:	4623      	mov	r3, r4
 80012fc:	71f4      	strb	r4, [r6, #7]
}
 80012fe:	4618      	mov	r0, r3
 8001300:	bd70      	pop	{r4, r5, r6, pc}

08001302 <get_fat>:
{
 8001302:	b5f8      	push	{r3, r4, r5, r6, r7, lr}
	FATFS *fs = obj->fs;
 8001304:	6805      	ldr	r5, [r0, #0]
	if (clst < 2 || clst >= fs->n_fatent) {	/* Check if in valid range */
 8001306:	2901      	cmp	r1, #1
 8001308:	f240 809b 	bls.w	8001442 <get_fat+0x140>
 800130c:	4603      	mov	r3, r0
 800130e:	460c      	mov	r4, r1
 8001310:	69ea      	ldr	r2, [r5, #28]
 8001312:	428a      	cmp	r2, r1
 8001314:	f240 8097 	bls.w	8001446 <get_fat+0x144>
		switch (fs->fs_type) {
 8001318:	782a      	ldrb	r2, [r5, #0]
 800131a:	2a03      	cmp	r2, #3
 800131c:	d063      	beq.n	80013e6 <get_fat+0xe4>
 800131e:	d817      	bhi.n	8001350 <get_fat+0x4e>
 8001320:	2a01      	cmp	r2, #1
 8001322:	d036      	beq.n	8001392 <get_fat+0x90>
 8001324:	2a02      	cmp	r2, #2
 8001326:	d111      	bne.n	800134c <get_fat+0x4a>
			if (move_window(fs, fs->fatbase + (clst / (SS(fs) / 2))) != FR_OK) break;
 8001328:	6aa9      	ldr	r1, [r5, #40]	@ 0x28
 800132a:	eb01 2114 	add.w	r1, r1, r4, lsr #8
 800132e:	4628      	mov	r0, r5
 8001330:	f7ff fbfe 	bl	8000b30 <move_window>
 8001334:	2800      	cmp	r0, #0
 8001336:	f040 808b 	bne.w	8001450 <get_fat+0x14e>
			val = ld_word(fs->win + clst * 2 % SS(fs));
 800133a:	f105 0038 	add.w	r0, r5, #56	@ 0x38
 800133e:	0064      	lsls	r4, r4, #1
 8001340:	f404 74ff 	and.w	r4, r4, #510	@ 0x1fe
 8001344:	4420      	add	r0, r4
 8001346:	f7ff f8ea 	bl	800051e <ld_word>
			break;
 800134a:	e07b      	b.n	8001444 <get_fat+0x142>
		switch (fs->fs_type) {
 800134c:	2001      	movs	r0, #1
 800134e:	e079      	b.n	8001444 <get_fat+0x142>
 8001350:	2a04      	cmp	r2, #4
 8001352:	d11c      	bne.n	800138e <get_fat+0x8c>
			if (obj->objsize) {
 8001354:	6902      	ldr	r2, [r0, #16]
 8001356:	6941      	ldr	r1, [r0, #20]
 8001358:	ea52 0001 	orrs.w	r0, r2, r1
 800135c:	d07e      	beq.n	800145c <get_fat+0x15a>
				DWORD cofs = clst - obj->sclust;	/* Offset from start cluster */
 800135e:	6898      	ldr	r0, [r3, #8]
 8001360:	1a20      	subs	r0, r4, r0
				DWORD clen = (DWORD)((obj->objsize - 1) / SS(fs)) / fs->csize;	/* Number of clusters - 1 */
 8001362:	3a01      	subs	r2, #1
 8001364:	f141 31ff 	adc.w	r1, r1, #4294967295	@ 0xffffffff
 8001368:	0a52      	lsrs	r2, r2, #9
 800136a:	ea42 52c1 	orr.w	r2, r2, r1, lsl #23
 800136e:	8969      	ldrh	r1, [r5, #10]
 8001370:	fbb2 f2f1 	udiv	r2, r2, r1
				if (obj->stat == 2) {	/* Is there no valid chain on the FAT? */
 8001374:	79d9      	ldrb	r1, [r3, #7]
 8001376:	2902      	cmp	r1, #2
 8001378:	d047      	beq.n	800140a <get_fat+0x108>
				if (obj->stat == 3 && cofs < obj->n_cont) {	/* Is it in the 1st fragment? */
 800137a:	2903      	cmp	r1, #3
 800137c:	d04a      	beq.n	8001414 <get_fat+0x112>
				if (obj->stat != 2) {	/* Get value from FAT if FAT chain is valid */
 800137e:	2902      	cmp	r1, #2
 8001380:	d071      	beq.n	8001466 <get_fat+0x164>
					if (obj->n_frag != 0) {	/* Is it on the growing edge? */
 8001382:	69db      	ldr	r3, [r3, #28]
 8001384:	2b00      	cmp	r3, #0
 8001386:	d04a      	beq.n	800141e <get_fat+0x11c>
						val = 0x7FFFFFFF;	/* Generate EOC */
 8001388:	f06f 4000 	mvn.w	r0, #2147483648	@ 0x80000000
 800138c:	e05a      	b.n	8001444 <get_fat+0x142>
		switch (fs->fs_type) {
 800138e:	2001      	movs	r0, #1
 8001390:	e058      	b.n	8001444 <get_fat+0x142>
			bc = (UINT)clst; bc += bc / 2;
 8001392:	eb01 0651 	add.w	r6, r1, r1, lsr #1
			if (move_window(fs, fs->fatbase + (bc / SS(fs))) != FR_OK) break;
 8001396:	6aa9      	ldr	r1, [r5, #40]	@ 0x28
 8001398:	eb01 2156 	add.w	r1, r1, r6, lsr #9
 800139c:	4628      	mov	r0, r5
 800139e:	f7ff fbc7 	bl	8000b30 <move_window>
 80013a2:	b110      	cbz	r0, 80013aa <get_fat+0xa8>
		val = 0xFFFFFFFF;	/* Default value falls on disk error */
 80013a4:	f04f 30ff 	mov.w	r0, #4294967295	@ 0xffffffff
 80013a8:	e04c      	b.n	8001444 <get_fat+0x142>
			wc = fs->win[bc++ % SS(fs)];
 80013aa:	1c72      	adds	r2, r6, #1
 80013ac:	f3c6 0308 	ubfx	r3, r6, #0, #9
 80013b0:	442b      	add	r3, r5
 80013b2:	f893 7038 	ldrb.w	r7, [r3, #56]	@ 0x38
			if (move_window(fs, fs->fatbase + (bc / SS(fs))) != FR_OK) break;
 80013b6:	6aa9      	ldr	r1, [r5, #40]	@ 0x28
 80013b8:	4616      	mov	r6, r2
 80013ba:	eb01 2152 	add.w	r1, r1, r2, lsr #9
 80013be:	4628      	mov	r0, r5
 80013c0:	f7ff fbb6 	bl	8000b30 <move_window>
 80013c4:	2800      	cmp	r0, #0
 80013c6:	d140      	bne.n	800144a <get_fat+0x148>
			wc |= fs->win[bc % SS(fs)] << 8;
 80013c8:	f3c6 0308 	ubfx	r3, r6, #0, #9
 80013cc:	442b      	add	r3, r5
 80013ce:	f893 3038 	ldrb.w	r3, [r3, #56]	@ 0x38
 80013d2:	ea47 2303 	orr.w	r3, r7, r3, lsl #8
			val = (clst & 1) ? (wc >> 4) : (wc & 0xFFF);
 80013d6:	f014 0f01 	tst.w	r4, #1
 80013da:	d001      	beq.n	80013e0 <get_fat+0xde>
 80013dc:	0918      	lsrs	r0, r3, #4
 80013de:	e031      	b.n	8001444 <get_fat+0x142>
 80013e0:	f3c3 000b 	ubfx	r0, r3, #0, #12
 80013e4:	e02e      	b.n	8001444 <get_fat+0x142>
			if (move_window(fs, fs->fatbase + (clst / (SS(fs) / 4))) != FR_OK) break;
 80013e6:	6aa9      	ldr	r1, [r5, #40]	@ 0x28
 80013e8:	eb01 11d4 	add.w	r1, r1, r4, lsr #7
 80013ec:	4628      	mov	r0, r5
 80013ee:	f7ff fb9f 	bl	8000b30 <move_window>
 80013f2:	bb80      	cbnz	r0, 8001456 <get_fat+0x154>
			val = ld_dword(fs->win + clst * 4 % SS(fs)) & 0x0FFFFFFF;
 80013f4:	f105 0038 	add.w	r0, r5, #56	@ 0x38
 80013f8:	00a4      	lsls	r4, r4, #2
 80013fa:	f404 74fe 	and.w	r4, r4, #508	@ 0x1fc
 80013fe:	4420      	add	r0, r4
 8001400:	f7ff f892 	bl	8000528 <ld_dword>
 8001404:	f020 4070 	bic.w	r0, r0, #4026531840	@ 0xf0000000
			break;
 8001408:	e01c      	b.n	8001444 <get_fat+0x142>
					if (cofs <= clen) {
 800140a:	4290      	cmp	r0, r2
 800140c:	d8b5      	bhi.n	800137a <get_fat+0x78>
						val = (cofs == clen) ? 0x7FFFFFFF : clst + 1;	/* Generate the value */
 800140e:	d027      	beq.n	8001460 <get_fat+0x15e>
 8001410:	1c60      	adds	r0, r4, #1
 8001412:	e017      	b.n	8001444 <get_fat+0x142>
				if (obj->stat == 3 && cofs < obj->n_cont) {	/* Is it in the 1st fragment? */
 8001414:	699a      	ldr	r2, [r3, #24]
 8001416:	4282      	cmp	r2, r0
 8001418:	d9b1      	bls.n	800137e <get_fat+0x7c>
					val = clst + 1; 	/* Generate the value */
 800141a:	1c60      	adds	r0, r4, #1
					break;
 800141c:	e012      	b.n	8001444 <get_fat+0x142>
						if (move_window(fs, fs->fatbase + (clst / (SS(fs) / 4))) != FR_OK) break;
 800141e:	6aa9      	ldr	r1, [r5, #40]	@ 0x28
 8001420:	eb01 11d4 	add.w	r1, r1, r4, lsr #7
 8001424:	4628      	mov	r0, r5
 8001426:	f7ff fb83 	bl	8000b30 <move_window>
 800142a:	b9f0      	cbnz	r0, 800146a <get_fat+0x168>
						val = ld_dword(fs->win + clst * 4 % SS(fs)) & 0x7FFFFFFF;
 800142c:	f105 0038 	add.w	r0, r5, #56	@ 0x38
 8001430:	00a3      	lsls	r3, r4, #2
 8001432:	f403 73fe 	and.w	r3, r3, #508	@ 0x1fc
 8001436:	4418      	add	r0, r3
 8001438:	f7ff f876 	bl	8000528 <ld_dword>
 800143c:	f020 4000 	bic.w	r0, r0, #2147483648	@ 0x80000000
 8001440:	e000      	b.n	8001444 <get_fat+0x142>
		val = 1;	/* Internal error */
 8001442:	2001      	movs	r0, #1
}
 8001444:	bdf8      	pop	{r3, r4, r5, r6, r7, pc}
		val = 1;	/* Internal error */
 8001446:	2001      	movs	r0, #1
 8001448:	e7fc      	b.n	8001444 <get_fat+0x142>
		val = 0xFFFFFFFF;	/* Default value falls on disk error */
 800144a:	f04f 30ff 	mov.w	r0, #4294967295	@ 0xffffffff
 800144e:	e7f9      	b.n	8001444 <get_fat+0x142>
 8001450:	f04f 30ff 	mov.w	r0, #4294967295	@ 0xffffffff
 8001454:	e7f6      	b.n	8001444 <get_fat+0x142>
 8001456:	f04f 30ff 	mov.w	r0, #4294967295	@ 0xffffffff
 800145a:	e7f3      	b.n	8001444 <get_fat+0x142>
			val = 1;	/* Internal error */
 800145c:	2001      	movs	r0, #1
 800145e:	e7f1      	b.n	8001444 <get_fat+0x142>
						val = (cofs == clen) ? 0x7FFFFFFF : clst + 1;	/* Generate the value */
 8001460:	f06f 4000 	mvn.w	r0, #2147483648	@ 0x80000000
 8001464:	e7ee      	b.n	8001444 <get_fat+0x142>
			val = 1;	/* Internal error */
 8001466:	2001      	movs	r0, #1
 8001468:	e7ec      	b.n	8001444 <get_fat+0x142>
		val = 0xFFFFFFFF;	/* Default value falls on disk error */
 800146a:	f04f 30ff 	mov.w	r0, #4294967295	@ 0xffffffff
	return val;
 800146e:	e7e9      	b.n	8001444 <get_fat+0x142>

08001470 <dir_sdi>:
{
 8001470:	e92d 41f0 	stmdb	sp!, {r4, r5, r6, r7, r8, lr}
 8001474:	4607      	mov	r7, r0
 8001476:	460e      	mov	r6, r1
	FATFS *fs = dp->obj.fs;
 8001478:	f8d0 8000 	ldr.w	r8, [r0]
	if (ofs >= (DWORD)((_FS_EXFAT && fs->fs_type == FS_EXFAT) ? MAX_DIR_EX : MAX_DIR) || ofs % SZDIRE) {	/* Check range of offset and alignment */
 800147c:	f898 3000 	ldrb.w	r3, [r8]
 8001480:	2b04      	cmp	r3, #4
 8001482:	d028      	beq.n	80014d6 <dir_sdi+0x66>
 8001484:	f44f 1300 	mov.w	r3, #2097152	@ 0x200000
 8001488:	42b3      	cmp	r3, r6
 800148a:	d942      	bls.n	8001512 <dir_sdi+0xa2>
 800148c:	f016 0f1f 	tst.w	r6, #31
 8001490:	d142      	bne.n	8001518 <dir_sdi+0xa8>
	dp->dptr = ofs;				/* Set current offset */
 8001492:	633e      	str	r6, [r7, #48]	@ 0x30
	clst = dp->obj.sclust;		/* Table start cluster (0:root) */
 8001494:	68bc      	ldr	r4, [r7, #8]
	if (clst == 0 && fs->fs_type >= FS_FAT32) {	/* Replace cluster# 0 with root cluster# */
 8001496:	bb0c      	cbnz	r4, 80014dc <dir_sdi+0x6c>
 8001498:	f898 3000 	ldrb.w	r3, [r8]
 800149c:	2b02      	cmp	r3, #2
 800149e:	d903      	bls.n	80014a8 <dir_sdi+0x38>
		clst = fs->dirbase;
 80014a0:	f8d8 402c 	ldr.w	r4, [r8, #44]	@ 0x2c
		if (_FS_EXFAT) dp->obj.stat = 0;	/* exFAT: Root dir has an FAT chain */
 80014a4:	2300      	movs	r3, #0
 80014a6:	71fb      	strb	r3, [r7, #7]
	if (clst == 0) {	/* Static table (root-directory in FAT12/16) */
 80014a8:	b9c4      	cbnz	r4, 80014dc <dir_sdi+0x6c>
		if (ofs / SZDIRE >= fs->n_rootdir)	return FR_INT_ERR;	/* Is index out of range? */
 80014aa:	f8b8 3008 	ldrh.w	r3, [r8, #8]
 80014ae:	ebb3 1f56 	cmp.w	r3, r6, lsr #5
 80014b2:	d933      	bls.n	800151c <dir_sdi+0xac>
		dp->sect = fs->dirbase;
 80014b4:	f8d8 302c 	ldr.w	r3, [r8, #44]	@ 0x2c
 80014b8:	63bb      	str	r3, [r7, #56]	@ 0x38
	dp->clust = clst;					/* Current cluster# */
 80014ba:	637c      	str	r4, [r7, #52]	@ 0x34
	if (!dp->sect) return FR_INT_ERR;
 80014bc:	6bbb      	ldr	r3, [r7, #56]	@ 0x38
 80014be:	b3ab      	cbz	r3, 800152c <dir_sdi+0xbc>
	dp->sect += ofs / SS(fs);			/* Sector# of the directory entry */
 80014c0:	eb03 2356 	add.w	r3, r3, r6, lsr #9
 80014c4:	63bb      	str	r3, [r7, #56]	@ 0x38
	dp->dir = fs->win + (ofs % SS(fs));	/* Pointer to the entry in the win[] */
 80014c6:	f108 0838 	add.w	r8, r8, #56	@ 0x38
 80014ca:	f3c6 0108 	ubfx	r1, r6, #0, #9
 80014ce:	4441      	add	r1, r8
 80014d0:	63f9      	str	r1, [r7, #60]	@ 0x3c
	return FR_OK;
 80014d2:	2000      	movs	r0, #0
 80014d4:	e01e      	b.n	8001514 <dir_sdi+0xa4>
	if (ofs >= (DWORD)((_FS_EXFAT && fs->fs_type == FS_EXFAT) ? MAX_DIR_EX : MAX_DIR) || ofs % SZDIRE) {	/* Check range of offset and alignment */
 80014d6:	f04f 5380 	mov.w	r3, #268435456	@ 0x10000000
 80014da:	e7d5      	b.n	8001488 <dir_sdi+0x18>
		csz = (DWORD)fs->csize * SS(fs);	/* Bytes per cluster */
 80014dc:	f8b8 500a 	ldrh.w	r5, [r8, #10]
 80014e0:	026d      	lsls	r5, r5, #9
		while (ofs >= csz) {				/* Follow cluster chain */
 80014e2:	42ae      	cmp	r6, r5
 80014e4:	d30f      	bcc.n	8001506 <dir_sdi+0x96>
			clst = get_fat(&dp->obj, clst);				/* Get next cluster */
 80014e6:	4621      	mov	r1, r4
 80014e8:	4638      	mov	r0, r7
 80014ea:	f7ff ff0a 	bl	8001302 <get_fat>
 80014ee:	4604      	mov	r4, r0
			if (clst == 0xFFFFFFFF) return FR_DISK_ERR;	/* Disk error */
 80014f0:	f1b0 3fff 	cmp.w	r0, #4294967295	@ 0xffffffff
 80014f4:	d014      	beq.n	8001520 <dir_sdi+0xb0>
			if (clst < 2 || clst >= fs->n_fatent) return FR_INT_ERR;	/* Reached to end of table or internal error */
 80014f6:	2801      	cmp	r0, #1
 80014f8:	d914      	bls.n	8001524 <dir_sdi+0xb4>
 80014fa:	f8d8 301c 	ldr.w	r3, [r8, #28]
 80014fe:	4283      	cmp	r3, r0
 8001500:	d912      	bls.n	8001528 <dir_sdi+0xb8>
			ofs -= csz;
 8001502:	1b76      	subs	r6, r6, r5
 8001504:	e7ed      	b.n	80014e2 <dir_sdi+0x72>
		dp->sect = clust2sect(fs, clst);
 8001506:	4621      	mov	r1, r4
 8001508:	4640      	mov	r0, r8
 800150a:	f7ff f959 	bl	80007c0 <clust2sect>
 800150e:	63b8      	str	r0, [r7, #56]	@ 0x38
 8001510:	e7d3      	b.n	80014ba <dir_sdi+0x4a>
		return FR_INT_ERR;
 8001512:	2002      	movs	r0, #2
}
 8001514:	e8bd 81f0 	ldmia.w	sp!, {r4, r5, r6, r7, r8, pc}
		return FR_INT_ERR;
 8001518:	2002      	movs	r0, #2
 800151a:	e7fb      	b.n	8001514 <dir_sdi+0xa4>
		if (ofs / SZDIRE >= fs->n_rootdir)	return FR_INT_ERR;	/* Is index out of range? */
 800151c:	2002      	movs	r0, #2
 800151e:	e7f9      	b.n	8001514 <dir_sdi+0xa4>
			if (clst == 0xFFFFFFFF) return FR_DISK_ERR;	/* Disk error */
 8001520:	2001      	movs	r0, #1
 8001522:	e7f7      	b.n	8001514 <dir_sdi+0xa4>
			if (clst < 2 || clst >= fs->n_fatent) return FR_INT_ERR;	/* Reached to end of table or internal error */
 8001524:	2002      	movs	r0, #2
 8001526:	e7f5      	b.n	8001514 <dir_sdi+0xa4>
 8001528:	2002      	movs	r0, #2
 800152a:	e7f3      	b.n	8001514 <dir_sdi+0xa4>
	if (!dp->sect) return FR_INT_ERR;
 800152c:	2002      	movs	r0, #2
 800152e:	e7f1      	b.n	8001514 <dir_sdi+0xa4>

08001530 <create_chain>:
{
 8001530:	e92d 43f8 	stmdb	sp!, {r3, r4, r5, r6, r7, r8, r9, lr}
 8001534:	4607      	mov	r7, r0
	FATFS *fs = obj->fs;
 8001536:	f8d0 8000 	ldr.w	r8, [r0]
	if (clst == 0) {	/* Create a new chain */
 800153a:	4689      	mov	r9, r1
 800153c:	b941      	cbnz	r1, 8001550 <create_chain+0x20>
		scl = fs->last_clst;				/* Get suggested cluster to start from */
 800153e:	f8d8 6014 	ldr.w	r6, [r8, #20]
		if (scl == 0 || scl >= fs->n_fatent) scl = 1;
 8001542:	b1ae      	cbz	r6, 8001570 <create_chain+0x40>
 8001544:	f8d8 301c 	ldr.w	r3, [r8, #28]
 8001548:	42b3      	cmp	r3, r6
 800154a:	d812      	bhi.n	8001572 <create_chain+0x42>
 800154c:	2601      	movs	r6, #1
 800154e:	e010      	b.n	8001572 <create_chain+0x42>
		cs = get_fat(obj, clst);			/* Check the cluster status */
 8001550:	460e      	mov	r6, r1
 8001552:	f7ff fed6 	bl	8001302 <get_fat>
 8001556:	4605      	mov	r5, r0
		if (cs < 2) return 1;				/* Invalid FAT value */
 8001558:	2801      	cmp	r0, #1
 800155a:	f240 809a 	bls.w	8001692 <create_chain+0x162>
		if (cs == 0xFFFFFFFF) return cs;	/* A disk error occurred */
 800155e:	f1b0 3fff 	cmp.w	r0, #4294967295	@ 0xffffffff
 8001562:	f000 80a0 	beq.w	80016a6 <create_chain+0x176>
		if (cs < fs->n_fatent) return cs;	/* It is already followed by next cluster */
 8001566:	f8d8 301c 	ldr.w	r3, [r8, #28]
 800156a:	4283      	cmp	r3, r0
 800156c:	d901      	bls.n	8001572 <create_chain+0x42>
 800156e:	e09a      	b.n	80016a6 <create_chain+0x176>
		if (scl == 0 || scl >= fs->n_fatent) scl = 1;
 8001570:	2601      	movs	r6, #1
	if (fs->fs_type == FS_EXFAT) {	/* On the exFAT volume */
 8001572:	f898 3000 	ldrb.w	r3, [r8]
 8001576:	2b04      	cmp	r3, #4
 8001578:	d001      	beq.n	800157e <create_chain+0x4e>
		ncl = scl;	/* Start cluster */
 800157a:	4634      	mov	r4, r6
 800157c:	e051      	b.n	8001622 <create_chain+0xf2>
		ncl = find_bitmap(fs, scl, 1);				/* Find a free cluster */
 800157e:	2201      	movs	r2, #1
 8001580:	4631      	mov	r1, r6
 8001582:	4640      	mov	r0, r8
 8001584:	f7ff fd72 	bl	800106c <find_bitmap>
 8001588:	4605      	mov	r5, r0
		if (ncl == 0 || ncl == 0xFFFFFFFF) return ncl;	/* No free cluster or hard error? */
 800158a:	1e43      	subs	r3, r0, #1
 800158c:	f113 0f03 	cmn.w	r3, #3
 8001590:	f200 8089 	bhi.w	80016a6 <create_chain+0x176>
		res = change_bitmap(fs, ncl, 1, 1);			/* Mark the cluster 'in use' */
 8001594:	2301      	movs	r3, #1
 8001596:	461a      	mov	r2, r3
 8001598:	4601      	mov	r1, r0
 800159a:	4640      	mov	r0, r8
 800159c:	f7ff fdaa 	bl	80010f4 <change_bitmap>
 80015a0:	4603      	mov	r3, r0
		if (res == FR_INT_ERR) return 1;
 80015a2:	2802      	cmp	r0, #2
 80015a4:	d077      	beq.n	8001696 <create_chain+0x166>
		if (res == FR_DISK_ERR) return 0xFFFFFFFF;
 80015a6:	2801      	cmp	r0, #1
 80015a8:	d077      	beq.n	800169a <create_chain+0x16a>
		if (clst == 0) {							/* Is it a new chain? */
 80015aa:	464a      	mov	r2, r9
 80015ac:	b9c2      	cbnz	r2, 80015e0 <create_chain+0xb0>
			obj->stat = 2;							/* Set status 'contiguous' */
 80015ae:	2202      	movs	r2, #2
 80015b0:	71fa      	strb	r2, [r7, #7]
		if (obj->stat != 2) {	/* Is the file non-contiguous? */
 80015b2:	79fa      	ldrb	r2, [r7, #7]
 80015b4:	2a02      	cmp	r2, #2
 80015b6:	d063      	beq.n	8001680 <create_chain+0x150>
			if (ncl == clst + 1) {	/* Is the cluster next to previous one? */
 80015b8:	464a      	mov	r2, r9
 80015ba:	3201      	adds	r2, #1
 80015bc:	42aa      	cmp	r2, r5
 80015be:	d01b      	beq.n	80015f8 <create_chain+0xc8>
				if (obj->n_frag == 0) obj->n_frag = 1;
 80015c0:	69fb      	ldr	r3, [r7, #28]
 80015c2:	b90b      	cbnz	r3, 80015c8 <create_chain+0x98>
 80015c4:	2301      	movs	r3, #1
 80015c6:	61fb      	str	r3, [r7, #28]
				res = fill_last_frag(obj, clst, ncl);	/* Fill last fragment on the FAT and link it to new one */
 80015c8:	462a      	mov	r2, r5
 80015ca:	4649      	mov	r1, r9
 80015cc:	4638      	mov	r0, r7
 80015ce:	f7ff fe67 	bl	80012a0 <fill_last_frag>
				if (res == FR_OK) obj->n_frag = 1;
 80015d2:	4603      	mov	r3, r0
 80015d4:	2800      	cmp	r0, #0
 80015d6:	d155      	bne.n	8001684 <create_chain+0x154>
 80015d8:	2301      	movs	r3, #1
 80015da:	61fb      	str	r3, [r7, #28]
		ncl = find_bitmap(fs, scl, 1);				/* Find a free cluster */
 80015dc:	462c      	mov	r4, r5
 80015de:	e034      	b.n	800164a <create_chain+0x11a>
			if (obj->stat == 2 && ncl != scl + 1) {	/* Is the chain got fragmented? */
 80015e0:	79fa      	ldrb	r2, [r7, #7]
 80015e2:	2a02      	cmp	r2, #2
 80015e4:	d1e5      	bne.n	80015b2 <create_chain+0x82>
 80015e6:	1c72      	adds	r2, r6, #1
 80015e8:	42aa      	cmp	r2, r5
 80015ea:	d0e2      	beq.n	80015b2 <create_chain+0x82>
				obj->n_cont = scl - obj->sclust;	/* Set size of the contiguous part */
 80015ec:	68ba      	ldr	r2, [r7, #8]
 80015ee:	1ab2      	subs	r2, r6, r2
 80015f0:	61ba      	str	r2, [r7, #24]
				obj->stat = 3;						/* Change status 'just fragmented' */
 80015f2:	2203      	movs	r2, #3
 80015f4:	71fa      	strb	r2, [r7, #7]
 80015f6:	e7dc      	b.n	80015b2 <create_chain+0x82>
				obj->n_frag = obj->n_frag ? obj->n_frag + 1 : 2;	/* Increment size of last framgent */
 80015f8:	69fa      	ldr	r2, [r7, #28]
 80015fa:	b10a      	cbz	r2, 8001600 <create_chain+0xd0>
 80015fc:	3201      	adds	r2, #1
 80015fe:	e000      	b.n	8001602 <create_chain+0xd2>
 8001600:	2202      	movs	r2, #2
 8001602:	61fa      	str	r2, [r7, #28]
		ncl = find_bitmap(fs, scl, 1);				/* Find a free cluster */
 8001604:	462c      	mov	r4, r5
 8001606:	e01f      	b.n	8001648 <create_chain+0x118>
			cs = get_fat(obj, ncl);			/* Get the cluster status */
 8001608:	4621      	mov	r1, r4
 800160a:	4638      	mov	r0, r7
 800160c:	f7ff fe79 	bl	8001302 <get_fat>
			if (cs == 0) break;				/* Found a free cluster */
 8001610:	4605      	mov	r5, r0
 8001612:	b178      	cbz	r0, 8001634 <create_chain+0x104>
			if (cs == 1 || cs == 0xFFFFFFFF) return cs;	/* An error occurred */
 8001614:	2801      	cmp	r0, #1
 8001616:	d046      	beq.n	80016a6 <create_chain+0x176>
 8001618:	f1b0 3fff 	cmp.w	r0, #4294967295	@ 0xffffffff
 800161c:	d043      	beq.n	80016a6 <create_chain+0x176>
			if (ncl == scl) return 0;		/* No free cluster */
 800161e:	42b4      	cmp	r4, r6
 8001620:	d040      	beq.n	80016a4 <create_chain+0x174>
			ncl++;							/* Next cluster */
 8001622:	3401      	adds	r4, #1
			if (ncl >= fs->n_fatent) {		/* Check wrap-around */
 8001624:	f8d8 301c 	ldr.w	r3, [r8, #28]
 8001628:	42a3      	cmp	r3, r4
 800162a:	d8ed      	bhi.n	8001608 <create_chain+0xd8>
				if (ncl > scl) return 0;	/* No free cluster */
 800162c:	2e01      	cmp	r6, #1
 800162e:	d937      	bls.n	80016a0 <create_chain+0x170>
				ncl = 2;
 8001630:	2402      	movs	r4, #2
 8001632:	e7e9      	b.n	8001608 <create_chain+0xd8>
		res = put_fat(fs, ncl, 0xFFFFFFFF);	/* Mark the new cluster 'EOC' */
 8001634:	f04f 32ff 	mov.w	r2, #4294967295	@ 0xffffffff
 8001638:	4621      	mov	r1, r4
 800163a:	4640      	mov	r0, r8
 800163c:	f7ff fd95 	bl	800116a <put_fat>
		if (res == FR_OK && clst != 0) {
 8001640:	4603      	mov	r3, r0
 8001642:	b9f8      	cbnz	r0, 8001684 <create_chain+0x154>
 8001644:	464a      	mov	r2, r9
 8001646:	b9a2      	cbnz	r2, 8001672 <create_chain+0x142>
	if (res == FR_OK) {			/* Update FSINFO if function succeeded. */
 8001648:	b9e3      	cbnz	r3, 8001684 <create_chain+0x154>
		fs->last_clst = ncl;
 800164a:	f8c8 4014 	str.w	r4, [r8, #20]
		if (fs->free_clst <= fs->n_fatent - 2) fs->free_clst--;
 800164e:	f8d8 2018 	ldr.w	r2, [r8, #24]
 8001652:	f8d8 301c 	ldr.w	r3, [r8, #28]
 8001656:	3b02      	subs	r3, #2
 8001658:	429a      	cmp	r2, r3
 800165a:	d802      	bhi.n	8001662 <create_chain+0x132>
 800165c:	3a01      	subs	r2, #1
 800165e:	f8c8 2018 	str.w	r2, [r8, #24]
		fs->fsi_flag |= 1;
 8001662:	f898 3004 	ldrb.w	r3, [r8, #4]
 8001666:	f043 0301 	orr.w	r3, r3, #1
 800166a:	f888 3004 	strb.w	r3, [r8, #4]
 800166e:	4625      	mov	r5, r4
 8001670:	e019      	b.n	80016a6 <create_chain+0x176>
			res = put_fat(fs, clst, ncl);	/* Link it from the previous one if needed */
 8001672:	4622      	mov	r2, r4
 8001674:	4649      	mov	r1, r9
 8001676:	4640      	mov	r0, r8
 8001678:	f7ff fd77 	bl	800116a <put_fat>
 800167c:	4603      	mov	r3, r0
 800167e:	e7e3      	b.n	8001648 <create_chain+0x118>
		ncl = find_bitmap(fs, scl, 1);				/* Find a free cluster */
 8001680:	462c      	mov	r4, r5
 8001682:	e7e1      	b.n	8001648 <create_chain+0x118>
		ncl = (res == FR_DISK_ERR) ? 0xFFFFFFFF : 1;	/* Failed. Generate error status */
 8001684:	2b01      	cmp	r3, #1
 8001686:	d001      	beq.n	800168c <create_chain+0x15c>
 8001688:	2501      	movs	r5, #1
 800168a:	e00c      	b.n	80016a6 <create_chain+0x176>
 800168c:	f04f 35ff 	mov.w	r5, #4294967295	@ 0xffffffff
 8001690:	e009      	b.n	80016a6 <create_chain+0x176>
		if (cs < 2) return 1;				/* Invalid FAT value */
 8001692:	2501      	movs	r5, #1
 8001694:	e007      	b.n	80016a6 <create_chain+0x176>
		if (res == FR_INT_ERR) return 1;
 8001696:	2501      	movs	r5, #1
 8001698:	e005      	b.n	80016a6 <create_chain+0x176>
		if (res == FR_DISK_ERR) return 0xFFFFFFFF;
 800169a:	f04f 35ff 	mov.w	r5, #4294967295	@ 0xffffffff
 800169e:	e002      	b.n	80016a6 <create_chain+0x176>
				if (ncl > scl) return 0;	/* No free cluster */
 80016a0:	2500      	movs	r5, #0
 80016a2:	e000      	b.n	80016a6 <create_chain+0x176>
			if (ncl == scl) return 0;		/* No free cluster */
 80016a4:	2500      	movs	r5, #0
}
 80016a6:	4628      	mov	r0, r5
 80016a8:	e8bd 83f8 	ldmia.w	sp!, {r3, r4, r5, r6, r7, r8, r9, pc}

080016ac <remove_chain>:
{
 80016ac:	e92d 43f8 	stmdb	sp!, {r3, r4, r5, r6, r7, r8, r9, lr}
	FATFS *fs = obj->fs;
 80016b0:	6805      	ldr	r5, [r0, #0]
	if (clst < 2 || clst >= fs->n_fatent) return FR_INT_ERR;	/* Check if in valid range */
 80016b2:	2901      	cmp	r1, #1
 80016b4:	d969      	bls.n	800178a <remove_chain+0xde>
 80016b6:	4607      	mov	r7, r0
 80016b8:	460c      	mov	r4, r1
 80016ba:	4691      	mov	r9, r2
 80016bc:	69eb      	ldr	r3, [r5, #28]
 80016be:	428b      	cmp	r3, r1
 80016c0:	d965      	bls.n	800178e <remove_chain+0xe2>
	if (pclst && (!_FS_EXFAT || fs->fs_type != FS_EXFAT || obj->stat != 2)) {
 80016c2:	b172      	cbz	r2, 80016e2 <remove_chain+0x36>
 80016c4:	782b      	ldrb	r3, [r5, #0]
 80016c6:	2b04      	cmp	r3, #4
 80016c8:	d102      	bne.n	80016d0 <remove_chain+0x24>
 80016ca:	79c3      	ldrb	r3, [r0, #7]
 80016cc:	2b02      	cmp	r3, #2
 80016ce:	d008      	beq.n	80016e2 <remove_chain+0x36>
		res = put_fat(fs, pclst, 0xFFFFFFFF);
 80016d0:	f04f 32ff 	mov.w	r2, #4294967295	@ 0xffffffff
 80016d4:	4649      	mov	r1, r9
 80016d6:	4628      	mov	r0, r5
 80016d8:	f7ff fd47 	bl	800116a <put_fat>
		if (res != FR_OK) return res;
 80016dc:	4603      	mov	r3, r0
 80016de:	2800      	cmp	r0, #0
 80016e0:	d156      	bne.n	8001790 <remove_chain+0xe4>
{
 80016e2:	46a0      	mov	r8, r4
 80016e4:	e011      	b.n	800170a <remove_chain+0x5e>
			res = put_fat(fs, clst, 0);		/* Mark the cluster 'free' on the FAT */
 80016e6:	2200      	movs	r2, #0
 80016e8:	4631      	mov	r1, r6
 80016ea:	4628      	mov	r0, r5
 80016ec:	f7ff fd3d 	bl	800116a <put_fat>
			if (res != FR_OK) return res;
 80016f0:	4603      	mov	r3, r0
 80016f2:	b1c8      	cbz	r0, 8001728 <remove_chain+0x7c>
 80016f4:	e04c      	b.n	8001790 <remove_chain+0xe4>
		if (ecl + 1 == nxt) {	/* Is next cluster contiguous? */
 80016f6:	1c73      	adds	r3, r6, #1
 80016f8:	42a3      	cmp	r3, r4
 80016fa:	d003      	beq.n	8001704 <remove_chain+0x58>
			if (fs->fs_type == FS_EXFAT) {
 80016fc:	782b      	ldrb	r3, [r5, #0]
 80016fe:	2b04      	cmp	r3, #4
 8001700:	d01e      	beq.n	8001740 <remove_chain+0x94>
			scl = ecl = nxt;
 8001702:	46a0      	mov	r8, r4
	} while (clst < fs->n_fatent);	/* Repeat while not the last link */
 8001704:	69eb      	ldr	r3, [r5, #28]
 8001706:	42a3      	cmp	r3, r4
 8001708:	d925      	bls.n	8001756 <remove_chain+0xaa>
		nxt = get_fat(obj, clst);			/* Get cluster status */
 800170a:	4626      	mov	r6, r4
 800170c:	4621      	mov	r1, r4
 800170e:	4638      	mov	r0, r7
 8001710:	f7ff fdf7 	bl	8001302 <get_fat>
		if (nxt == 0) break;				/* Empty cluster? */
 8001714:	4604      	mov	r4, r0
 8001716:	b1f0      	cbz	r0, 8001756 <remove_chain+0xaa>
		if (nxt == 1) return FR_INT_ERR;	/* Internal error? */
 8001718:	2801      	cmp	r0, #1
 800171a:	d03c      	beq.n	8001796 <remove_chain+0xea>
		if (nxt == 0xFFFFFFFF) return FR_DISK_ERR;	/* Disk error? */
 800171c:	f1b0 3fff 	cmp.w	r0, #4294967295	@ 0xffffffff
 8001720:	d03b      	beq.n	800179a <remove_chain+0xee>
		if (!_FS_EXFAT || fs->fs_type != FS_EXFAT) {
 8001722:	782b      	ldrb	r3, [r5, #0]
 8001724:	2b04      	cmp	r3, #4
 8001726:	d1de      	bne.n	80016e6 <remove_chain+0x3a>
		if (fs->free_clst < fs->n_fatent - 2) {	/* Update FSINFO */
 8001728:	69aa      	ldr	r2, [r5, #24]
 800172a:	69eb      	ldr	r3, [r5, #28]
 800172c:	3b02      	subs	r3, #2
 800172e:	429a      	cmp	r2, r3
 8001730:	d2e1      	bcs.n	80016f6 <remove_chain+0x4a>
			fs->free_clst++;
 8001732:	3201      	adds	r2, #1
 8001734:	61aa      	str	r2, [r5, #24]
			fs->fsi_flag |= 1;
 8001736:	792b      	ldrb	r3, [r5, #4]
 8001738:	f043 0301 	orr.w	r3, r3, #1
 800173c:	712b      	strb	r3, [r5, #4]
 800173e:	e7da      	b.n	80016f6 <remove_chain+0x4a>
				res = change_bitmap(fs, scl, ecl - scl + 1, 0);	/* Mark the cluster block 'free' on the bitmap */
 8001740:	4641      	mov	r1, r8
 8001742:	1a72      	subs	r2, r6, r1
 8001744:	2300      	movs	r3, #0
 8001746:	3201      	adds	r2, #1
 8001748:	4628      	mov	r0, r5
 800174a:	f7ff fcd3 	bl	80010f4 <change_bitmap>
				if (res != FR_OK) return res;
 800174e:	4603      	mov	r3, r0
 8001750:	b9f0      	cbnz	r0, 8001790 <remove_chain+0xe4>
			scl = ecl = nxt;
 8001752:	46a0      	mov	r8, r4
 8001754:	e7d6      	b.n	8001704 <remove_chain+0x58>
	if (fs->fs_type == FS_EXFAT) {
 8001756:	782b      	ldrb	r3, [r5, #0]
 8001758:	2b04      	cmp	r3, #4
 800175a:	d001      	beq.n	8001760 <remove_chain+0xb4>
	return FR_OK;
 800175c:	2300      	movs	r3, #0
 800175e:	e017      	b.n	8001790 <remove_chain+0xe4>
		if (pclst == 0) {	/* Does the object have no chain? */
 8001760:	464b      	mov	r3, r9
 8001762:	b913      	cbnz	r3, 800176a <remove_chain+0xbe>
			obj->stat = 0;		/* Change the object status 'initial' */
 8001764:	f887 9007 	strb.w	r9, [r7, #7]
 8001768:	e012      	b.n	8001790 <remove_chain+0xe4>
			if (obj->stat == 3 && pclst >= obj->sclust && pclst <= obj->sclust + obj->n_cont) {	/* Did the chain get contiguous? */
 800176a:	79fb      	ldrb	r3, [r7, #7]
 800176c:	2b03      	cmp	r3, #3
 800176e:	d001      	beq.n	8001774 <remove_chain+0xc8>
	return FR_OK;
 8001770:	2300      	movs	r3, #0
 8001772:	e00d      	b.n	8001790 <remove_chain+0xe4>
			if (obj->stat == 3 && pclst >= obj->sclust && pclst <= obj->sclust + obj->n_cont) {	/* Did the chain get contiguous? */
 8001774:	68bb      	ldr	r3, [r7, #8]
 8001776:	454b      	cmp	r3, r9
 8001778:	d811      	bhi.n	800179e <remove_chain+0xf2>
 800177a:	69ba      	ldr	r2, [r7, #24]
 800177c:	4413      	add	r3, r2
 800177e:	454b      	cmp	r3, r9
 8001780:	d30f      	bcc.n	80017a2 <remove_chain+0xf6>
				obj->stat = 2;	/* Change the object status 'contiguous' */
 8001782:	2302      	movs	r3, #2
 8001784:	71fb      	strb	r3, [r7, #7]
	return FR_OK;
 8001786:	2300      	movs	r3, #0
 8001788:	e002      	b.n	8001790 <remove_chain+0xe4>
	if (clst < 2 || clst >= fs->n_fatent) return FR_INT_ERR;	/* Check if in valid range */
 800178a:	2302      	movs	r3, #2
 800178c:	e000      	b.n	8001790 <remove_chain+0xe4>
 800178e:	2302      	movs	r3, #2
}
 8001790:	4618      	mov	r0, r3
 8001792:	e8bd 83f8 	ldmia.w	sp!, {r3, r4, r5, r6, r7, r8, r9, pc}
		if (nxt == 1) return FR_INT_ERR;	/* Internal error? */
 8001796:	2302      	movs	r3, #2
 8001798:	e7fa      	b.n	8001790 <remove_chain+0xe4>
		if (nxt == 0xFFFFFFFF) return FR_DISK_ERR;	/* Disk error? */
 800179a:	2301      	movs	r3, #1
 800179c:	e7f8      	b.n	8001790 <remove_chain+0xe4>
	return FR_OK;
 800179e:	2300      	movs	r3, #0
 80017a0:	e7f6      	b.n	8001790 <remove_chain+0xe4>
 80017a2:	2300      	movs	r3, #0
 80017a4:	e7f4      	b.n	8001790 <remove_chain+0xe4>

080017a6 <dir_next>:
{
 80017a6:	e92d 47f0 	stmdb	sp!, {r4, r5, r6, r7, r8, r9, sl, lr}
	FATFS *fs = dp->obj.fs;
 80017aa:	6806      	ldr	r6, [r0, #0]
	ofs = dp->dptr + SZDIRE;	/* Next entry */
 80017ac:	6b05      	ldr	r5, [r0, #48]	@ 0x30
	if (!dp->sect || ofs >= (DWORD)((_FS_EXFAT && fs->fs_type == FS_EXFAT) ? MAX_DIR_EX : MAX_DIR)) return FR_NO_FILE;	/* Report EOT when offset has reached max value */
 80017ae:	6b83      	ldr	r3, [r0, #56]	@ 0x38
 80017b0:	2b00      	cmp	r3, #0
 80017b2:	d078      	beq.n	80018a6 <dir_next+0x100>
 80017b4:	4604      	mov	r4, r0
 80017b6:	460f      	mov	r7, r1
 80017b8:	3520      	adds	r5, #32
 80017ba:	7832      	ldrb	r2, [r6, #0]
 80017bc:	2a04      	cmp	r2, #4
 80017be:	d017      	beq.n	80017f0 <dir_next+0x4a>
 80017c0:	f44f 1200 	mov.w	r2, #2097152	@ 0x200000
 80017c4:	42aa      	cmp	r2, r5
 80017c6:	d970      	bls.n	80018aa <dir_next+0x104>
	if (ofs % SS(fs) == 0) {	/* Sector changed? */
 80017c8:	f3c5 0208 	ubfx	r2, r5, #0, #9
 80017cc:	4690      	mov	r8, r2
 80017ce:	b93a      	cbnz	r2, 80017e0 <dir_next+0x3a>
		dp->sect++;				/* Next sector */
 80017d0:	3301      	adds	r3, #1
 80017d2:	63a3      	str	r3, [r4, #56]	@ 0x38
		if (!dp->clust) {		/* Static table */
 80017d4:	6b61      	ldr	r1, [r4, #52]	@ 0x34
 80017d6:	b989      	cbnz	r1, 80017fc <dir_next+0x56>
			if (ofs / SZDIRE >= fs->n_rootdir) {	/* Report EOT if it reached end of static table */
 80017d8:	8933      	ldrh	r3, [r6, #8]
 80017da:	ebb3 1f55 	cmp.w	r3, r5, lsr #5
 80017de:	d90a      	bls.n	80017f6 <dir_next+0x50>
	dp->dptr = ofs;						/* Current entry */
 80017e0:	6325      	str	r5, [r4, #48]	@ 0x30
	dp->dir = fs->win + ofs % SS(fs);	/* Pointer to the entry in the win[] */
 80017e2:	f106 0338 	add.w	r3, r6, #56	@ 0x38
 80017e6:	4443      	add	r3, r8
 80017e8:	63e3      	str	r3, [r4, #60]	@ 0x3c
	return FR_OK;
 80017ea:	2000      	movs	r0, #0
}
 80017ec:	e8bd 87f0 	ldmia.w	sp!, {r4, r5, r6, r7, r8, r9, sl, pc}
	if (!dp->sect || ofs >= (DWORD)((_FS_EXFAT && fs->fs_type == FS_EXFAT) ? MAX_DIR_EX : MAX_DIR)) return FR_NO_FILE;	/* Report EOT when offset has reached max value */
 80017f0:	f04f 5280 	mov.w	r2, #268435456	@ 0x10000000
 80017f4:	e7e6      	b.n	80017c4 <dir_next+0x1e>
				dp->sect = 0; return FR_NO_FILE;
 80017f6:	63a1      	str	r1, [r4, #56]	@ 0x38
 80017f8:	2004      	movs	r0, #4
 80017fa:	e7f7      	b.n	80017ec <dir_next+0x46>
			if ((ofs / SS(fs) & (fs->csize - 1)) == 0) {		/* Cluster changed? */
 80017fc:	8973      	ldrh	r3, [r6, #10]
 80017fe:	3b01      	subs	r3, #1
 8001800:	ea13 2355 	ands.w	r3, r3, r5, lsr #9
 8001804:	4699      	mov	r9, r3
 8001806:	d1eb      	bne.n	80017e0 <dir_next+0x3a>
				clst = get_fat(&dp->obj, dp->clust);			/* Get next cluster */
 8001808:	4620      	mov	r0, r4
 800180a:	f7ff fd7a 	bl	8001302 <get_fat>
 800180e:	4682      	mov	sl, r0
				if (clst <= 1) return FR_INT_ERR;				/* Internal error */
 8001810:	2801      	cmp	r0, #1
 8001812:	d94c      	bls.n	80018ae <dir_next+0x108>
				if (clst == 0xFFFFFFFF) return FR_DISK_ERR;		/* Disk error */
 8001814:	f1b0 3fff 	cmp.w	r0, #4294967295	@ 0xffffffff
 8001818:	d04b      	beq.n	80018b2 <dir_next+0x10c>
				if (clst >= fs->n_fatent) {						/* Reached end of dynamic table */
 800181a:	69f3      	ldr	r3, [r6, #28]
 800181c:	4283      	cmp	r3, r0
 800181e:	d83a      	bhi.n	8001896 <dir_next+0xf0>
					if (!stretch) {								/* If no stretch, report EOT */
 8001820:	b1b7      	cbz	r7, 8001850 <dir_next+0xaa>
					clst = create_chain(&dp->obj, dp->clust);	/* Allocate a cluster */
 8001822:	6b61      	ldr	r1, [r4, #52]	@ 0x34
 8001824:	4620      	mov	r0, r4
 8001826:	f7ff fe83 	bl	8001530 <create_chain>
					if (clst == 0) return FR_DENIED;			/* No free cluster */
 800182a:	4607      	mov	r7, r0
 800182c:	4682      	mov	sl, r0
 800182e:	2800      	cmp	r0, #0
 8001830:	d041      	beq.n	80018b6 <dir_next+0x110>
					if (clst == 1) return FR_INT_ERR;			/* Internal error */
 8001832:	2801      	cmp	r0, #1
 8001834:	d041      	beq.n	80018ba <dir_next+0x114>
					if (clst == 0xFFFFFFFF) return FR_DISK_ERR;	/* Disk error */
 8001836:	f1b0 3fff 	cmp.w	r0, #4294967295	@ 0xffffffff
 800183a:	d040      	beq.n	80018be <dir_next+0x118>
					if (_FS_EXFAT) dp->obj.stat |= 4;			/* The directory needs to be updated */
 800183c:	79e3      	ldrb	r3, [r4, #7]
 800183e:	f043 0304 	orr.w	r3, r3, #4
 8001842:	71e3      	strb	r3, [r4, #7]
					if (sync_window(fs) != FR_OK) return FR_DISK_ERR;	/* Flush disk access window */
 8001844:	4630      	mov	r0, r6
 8001846:	f7ff f949 	bl	8000adc <sync_window>
 800184a:	b120      	cbz	r0, 8001856 <dir_next+0xb0>
 800184c:	2001      	movs	r0, #1
 800184e:	e7cd      	b.n	80017ec <dir_next+0x46>
						dp->sect = 0; return FR_NO_FILE;
 8001850:	63a7      	str	r7, [r4, #56]	@ 0x38
 8001852:	2004      	movs	r0, #4
 8001854:	e7ca      	b.n	80017ec <dir_next+0x46>
					mem_set(fs->win, 0, SS(fs));				/* Clear window buffer */
 8001856:	f44f 7200 	mov.w	r2, #512	@ 0x200
 800185a:	4601      	mov	r1, r0
 800185c:	f106 0038 	add.w	r0, r6, #56	@ 0x38
 8001860:	f7fe feba 	bl	80005d8 <mem_set>
					for (n = 0, fs->winsect = clust2sect(fs, clst); n < fs->csize; n++, fs->winsect++) {	/* Fill the new cluster with 0 */
 8001864:	4639      	mov	r1, r7
 8001866:	4630      	mov	r0, r6
 8001868:	f7fe ffaa 	bl	80007c0 <clust2sect>
 800186c:	6370      	str	r0, [r6, #52]	@ 0x34
 800186e:	8973      	ldrh	r3, [r6, #10]
 8001870:	464a      	mov	r2, r9
 8001872:	454b      	cmp	r3, r9
 8001874:	d90c      	bls.n	8001890 <dir_next+0xea>
						fs->wflag = 1;
 8001876:	2301      	movs	r3, #1
 8001878:	70f3      	strb	r3, [r6, #3]
						if (sync_window(fs) != FR_OK) return FR_DISK_ERR;
 800187a:	4630      	mov	r0, r6
 800187c:	f7ff f92e 	bl	8000adc <sync_window>
 8001880:	b9f8      	cbnz	r0, 80018c2 <dir_next+0x11c>
					for (n = 0, fs->winsect = clust2sect(fs, clst); n < fs->csize; n++, fs->winsect++) {	/* Fill the new cluster with 0 */
 8001882:	464b      	mov	r3, r9
 8001884:	3301      	adds	r3, #1
 8001886:	4699      	mov	r9, r3
 8001888:	6b73      	ldr	r3, [r6, #52]	@ 0x34
 800188a:	3301      	adds	r3, #1
 800188c:	6373      	str	r3, [r6, #52]	@ 0x34
 800188e:	e7ee      	b.n	800186e <dir_next+0xc8>
					fs->winsect -= n;							/* Restore window offset */
 8001890:	6b73      	ldr	r3, [r6, #52]	@ 0x34
 8001892:	1a9b      	subs	r3, r3, r2
 8001894:	6373      	str	r3, [r6, #52]	@ 0x34
				dp->clust = clst;		/* Initialize data for new cluster */
 8001896:	f8c4 a034 	str.w	sl, [r4, #52]	@ 0x34
				dp->sect = clust2sect(fs, clst);
 800189a:	4651      	mov	r1, sl
 800189c:	4630      	mov	r0, r6
 800189e:	f7fe ff8f 	bl	80007c0 <clust2sect>
 80018a2:	63a0      	str	r0, [r4, #56]	@ 0x38
 80018a4:	e79c      	b.n	80017e0 <dir_next+0x3a>
	if (!dp->sect || ofs >= (DWORD)((_FS_EXFAT && fs->fs_type == FS_EXFAT) ? MAX_DIR_EX : MAX_DIR)) return FR_NO_FILE;	/* Report EOT when offset has reached max value */
 80018a6:	2004      	movs	r0, #4
 80018a8:	e7a0      	b.n	80017ec <dir_next+0x46>
 80018aa:	2004      	movs	r0, #4
 80018ac:	e79e      	b.n	80017ec <dir_next+0x46>
				if (clst <= 1) return FR_INT_ERR;				/* Internal error */
 80018ae:	2002      	movs	r0, #2
 80018b0:	e79c      	b.n	80017ec <dir_next+0x46>
				if (clst == 0xFFFFFFFF) return FR_DISK_ERR;		/* Disk error */
 80018b2:	2001      	movs	r0, #1
 80018b4:	e79a      	b.n	80017ec <dir_next+0x46>
					if (clst == 0) return FR_DENIED;			/* No free cluster */
 80018b6:	2007      	movs	r0, #7
 80018b8:	e798      	b.n	80017ec <dir_next+0x46>
					if (clst == 1) return FR_INT_ERR;			/* Internal error */
 80018ba:	2002      	movs	r0, #2
 80018bc:	e796      	b.n	80017ec <dir_next+0x46>
					if (clst == 0xFFFFFFFF) return FR_DISK_ERR;	/* Disk error */
 80018be:	2001      	movs	r0, #1
 80018c0:	e794      	b.n	80017ec <dir_next+0x46>
						if (sync_window(fs) != FR_OK) return FR_DISK_ERR;
 80018c2:	2001      	movs	r0, #1
 80018c4:	e792      	b.n	80017ec <dir_next+0x46>
	...

080018c8 <load_xdir>:
{
 80018c8:	e92d 41f0 	stmdb	sp!, {r4, r5, r6, r7, r8, lr}
 80018cc:	4604      	mov	r4, r0
	BYTE* dirb = dp->obj.fs->dirbuf;	/* Pointer to the on-memory direcotry entry block 85+C0+C1s */
 80018ce:	6800      	ldr	r0, [r0, #0]
 80018d0:	6905      	ldr	r5, [r0, #16]
	res = move_window(dp->obj.fs, dp->sect);
 80018d2:	6ba1      	ldr	r1, [r4, #56]	@ 0x38
 80018d4:	f7ff f92c 	bl	8000b30 <move_window>
	if (res != FR_OK) return res;
 80018d8:	4607      	mov	r7, r0
 80018da:	b930      	cbnz	r0, 80018ea <load_xdir+0x22>
 80018dc:	462e      	mov	r6, r5
	if (dp->dir[XDIR_Type] != 0x85) return FR_INT_ERR;
 80018de:	6be1      	ldr	r1, [r4, #60]	@ 0x3c
 80018e0:	780b      	ldrb	r3, [r1, #0]
 80018e2:	2b85      	cmp	r3, #133	@ 0x85
 80018e4:	d004      	beq.n	80018f0 <load_xdir+0x28>
 80018e6:	2302      	movs	r3, #2
 80018e8:	461f      	mov	r7, r3
}
 80018ea:	4638      	mov	r0, r7
 80018ec:	e8bd 81f0 	ldmia.w	sp!, {r4, r5, r6, r7, r8, pc}
	mem_cpy(dirb + 0, dp->dir, SZDIRE);
 80018f0:	2220      	movs	r2, #32
 80018f2:	4628      	mov	r0, r5
 80018f4:	f7fe fe66 	bl	80005c4 <mem_cpy>
	sz_ent = (dirb[XDIR_NumSec] + 1) * SZDIRE;
 80018f8:	786b      	ldrb	r3, [r5, #1]
 80018fa:	3301      	adds	r3, #1
 80018fc:	015b      	lsls	r3, r3, #5
 80018fe:	461d      	mov	r5, r3
 8001900:	4698      	mov	r8, r3
	if (sz_ent < 3 * SZDIRE || sz_ent > 19 * SZDIRE) return FR_INT_ERR;
 8001902:	3b60      	subs	r3, #96	@ 0x60
 8001904:	f5b3 7f00 	cmp.w	r3, #512	@ 0x200
 8001908:	d854      	bhi.n	80019b4 <load_xdir+0xec>
	res = dir_next(dp, 0);
 800190a:	2100      	movs	r1, #0
 800190c:	4620      	mov	r0, r4
 800190e:	f7ff ff4a 	bl	80017a6 <dir_next>
	if (res != FR_OK) return res;
 8001912:	4607      	mov	r7, r0
 8001914:	2800      	cmp	r0, #0
 8001916:	d1e8      	bne.n	80018ea <load_xdir+0x22>
	res = move_window(dp->obj.fs, dp->sect);
 8001918:	6ba1      	ldr	r1, [r4, #56]	@ 0x38
 800191a:	6820      	ldr	r0, [r4, #0]
 800191c:	f7ff f908 	bl	8000b30 <move_window>
	if (res != FR_OK) return res;
 8001920:	4607      	mov	r7, r0
 8001922:	2800      	cmp	r0, #0
 8001924:	d1e1      	bne.n	80018ea <load_xdir+0x22>
	if (dp->dir[XDIR_Type] != 0xC0) return FR_INT_ERR;
 8001926:	6be1      	ldr	r1, [r4, #60]	@ 0x3c
 8001928:	780b      	ldrb	r3, [r1, #0]
 800192a:	2bc0      	cmp	r3, #192	@ 0xc0
 800192c:	d002      	beq.n	8001934 <load_xdir+0x6c>
 800192e:	2302      	movs	r3, #2
 8001930:	461f      	mov	r7, r3
 8001932:	e7da      	b.n	80018ea <load_xdir+0x22>
	mem_cpy(dirb + SZDIRE, dp->dir, SZDIRE);
 8001934:	2220      	movs	r2, #32
 8001936:	18b0      	adds	r0, r6, r2
 8001938:	f7fe fe44 	bl	80005c4 <mem_cpy>
	if (MAXDIRB(dirb[XDIR_NumName]) > sz_ent) return FR_INT_ERR;
 800193c:	f896 3023 	ldrb.w	r3, [r6, #35]	@ 0x23
 8001940:	332c      	adds	r3, #44	@ 0x2c
 8001942:	4a21      	ldr	r2, [pc, #132]	@ (80019c8 <load_xdir+0x100>)
 8001944:	fba2 2303 	umull	r2, r3, r2, r3
 8001948:	08db      	lsrs	r3, r3, #3
 800194a:	ebb5 1f43 	cmp.w	r5, r3, lsl #5
 800194e:	d334      	bcc.n	80019ba <load_xdir+0xf2>
	i = SZDIRE * 2;	/* C1 offset */
 8001950:	2340      	movs	r3, #64	@ 0x40
 8001952:	461d      	mov	r5, r3
 8001954:	e004      	b.n	8001960 <load_xdir+0x98>
	} while ((i += SZDIRE) < sz_ent);
 8001956:	462b      	mov	r3, r5
 8001958:	3320      	adds	r3, #32
 800195a:	461d      	mov	r5, r3
 800195c:	4598      	cmp	r8, r3
 800195e:	d919      	bls.n	8001994 <load_xdir+0xcc>
		res = dir_next(dp, 0);
 8001960:	2100      	movs	r1, #0
 8001962:	4620      	mov	r0, r4
 8001964:	f7ff ff1f 	bl	80017a6 <dir_next>
		if (res != FR_OK) return res;
 8001968:	4607      	mov	r7, r0
 800196a:	2800      	cmp	r0, #0
 800196c:	d1bd      	bne.n	80018ea <load_xdir+0x22>
		res = move_window(dp->obj.fs, dp->sect);
 800196e:	6ba1      	ldr	r1, [r4, #56]	@ 0x38
 8001970:	6820      	ldr	r0, [r4, #0]
 8001972:	f7ff f8dd 	bl	8000b30 <move_window>
		if (res != FR_OK) return res;
 8001976:	4607      	mov	r7, r0
 8001978:	2800      	cmp	r0, #0
 800197a:	d1b6      	bne.n	80018ea <load_xdir+0x22>
		if (dp->dir[XDIR_Type] != 0xC1) return FR_INT_ERR;
 800197c:	6be1      	ldr	r1, [r4, #60]	@ 0x3c
 800197e:	780b      	ldrb	r3, [r1, #0]
 8001980:	2bc1      	cmp	r3, #193	@ 0xc1
 8001982:	d11d      	bne.n	80019c0 <load_xdir+0xf8>
		if (i < MAXDIRB(_MAX_LFN)) mem_cpy(dirb + i, dp->dir, SZDIRE);
 8001984:	f5b5 7f18 	cmp.w	r5, #608	@ 0x260
 8001988:	d2e5      	bcs.n	8001956 <load_xdir+0x8e>
 800198a:	2220      	movs	r2, #32
 800198c:	1970      	adds	r0, r6, r5
 800198e:	f7fe fe19 	bl	80005c4 <mem_cpy>
 8001992:	e7e0      	b.n	8001956 <load_xdir+0x8e>
	if (i <= MAXDIRB(_MAX_LFN)) {
 8001994:	f5b3 7f18 	cmp.w	r3, #608	@ 0x260
 8001998:	d8a7      	bhi.n	80018ea <load_xdir+0x22>
		if (xdir_sum(dirb) != ld_word(dirb + XDIR_SetSum)) return FR_INT_ERR;
 800199a:	4630      	mov	r0, r6
 800199c:	f7ff f83c 	bl	8000a18 <xdir_sum>
 80019a0:	4604      	mov	r4, r0
 80019a2:	4630      	mov	r0, r6
 80019a4:	3002      	adds	r0, #2
 80019a6:	f7fe fdba 	bl	800051e <ld_word>
 80019aa:	4284      	cmp	r4, r0
 80019ac:	d09d      	beq.n	80018ea <load_xdir+0x22>
 80019ae:	2302      	movs	r3, #2
 80019b0:	461f      	mov	r7, r3
 80019b2:	e79a      	b.n	80018ea <load_xdir+0x22>
	if (sz_ent < 3 * SZDIRE || sz_ent > 19 * SZDIRE) return FR_INT_ERR;
 80019b4:	2302      	movs	r3, #2
 80019b6:	461f      	mov	r7, r3
 80019b8:	e797      	b.n	80018ea <load_xdir+0x22>
	if (MAXDIRB(dirb[XDIR_NumName]) > sz_ent) return FR_INT_ERR;
 80019ba:	2302      	movs	r3, #2
 80019bc:	461f      	mov	r7, r3
 80019be:	e794      	b.n	80018ea <load_xdir+0x22>
		if (dp->dir[XDIR_Type] != 0xC1) return FR_INT_ERR;
 80019c0:	2302      	movs	r3, #2
 80019c2:	461f      	mov	r7, r3
 80019c4:	e791      	b.n	80018ea <load_xdir+0x22>
 80019c6:	bf00      	nop
 80019c8:	88888889 	.word	0x88888889

080019cc <load_obj_dir>:
{
 80019cc:	b510      	push	{r4, lr}
 80019ce:	4604      	mov	r4, r0
	dp->obj.fs = obj->fs;
 80019d0:	680b      	ldr	r3, [r1, #0]
 80019d2:	6003      	str	r3, [r0, #0]
	dp->obj.sclust = obj->c_scl;
 80019d4:	6a0b      	ldr	r3, [r1, #32]
 80019d6:	6083      	str	r3, [r0, #8]
	dp->obj.stat = (BYTE)obj->c_size;
 80019d8:	f891 3024 	ldrb.w	r3, [r1, #36]	@ 0x24
 80019dc:	71c3      	strb	r3, [r0, #7]
	dp->obj.objsize = obj->c_size & 0xFFFFFF00;
 80019de:	6a4b      	ldr	r3, [r1, #36]	@ 0x24
 80019e0:	f023 03ff 	bic.w	r3, r3, #255	@ 0xff
 80019e4:	6103      	str	r3, [r0, #16]
 80019e6:	2300      	movs	r3, #0
 80019e8:	6143      	str	r3, [r0, #20]
	dp->blk_ofs = obj->c_ofs;
 80019ea:	6a89      	ldr	r1, [r1, #40]	@ 0x28
 80019ec:	64c1      	str	r1, [r0, #76]	@ 0x4c
	res = dir_sdi(dp, dp->blk_ofs);	/* Goto object's entry block */
 80019ee:	f7ff fd3f 	bl	8001470 <dir_sdi>
	if (res == FR_OK) {
 80019f2:	b100      	cbz	r0, 80019f6 <load_obj_dir+0x2a>
}
 80019f4:	bd10      	pop	{r4, pc}
		res = load_xdir(dp);		/* Load the object's entry block */
 80019f6:	4620      	mov	r0, r4
 80019f8:	f7ff ff66 	bl	80018c8 <load_xdir>
 80019fc:	e7fa      	b.n	80019f4 <load_obj_dir+0x28>

080019fe <dir_read>:
{
 80019fe:	e92d 43f8 	stmdb	sp!, {r3, r4, r5, r6, r7, r8, r9, lr}
 8001a02:	4604      	mov	r4, r0
 8001a04:	4688      	mov	r8, r1
	FATFS *fs = dp->obj.fs;
 8001a06:	6806      	ldr	r6, [r0, #0]
	BYTE ord = 0xFF, sum = 0xFF;
 8001a08:	23ff      	movs	r3, #255	@ 0xff
 8001a0a:	4699      	mov	r9, r3
 8001a0c:	461f      	mov	r7, r3
	FRESULT res = FR_NO_FILE;
 8001a0e:	2504      	movs	r5, #4
	while (dp->sect) {
 8001a10:	e042      	b.n	8001a98 <dir_read+0x9a>
			if (_USE_LABEL && vol) {
 8001a12:	f1b8 0f00 	cmp.w	r8, #0
 8001a16:	d002      	beq.n	8001a1e <dir_read+0x20>
				if (c == 0x83) break;	/* Volume label entry? */
 8001a18:	2b83      	cmp	r3, #131	@ 0x83
 8001a1a:	d137      	bne.n	8001a8c <dir_read+0x8e>
 8001a1c:	e060      	b.n	8001ae0 <dir_read+0xe2>
				if (c == 0x85) {		/* Start of the file entry block? */
 8001a1e:	2b85      	cmp	r3, #133	@ 0x85
 8001a20:	d134      	bne.n	8001a8c <dir_read+0x8e>
					dp->blk_ofs = dp->dptr;	/* Get location of the block */
 8001a22:	6b23      	ldr	r3, [r4, #48]	@ 0x30
 8001a24:	64e3      	str	r3, [r4, #76]	@ 0x4c
					res = load_xdir(dp);	/* Load the entry block */
 8001a26:	4620      	mov	r0, r4
 8001a28:	f7ff ff4e 	bl	80018c8 <load_xdir>
					if (res == FR_OK) {
 8001a2c:	4605      	mov	r5, r0
 8001a2e:	2800      	cmp	r0, #0
 8001a30:	d157      	bne.n	8001ae2 <dir_read+0xe4>
						dp->obj.attr = fs->dirbuf[XDIR_Attr] & AM_MASK;	/* Get attribute */
 8001a32:	6933      	ldr	r3, [r6, #16]
 8001a34:	791b      	ldrb	r3, [r3, #4]
 8001a36:	f003 033f 	and.w	r3, r3, #63	@ 0x3f
 8001a3a:	71a3      	strb	r3, [r4, #6]
 8001a3c:	e050      	b.n	8001ae0 <dir_read+0xe2>
				if (a == AM_LFN) {			/* An LFN entry is found */
 8001a3e:	2a0f      	cmp	r2, #15
 8001a40:	d119      	bne.n	8001a76 <dir_read+0x78>
					if (c & LLEF) {			/* Is it start of an LFN sequence? */
 8001a42:	f013 0f40 	tst.w	r3, #64	@ 0x40
 8001a46:	d006      	beq.n	8001a56 <dir_read+0x58>
						sum = dp->dir[LDIR_Chksum];
 8001a48:	7b4a      	ldrb	r2, [r1, #13]
 8001a4a:	4691      	mov	r9, r2
						c &= (BYTE)~LLEF; ord = c;
 8001a4c:	f003 03bf 	and.w	r3, r3, #191	@ 0xbf
						dp->blk_ofs = dp->dptr;
 8001a50:	6b22      	ldr	r2, [r4, #48]	@ 0x30
 8001a52:	64e2      	str	r2, [r4, #76]	@ 0x4c
						c &= (BYTE)~LLEF; ord = c;
 8001a54:	461f      	mov	r7, r3
					ord = (c == ord && sum == dp->dir[LDIR_Chksum] && pick_lfn(fs->lfnbuf, dp->dir)) ? ord - 1 : 0xFF;
 8001a56:	42bb      	cmp	r3, r7
 8001a58:	d001      	beq.n	8001a5e <dir_read+0x60>
 8001a5a:	27ff      	movs	r7, #255	@ 0xff
 8001a5c:	e016      	b.n	8001a8c <dir_read+0x8e>
 8001a5e:	7b4b      	ldrb	r3, [r1, #13]
 8001a60:	454b      	cmp	r3, r9
 8001a62:	d001      	beq.n	8001a68 <dir_read+0x6a>
 8001a64:	27ff      	movs	r7, #255	@ 0xff
 8001a66:	e011      	b.n	8001a8c <dir_read+0x8e>
 8001a68:	68f0      	ldr	r0, [r6, #12]
 8001a6a:	f7fe fef5 	bl	8000858 <pick_lfn>
 8001a6e:	b3a0      	cbz	r0, 8001ada <dir_read+0xdc>
 8001a70:	3f01      	subs	r7, #1
 8001a72:	b2ff      	uxtb	r7, r7
 8001a74:	e00a      	b.n	8001a8c <dir_read+0x8e>
					if (ord || sum != sum_sfn(dp->dir)) {	/* Is there a valid LFN? */
 8001a76:	b927      	cbnz	r7, 8001a82 <dir_read+0x84>
 8001a78:	4608      	mov	r0, r1
 8001a7a:	f7fe ffbd 	bl	80009f8 <sum_sfn>
 8001a7e:	4548      	cmp	r0, r9
 8001a80:	d02e      	beq.n	8001ae0 <dir_read+0xe2>
						dp->blk_ofs = 0xFFFFFFFF;			/* It has no LFN. */
 8001a82:	f04f 33ff 	mov.w	r3, #4294967295	@ 0xffffffff
 8001a86:	64e3      	str	r3, [r4, #76]	@ 0x4c
 8001a88:	e02a      	b.n	8001ae0 <dir_read+0xe2>
				ord = 0xFF;
 8001a8a:	27ff      	movs	r7, #255	@ 0xff
		res = dir_next(dp, 0);		/* Next entry */
 8001a8c:	2100      	movs	r1, #0
 8001a8e:	4620      	mov	r0, r4
 8001a90:	f7ff fe89 	bl	80017a6 <dir_next>
		if (res != FR_OK) break;
 8001a94:	4605      	mov	r5, r0
 8001a96:	bb18      	cbnz	r0, 8001ae0 <dir_read+0xe2>
	while (dp->sect) {
 8001a98:	6ba1      	ldr	r1, [r4, #56]	@ 0x38
 8001a9a:	b309      	cbz	r1, 8001ae0 <dir_read+0xe2>
		res = move_window(fs, dp->sect);
 8001a9c:	4630      	mov	r0, r6
 8001a9e:	f7ff f847 	bl	8000b30 <move_window>
		if (res != FR_OK) break;
 8001aa2:	4605      	mov	r5, r0
 8001aa4:	b9e0      	cbnz	r0, 8001ae0 <dir_read+0xe2>
		c = dp->dir[DIR_Name];	/* Test for the entry type */
 8001aa6:	6be1      	ldr	r1, [r4, #60]	@ 0x3c
 8001aa8:	780b      	ldrb	r3, [r1, #0]
		if (c == 0) {
 8001aaa:	b1c3      	cbz	r3, 8001ade <dir_read+0xe0>
		if (fs->fs_type == FS_EXFAT) {	/* On the exFAT volume */
 8001aac:	7832      	ldrb	r2, [r6, #0]
 8001aae:	2a04      	cmp	r2, #4
 8001ab0:	d0af      	beq.n	8001a12 <dir_read+0x14>
			dp->obj.attr = a = dp->dir[DIR_Attr] & AM_MASK;	/* Get attribute */
 8001ab2:	7aca      	ldrb	r2, [r1, #11]
 8001ab4:	f002 023f 	and.w	r2, r2, #63	@ 0x3f
 8001ab8:	71a2      	strb	r2, [r4, #6]
			if (c == DDEM || c == '.' || (int)((a & ~AM_ARC) == AM_VOL) != vol) {	/* An entry without valid data */
 8001aba:	2be5      	cmp	r3, #229	@ 0xe5
 8001abc:	d0e5      	beq.n	8001a8a <dir_read+0x8c>
 8001abe:	2b2e      	cmp	r3, #46	@ 0x2e
 8001ac0:	d009      	beq.n	8001ad6 <dir_read+0xd8>
 8001ac2:	f022 0020 	bic.w	r0, r2, #32
 8001ac6:	2808      	cmp	r0, #8
 8001ac8:	bf14      	ite	ne
 8001aca:	2000      	movne	r0, #0
 8001acc:	2001      	moveq	r0, #1
 8001ace:	4540      	cmp	r0, r8
 8001ad0:	d0b5      	beq.n	8001a3e <dir_read+0x40>
				ord = 0xFF;
 8001ad2:	27ff      	movs	r7, #255	@ 0xff
 8001ad4:	e7da      	b.n	8001a8c <dir_read+0x8e>
 8001ad6:	27ff      	movs	r7, #255	@ 0xff
 8001ad8:	e7d8      	b.n	8001a8c <dir_read+0x8e>
					ord = (c == ord && sum == dp->dir[LDIR_Chksum] && pick_lfn(fs->lfnbuf, dp->dir)) ? ord - 1 : 0xFF;
 8001ada:	27ff      	movs	r7, #255	@ 0xff
 8001adc:	e7d6      	b.n	8001a8c <dir_read+0x8e>
			res = FR_NO_FILE; break; /* Reached to end of the directory */
 8001ade:	2504      	movs	r5, #4
	if (res != FR_OK) dp->sect = 0;		/* Terminate the read operation on error or EOT */
 8001ae0:	b10d      	cbz	r5, 8001ae6 <dir_read+0xe8>
 8001ae2:	2300      	movs	r3, #0
 8001ae4:	63a3      	str	r3, [r4, #56]	@ 0x38
}
 8001ae6:	4628      	mov	r0, r5
 8001ae8:	e8bd 83f8 	ldmia.w	sp!, {r3, r4, r5, r6, r7, r8, r9, pc}

08001aec <dir_alloc>:
{
 8001aec:	b5f8      	push	{r3, r4, r5, r6, r7, lr}
 8001aee:	4604      	mov	r4, r0
 8001af0:	460f      	mov	r7, r1
	FATFS *fs = dp->obj.fs;
 8001af2:	6806      	ldr	r6, [r0, #0]
	res = dir_sdi(dp, 0);
 8001af4:	2100      	movs	r1, #0
 8001af6:	f7ff fcbb 	bl	8001470 <dir_sdi>
	if (res == FR_OK) {
 8001afa:	4603      	mov	r3, r0
 8001afc:	bb10      	cbnz	r0, 8001b44 <dir_alloc+0x58>
		n = 0;
 8001afe:	4605      	mov	r5, r0
 8001b00:	e00f      	b.n	8001b22 <dir_alloc+0x36>
			if ((fs->fs_type == FS_EXFAT) ? (int)((dp->dir[XDIR_Type] & 0x80) == 0) : (int)(dp->dir[DIR_Name] == DDEM || dp->dir[DIR_Name] == 0)) {
 8001b02:	6be2      	ldr	r2, [r4, #60]	@ 0x3c
 8001b04:	f992 2000 	ldrsb.w	r2, [r2]
 8001b08:	4282      	cmp	r2, r0
 8001b0a:	da01      	bge.n	8001b10 <dir_alloc+0x24>
				n = 0;					/* Not a blank entry. Restart to search */
 8001b0c:	4605      	mov	r5, r0
 8001b0e:	e002      	b.n	8001b16 <dir_alloc+0x2a>
				if (++n == nent) break;	/* A block of contiguous free entries is found */
 8001b10:	3501      	adds	r5, #1
 8001b12:	42bd      	cmp	r5, r7
 8001b14:	d016      	beq.n	8001b44 <dir_alloc+0x58>
			res = dir_next(dp, 1);
 8001b16:	2101      	movs	r1, #1
 8001b18:	4620      	mov	r0, r4
 8001b1a:	f7ff fe44 	bl	80017a6 <dir_next>
		} while (res == FR_OK);	/* Next entry with table stretch enabled */
 8001b1e:	4603      	mov	r3, r0
 8001b20:	b980      	cbnz	r0, 8001b44 <dir_alloc+0x58>
			res = move_window(fs, dp->sect);
 8001b22:	6ba1      	ldr	r1, [r4, #56]	@ 0x38
 8001b24:	4630      	mov	r0, r6
 8001b26:	f7ff f803 	bl	8000b30 <move_window>
			if (res != FR_OK) break;
 8001b2a:	4603      	mov	r3, r0
 8001b2c:	b950      	cbnz	r0, 8001b44 <dir_alloc+0x58>
			if ((fs->fs_type == FS_EXFAT) ? (int)((dp->dir[XDIR_Type] & 0x80) == 0) : (int)(dp->dir[DIR_Name] == DDEM || dp->dir[DIR_Name] == 0)) {
 8001b2e:	7832      	ldrb	r2, [r6, #0]
 8001b30:	2a04      	cmp	r2, #4
 8001b32:	d0e6      	beq.n	8001b02 <dir_alloc+0x16>
 8001b34:	6be2      	ldr	r2, [r4, #60]	@ 0x3c
 8001b36:	7812      	ldrb	r2, [r2, #0]
 8001b38:	2ae5      	cmp	r2, #229	@ 0xe5
 8001b3a:	d0e9      	beq.n	8001b10 <dir_alloc+0x24>
 8001b3c:	2a00      	cmp	r2, #0
 8001b3e:	d0e7      	beq.n	8001b10 <dir_alloc+0x24>
				n = 0;					/* Not a blank entry. Restart to search */
 8001b40:	2500      	movs	r5, #0
 8001b42:	e7e8      	b.n	8001b16 <dir_alloc+0x2a>
	if (res == FR_NO_FILE) res = FR_DENIED;	/* No directory entry to allocate */
 8001b44:	2b04      	cmp	r3, #4
 8001b46:	d001      	beq.n	8001b4c <dir_alloc+0x60>
}
 8001b48:	4618      	mov	r0, r3
 8001b4a:	bdf8      	pop	{r3, r4, r5, r6, r7, pc}
	if (res == FR_NO_FILE) res = FR_DENIED;	/* No directory entry to allocate */
 8001b4c:	2307      	movs	r3, #7
 8001b4e:	e7fb      	b.n	8001b48 <dir_alloc+0x5c>

08001b50 <store_xdir>:
{
 8001b50:	b5f8      	push	{r3, r4, r5, r6, r7, lr}
 8001b52:	4604      	mov	r4, r0
	BYTE* dirb = dp->obj.fs->dirbuf;	/* Pointer to the direcotry entry block 85+C0+C1s */
 8001b54:	6803      	ldr	r3, [r0, #0]
 8001b56:	691e      	ldr	r6, [r3, #16]
	st_word(dirb + XDIR_SetSum, xdir_sum(dirb));
 8001b58:	4630      	mov	r0, r6
 8001b5a:	f7fe ff5d 	bl	8000a18 <xdir_sum>
 8001b5e:	4601      	mov	r1, r0
 8001b60:	1cb0      	adds	r0, r6, #2
 8001b62:	f7fe fd0e 	bl	8000582 <st_word>
	nent = dirb[XDIR_NumSec] + 1;
 8001b66:	7877      	ldrb	r7, [r6, #1]
 8001b68:	3701      	adds	r7, #1
	res = dir_sdi(dp, dp->blk_ofs);
 8001b6a:	6ce1      	ldr	r1, [r4, #76]	@ 0x4c
 8001b6c:	4620      	mov	r0, r4
 8001b6e:	f7ff fc7f 	bl	8001470 <dir_sdi>
 8001b72:	4605      	mov	r5, r0
	while (res == FR_OK) {
 8001b74:	e005      	b.n	8001b82 <store_xdir+0x32>
		dirb += SZDIRE;
 8001b76:	3620      	adds	r6, #32
		res = dir_next(dp, 0);
 8001b78:	2100      	movs	r1, #0
 8001b7a:	4620      	mov	r0, r4
 8001b7c:	f7ff fe13 	bl	80017a6 <dir_next>
 8001b80:	4605      	mov	r5, r0
	while (res == FR_OK) {
 8001b82:	b97d      	cbnz	r5, 8001ba4 <store_xdir+0x54>
		res = move_window(dp->obj.fs, dp->sect);
 8001b84:	6ba1      	ldr	r1, [r4, #56]	@ 0x38
 8001b86:	6820      	ldr	r0, [r4, #0]
 8001b88:	f7fe ffd2 	bl	8000b30 <move_window>
		if (res != FR_OK) break;
 8001b8c:	4605      	mov	r5, r0
 8001b8e:	b948      	cbnz	r0, 8001ba4 <store_xdir+0x54>
		mem_cpy(dp->dir, dirb, SZDIRE);
 8001b90:	2220      	movs	r2, #32
 8001b92:	4631      	mov	r1, r6
 8001b94:	6be0      	ldr	r0, [r4, #60]	@ 0x3c
 8001b96:	f7fe fd15 	bl	80005c4 <mem_cpy>
		dp->obj.fs->wflag = 1;
 8001b9a:	6823      	ldr	r3, [r4, #0]
 8001b9c:	2201      	movs	r2, #1
 8001b9e:	70da      	strb	r2, [r3, #3]
		if (--nent == 0) break;
 8001ba0:	3f01      	subs	r7, #1
 8001ba2:	d1e8      	bne.n	8001b76 <store_xdir+0x26>
	return (res == FR_OK || res == FR_DISK_ERR) ? res : FR_INT_ERR;
 8001ba4:	2d02      	cmp	r5, #2
 8001ba6:	bf28      	it	cs
 8001ba8:	2502      	movcs	r5, #2
}
 8001baa:	b2e8      	uxtb	r0, r5
 8001bac:	bdf8      	pop	{r3, r4, r5, r6, r7, pc}
	...

08001bb0 <create_name>:
{
 8001bb0:	e92d 4ff0 	stmdb	sp!, {r4, r5, r6, r7, r8, r9, sl, fp, lr}
 8001bb4:	b083      	sub	sp, #12
 8001bb6:	4607      	mov	r7, r0
 8001bb8:	468a      	mov	sl, r1
	p = *path; lfn = dp->obj.fs->lfnbuf; si = di = 0;
 8001bba:	f8d1 9000 	ldr.w	r9, [r1]
 8001bbe:	6803      	ldr	r3, [r0, #0]
 8001bc0:	68dd      	ldr	r5, [r3, #12]
 8001bc2:	2400      	movs	r4, #0
 8001bc4:	4623      	mov	r3, r4
 8001bc6:	e012      	b.n	8001bee <create_name+0x3e>
			while (p[si] == '/' || p[si] == '\\') si++;	/* Skip duplicated separator if exist */
 8001bc8:	3601      	adds	r6, #1
 8001bca:	f819 3006 	ldrb.w	r3, [r9, r6]
 8001bce:	2b2f      	cmp	r3, #47	@ 0x2f
 8001bd0:	d0fa      	beq.n	8001bc8 <create_name+0x18>
 8001bd2:	2b5c      	cmp	r3, #92	@ 0x5c
 8001bd4:	d0f8      	beq.n	8001bc8 <create_name+0x18>
	*path = &p[si];						/* Return pointer to the next segment */
 8001bd6:	444e      	add	r6, r9
 8001bd8:	f8ca 6000 	str.w	r6, [sl]
	cf = (w < ' ') ? NS_LAST : 0;		/* Set last segment flag if end of the path */
 8001bdc:	281f      	cmp	r0, #31
 8001bde:	d93c      	bls.n	8001c5a <create_name+0xaa>
 8001be0:	f04f 0800 	mov.w	r8, #0
 8001be4:	e021      	b.n	8001c2a <create_name+0x7a>
		lfn[di++] = w;					/* Store the Unicode character */
 8001be6:	f825 8014 	strh.w	r8, [r5, r4, lsl #1]
 8001bea:	3401      	adds	r4, #1
		w = p[si++];					/* Get a character */
 8001bec:	4633      	mov	r3, r6
 8001bee:	1c5e      	adds	r6, r3, #1
 8001bf0:	f819 0003 	ldrb.w	r0, [r9, r3]
		if (w < ' ') break;				/* Break if end of the path name */
 8001bf4:	281f      	cmp	r0, #31
 8001bf6:	d9ee      	bls.n	8001bd6 <create_name+0x26>
		if (w == '/' || w == '\\') {	/* Break if a separator is found */
 8001bf8:	282f      	cmp	r0, #47	@ 0x2f
 8001bfa:	d0e6      	beq.n	8001bca <create_name+0x1a>
 8001bfc:	285c      	cmp	r0, #92	@ 0x5c
 8001bfe:	d0e4      	beq.n	8001bca <create_name+0x1a>
		if (di >= _MAX_LFN) return FR_INVALID_NAME;	/* Reject too long name */
 8001c00:	2cfe      	cmp	r4, #254	@ 0xfe
 8001c02:	f200 80dc 	bhi.w	8001dbe <create_name+0x20e>
		w = ff_convert(w, 1);			/* Convert ANSI/OEM to Unicode */
 8001c06:	2101      	movs	r1, #1
 8001c08:	f7fe fbae 	bl	8000368 <ff_convert>
		if (!w) return FR_INVALID_NAME;	/* Reject invalid code */
 8001c0c:	4680      	mov	r8, r0
 8001c0e:	2800      	cmp	r0, #0
 8001c10:	f000 80d7 	beq.w	8001dc2 <create_name+0x212>
		if (w < 0x80 && chk_chr("\"*:<>\?|\x7F", w)) return FR_INVALID_NAME;	/* Reject illegal characters for LFN */
 8001c14:	287f      	cmp	r0, #127	@ 0x7f
 8001c16:	d8e6      	bhi.n	8001be6 <create_name+0x36>
 8001c18:	4601      	mov	r1, r0
 8001c1a:	486c      	ldr	r0, [pc, #432]	@ (8001dcc <create_name+0x21c>)
 8001c1c:	f7fe fcee 	bl	80005fc <chk_chr>
 8001c20:	2800      	cmp	r0, #0
 8001c22:	d0e0      	beq.n	8001be6 <create_name+0x36>
 8001c24:	2006      	movs	r0, #6
 8001c26:	e0c4      	b.n	8001db2 <create_name+0x202>
		di--;
 8001c28:	3c01      	subs	r4, #1
	while (di) {						/* Snip off trailing spaces and dots if exist */
 8001c2a:	b144      	cbz	r4, 8001c3e <create_name+0x8e>
		w = lfn[di - 1];
 8001c2c:	f104 4300 	add.w	r3, r4, #2147483648	@ 0x80000000
 8001c30:	3b01      	subs	r3, #1
 8001c32:	f835 3013 	ldrh.w	r3, [r5, r3, lsl #1]
		if (w != ' ' && w != '.') break;
 8001c36:	2b20      	cmp	r3, #32
 8001c38:	d0f6      	beq.n	8001c28 <create_name+0x78>
 8001c3a:	2b2e      	cmp	r3, #46	@ 0x2e
 8001c3c:	d0f4      	beq.n	8001c28 <create_name+0x78>
	lfn[di] = 0;						/* LFN is created */
 8001c3e:	2300      	movs	r3, #0
 8001c40:	f825 3014 	strh.w	r3, [r5, r4, lsl #1]
	if (di == 0) return FR_INVALID_NAME;	/* Reject nul name */
 8001c44:	2c00      	cmp	r4, #0
 8001c46:	f000 80be 	beq.w	8001dc6 <create_name+0x216>
	mem_set(dp->fn, ' ', 11);
 8001c4a:	220b      	movs	r2, #11
 8001c4c:	2120      	movs	r1, #32
 8001c4e:	f107 0040 	add.w	r0, r7, #64	@ 0x40
 8001c52:	f7fe fcc1 	bl	80005d8 <mem_set>
	for (si = 0; lfn[si] == ' ' || lfn[si] == '.'; si++) ;	/* Strip leading spaces and dots */
 8001c56:	2300      	movs	r3, #0
 8001c58:	e003      	b.n	8001c62 <create_name+0xb2>
	cf = (w < ' ') ? NS_LAST : 0;		/* Set last segment flag if end of the path */
 8001c5a:	f04f 0804 	mov.w	r8, #4
 8001c5e:	e7e4      	b.n	8001c2a <create_name+0x7a>
	for (si = 0; lfn[si] == ' ' || lfn[si] == '.'; si++) ;	/* Strip leading spaces and dots */
 8001c60:	3301      	adds	r3, #1
 8001c62:	f835 2013 	ldrh.w	r2, [r5, r3, lsl #1]
 8001c66:	2a20      	cmp	r2, #32
 8001c68:	d0fa      	beq.n	8001c60 <create_name+0xb0>
 8001c6a:	2a2e      	cmp	r2, #46	@ 0x2e
 8001c6c:	d0f8      	beq.n	8001c60 <create_name+0xb0>
	if (si) cf |= NS_LOSS | NS_LFN;
 8001c6e:	b11b      	cbz	r3, 8001c78 <create_name+0xc8>
 8001c70:	f048 0803 	orr.w	r8, r8, #3
 8001c74:	e000      	b.n	8001c78 <create_name+0xc8>
	while (di && lfn[di - 1] != '.') di--;	/* Find extension (di<=si: no extension) */
 8001c76:	3c01      	subs	r4, #1
 8001c78:	b164      	cbz	r4, 8001c94 <create_name+0xe4>
 8001c7a:	f104 4200 	add.w	r2, r4, #2147483648	@ 0x80000000
 8001c7e:	3a01      	subs	r2, #1
 8001c80:	f835 2012 	ldrh.w	r2, [r5, r2, lsl #1]
 8001c84:	2a2e      	cmp	r2, #46	@ 0x2e
 8001c86:	d1f6      	bne.n	8001c76 <create_name+0xc6>
 8001c88:	f04f 0a08 	mov.w	sl, #8
 8001c8c:	2200      	movs	r2, #0
 8001c8e:	4693      	mov	fp, r2
 8001c90:	9201      	str	r2, [sp, #4]
 8001c92:	e009      	b.n	8001ca8 <create_name+0xf8>
 8001c94:	46a3      	mov	fp, r4
 8001c96:	f04f 0a08 	mov.w	sl, #8
 8001c9a:	9401      	str	r4, [sp, #4]
 8001c9c:	e004      	b.n	8001ca8 <create_name+0xf8>
		if (w == ' ' || (w == '.' && si != di)) {	/* Remove spaces and dots */
 8001c9e:	454c      	cmp	r4, r9
 8001ca0:	d00b      	beq.n	8001cba <create_name+0x10a>
			cf |= NS_LOSS | NS_LFN; continue;
 8001ca2:	f048 0803 	orr.w	r8, r8, #3
		w = lfn[si++];					/* Get an LFN character */
 8001ca6:	464b      	mov	r3, r9
 8001ca8:	f103 0901 	add.w	r9, r3, #1
 8001cac:	f835 6013 	ldrh.w	r6, [r5, r3, lsl #1]
		if (!w) break;					/* Break on end of the LFN */
 8001cb0:	b1fe      	cbz	r6, 8001cf2 <create_name+0x142>
		if (w == ' ' || (w == '.' && si != di)) {	/* Remove spaces and dots */
 8001cb2:	2e20      	cmp	r6, #32
 8001cb4:	d0f5      	beq.n	8001ca2 <create_name+0xf2>
 8001cb6:	2e2e      	cmp	r6, #46	@ 0x2e
 8001cb8:	d0f1      	beq.n	8001c9e <create_name+0xee>
		if (i >= ni || si == di) {		/* Extension or end of SFN */
 8001cba:	45d3      	cmp	fp, sl
 8001cbc:	d210      	bcs.n	8001ce0 <create_name+0x130>
 8001cbe:	454c      	cmp	r4, r9
 8001cc0:	d00e      	beq.n	8001ce0 <create_name+0x130>
		if (w >= 0x80) {				/* Non ASCII character */
 8001cc2:	2e7f      	cmp	r6, #127	@ 0x7f
 8001cc4:	d83c      	bhi.n	8001d40 <create_name+0x190>
			if (!w || chk_chr("+,;=[]", w)) {	/* Replace illegal characters for SFN */
 8001cc6:	2e00      	cmp	r6, #0
 8001cc8:	d149      	bne.n	8001d5e <create_name+0x1ae>
				w = '_'; cf |= NS_LOSS | NS_LFN;/* Lossy conversion */
 8001cca:	f048 0803 	orr.w	r8, r8, #3
 8001cce:	265f      	movs	r6, #95	@ 0x5f
		dp->fn[i++] = (BYTE)w;
 8001cd0:	465a      	mov	r2, fp
 8001cd2:	18bb      	adds	r3, r7, r2
 8001cd4:	f883 6040 	strb.w	r6, [r3, #64]	@ 0x40
		w = lfn[si++];					/* Get an LFN character */
 8001cd8:	464b      	mov	r3, r9
		dp->fn[i++] = (BYTE)w;
 8001cda:	3201      	adds	r2, #1
 8001cdc:	4693      	mov	fp, r2
 8001cde:	e7e3      	b.n	8001ca8 <create_name+0xf8>
			if (ni == 11) {				/* Long extension */
 8001ce0:	f1ba 0f0b 	cmp.w	sl, #11
 8001ce4:	d01f      	beq.n	8001d26 <create_name+0x176>
			if (si != di) cf |= NS_LOSS | NS_LFN;	/* Out of 8.3 format */
 8001ce6:	454c      	cmp	r4, r9
 8001ce8:	d001      	beq.n	8001cee <create_name+0x13e>
 8001cea:	f048 0803 	orr.w	r8, r8, #3
			if (si > di) break;			/* No extension */
 8001cee:	454c      	cmp	r4, r9
 8001cf0:	d21c      	bcs.n	8001d2c <create_name+0x17c>
	if (dp->fn[0] == DDEM) dp->fn[0] = RDDEM;	/* If the first character collides with DDEM, replace it with RDDEM */
 8001cf2:	f897 3040 	ldrb.w	r3, [r7, #64]	@ 0x40
 8001cf6:	2be5      	cmp	r3, #229	@ 0xe5
 8001cf8:	d04d      	beq.n	8001d96 <create_name+0x1e6>
	if (ni == 8) b <<= 2;
 8001cfa:	f1ba 0f08 	cmp.w	sl, #8
 8001cfe:	d04e      	beq.n	8001d9e <create_name+0x1ee>
	if ((b & 0x0C) == 0x0C || (b & 0x03) == 0x03) cf |= NS_LFN;	/* Create LFN entry when there are composite capitals */
 8001d00:	9b01      	ldr	r3, [sp, #4]
 8001d02:	f003 020c 	and.w	r2, r3, #12
 8001d06:	2a0c      	cmp	r2, #12
 8001d08:	d04e      	beq.n	8001da8 <create_name+0x1f8>
 8001d0a:	f003 0303 	and.w	r3, r3, #3
 8001d0e:	2b03      	cmp	r3, #3
 8001d10:	d04a      	beq.n	8001da8 <create_name+0x1f8>
	if (!(cf & NS_LFN)) {						/* When LFN is in 8.3 format without extended character, NT flags are created */
 8001d12:	f018 0f02 	tst.w	r8, #2
 8001d16:	d149      	bne.n	8001dac <create_name+0x1fc>
		if ((b & 0x03) == 0x01) cf |= NS_EXT;	/* NT flag (Extension has only small capital) */
 8001d18:	2b01      	cmp	r3, #1
 8001d1a:	d04d      	beq.n	8001db8 <create_name+0x208>
		if ((b & 0x0C) == 0x04) cf |= NS_BODY;	/* NT flag (Filename has only small capital) */
 8001d1c:	2a04      	cmp	r2, #4
 8001d1e:	d145      	bne.n	8001dac <create_name+0x1fc>
 8001d20:	f048 0808 	orr.w	r8, r8, #8
 8001d24:	e042      	b.n	8001dac <create_name+0x1fc>
				cf |= NS_LOSS | NS_LFN; break;
 8001d26:	f048 0803 	orr.w	r8, r8, #3
 8001d2a:	e7e2      	b.n	8001cf2 <create_name+0x142>
			b <<= 2; continue;
 8001d2c:	9b01      	ldr	r3, [sp, #4]
 8001d2e:	009b      	lsls	r3, r3, #2
 8001d30:	b2db      	uxtb	r3, r3
 8001d32:	9301      	str	r3, [sp, #4]
			si = di; i = 8; ni = 11;	/* Enter extension section */
 8001d34:	4623      	mov	r3, r4
 8001d36:	f04f 0a0b 	mov.w	sl, #11
 8001d3a:	2208      	movs	r2, #8
 8001d3c:	4693      	mov	fp, r2
			b <<= 2; continue;
 8001d3e:	e7b3      	b.n	8001ca8 <create_name+0xf8>
			w = ff_convert(w, 0);		/* Unicode -> OEM code */
 8001d40:	2100      	movs	r1, #0
 8001d42:	4630      	mov	r0, r6
 8001d44:	f7fe fb10 	bl	8000368 <ff_convert>
			if (w) w = ExCvt[w - 0x80];	/* Convert extended character to upper (SBCS) */
 8001d48:	b910      	cbnz	r0, 8001d50 <create_name+0x1a0>
			cf |= NS_LFN;				/* Force create LFN entry */
 8001d4a:	f048 0802 	orr.w	r8, r8, #2
			if (!w || chk_chr("+,;=[]", w)) {	/* Replace illegal characters for SFN */
 8001d4e:	e7bc      	b.n	8001cca <create_name+0x11a>
			if (w) w = ExCvt[w - 0x80];	/* Convert extended character to upper (SBCS) */
 8001d50:	f1a0 0380 	sub.w	r3, r0, #128	@ 0x80
 8001d54:	4a1e      	ldr	r2, [pc, #120]	@ (8001dd0 <create_name+0x220>)
 8001d56:	5cd6      	ldrb	r6, [r2, r3]
			cf |= NS_LFN;				/* Force create LFN entry */
 8001d58:	f048 0802 	orr.w	r8, r8, #2
 8001d5c:	e7b3      	b.n	8001cc6 <create_name+0x116>
			if (!w || chk_chr("+,;=[]", w)) {	/* Replace illegal characters for SFN */
 8001d5e:	4631      	mov	r1, r6
 8001d60:	481c      	ldr	r0, [pc, #112]	@ (8001dd4 <create_name+0x224>)
 8001d62:	f7fe fc4b 	bl	80005fc <chk_chr>
 8001d66:	2800      	cmp	r0, #0
 8001d68:	d1af      	bne.n	8001cca <create_name+0x11a>
				if (IsUpper(w)) {		/* ASCII large capital */
 8001d6a:	f1a6 0341 	sub.w	r3, r6, #65	@ 0x41
 8001d6e:	b29b      	uxth	r3, r3
 8001d70:	2b19      	cmp	r3, #25
 8001d72:	d804      	bhi.n	8001d7e <create_name+0x1ce>
					b |= 2;
 8001d74:	9b01      	ldr	r3, [sp, #4]
 8001d76:	f043 0302 	orr.w	r3, r3, #2
 8001d7a:	9301      	str	r3, [sp, #4]
 8001d7c:	e7a8      	b.n	8001cd0 <create_name+0x120>
					if (IsLower(w)) {	/* ASCII small capital */
 8001d7e:	f1a6 0361 	sub.w	r3, r6, #97	@ 0x61
 8001d82:	b29b      	uxth	r3, r3
 8001d84:	2b19      	cmp	r3, #25
 8001d86:	d8a3      	bhi.n	8001cd0 <create_name+0x120>
						b |= 1; w -= 0x20;
 8001d88:	9b01      	ldr	r3, [sp, #4]
 8001d8a:	f043 0301 	orr.w	r3, r3, #1
 8001d8e:	9301      	str	r3, [sp, #4]
 8001d90:	3e20      	subs	r6, #32
 8001d92:	b2b6      	uxth	r6, r6
 8001d94:	e79c      	b.n	8001cd0 <create_name+0x120>
	if (dp->fn[0] == DDEM) dp->fn[0] = RDDEM;	/* If the first character collides with DDEM, replace it with RDDEM */
 8001d96:	2305      	movs	r3, #5
 8001d98:	f887 3040 	strb.w	r3, [r7, #64]	@ 0x40
 8001d9c:	e7ad      	b.n	8001cfa <create_name+0x14a>
	if (ni == 8) b <<= 2;
 8001d9e:	9b01      	ldr	r3, [sp, #4]
 8001da0:	009b      	lsls	r3, r3, #2
 8001da2:	b2db      	uxtb	r3, r3
 8001da4:	9301      	str	r3, [sp, #4]
 8001da6:	e7ab      	b.n	8001d00 <create_name+0x150>
	if ((b & 0x0C) == 0x0C || (b & 0x03) == 0x03) cf |= NS_LFN;	/* Create LFN entry when there are composite capitals */
 8001da8:	f048 0802 	orr.w	r8, r8, #2
	dp->fn[NSFLAG] = cf;	/* SFN is created */
 8001dac:	f887 804b 	strb.w	r8, [r7, #75]	@ 0x4b
	return FR_OK;
 8001db0:	2000      	movs	r0, #0
}
 8001db2:	b003      	add	sp, #12
 8001db4:	e8bd 8ff0 	ldmia.w	sp!, {r4, r5, r6, r7, r8, r9, sl, fp, pc}
		if ((b & 0x03) == 0x01) cf |= NS_EXT;	/* NT flag (Extension has only small capital) */
 8001db8:	f048 0810 	orr.w	r8, r8, #16
 8001dbc:	e7ae      	b.n	8001d1c <create_name+0x16c>
		if (di >= _MAX_LFN) return FR_INVALID_NAME;	/* Reject too long name */
 8001dbe:	2006      	movs	r0, #6
 8001dc0:	e7f7      	b.n	8001db2 <create_name+0x202>
		if (!w) return FR_INVALID_NAME;	/* Reject invalid code */
 8001dc2:	2006      	movs	r0, #6
 8001dc4:	e7f5      	b.n	8001db2 <create_name+0x202>
	if (di == 0) return FR_INVALID_NAME;	/* Reject nul name */
 8001dc6:	2006      	movs	r0, #6
 8001dc8:	e7f3      	b.n	8001db2 <create_name+0x202>
 8001dca:	bf00      	nop
 8001dcc:	08008f6c 	.word	0x08008f6c
 8001dd0:	080092b8 	.word	0x080092b8
 8001dd4:	08008f78 	.word	0x08008f78

08001dd8 <xname_sum>:
{
 8001dd8:	b538      	push	{r3, r4, r5, lr}
 8001dda:	4604      	mov	r4, r0
	WORD sum = 0;
 8001ddc:	2500      	movs	r5, #0
	while ((chr = *name++) != 0) {
 8001dde:	e011      	b.n	8001e04 <xname_sum+0x2c>
		chr = ff_wtoupper(chr);		/* File name needs to be ignored case */
 8001de0:	f7fe fae0 	bl	80003a4 <ff_wtoupper>
		sum = ((sum & 1) ? 0x8000 : 0) + (sum >> 1) + (chr & 0xFF);
 8001de4:	03eb      	lsls	r3, r5, #15
 8001de6:	eb03 0355 	add.w	r3, r3, r5, lsr #1
 8001dea:	b2c2      	uxtb	r2, r0
 8001dec:	fa12 f383 	uxtah	r3, r2, r3
 8001df0:	b29a      	uxth	r2, r3
		sum = ((sum & 1) ? 0x8000 : 0) + (sum >> 1) + (chr >> 8);
 8001df2:	f3c3 034e 	ubfx	r3, r3, #1, #15
 8001df6:	eb03 33c2 	add.w	r3, r3, r2, lsl #15
 8001dfa:	f3c0 200f 	ubfx	r0, r0, #8, #16
 8001dfe:	fa10 f383 	uxtah	r3, r0, r3
 8001e02:	b29d      	uxth	r5, r3
	while ((chr = *name++) != 0) {
 8001e04:	f834 0b02 	ldrh.w	r0, [r4], #2
 8001e08:	2800      	cmp	r0, #0
 8001e0a:	d1e9      	bne.n	8001de0 <xname_sum+0x8>
}
 8001e0c:	4628      	mov	r0, r5
 8001e0e:	bd38      	pop	{r3, r4, r5, pc}

08001e10 <create_xdir>:
{
 8001e10:	e92d 43f8 	stmdb	sp!, {r3, r4, r5, r6, r7, r8, r9, lr}
 8001e14:	4607      	mov	r7, r0
 8001e16:	4688      	mov	r8, r1
	mem_set(dirb, 0, 2 * SZDIRE);
 8001e18:	2240      	movs	r2, #64	@ 0x40
 8001e1a:	2100      	movs	r1, #0
 8001e1c:	f7fe fbdc 	bl	80005d8 <mem_set>
	dirb[XDIR_Type] = 0x85;
 8001e20:	2385      	movs	r3, #133	@ 0x85
 8001e22:	703b      	strb	r3, [r7, #0]
	dirb[XDIR_Type + SZDIRE] = 0xC0;
 8001e24:	23c0      	movs	r3, #192	@ 0xc0
 8001e26:	f887 3020 	strb.w	r3, [r7, #32]
	nc = 0; nb = 1; chr = 1; i = SZDIRE * 2;
 8001e2a:	2501      	movs	r5, #1
 8001e2c:	2600      	movs	r6, #0
 8001e2e:	46a9      	mov	r9, r5
 8001e30:	2440      	movs	r4, #64	@ 0x40
 8001e32:	e017      	b.n	8001e64 <create_xdir+0x54>
			st_word(dirb + i, chr); 		/* Store it */
 8001e34:	4629      	mov	r1, r5
 8001e36:	1938      	adds	r0, r7, r4
 8001e38:	f7fe fba3 	bl	8000582 <st_word>
		} while ((i += 2) % SZDIRE != 0);
 8001e3c:	3402      	adds	r4, #2
 8001e3e:	f014 0f1f 	tst.w	r4, #31
 8001e42:	d008      	beq.n	8001e56 <create_xdir+0x46>
			if (chr && (chr = lfn[nc]) != 0) nc++;	/* Get a character if exist */
 8001e44:	2d00      	cmp	r5, #0
 8001e46:	d0f5      	beq.n	8001e34 <create_xdir+0x24>
 8001e48:	f838 5016 	ldrh.w	r5, [r8, r6, lsl #1]
 8001e4c:	2d00      	cmp	r5, #0
 8001e4e:	d0f1      	beq.n	8001e34 <create_xdir+0x24>
 8001e50:	3601      	adds	r6, #1
 8001e52:	b2f6      	uxtb	r6, r6
 8001e54:	e7ee      	b.n	8001e34 <create_xdir+0x24>
		nb++;
 8001e56:	f109 0901 	add.w	r9, r9, #1
 8001e5a:	fa5f f989 	uxtb.w	r9, r9
	} while (lfn[nc]);	/* Fill next entry if any char follows */
 8001e5e:	f838 3016 	ldrh.w	r3, [r8, r6, lsl #1]
 8001e62:	b133      	cbz	r3, 8001e72 <create_xdir+0x62>
		dirb[i++] = 0xC1; dirb[i++] = 0;	/* Entry type C1 */
 8001e64:	1c63      	adds	r3, r4, #1
 8001e66:	22c1      	movs	r2, #193	@ 0xc1
 8001e68:	553a      	strb	r2, [r7, r4]
 8001e6a:	2200      	movs	r2, #0
 8001e6c:	54fa      	strb	r2, [r7, r3]
 8001e6e:	3402      	adds	r4, #2
 8001e70:	e7e8      	b.n	8001e44 <create_xdir+0x34>
	dirb[XDIR_NumName] = nc;	/* Set name length */
 8001e72:	f887 6023 	strb.w	r6, [r7, #35]	@ 0x23
	dirb[XDIR_NumSec] = nb;		/* Set block length */
 8001e76:	f887 9001 	strb.w	r9, [r7, #1]
	st_word(dirb + XDIR_NameHash, xname_sum(lfn));	/* Set name hash */
 8001e7a:	4640      	mov	r0, r8
 8001e7c:	f7ff ffac 	bl	8001dd8 <xname_sum>
 8001e80:	4601      	mov	r1, r0
 8001e82:	f107 0024 	add.w	r0, r7, #36	@ 0x24
 8001e86:	f7fe fb7c 	bl	8000582 <st_word>
}
 8001e8a:	e8bd 83f8 	ldmia.w	sp!, {r3, r4, r5, r6, r7, r8, r9, pc}
	...

08001e90 <cmp_lfn>:
{
 8001e90:	e92d 47f0 	stmdb	sp!, {r4, r5, r6, r7, r8, r9, sl, lr}
 8001e94:	4681      	mov	r9, r0
 8001e96:	460f      	mov	r7, r1
	if (ld_word(dir + LDIR_FstClusLO) != 0) return 0;	/* Check LDIR_FstClusLO */
 8001e98:	f101 001a 	add.w	r0, r1, #26
 8001e9c:	f7fe fb3f 	bl	800051e <ld_word>
 8001ea0:	2800      	cmp	r0, #0
 8001ea2:	d139      	bne.n	8001f18 <cmp_lfn+0x88>
	i = ((dir[LDIR_Ord] & 0x3F) - 1) * 13;	/* Offset in the LFN buffer */
 8001ea4:	783e      	ldrb	r6, [r7, #0]
 8001ea6:	f006 063f 	and.w	r6, r6, #63	@ 0x3f
 8001eaa:	3e01      	subs	r6, #1
 8001eac:	eb06 0346 	add.w	r3, r6, r6, lsl #1
 8001eb0:	eb06 0683 	add.w	r6, r6, r3, lsl #2
	for (wc = 1, s = 0; s < 13; s++) {		/* Process all characters in the entry */
 8001eb4:	f04f 0801 	mov.w	r8, #1
 8001eb8:	4605      	mov	r5, r0
 8001eba:	e006      	b.n	8001eca <cmp_lfn+0x3a>
				return 0;					/* Not matched */
 8001ebc:	2000      	movs	r0, #0
 8001ebe:	e02c      	b.n	8001f1a <cmp_lfn+0x8a>
			if (uc != 0xFFFF) return 0;		/* Check filler */
 8001ec0:	f64f 73ff 	movw	r3, #65535	@ 0xffff
 8001ec4:	4298      	cmp	r0, r3
 8001ec6:	d12a      	bne.n	8001f1e <cmp_lfn+0x8e>
	for (wc = 1, s = 0; s < 13; s++) {		/* Process all characters in the entry */
 8001ec8:	3501      	adds	r5, #1
 8001eca:	2d0c      	cmp	r5, #12
 8001ecc:	d818      	bhi.n	8001f00 <cmp_lfn+0x70>
		uc = ld_word(dir + LfnOfs[s]);		/* Pick an LFN character */
 8001ece:	4b18      	ldr	r3, [pc, #96]	@ (8001f30 <cmp_lfn+0xa0>)
 8001ed0:	5d58      	ldrb	r0, [r3, r5]
 8001ed2:	4438      	add	r0, r7
 8001ed4:	f7fe fb23 	bl	800051e <ld_word>
 8001ed8:	4604      	mov	r4, r0
		if (wc) {
 8001eda:	f1b8 0f00 	cmp.w	r8, #0
 8001ede:	d0ef      	beq.n	8001ec0 <cmp_lfn+0x30>
			if (i >= _MAX_LFN || ff_wtoupper(uc) != ff_wtoupper(lfnbuf[i++])) {	/* Compare it */
 8001ee0:	2efe      	cmp	r6, #254	@ 0xfe
 8001ee2:	d8eb      	bhi.n	8001ebc <cmp_lfn+0x2c>
 8001ee4:	f7fe fa5e 	bl	80003a4 <ff_wtoupper>
 8001ee8:	4680      	mov	r8, r0
 8001eea:	f106 0a01 	add.w	sl, r6, #1
 8001eee:	f839 0016 	ldrh.w	r0, [r9, r6, lsl #1]
 8001ef2:	f7fe fa57 	bl	80003a4 <ff_wtoupper>
 8001ef6:	4580      	cmp	r8, r0
 8001ef8:	d1e0      	bne.n	8001ebc <cmp_lfn+0x2c>
			wc = uc;
 8001efa:	46a0      	mov	r8, r4
			if (i >= _MAX_LFN || ff_wtoupper(uc) != ff_wtoupper(lfnbuf[i++])) {	/* Compare it */
 8001efc:	4656      	mov	r6, sl
 8001efe:	e7e3      	b.n	8001ec8 <cmp_lfn+0x38>
	if ((dir[LDIR_Ord] & LLEF) && wc && lfnbuf[i]) return 0;	/* Last segment matched but different length */
 8001f00:	783b      	ldrb	r3, [r7, #0]
 8001f02:	f013 0f40 	tst.w	r3, #64	@ 0x40
 8001f06:	d00c      	beq.n	8001f22 <cmp_lfn+0x92>
 8001f08:	f1b8 0f00 	cmp.w	r8, #0
 8001f0c:	d00b      	beq.n	8001f26 <cmp_lfn+0x96>
 8001f0e:	f839 3016 	ldrh.w	r3, [r9, r6, lsl #1]
 8001f12:	b953      	cbnz	r3, 8001f2a <cmp_lfn+0x9a>
	return 1;		/* The part of LFN matched */
 8001f14:	2001      	movs	r0, #1
 8001f16:	e000      	b.n	8001f1a <cmp_lfn+0x8a>
	if (ld_word(dir + LDIR_FstClusLO) != 0) return 0;	/* Check LDIR_FstClusLO */
 8001f18:	2000      	movs	r0, #0
}
 8001f1a:	e8bd 87f0 	ldmia.w	sp!, {r4, r5, r6, r7, r8, r9, sl, pc}
			if (uc != 0xFFFF) return 0;		/* Check filler */
 8001f1e:	2000      	movs	r0, #0
 8001f20:	e7fb      	b.n	8001f1a <cmp_lfn+0x8a>
	return 1;		/* The part of LFN matched */
 8001f22:	2001      	movs	r0, #1
 8001f24:	e7f9      	b.n	8001f1a <cmp_lfn+0x8a>
 8001f26:	2001      	movs	r0, #1
 8001f28:	e7f7      	b.n	8001f1a <cmp_lfn+0x8a>
	if ((dir[LDIR_Ord] & LLEF) && wc && lfnbuf[i]) return 0;	/* Last segment matched but different length */
 8001f2a:	2000      	movs	r0, #0
 8001f2c:	e7f5      	b.n	8001f1a <cmp_lfn+0x8a>
 8001f2e:	bf00      	nop
 8001f30:	080092a8 	.word	0x080092a8

08001f34 <dir_find>:
{
 8001f34:	e92d 4ff8 	stmdb	sp!, {r3, r4, r5, r6, r7, r8, r9, sl, fp, lr}
 8001f38:	4604      	mov	r4, r0
	FATFS *fs = dp->obj.fs;
 8001f3a:	6807      	ldr	r7, [r0, #0]
	res = dir_sdi(dp, 0);			/* Rewind directory object */
 8001f3c:	2100      	movs	r1, #0
 8001f3e:	f7ff fa97 	bl	8001470 <dir_sdi>
	if (res != FR_OK) return res;
 8001f42:	4606      	mov	r6, r0
 8001f44:	2800      	cmp	r0, #0
 8001f46:	f040 80ab 	bne.w	80020a0 <dir_find+0x16c>
	if (fs->fs_type == FS_EXFAT) {	/* On the exFAT volume */
 8001f4a:	783b      	ldrb	r3, [r7, #0]
 8001f4c:	2b04      	cmp	r3, #4
 8001f4e:	d006      	beq.n	8001f5e <dir_find+0x2a>
	ord = sum = 0xFF; dp->blk_ofs = 0xFFFFFFFF;	/* Reset LFN sequence */
 8001f50:	f04f 33ff 	mov.w	r3, #4294967295	@ 0xffffffff
 8001f54:	64e3      	str	r3, [r4, #76]	@ 0x4c
 8001f56:	f04f 09ff 	mov.w	r9, #255	@ 0xff
 8001f5a:	46c8      	mov	r8, r9
 8001f5c:	e046      	b.n	8001fec <dir_find+0xb8>
		WORD hash = xname_sum(fs->lfnbuf);		/* Hash value of the name to find */
 8001f5e:	68f8      	ldr	r0, [r7, #12]
 8001f60:	f7ff ff3a 	bl	8001dd8 <xname_sum>
 8001f64:	4683      	mov	fp, r0
		while ((res = dir_read(dp, 0)) == FR_OK) {	/* Read an item */
 8001f66:	e020      	b.n	8001faa <dir_find+0x76>
				if (ff_wtoupper(ld_word(fs->dirbuf + di)) != ff_wtoupper(fs->lfnbuf[ni])) break;
 8001f68:	6938      	ldr	r0, [r7, #16]
 8001f6a:	4440      	add	r0, r8
 8001f6c:	f7fe fad7 	bl	800051e <ld_word>
 8001f70:	f7fe fa18 	bl	80003a4 <ff_wtoupper>
 8001f74:	4681      	mov	r9, r0
 8001f76:	68fb      	ldr	r3, [r7, #12]
 8001f78:	f833 001a 	ldrh.w	r0, [r3, sl, lsl #1]
 8001f7c:	f7fe fa12 	bl	80003a4 <ff_wtoupper>
 8001f80:	4581      	cmp	r9, r0
 8001f82:	d10c      	bne.n	8001f9e <dir_find+0x6a>
			for (nc = fs->dirbuf[XDIR_NumName], di = SZDIRE * 2, ni = 0; nc; nc--, di += 2, ni++) {	/* Compare the name */
 8001f84:	3d01      	subs	r5, #1
 8001f86:	b2ed      	uxtb	r5, r5
 8001f88:	f108 0802 	add.w	r8, r8, #2
 8001f8c:	f10a 0a01 	add.w	sl, sl, #1
 8001f90:	b12d      	cbz	r5, 8001f9e <dir_find+0x6a>
				if ((di % SZDIRE) == 0) di += 2;
 8001f92:	f018 0f1f 	tst.w	r8, #31
 8001f96:	d1e7      	bne.n	8001f68 <dir_find+0x34>
 8001f98:	f108 0802 	add.w	r8, r8, #2
 8001f9c:	e7e4      	b.n	8001f68 <dir_find+0x34>
			if (nc == 0 && !fs->lfnbuf[ni]) break;	/* Name matched? */
 8001f9e:	b925      	cbnz	r5, 8001faa <dir_find+0x76>
 8001fa0:	68fb      	ldr	r3, [r7, #12]
 8001fa2:	f833 301a 	ldrh.w	r3, [r3, sl, lsl #1]
 8001fa6:	2b00      	cmp	r3, #0
 8001fa8:	d07a      	beq.n	80020a0 <dir_find+0x16c>
		while ((res = dir_read(dp, 0)) == FR_OK) {	/* Read an item */
 8001faa:	2100      	movs	r1, #0
 8001fac:	4620      	mov	r0, r4
 8001fae:	f7ff fd26 	bl	80019fe <dir_read>
 8001fb2:	4606      	mov	r6, r0
 8001fb4:	2800      	cmp	r0, #0
 8001fb6:	d173      	bne.n	80020a0 <dir_find+0x16c>
			if (ld_word(fs->dirbuf + XDIR_NameHash) != hash) continue;	/* Skip comparison if hash mismatched */
 8001fb8:	693d      	ldr	r5, [r7, #16]
 8001fba:	f105 0024 	add.w	r0, r5, #36	@ 0x24
 8001fbe:	f7fe faae 	bl	800051e <ld_word>
 8001fc2:	4558      	cmp	r0, fp
 8001fc4:	d1f1      	bne.n	8001faa <dir_find+0x76>
			for (nc = fs->dirbuf[XDIR_NumName], di = SZDIRE * 2, ni = 0; nc; nc--, di += 2, ni++) {	/* Compare the name */
 8001fc6:	f895 5023 	ldrb.w	r5, [r5, #35]	@ 0x23
 8001fca:	f04f 0a00 	mov.w	sl, #0
 8001fce:	f04f 0840 	mov.w	r8, #64	@ 0x40
 8001fd2:	e7dd      	b.n	8001f90 <dir_find+0x5c>
			ord = 0xFF; dp->blk_ofs = 0xFFFFFFFF;	/* Reset LFN sequence */
 8001fd4:	f04f 33ff 	mov.w	r3, #4294967295	@ 0xffffffff
 8001fd8:	64e3      	str	r3, [r4, #76]	@ 0x4c
 8001fda:	f04f 08ff 	mov.w	r8, #255	@ 0xff
		res = dir_next(dp, 0);	/* Next entry */
 8001fde:	2100      	movs	r1, #0
 8001fe0:	4620      	mov	r0, r4
 8001fe2:	f7ff fbe0 	bl	80017a6 <dir_next>
	} while (res == FR_OK);
 8001fe6:	4606      	mov	r6, r0
 8001fe8:	2800      	cmp	r0, #0
 8001fea:	d159      	bne.n	80020a0 <dir_find+0x16c>
		res = move_window(fs, dp->sect);
 8001fec:	6ba1      	ldr	r1, [r4, #56]	@ 0x38
 8001fee:	4638      	mov	r0, r7
 8001ff0:	f7fe fd9e 	bl	8000b30 <move_window>
		if (res != FR_OK) break;
 8001ff4:	4606      	mov	r6, r0
 8001ff6:	2800      	cmp	r0, #0
 8001ff8:	d152      	bne.n	80020a0 <dir_find+0x16c>
		c = dp->dir[DIR_Name];
 8001ffa:	6be5      	ldr	r5, [r4, #60]	@ 0x3c
 8001ffc:	782b      	ldrb	r3, [r5, #0]
		if (c == 0) { res = FR_NO_FILE; break; }	/* Reached to end of table */
 8001ffe:	2b00      	cmp	r3, #0
 8002000:	d04d      	beq.n	800209e <dir_find+0x16a>
		dp->obj.attr = a = dp->dir[DIR_Attr] & AM_MASK;
 8002002:	7aea      	ldrb	r2, [r5, #11]
 8002004:	f002 013f 	and.w	r1, r2, #63	@ 0x3f
 8002008:	71a1      	strb	r1, [r4, #6]
		if (c == DDEM || ((a & AM_VOL) && a != AM_LFN)) {	/* An entry without valid data */
 800200a:	2be5      	cmp	r3, #229	@ 0xe5
 800200c:	d0e2      	beq.n	8001fd4 <dir_find+0xa0>
 800200e:	f012 0f08 	tst.w	r2, #8
 8002012:	d015      	beq.n	8002040 <dir_find+0x10c>
 8002014:	290f      	cmp	r1, #15
 8002016:	d1dd      	bne.n	8001fd4 <dir_find+0xa0>
				if (!(dp->fn[NSFLAG] & NS_NOLFN)) {
 8002018:	f894 204b 	ldrb.w	r2, [r4, #75]	@ 0x4b
 800201c:	f012 0f40 	tst.w	r2, #64	@ 0x40
 8002020:	d1dd      	bne.n	8001fde <dir_find+0xaa>
					if (c & LLEF) {		/* Is it start of LFN sequence? */
 8002022:	f013 0f40 	tst.w	r3, #64	@ 0x40
 8002026:	d006      	beq.n	8002036 <dir_find+0x102>
						sum = dp->dir[LDIR_Chksum];
 8002028:	f895 900d 	ldrb.w	r9, [r5, #13]
						c &= (BYTE)~LLEF; ord = c;	/* LFN start order */
 800202c:	f003 03bf 	and.w	r3, r3, #191	@ 0xbf
						dp->blk_ofs = dp->dptr;	/* Start offset of LFN */
 8002030:	6b22      	ldr	r2, [r4, #48]	@ 0x30
 8002032:	64e2      	str	r2, [r4, #76]	@ 0x4c
						c &= (BYTE)~LLEF; ord = c;	/* LFN start order */
 8002034:	4698      	mov	r8, r3
					ord = (c == ord && sum == dp->dir[LDIR_Chksum] && cmp_lfn(fs->lfnbuf, dp->dir)) ? ord - 1 : 0xFF;
 8002036:	4543      	cmp	r3, r8
 8002038:	d01e      	beq.n	8002078 <dir_find+0x144>
 800203a:	f04f 08ff 	mov.w	r8, #255	@ 0xff
 800203e:	e7ce      	b.n	8001fde <dir_find+0xaa>
			if (a == AM_LFN) {			/* An LFN entry is found */
 8002040:	290f      	cmp	r1, #15
 8002042:	d0e9      	beq.n	8002018 <dir_find+0xe4>
				if (!ord && sum == sum_sfn(dp->dir)) break;	/* LFN matched? */
 8002044:	f1b8 0f00 	cmp.w	r8, #0
 8002048:	d104      	bne.n	8002054 <dir_find+0x120>
 800204a:	4628      	mov	r0, r5
 800204c:	f7fe fcd4 	bl	80009f8 <sum_sfn>
 8002050:	4548      	cmp	r0, r9
 8002052:	d025      	beq.n	80020a0 <dir_find+0x16c>
				if (!(dp->fn[NSFLAG] & NS_LOSS) && !mem_cmp(dp->dir, dp->fn, 11)) break;	/* SFN matched? */
 8002054:	f894 304b 	ldrb.w	r3, [r4, #75]	@ 0x4b
 8002058:	f013 0f01 	tst.w	r3, #1
 800205c:	d106      	bne.n	800206c <dir_find+0x138>
 800205e:	220b      	movs	r2, #11
 8002060:	f104 0140 	add.w	r1, r4, #64	@ 0x40
 8002064:	4628      	mov	r0, r5
 8002066:	f7fe fabc 	bl	80005e2 <mem_cmp>
 800206a:	b1c8      	cbz	r0, 80020a0 <dir_find+0x16c>
				ord = 0xFF; dp->blk_ofs = 0xFFFFFFFF;	/* Reset LFN sequence */
 800206c:	f04f 33ff 	mov.w	r3, #4294967295	@ 0xffffffff
 8002070:	64e3      	str	r3, [r4, #76]	@ 0x4c
 8002072:	f04f 08ff 	mov.w	r8, #255	@ 0xff
 8002076:	e7b2      	b.n	8001fde <dir_find+0xaa>
					ord = (c == ord && sum == dp->dir[LDIR_Chksum] && cmp_lfn(fs->lfnbuf, dp->dir)) ? ord - 1 : 0xFF;
 8002078:	7b6b      	ldrb	r3, [r5, #13]
 800207a:	454b      	cmp	r3, r9
 800207c:	d002      	beq.n	8002084 <dir_find+0x150>
 800207e:	f04f 08ff 	mov.w	r8, #255	@ 0xff
 8002082:	e7ac      	b.n	8001fde <dir_find+0xaa>
 8002084:	4629      	mov	r1, r5
 8002086:	68f8      	ldr	r0, [r7, #12]
 8002088:	f7ff ff02 	bl	8001e90 <cmp_lfn>
 800208c:	b120      	cbz	r0, 8002098 <dir_find+0x164>
 800208e:	f108 38ff 	add.w	r8, r8, #4294967295	@ 0xffffffff
 8002092:	fa5f f888 	uxtb.w	r8, r8
 8002096:	e7a2      	b.n	8001fde <dir_find+0xaa>
 8002098:	f04f 08ff 	mov.w	r8, #255	@ 0xff
 800209c:	e79f      	b.n	8001fde <dir_find+0xaa>
		if (c == 0) { res = FR_NO_FILE; break; }	/* Reached to end of table */
 800209e:	2604      	movs	r6, #4
}
 80020a0:	4630      	mov	r0, r6
 80020a2:	e8bd 8ff8 	ldmia.w	sp!, {r3, r4, r5, r6, r7, r8, r9, sl, fp, pc}

080020a6 <follow_path>:
{
 80020a6:	b530      	push	{r4, r5, lr}
 80020a8:	b083      	sub	sp, #12
 80020aa:	4604      	mov	r4, r0
 80020ac:	9101      	str	r1, [sp, #4]
	FATFS *fs = obj->fs;
 80020ae:	6805      	ldr	r5, [r0, #0]
		while (*path == '/' || *path == '\\') path++;	/* Strip heading separator */
 80020b0:	e001      	b.n	80020b6 <follow_path+0x10>
 80020b2:	3301      	adds	r3, #1
 80020b4:	9301      	str	r3, [sp, #4]
 80020b6:	9b01      	ldr	r3, [sp, #4]
 80020b8:	781a      	ldrb	r2, [r3, #0]
 80020ba:	2a2f      	cmp	r2, #47	@ 0x2f
 80020bc:	d0f9      	beq.n	80020b2 <follow_path+0xc>
 80020be:	2a5c      	cmp	r2, #92	@ 0x5c
 80020c0:	d0f7      	beq.n	80020b2 <follow_path+0xc>
		obj->sclust = 0;					/* Start from root directory */
 80020c2:	2200      	movs	r2, #0
 80020c4:	60a2      	str	r2, [r4, #8]
	obj->n_frag = 0;	/* Invalidate last fragment counter of the object */
 80020c6:	61e2      	str	r2, [r4, #28]
	if ((UINT)*path < ' ') {				/* Null path name is the origin directory itself */
 80020c8:	781b      	ldrb	r3, [r3, #0]
 80020ca:	2b1f      	cmp	r3, #31
 80020cc:	d82c      	bhi.n	8002128 <follow_path+0x82>
		dp->fn[NSFLAG] = NS_NONAME;
 80020ce:	2380      	movs	r3, #128	@ 0x80
 80020d0:	f884 304b 	strb.w	r3, [r4, #75]	@ 0x4b
		res = dir_sdi(dp, 0);
 80020d4:	4611      	mov	r1, r2
 80020d6:	4620      	mov	r0, r4
 80020d8:	f7ff f9ca 	bl	8001470 <dir_sdi>
 80020dc:	4603      	mov	r3, r0
}
 80020de:	4618      	mov	r0, r3
 80020e0:	b003      	add	sp, #12
 80020e2:	bd30      	pop	{r4, r5, pc}
				if (res == FR_NO_FILE) {	/* Object is not found */
 80020e4:	2804      	cmp	r0, #4
 80020e6:	d1fa      	bne.n	80020de <follow_path+0x38>
						if (!(ns & NS_LAST)) res = FR_NO_PATH;	/* Adjust error code if not last segment */
 80020e8:	f012 0f04 	tst.w	r2, #4
 80020ec:	d1f7      	bne.n	80020de <follow_path+0x38>
 80020ee:	2305      	movs	r3, #5
 80020f0:	e7f5      	b.n	80020de <follow_path+0x38>
				obj->c_scl = obj->sclust;
 80020f2:	68a3      	ldr	r3, [r4, #8]
 80020f4:	6223      	str	r3, [r4, #32]
				obj->c_size = ((DWORD)obj->objsize & 0xFFFFFF00) | obj->stat;
 80020f6:	6923      	ldr	r3, [r4, #16]
 80020f8:	f023 03ff 	bic.w	r3, r3, #255	@ 0xff
 80020fc:	79e2      	ldrb	r2, [r4, #7]
 80020fe:	4313      	orrs	r3, r2
 8002100:	6263      	str	r3, [r4, #36]	@ 0x24
				obj->c_ofs = dp->blk_ofs;
 8002102:	6ce3      	ldr	r3, [r4, #76]	@ 0x4c
 8002104:	62a3      	str	r3, [r4, #40]	@ 0x28
				obj->sclust = ld_dword(fs->dirbuf + XDIR_FstClus);	/* Open next directory */
 8002106:	6928      	ldr	r0, [r5, #16]
 8002108:	3034      	adds	r0, #52	@ 0x34
 800210a:	f7fe fa0d 	bl	8000528 <ld_dword>
 800210e:	60a0      	str	r0, [r4, #8]
				obj->stat = fs->dirbuf[XDIR_GenFlags] & 2;
 8002110:	692b      	ldr	r3, [r5, #16]
 8002112:	f893 3021 	ldrb.w	r3, [r3, #33]	@ 0x21
 8002116:	f003 0302 	and.w	r3, r3, #2
 800211a:	71e3      	strb	r3, [r4, #7]
				obj->objsize = ld_qword(fs->dirbuf + XDIR_FileSize);
 800211c:	6928      	ldr	r0, [r5, #16]
 800211e:	3038      	adds	r0, #56	@ 0x38
 8002120:	f7fe fa0d 	bl	800053e <ld_qword>
 8002124:	e9c4 0104 	strd	r0, r1, [r4, #16]
			res = create_name(dp, &path);	/* Get a segment name of the path */
 8002128:	a901      	add	r1, sp, #4
 800212a:	4620      	mov	r0, r4
 800212c:	f7ff fd40 	bl	8001bb0 <create_name>
			if (res != FR_OK) break;
 8002130:	4603      	mov	r3, r0
 8002132:	2800      	cmp	r0, #0
 8002134:	d1d3      	bne.n	80020de <follow_path+0x38>
			res = dir_find(dp);				/* Find an object with the segment name */
 8002136:	4620      	mov	r0, r4
 8002138:	f7ff fefc 	bl	8001f34 <dir_find>
			ns = dp->fn[NSFLAG];
 800213c:	f894 204b 	ldrb.w	r2, [r4, #75]	@ 0x4b
			if (res != FR_OK) {				/* Failed to find the object */
 8002140:	4603      	mov	r3, r0
 8002142:	2800      	cmp	r0, #0
 8002144:	d1ce      	bne.n	80020e4 <follow_path+0x3e>
			if (ns & NS_LAST) break;			/* Last segment matched. Function completed. */
 8002146:	f012 0f04 	tst.w	r2, #4
 800214a:	d1c8      	bne.n	80020de <follow_path+0x38>
			if (!(obj->attr & AM_DIR)) {		/* It is not a sub-directory and cannot follow */
 800214c:	79a3      	ldrb	r3, [r4, #6]
 800214e:	f013 0f10 	tst.w	r3, #16
 8002152:	d00d      	beq.n	8002170 <follow_path+0xca>
			if (fs->fs_type == FS_EXFAT) {		/* Save containing directory information for next dir */
 8002154:	782b      	ldrb	r3, [r5, #0]
 8002156:	2b04      	cmp	r3, #4
 8002158:	d0cb      	beq.n	80020f2 <follow_path+0x4c>
				obj->sclust = ld_clust(fs, fs->win + dp->dptr % SS(fs));	/* Open next directory */
 800215a:	f105 0138 	add.w	r1, r5, #56	@ 0x38
 800215e:	6b23      	ldr	r3, [r4, #48]	@ 0x30
 8002160:	f3c3 0308 	ubfx	r3, r3, #0, #9
 8002164:	4419      	add	r1, r3
 8002166:	4628      	mov	r0, r5
 8002168:	f7fe fb4e 	bl	8000808 <ld_clust>
 800216c:	60a0      	str	r0, [r4, #8]
 800216e:	e7db      	b.n	8002128 <follow_path+0x82>
				res = FR_NO_PATH; break;
 8002170:	2305      	movs	r3, #5
 8002172:	e7b4      	b.n	80020de <follow_path+0x38>

08002174 <dir_register>:
{
 8002174:	e92d 43f0 	stmdb	sp!, {r4, r5, r6, r7, r8, r9, lr}
 8002178:	b09b      	sub	sp, #108	@ 0x6c
	FATFS *fs = dp->obj.fs;
 800217a:	6805      	ldr	r5, [r0, #0]
	if (dp->fn[NSFLAG] & (NS_DOT | NS_NONAME)) return FR_INVALID_NAME;	/* Check name validity */
 800217c:	f890 304b 	ldrb.w	r3, [r0, #75]	@ 0x4b
 8002180:	f013 0fa0 	tst.w	r3, #160	@ 0xa0
 8002184:	f040 80e6 	bne.w	8002354 <dir_register+0x1e0>
 8002188:	4606      	mov	r6, r0
	for (nlen = 0; fs->lfnbuf[nlen]; nlen++) ;	/* Get lfn length */
 800218a:	2400      	movs	r4, #0
 800218c:	e000      	b.n	8002190 <dir_register+0x1c>
 800218e:	3401      	adds	r4, #1
 8002190:	68eb      	ldr	r3, [r5, #12]
 8002192:	f833 3014 	ldrh.w	r3, [r3, r4, lsl #1]
 8002196:	2b00      	cmp	r3, #0
 8002198:	d1f9      	bne.n	800218e <dir_register+0x1a>
	if (fs->fs_type == FS_EXFAT) {	/* On the exFAT volume */
 800219a:	782b      	ldrb	r3, [r5, #0]
 800219c:	2b04      	cmp	r3, #4
 800219e:	d022      	beq.n	80021e6 <dir_register+0x72>
	mem_cpy(sn, dp->fn, 12);
 80021a0:	f106 0740 	add.w	r7, r6, #64	@ 0x40
 80021a4:	220c      	movs	r2, #12
 80021a6:	4639      	mov	r1, r7
 80021a8:	a817      	add	r0, sp, #92	@ 0x5c
 80021aa:	f7fe fa0b 	bl	80005c4 <mem_cpy>
	if (sn[NSFLAG] & NS_LOSS) {			/* When LFN is out of 8.3 format, generate a numbered name */
 80021ae:	f89d 3067 	ldrb.w	r3, [sp, #103]	@ 0x67
 80021b2:	f013 0f01 	tst.w	r3, #1
 80021b6:	d075      	beq.n	80022a4 <dir_register+0x130>
		dp->fn[NSFLAG] = NS_NOLFN;		/* Find only SFN */
 80021b8:	2340      	movs	r3, #64	@ 0x40
 80021ba:	f886 304b 	strb.w	r3, [r6, #75]	@ 0x4b
		for (n = 1; n < 100; n++) {
 80021be:	f04f 0801 	mov.w	r8, #1
 80021c2:	f1b8 0f63 	cmp.w	r8, #99	@ 0x63
 80021c6:	d863      	bhi.n	8002290 <dir_register+0x11c>
			gen_numname(dp->fn, sn, fs->lfnbuf, n);	/* Generate a numbered name */
 80021c8:	4643      	mov	r3, r8
 80021ca:	68ea      	ldr	r2, [r5, #12]
 80021cc:	a917      	add	r1, sp, #92	@ 0x5c
 80021ce:	4638      	mov	r0, r7
 80021d0:	f7fe fbc0 	bl	8000954 <gen_numname>
			res = dir_find(dp);				/* Check if the name collides with existing SFN */
 80021d4:	4630      	mov	r0, r6
 80021d6:	f7ff fead 	bl	8001f34 <dir_find>
			if (res != FR_OK) break;
 80021da:	4681      	mov	r9, r0
 80021dc:	2800      	cmp	r0, #0
 80021de:	d157      	bne.n	8002290 <dir_register+0x11c>
		for (n = 1; n < 100; n++) {
 80021e0:	f108 0801 	add.w	r8, r8, #1
 80021e4:	e7ed      	b.n	80021c2 <dir_register+0x4e>
		nent = (nlen + 14) / 15 + 2;	/* Number of entries to allocate (85+C0+C1s) */
 80021e6:	340e      	adds	r4, #14
 80021e8:	4b5f      	ldr	r3, [pc, #380]	@ (8002368 <dir_register+0x1f4>)
 80021ea:	fba3 3404 	umull	r3, r4, r3, r4
 80021ee:	08e4      	lsrs	r4, r4, #3
		res = dir_alloc(dp, nent);		/* Allocate entries */
 80021f0:	1ca1      	adds	r1, r4, #2
 80021f2:	4630      	mov	r0, r6
 80021f4:	f7ff fc7a 	bl	8001aec <dir_alloc>
		if (res != FR_OK) return res;
 80021f8:	4681      	mov	r9, r0
 80021fa:	2800      	cmp	r0, #0
 80021fc:	f040 80ac 	bne.w	8002358 <dir_register+0x1e4>
		dp->blk_ofs = dp->dptr - SZDIRE * (nent - 1);	/* Set the allocated entry block offset */
 8002200:	6b33      	ldr	r3, [r6, #48]	@ 0x30
 8002202:	3401      	adds	r4, #1
 8002204:	eba3 1344 	sub.w	r3, r3, r4, lsl #5
 8002208:	64f3      	str	r3, [r6, #76]	@ 0x4c
		if (dp->obj.sclust != 0 && (dp->obj.stat & 4)) {	/* Has the sub-directory been stretched? */
 800220a:	68b3      	ldr	r3, [r6, #8]
 800220c:	b11b      	cbz	r3, 8002216 <dir_register+0xa2>
 800220e:	79f3      	ldrb	r3, [r6, #7]
 8002210:	f013 0f04 	tst.w	r3, #4
 8002214:	d104      	bne.n	8002220 <dir_register+0xac>
		create_xdir(fs->dirbuf, fs->lfnbuf);	/* Create on-memory directory block to be written later */
 8002216:	68e9      	ldr	r1, [r5, #12]
 8002218:	6928      	ldr	r0, [r5, #16]
 800221a:	f7ff fdf9 	bl	8001e10 <create_xdir>
		return FR_OK;
 800221e:	e09b      	b.n	8002358 <dir_register+0x1e4>
			dp->obj.objsize += (DWORD)fs->csize * SS(fs);	/* Increase the directory size by cluster size */
 8002220:	6933      	ldr	r3, [r6, #16]
 8002222:	6971      	ldr	r1, [r6, #20]
 8002224:	896a      	ldrh	r2, [r5, #10]
 8002226:	0252      	lsls	r2, r2, #9
 8002228:	189b      	adds	r3, r3, r2
 800222a:	f141 0100 	adc.w	r1, r1, #0
 800222e:	6133      	str	r3, [r6, #16]
 8002230:	6171      	str	r1, [r6, #20]
			res = fill_first_frag(&dp->obj);				/* Fill first fragment on the FAT if needed */
 8002232:	4630      	mov	r0, r6
 8002234:	f7ff f84c 	bl	80012d0 <fill_first_frag>
			if (res != FR_OK) return res;
 8002238:	b108      	cbz	r0, 800223e <dir_register+0xca>
 800223a:	4681      	mov	r9, r0
 800223c:	e08c      	b.n	8002358 <dir_register+0x1e4>
			res = fill_last_frag(&dp->obj, dp->clust, 0xFFFFFFFF);	/* Fill last fragment on the FAT if needed */
 800223e:	f04f 32ff 	mov.w	r2, #4294967295	@ 0xffffffff
 8002242:	6b71      	ldr	r1, [r6, #52]	@ 0x34
 8002244:	4630      	mov	r0, r6
 8002246:	f7ff f82b 	bl	80012a0 <fill_last_frag>
			if (res != FR_OK) return res;
 800224a:	b108      	cbz	r0, 8002250 <dir_register+0xdc>
 800224c:	4681      	mov	r9, r0
 800224e:	e083      	b.n	8002358 <dir_register+0x1e4>
			res = load_obj_dir(&dj, &dp->obj);				/* Load the object status */
 8002250:	4631      	mov	r1, r6
 8002252:	4668      	mov	r0, sp
 8002254:	f7ff fbba 	bl	80019cc <load_obj_dir>
			if (res != FR_OK) return res;
 8002258:	b108      	cbz	r0, 800225e <dir_register+0xea>
 800225a:	4681      	mov	r9, r0
 800225c:	e07c      	b.n	8002358 <dir_register+0x1e4>
			st_qword(fs->dirbuf + XDIR_FileSize, dp->obj.objsize);		/* Update the allocation status */
 800225e:	6928      	ldr	r0, [r5, #16]
 8002260:	e9d6 2304 	ldrd	r2, r3, [r6, #16]
 8002264:	3038      	adds	r0, #56	@ 0x38
 8002266:	f7fe f99a 	bl	800059e <st_qword>
			st_qword(fs->dirbuf + XDIR_ValidFileSize, dp->obj.objsize);
 800226a:	6928      	ldr	r0, [r5, #16]
 800226c:	e9d6 2304 	ldrd	r2, r3, [r6, #16]
 8002270:	3028      	adds	r0, #40	@ 0x28
 8002272:	f7fe f994 	bl	800059e <st_qword>
			fs->dirbuf[XDIR_GenFlags] = dp->obj.stat | 1;
 8002276:	79f3      	ldrb	r3, [r6, #7]
 8002278:	692a      	ldr	r2, [r5, #16]
 800227a:	f043 0301 	orr.w	r3, r3, #1
 800227e:	f882 3021 	strb.w	r3, [r2, #33]	@ 0x21
			res = store_xdir(&dj);							/* Store the object status */
 8002282:	4668      	mov	r0, sp
 8002284:	f7ff fc64 	bl	8001b50 <store_xdir>
			if (res != FR_OK) return res;
 8002288:	2800      	cmp	r0, #0
 800228a:	d0c4      	beq.n	8002216 <dir_register+0xa2>
 800228c:	4681      	mov	r9, r0
 800228e:	e063      	b.n	8002358 <dir_register+0x1e4>
		if (n == 100) return FR_DENIED;		/* Abort if too many collisions */
 8002290:	f1b8 0f64 	cmp.w	r8, #100	@ 0x64
 8002294:	d064      	beq.n	8002360 <dir_register+0x1ec>
		if (res != FR_NO_FILE) return res;	/* Abort if the result is other than 'not collided' */
 8002296:	464b      	mov	r3, r9
 8002298:	2b04      	cmp	r3, #4
 800229a:	d15d      	bne.n	8002358 <dir_register+0x1e4>
		dp->fn[NSFLAG] = sn[NSFLAG];
 800229c:	f89d 3067 	ldrb.w	r3, [sp, #103]	@ 0x67
 80022a0:	f886 304b 	strb.w	r3, [r6, #75]	@ 0x4b
	nent = (sn[NSFLAG] & NS_LFN) ? (nlen + 12) / 13 + 1 : 1;	/* Number of entries to allocate */
 80022a4:	f89d 3067 	ldrb.w	r3, [sp, #103]	@ 0x67
 80022a8:	f013 0f02 	tst.w	r3, #2
 80022ac:	d02b      	beq.n	8002306 <dir_register+0x192>
 80022ae:	340c      	adds	r4, #12
 80022b0:	4b2e      	ldr	r3, [pc, #184]	@ (800236c <dir_register+0x1f8>)
 80022b2:	fba3 3404 	umull	r3, r4, r3, r4
 80022b6:	08a4      	lsrs	r4, r4, #2
 80022b8:	3401      	adds	r4, #1
	res = dir_alloc(dp, nent);		/* Allocate entries */
 80022ba:	4621      	mov	r1, r4
 80022bc:	4630      	mov	r0, r6
 80022be:	f7ff fc15 	bl	8001aec <dir_alloc>
	if (res == FR_OK && --nent) {	/* Set LFN entry if needed */
 80022c2:	4681      	mov	r9, r0
 80022c4:	2800      	cmp	r0, #0
 80022c6:	d147      	bne.n	8002358 <dir_register+0x1e4>
 80022c8:	3c01      	subs	r4, #1
 80022ca:	d11e      	bne.n	800230a <dir_register+0x196>
	if (res == FR_OK) {
 80022cc:	464b      	mov	r3, r9
 80022ce:	2b00      	cmp	r3, #0
 80022d0:	d142      	bne.n	8002358 <dir_register+0x1e4>
		res = move_window(fs, dp->sect);
 80022d2:	6bb1      	ldr	r1, [r6, #56]	@ 0x38
 80022d4:	4628      	mov	r0, r5
 80022d6:	f7fe fc2b 	bl	8000b30 <move_window>
		if (res == FR_OK) {
 80022da:	4681      	mov	r9, r0
 80022dc:	2800      	cmp	r0, #0
 80022de:	d13b      	bne.n	8002358 <dir_register+0x1e4>
			mem_set(dp->dir, 0, SZDIRE);	/* Clean the entry */
 80022e0:	2220      	movs	r2, #32
 80022e2:	4601      	mov	r1, r0
 80022e4:	6bf0      	ldr	r0, [r6, #60]	@ 0x3c
 80022e6:	f7fe f977 	bl	80005d8 <mem_set>
			mem_cpy(dp->dir + DIR_Name, dp->fn, 11);	/* Put SFN */
 80022ea:	220b      	movs	r2, #11
 80022ec:	4639      	mov	r1, r7
 80022ee:	6bf0      	ldr	r0, [r6, #60]	@ 0x3c
 80022f0:	f7fe f968 	bl	80005c4 <mem_cpy>
			dp->dir[DIR_NTres] = dp->fn[NSFLAG] & (NS_BODY | NS_EXT);	/* Put NT flag */
 80022f4:	f896 304b 	ldrb.w	r3, [r6, #75]	@ 0x4b
 80022f8:	6bf2      	ldr	r2, [r6, #60]	@ 0x3c
 80022fa:	f003 0318 	and.w	r3, r3, #24
 80022fe:	7313      	strb	r3, [r2, #12]
			fs->wflag = 1;
 8002300:	2301      	movs	r3, #1
 8002302:	70eb      	strb	r3, [r5, #3]
 8002304:	e028      	b.n	8002358 <dir_register+0x1e4>
	nent = (sn[NSFLAG] & NS_LFN) ? (nlen + 12) / 13 + 1 : 1;	/* Number of entries to allocate */
 8002306:	2401      	movs	r4, #1
 8002308:	e7d7      	b.n	80022ba <dir_register+0x146>
		res = dir_sdi(dp, dp->dptr - nent * SZDIRE);
 800230a:	6b31      	ldr	r1, [r6, #48]	@ 0x30
 800230c:	eba1 1144 	sub.w	r1, r1, r4, lsl #5
 8002310:	4630      	mov	r0, r6
 8002312:	f7ff f8ad 	bl	8001470 <dir_sdi>
		if (res == FR_OK) {
 8002316:	4681      	mov	r9, r0
 8002318:	b9f0      	cbnz	r0, 8002358 <dir_register+0x1e4>
			sum = sum_sfn(dp->fn);	/* Checksum value of the SFN tied to the LFN */
 800231a:	4638      	mov	r0, r7
 800231c:	f7fe fb6c 	bl	80009f8 <sum_sfn>
 8002320:	4680      	mov	r8, r0
				res = move_window(fs, dp->sect);
 8002322:	6bb1      	ldr	r1, [r6, #56]	@ 0x38
 8002324:	4628      	mov	r0, r5
 8002326:	f7fe fc03 	bl	8000b30 <move_window>
				if (res != FR_OK) break;
 800232a:	4681      	mov	r9, r0
 800232c:	2800      	cmp	r0, #0
 800232e:	d1cd      	bne.n	80022cc <dir_register+0x158>
				put_lfn(fs->lfnbuf, dp->dir, (BYTE)nent, sum);
 8002330:	4643      	mov	r3, r8
 8002332:	b2e2      	uxtb	r2, r4
 8002334:	6bf1      	ldr	r1, [r6, #60]	@ 0x3c
 8002336:	68e8      	ldr	r0, [r5, #12]
 8002338:	f7fe fad0 	bl	80008dc <put_lfn>
				fs->wflag = 1;
 800233c:	2301      	movs	r3, #1
 800233e:	70eb      	strb	r3, [r5, #3]
				res = dir_next(dp, 0);	/* Next entry */
 8002340:	2100      	movs	r1, #0
 8002342:	4630      	mov	r0, r6
 8002344:	f7ff fa2f 	bl	80017a6 <dir_next>
			} while (res == FR_OK && --nent);
 8002348:	4681      	mov	r9, r0
 800234a:	2800      	cmp	r0, #0
 800234c:	d1be      	bne.n	80022cc <dir_register+0x158>
 800234e:	3c01      	subs	r4, #1
 8002350:	d1e7      	bne.n	8002322 <dir_register+0x1ae>
 8002352:	e7bb      	b.n	80022cc <dir_register+0x158>
	if (dp->fn[NSFLAG] & (NS_DOT | NS_NONAME)) return FR_INVALID_NAME;	/* Check name validity */
 8002354:	2306      	movs	r3, #6
 8002356:	4699      	mov	r9, r3
}
 8002358:	4648      	mov	r0, r9
 800235a:	b01b      	add	sp, #108	@ 0x6c
 800235c:	e8bd 83f0 	ldmia.w	sp!, {r4, r5, r6, r7, r8, r9, pc}
		if (n == 100) return FR_DENIED;		/* Abort if too many collisions */
 8002360:	2307      	movs	r3, #7
 8002362:	4699      	mov	r9, r3
 8002364:	e7f8      	b.n	8002358 <dir_register+0x1e4>
 8002366:	bf00      	nop
 8002368:	88888889 	.word	0x88888889
 800236c:	4ec4ec4f 	.word	0x4ec4ec4f

08002370 <sync_fs>:
{
 8002370:	b570      	push	{r4, r5, r6, lr}
 8002372:	4604      	mov	r4, r0
	res = sync_window(fs);
 8002374:	f7fe fbb2 	bl	8000adc <sync_window>
	if (res == FR_OK) {
 8002378:	4606      	mov	r6, r0
 800237a:	b950      	cbnz	r0, 8002392 <sync_fs+0x22>
		if (fs->fs_type == FS_FAT32 && fs->fsi_flag == 1) {
 800237c:	7823      	ldrb	r3, [r4, #0]
 800237e:	2b03      	cmp	r3, #3
 8002380:	d009      	beq.n	8002396 <sync_fs+0x26>
		if (disk_ioctl(fs->drv, CTRL_SYNC, 0) != RES_OK) res = FR_DISK_ERR;
 8002382:	2200      	movs	r2, #0
 8002384:	4611      	mov	r1, r2
 8002386:	7860      	ldrb	r0, [r4, #1]
 8002388:	f7fe f8a2 	bl	80004d0 <disk_ioctl>
 800238c:	b108      	cbz	r0, 8002392 <sync_fs+0x22>
 800238e:	2301      	movs	r3, #1
 8002390:	461e      	mov	r6, r3
}
 8002392:	4630      	mov	r0, r6
 8002394:	bd70      	pop	{r4, r5, r6, pc}
		if (fs->fs_type == FS_FAT32 && fs->fsi_flag == 1) {
 8002396:	7923      	ldrb	r3, [r4, #4]
 8002398:	2b01      	cmp	r3, #1
 800239a:	d1f2      	bne.n	8002382 <sync_fs+0x12>
			mem_set(fs->win, 0, SS(fs));
 800239c:	f104 0338 	add.w	r3, r4, #56	@ 0x38
 80023a0:	f44f 7200 	mov.w	r2, #512	@ 0x200
 80023a4:	4601      	mov	r1, r0
 80023a6:	461d      	mov	r5, r3
 80023a8:	4618      	mov	r0, r3
 80023aa:	f7fe f915 	bl	80005d8 <mem_set>
			st_word(fs->win + BS_55AA, 0xAA55);
 80023ae:	f64a 2155 	movw	r1, #43605	@ 0xaa55
 80023b2:	f204 2036 	addw	r0, r4, #566	@ 0x236
 80023b6:	f7fe f8e4 	bl	8000582 <st_word>
			st_dword(fs->win + FSI_LeadSig, 0x41615252);
 80023ba:	490f      	ldr	r1, [pc, #60]	@ (80023f8 <sync_fs+0x88>)
 80023bc:	4628      	mov	r0, r5
 80023be:	f7fe f8e4 	bl	800058a <st_dword>
			st_dword(fs->win + FSI_StrucSig, 0x61417272);
 80023c2:	490e      	ldr	r1, [pc, #56]	@ (80023fc <sync_fs+0x8c>)
 80023c4:	f504 7007 	add.w	r0, r4, #540	@ 0x21c
 80023c8:	f7fe f8df 	bl	800058a <st_dword>
			st_dword(fs->win + FSI_Free_Count, fs->free_clst);
 80023cc:	69a1      	ldr	r1, [r4, #24]
 80023ce:	f504 7008 	add.w	r0, r4, #544	@ 0x220
 80023d2:	f7fe f8da 	bl	800058a <st_dword>
			st_dword(fs->win + FSI_Nxt_Free, fs->last_clst);
 80023d6:	6961      	ldr	r1, [r4, #20]
 80023d8:	f504 7009 	add.w	r0, r4, #548	@ 0x224
 80023dc:	f7fe f8d5 	bl	800058a <st_dword>
			fs->winsect = fs->volbase + 1;
 80023e0:	6a62      	ldr	r2, [r4, #36]	@ 0x24
 80023e2:	3201      	adds	r2, #1
 80023e4:	6362      	str	r2, [r4, #52]	@ 0x34
			disk_write(fs->drv, fs->win, fs->winsect, 1);
 80023e6:	2301      	movs	r3, #1
 80023e8:	4629      	mov	r1, r5
 80023ea:	7860      	ldrb	r0, [r4, #1]
 80023ec:	f7fe f862 	bl	80004b4 <disk_write>
			fs->fsi_flag = 0;
 80023f0:	2300      	movs	r3, #0
 80023f2:	7123      	strb	r3, [r4, #4]
 80023f4:	e7c5      	b.n	8002382 <sync_fs+0x12>
 80023f6:	bf00      	nop
 80023f8:	41615252 	.word	0x41615252
 80023fc:	61417272 	.word	0x61417272

08002400 <f_mount>:
FRESULT f_mount (
	FATFS* fs,			/* Pointer to the file system object (NULL:unmount)*/
	const TCHAR* path,	/* Logical drive number to be mounted/unmounted */
	BYTE opt			/* Mode option 0:Do not mount (delayed mount), 1:Mount immediately */
)
{
 8002400:	b570      	push	{r4, r5, r6, lr}
 8002402:	b084      	sub	sp, #16
 8002404:	9001      	str	r0, [sp, #4]
 8002406:	9100      	str	r1, [sp, #0]
 8002408:	4616      	mov	r6, r2
	FATFS *cfs;
	int vol;
	FRESULT res;
	const TCHAR *rp = path;
 800240a:	9103      	str	r1, [sp, #12]


	/* Get logical drive number */
	vol = get_ldnumber(&rp);
 800240c:	a803      	add	r0, sp, #12
 800240e:	f7fe fb1b 	bl	8000a48 <get_ldnumber>
	if (vol < 0) return FR_INVALID_DRIVE;
 8002412:	1e04      	subs	r4, r0, #0
 8002414:	db1c      	blt.n	8002450 <f_mount+0x50>
	cfs = FatFs[vol];					/* Pointer to fs object */
 8002416:	4b10      	ldr	r3, [pc, #64]	@ (8002458 <f_mount+0x58>)
 8002418:	f853 5024 	ldr.w	r5, [r3, r4, lsl #2]

	if (cfs) {
 800241c:	b125      	cbz	r5, 8002428 <f_mount+0x28>
#if _FS_LOCK != 0
		clear_lock(cfs);
 800241e:	4628      	mov	r0, r5
 8002420:	f7fe f9ba 	bl	8000798 <clear_lock>
#endif
#if _FS_REENTRANT						/* Discard sync object of the current volume */
		if (!ff_del_syncobj(cfs->sobj)) return FR_INT_ERR;
#endif
		cfs->fs_type = 0;				/* Clear old fs object */
 8002424:	2300      	movs	r3, #0
 8002426:	702b      	strb	r3, [r5, #0]
	}

	if (fs) {
 8002428:	9b01      	ldr	r3, [sp, #4]
 800242a:	b10b      	cbz	r3, 8002430 <f_mount+0x30>
		fs->fs_type = 0;				/* Clear new fs object */
 800242c:	2200      	movs	r2, #0
 800242e:	701a      	strb	r2, [r3, #0]
#if _FS_REENTRANT						/* Create sync object for the new volume */
		if (!ff_cre_syncobj((BYTE)vol, &fs->sobj)) return FR_INT_ERR;
#endif
	}
	FatFs[vol] = fs;					/* Register new fs object */
 8002430:	9b01      	ldr	r3, [sp, #4]
 8002432:	4a09      	ldr	r2, [pc, #36]	@ (8002458 <f_mount+0x58>)
 8002434:	f842 3024 	str.w	r3, [r2, r4, lsl #2]

	if (!fs || opt != 1) return FR_OK;	/* Do not mount now, it will be mounted later */
 8002438:	b163      	cbz	r3, 8002454 <f_mount+0x54>
 800243a:	2e01      	cmp	r6, #1
 800243c:	d002      	beq.n	8002444 <f_mount+0x44>
 800243e:	2000      	movs	r0, #0

	res = find_volume(&path, &fs, 0);	/* Force mounted the volume */
	LEAVE_FF(fs, res);
}
 8002440:	b004      	add	sp, #16
 8002442:	bd70      	pop	{r4, r5, r6, pc}
	res = find_volume(&path, &fs, 0);	/* Force mounted the volume */
 8002444:	2200      	movs	r2, #0
 8002446:	a901      	add	r1, sp, #4
 8002448:	4668      	mov	r0, sp
 800244a:	f7fe fbd7 	bl	8000bfc <find_volume>
	LEAVE_FF(fs, res);
 800244e:	e7f7      	b.n	8002440 <f_mount+0x40>
	if (vol < 0) return FR_INVALID_DRIVE;
 8002450:	200b      	movs	r0, #11
 8002452:	e7f5      	b.n	8002440 <f_mount+0x40>
	if (!fs || opt != 1) return FR_OK;	/* Do not mount now, it will be mounted later */
 8002454:	4618      	mov	r0, r3
 8002456:	e7f3      	b.n	8002440 <f_mount+0x40>
 8002458:	2000099c 	.word	0x2000099c

0800245c <f_open>:
FRESULT f_open (
	FIL* fp,			/* Pointer to the blank file object */
	const TCHAR* path,	/* Pointer to the file name */
	BYTE mode			/* Access mode and file open mode flags */
)
{
 800245c:	e92d 47f0 	stmdb	sp!, {r4, r5, r6, r7, r8, r9, sl, lr}
 8002460:	b09a      	sub	sp, #104	@ 0x68
 8002462:	9101      	str	r1, [sp, #4]
	FSIZE_t ofs;
#endif
	DEF_NAMBUF


	if (!fp) return FR_INVALID_OBJECT;
 8002464:	2800      	cmp	r0, #0
 8002466:	f000 81dd 	beq.w	8002824 <f_open+0x3c8>
 800246a:	4614      	mov	r4, r2
 800246c:	4680      	mov	r8, r0

	/* Get logical drive */
	mode &= _FS_READONLY ? FA_READ : FA_READ | FA_WRITE | FA_CREATE_ALWAYS | FA_CREATE_NEW | FA_OPEN_ALWAYS | FA_OPEN_APPEND | FA_SEEKEND;
 800246e:	f002 033f 	and.w	r3, r2, #63	@ 0x3f
 8002472:	4699      	mov	r9, r3
	res = find_volume(&path, &fs, mode);
 8002474:	461a      	mov	r2, r3
 8002476:	a903      	add	r1, sp, #12
 8002478:	a801      	add	r0, sp, #4
 800247a:	f7fe fbbf 	bl	8000bfc <find_volume>
	if (res == FR_OK) {
 800247e:	4607      	mov	r7, r0
 8002480:	b130      	cbz	r0, 8002490 <f_open+0x34>
		}

		FREE_NAMBUF();
	}

	if (res != FR_OK) fp->obj.fs = 0;	/* Invalidate file object on error */
 8002482:	2300      	movs	r3, #0
 8002484:	f8c8 3000 	str.w	r3, [r8]

	LEAVE_FF(fs, res);
}
 8002488:	4638      	mov	r0, r7
 800248a:	b01a      	add	sp, #104	@ 0x68
 800248c:	e8bd 87f0 	ldmia.w	sp!, {r4, r5, r6, r7, r8, r9, sl, pc}
		dj.obj.fs = fs;
 8002490:	9b03      	ldr	r3, [sp, #12]
 8002492:	9304      	str	r3, [sp, #16]
		res = follow_path(&dj, path);	/* Follow the file path */
 8002494:	9901      	ldr	r1, [sp, #4]
 8002496:	a804      	add	r0, sp, #16
 8002498:	f7ff fe05 	bl	80020a6 <follow_path>
		if (res == FR_OK) {
 800249c:	4607      	mov	r7, r0
 800249e:	b968      	cbnz	r0, 80024bc <f_open+0x60>
			if (dj.fn[NSFLAG] & NS_NONAME) {	/* Origin directory itself? */
 80024a0:	f99d 305b 	ldrsb.w	r3, [sp, #91]	@ 0x5b
 80024a4:	4283      	cmp	r3, r0
 80024a6:	f2c0 8082 	blt.w	80025ae <f_open+0x152>
				res = chk_lock(&dj, (mode & ~FA_READ) ? 1 : 0);
 80024aa:	f014 0f3e 	tst.w	r4, #62	@ 0x3e
 80024ae:	bf14      	ite	ne
 80024b0:	2101      	movne	r1, #1
 80024b2:	4601      	moveq	r1, r0
 80024b4:	a804      	add	r0, sp, #16
 80024b6:	f7fe f8a9 	bl	800060c <chk_lock>
 80024ba:	4607      	mov	r7, r0
		if (mode & (FA_CREATE_ALWAYS | FA_OPEN_ALWAYS | FA_CREATE_NEW)) {
 80024bc:	f014 0f1c 	tst.w	r4, #28
 80024c0:	f000 8133 	beq.w	800272a <f_open+0x2ce>
			if (res != FR_OK) {					/* No file, create new */
 80024c4:	2f00      	cmp	r7, #0
 80024c6:	f000 8083 	beq.w	80025d0 <f_open+0x174>
				if (res == FR_NO_FILE) {		/* There is no file to open, create a new entry */
 80024ca:	2f04      	cmp	r7, #4
 80024cc:	d072      	beq.n	80025b4 <f_open+0x158>
				mode |= FA_CREATE_ALWAYS;		/* File is created */
 80024ce:	f049 0308 	orr.w	r3, r9, #8
 80024d2:	4699      	mov	r9, r3
			if (res == FR_OK && (mode & FA_CREATE_ALWAYS)) {	/* Truncate it if overwrite mode */
 80024d4:	2f00      	cmp	r7, #0
 80024d6:	d1d4      	bne.n	8002482 <f_open+0x26>
 80024d8:	f019 0f08 	tst.w	r9, #8
 80024dc:	f040 8085 	bne.w	80025ea <f_open+0x18e>
		if (res == FR_OK) {
 80024e0:	2f00      	cmp	r7, #0
 80024e2:	d1ce      	bne.n	8002482 <f_open+0x26>
			if (mode & FA_CREATE_ALWAYS)		/* Set file change flag if created or overwritten */
 80024e4:	f019 0f08 	tst.w	r9, #8
 80024e8:	d002      	beq.n	80024f0 <f_open+0x94>
				mode |= FA_MODIFIED;
 80024ea:	f049 0340 	orr.w	r3, r9, #64	@ 0x40
 80024ee:	4699      	mov	r9, r3
			fp->dir_sect = fs->winsect;			/* Pointer to the directory entry */
 80024f0:	9b03      	ldr	r3, [sp, #12]
 80024f2:	6b5b      	ldr	r3, [r3, #52]	@ 0x34
 80024f4:	f8c8 3048 	str.w	r3, [r8, #72]	@ 0x48
			fp->dir_ptr = dj.dir;
 80024f8:	9b13      	ldr	r3, [sp, #76]	@ 0x4c
 80024fa:	f8c8 304c 	str.w	r3, [r8, #76]	@ 0x4c
			fp->obj.lockid = inc_lock(&dj, (mode & ~FA_READ) ? 1 : 0);
 80024fe:	464b      	mov	r3, r9
 8002500:	2b01      	cmp	r3, #1
 8002502:	bf94      	ite	ls
 8002504:	2100      	movls	r1, #0
 8002506:	2101      	movhi	r1, #1
 8002508:	a804      	add	r0, sp, #16
 800250a:	f7fe f8d1 	bl	80006b0 <inc_lock>
 800250e:	f8c8 002c 	str.w	r0, [r8, #44]	@ 0x2c
			if (!fp->obj.lockid) res = FR_INT_ERR;
 8002512:	2800      	cmp	r0, #0
 8002514:	f000 8180 	beq.w	8002818 <f_open+0x3bc>
			if (fs->fs_type == FS_EXFAT) {
 8002518:	9b03      	ldr	r3, [sp, #12]
 800251a:	461e      	mov	r6, r3
 800251c:	781b      	ldrb	r3, [r3, #0]
 800251e:	2b04      	cmp	r3, #4
 8002520:	f000 8116 	beq.w	8002750 <f_open+0x2f4>
				fp->obj.sclust = ld_clust(fs, dj.dir);					/* Get object allocation info */
 8002524:	9b13      	ldr	r3, [sp, #76]	@ 0x4c
 8002526:	461d      	mov	r5, r3
 8002528:	4619      	mov	r1, r3
 800252a:	4630      	mov	r0, r6
 800252c:	f7fe f96c 	bl	8000808 <ld_clust>
 8002530:	f8c8 0008 	str.w	r0, [r8, #8]
				fp->obj.objsize = ld_dword(dj.dir + DIR_FileSize);
 8002534:	f105 001c 	add.w	r0, r5, #28
 8002538:	f7fd fff6 	bl	8000528 <ld_dword>
 800253c:	f8c8 0010 	str.w	r0, [r8, #16]
 8002540:	2300      	movs	r3, #0
 8002542:	f8c8 3014 	str.w	r3, [r8, #20]
			fp->cltbl = 0;			/* Disable fast seek mode */
 8002546:	2100      	movs	r1, #0
 8002548:	f8c8 1050 	str.w	r1, [r8, #80]	@ 0x50
			fp->obj.fs = fs;	 	/* Validate the file object */
 800254c:	f8c8 6000 	str.w	r6, [r8]
			fp->obj.id = fs->id;
 8002550:	9b03      	ldr	r3, [sp, #12]
 8002552:	88db      	ldrh	r3, [r3, #6]
 8002554:	f8a8 3004 	strh.w	r3, [r8, #4]
			fp->flag = mode;		/* Set file access mode */
 8002558:	f888 9030 	strb.w	r9, [r8, #48]	@ 0x30
			fp->err = 0;			/* Clear error flag */
 800255c:	f888 1031 	strb.w	r1, [r8, #49]	@ 0x31
			fp->sect = 0;			/* Invalidate current data sector */
 8002560:	f8c8 1044 	str.w	r1, [r8, #68]	@ 0x44
			fp->fptr = 0;			/* Set file pointer top of the file */
 8002564:	2200      	movs	r2, #0
 8002566:	2300      	movs	r3, #0
 8002568:	e9c8 230e 	strd	r2, r3, [r8, #56]	@ 0x38
			mem_set(fp->buf, 0, _MAX_SS);	/* Clear sector buffer */
 800256c:	f108 0354 	add.w	r3, r8, #84	@ 0x54
 8002570:	469a      	mov	sl, r3
 8002572:	f44f 7200 	mov.w	r2, #512	@ 0x200
 8002576:	4618      	mov	r0, r3
 8002578:	f7fe f82e 	bl	80005d8 <mem_set>
			if ((mode & FA_SEEKEND) && fp->obj.objsize > 0) {	/* Seek to end of file if FA_OPEN_APPEND is specified */
 800257c:	f019 0f20 	tst.w	r9, #32
 8002580:	f000 8140 	beq.w	8002804 <f_open+0x3a8>
 8002584:	f8d8 1010 	ldr.w	r1, [r8, #16]
 8002588:	460d      	mov	r5, r1
 800258a:	f8d8 0014 	ldr.w	r0, [r8, #20]
 800258e:	4604      	mov	r4, r0
 8002590:	ea51 0300 	orrs.w	r3, r1, r0
 8002594:	f000 8136 	beq.w	8002804 <f_open+0x3a8>
				fp->fptr = fp->obj.objsize;			/* Offset to seek */
 8002598:	f8c8 1038 	str.w	r1, [r8, #56]	@ 0x38
 800259c:	f8c8 003c 	str.w	r0, [r8, #60]	@ 0x3c
				bcs = (DWORD)fs->csize * SS(fs);	/* Cluster size in byte */
 80025a0:	9b03      	ldr	r3, [sp, #12]
 80025a2:	895b      	ldrh	r3, [r3, #10]
 80025a4:	025b      	lsls	r3, r3, #9
 80025a6:	4699      	mov	r9, r3
				clst = fp->obj.sclust;				/* Follow the cluster chain */
 80025a8:	f8d8 1008 	ldr.w	r1, [r8, #8]
				for (ofs = fp->obj.objsize; res == FR_OK && ofs > bcs; ofs -= bcs) {
 80025ac:	e0f9      	b.n	80027a2 <f_open+0x346>
				res = FR_INVALID_NAME;
 80025ae:	2306      	movs	r3, #6
 80025b0:	461f      	mov	r7, r3
 80025b2:	e783      	b.n	80024bc <f_open+0x60>
					res = enq_lock() ? dir_register(&dj) : FR_TOO_MANY_OPEN_FILES;
 80025b4:	f7fe f86c 	bl	8000690 <enq_lock>
 80025b8:	b928      	cbnz	r0, 80025c6 <f_open+0x16a>
				mode |= FA_CREATE_ALWAYS;		/* File is created */
 80025ba:	f049 0308 	orr.w	r3, r9, #8
 80025be:	4699      	mov	r9, r3
					res = enq_lock() ? dir_register(&dj) : FR_TOO_MANY_OPEN_FILES;
 80025c0:	2312      	movs	r3, #18
 80025c2:	461f      	mov	r7, r3
 80025c4:	e78c      	b.n	80024e0 <f_open+0x84>
 80025c6:	a804      	add	r0, sp, #16
 80025c8:	f7ff fdd4 	bl	8002174 <dir_register>
 80025cc:	4607      	mov	r7, r0
 80025ce:	e77e      	b.n	80024ce <f_open+0x72>
				if (dj.obj.attr & (AM_RDO | AM_DIR)) {	/* Cannot overwrite it (R/O or DIR) */
 80025d0:	f89d 3016 	ldrb.w	r3, [sp, #22]
 80025d4:	f013 0f11 	tst.w	r3, #17
 80025d8:	f040 8118 	bne.w	800280c <f_open+0x3b0>
					if (mode & FA_CREATE_NEW) res = FR_EXIST;	/* Cannot create as new file */
 80025dc:	f014 0f04 	tst.w	r4, #4
 80025e0:	f43f af78 	beq.w	80024d4 <f_open+0x78>
 80025e4:	2308      	movs	r3, #8
 80025e6:	461f      	mov	r7, r3
 80025e8:	e74b      	b.n	8002482 <f_open+0x26>
				dw = GET_FATTIME();
 80025ea:	f7fd ff8b 	bl	8000504 <get_fattime>
 80025ee:	4606      	mov	r6, r0
				if (fs->fs_type == FS_EXFAT) {
 80025f0:	9b03      	ldr	r3, [sp, #12]
 80025f2:	461a      	mov	r2, r3
 80025f4:	781b      	ldrb	r3, [r3, #0]
 80025f6:	2b04      	cmp	r3, #4
 80025f8:	d03a      	beq.n	8002670 <f_open+0x214>
					st_dword(dj.dir + DIR_CrtTime, dw);	/* Set created time */
 80025fa:	4601      	mov	r1, r0
 80025fc:	9813      	ldr	r0, [sp, #76]	@ 0x4c
 80025fe:	300e      	adds	r0, #14
 8002600:	f7fd ffc3 	bl	800058a <st_dword>
					st_dword(dj.dir + DIR_ModTime, dw);	/* Set modified time */
 8002604:	4631      	mov	r1, r6
 8002606:	9813      	ldr	r0, [sp, #76]	@ 0x4c
 8002608:	3016      	adds	r0, #22
 800260a:	f7fd ffbe 	bl	800058a <st_dword>
					dj.dir[DIR_Attr] = AM_ARC;			/* Reset attribute */
 800260e:	9b13      	ldr	r3, [sp, #76]	@ 0x4c
 8002610:	2220      	movs	r2, #32
 8002612:	72da      	strb	r2, [r3, #11]
					cl = ld_clust(fs, dj.dir);			/* Get cluster chain */
 8002614:	9b03      	ldr	r3, [sp, #12]
 8002616:	461d      	mov	r5, r3
 8002618:	9a13      	ldr	r2, [sp, #76]	@ 0x4c
 800261a:	4616      	mov	r6, r2
 800261c:	4611      	mov	r1, r2
 800261e:	4618      	mov	r0, r3
 8002620:	f7fe f8f2 	bl	8000808 <ld_clust>
 8002624:	4604      	mov	r4, r0
					st_clust(fs, dj.dir, 0);			/* Reset file allocation info */
 8002626:	2200      	movs	r2, #0
 8002628:	4631      	mov	r1, r6
 800262a:	4628      	mov	r0, r5
 800262c:	f7fe f8ff 	bl	800082e <st_clust>
					st_dword(dj.dir + DIR_FileSize, 0);
 8002630:	2100      	movs	r1, #0
 8002632:	9813      	ldr	r0, [sp, #76]	@ 0x4c
 8002634:	301c      	adds	r0, #28
 8002636:	f7fd ffa8 	bl	800058a <st_dword>
					fs->wflag = 1;
 800263a:	9b03      	ldr	r3, [sp, #12]
 800263c:	2201      	movs	r2, #1
 800263e:	70da      	strb	r2, [r3, #3]
					if (cl) {							/* Remove the cluster chain if exist */
 8002640:	2c00      	cmp	r4, #0
 8002642:	f43f af4d 	beq.w	80024e0 <f_open+0x84>
						dw = fs->winsect;
 8002646:	9b03      	ldr	r3, [sp, #12]
 8002648:	6b5b      	ldr	r3, [r3, #52]	@ 0x34
 800264a:	461d      	mov	r5, r3
						res = remove_chain(&dj.obj, cl, 0);
 800264c:	2200      	movs	r2, #0
 800264e:	4621      	mov	r1, r4
 8002650:	a804      	add	r0, sp, #16
 8002652:	f7ff f82b 	bl	80016ac <remove_chain>
						if (res == FR_OK) {
 8002656:	4607      	mov	r7, r0
 8002658:	2800      	cmp	r0, #0
 800265a:	f47f af12 	bne.w	8002482 <f_open+0x26>
							res = move_window(fs, dw);
 800265e:	4629      	mov	r1, r5
 8002660:	9803      	ldr	r0, [sp, #12]
 8002662:	f7fe fa65 	bl	8000b30 <move_window>
 8002666:	4607      	mov	r7, r0
							fs->last_clst = cl - 1;		/* Reuse the cluster hole */
 8002668:	1e63      	subs	r3, r4, #1
 800266a:	9a03      	ldr	r2, [sp, #12]
 800266c:	6153      	str	r3, [r2, #20]
 800266e:	e737      	b.n	80024e0 <f_open+0x84>
					fp->obj.fs = fs;
 8002670:	4615      	mov	r5, r2
 8002672:	f8c8 2000 	str.w	r2, [r8]
					fp->obj.sclust = ld_dword(fs->dirbuf + XDIR_FstClus);
 8002676:	6910      	ldr	r0, [r2, #16]
 8002678:	3034      	adds	r0, #52	@ 0x34
 800267a:	f7fd ff55 	bl	8000528 <ld_dword>
 800267e:	f8c8 0008 	str.w	r0, [r8, #8]
					fp->obj.objsize = ld_qword(fs->dirbuf + XDIR_FileSize);
 8002682:	6928      	ldr	r0, [r5, #16]
 8002684:	3038      	adds	r0, #56	@ 0x38
 8002686:	f7fd ff5a 	bl	800053e <ld_qword>
 800268a:	e9c8 0104 	strd	r0, r1, [r8, #16]
					fp->obj.stat = fs->dirbuf[XDIR_GenFlags] & 2;
 800268e:	692b      	ldr	r3, [r5, #16]
 8002690:	f893 3021 	ldrb.w	r3, [r3, #33]	@ 0x21
 8002694:	f003 0302 	and.w	r3, r3, #2
 8002698:	f888 3007 	strb.w	r3, [r8, #7]
					fp->obj.n_frag = 0;
 800269c:	2300      	movs	r3, #0
 800269e:	f8c8 301c 	str.w	r3, [r8, #28]
					st_dword(fs->dirbuf + XDIR_CrtTime, dw);	/* Set created time */
 80026a2:	6928      	ldr	r0, [r5, #16]
 80026a4:	4631      	mov	r1, r6
 80026a6:	3008      	adds	r0, #8
 80026a8:	f7fd ff6f 	bl	800058a <st_dword>
					fs->dirbuf[XDIR_CrtTime10] = 0;
 80026ac:	9b03      	ldr	r3, [sp, #12]
 80026ae:	691a      	ldr	r2, [r3, #16]
 80026b0:	f04f 0500 	mov.w	r5, #0
 80026b4:	7515      	strb	r5, [r2, #20]
					st_dword(fs->dirbuf + XDIR_ModTime, dw);	/* Set modified time */
 80026b6:	6918      	ldr	r0, [r3, #16]
 80026b8:	4631      	mov	r1, r6
 80026ba:	300c      	adds	r0, #12
 80026bc:	f7fd ff65 	bl	800058a <st_dword>
					fs->dirbuf[XDIR_ModTime10] = 0;
 80026c0:	9b03      	ldr	r3, [sp, #12]
 80026c2:	691a      	ldr	r2, [r3, #16]
 80026c4:	7555      	strb	r5, [r2, #21]
					fs->dirbuf[XDIR_Attr] = AM_ARC;				/* Reset attribute */
 80026c6:	691a      	ldr	r2, [r3, #16]
 80026c8:	2120      	movs	r1, #32
 80026ca:	7111      	strb	r1, [r2, #4]
					st_dword(fs->dirbuf + XDIR_FstClus, 0);		/* Reset file allocation info */
 80026cc:	6918      	ldr	r0, [r3, #16]
 80026ce:	2100      	movs	r1, #0
 80026d0:	3034      	adds	r0, #52	@ 0x34
 80026d2:	f7fd ff5a 	bl	800058a <st_dword>
					st_qword(fs->dirbuf + XDIR_FileSize, 0);
 80026d6:	9b03      	ldr	r3, [sp, #12]
 80026d8:	6918      	ldr	r0, [r3, #16]
 80026da:	2200      	movs	r2, #0
 80026dc:	2300      	movs	r3, #0
 80026de:	3038      	adds	r0, #56	@ 0x38
 80026e0:	f7fd ff5d 	bl	800059e <st_qword>
					st_qword(fs->dirbuf + XDIR_ValidFileSize, 0);
 80026e4:	9b03      	ldr	r3, [sp, #12]
 80026e6:	6918      	ldr	r0, [r3, #16]
 80026e8:	2200      	movs	r2, #0
 80026ea:	2300      	movs	r3, #0
 80026ec:	3028      	adds	r0, #40	@ 0x28
 80026ee:	f7fd ff56 	bl	800059e <st_qword>
					fs->dirbuf[XDIR_GenFlags] = 1;
 80026f2:	9b03      	ldr	r3, [sp, #12]
 80026f4:	691b      	ldr	r3, [r3, #16]
 80026f6:	2201      	movs	r2, #1
 80026f8:	f883 2021 	strb.w	r2, [r3, #33]	@ 0x21
					res = store_xdir(&dj);
 80026fc:	a804      	add	r0, sp, #16
 80026fe:	f7ff fa27 	bl	8001b50 <store_xdir>
					if (res == FR_OK && fp->obj.sclust) {		/* Remove the cluster chain if exist */
 8002702:	4607      	mov	r7, r0
 8002704:	2800      	cmp	r0, #0
 8002706:	f47f aebc 	bne.w	8002482 <f_open+0x26>
 800270a:	f8d8 1008 	ldr.w	r1, [r8, #8]
 800270e:	2900      	cmp	r1, #0
 8002710:	f43f aee6 	beq.w	80024e0 <f_open+0x84>
						res = remove_chain(&fp->obj, fp->obj.sclust, 0);
 8002714:	4602      	mov	r2, r0
 8002716:	4640      	mov	r0, r8
 8002718:	f7fe ffc8 	bl	80016ac <remove_chain>
 800271c:	4607      	mov	r7, r0
						fs->last_clst = fp->obj.sclust - 1;		/* Reuse the cluster hole */
 800271e:	f8d8 3008 	ldr.w	r3, [r8, #8]
 8002722:	3b01      	subs	r3, #1
 8002724:	9a03      	ldr	r2, [sp, #12]
 8002726:	6153      	str	r3, [r2, #20]
 8002728:	e6da      	b.n	80024e0 <f_open+0x84>
			if (res == FR_OK) {					/* Following succeeded */
 800272a:	2f00      	cmp	r7, #0
 800272c:	f47f aea9 	bne.w	8002482 <f_open+0x26>
				if (dj.obj.attr & AM_DIR) {		/* It is a directory */
 8002730:	f89d 3016 	ldrb.w	r3, [sp, #22]
 8002734:	f013 0f10 	tst.w	r3, #16
 8002738:	d16b      	bne.n	8002812 <f_open+0x3b6>
					if ((mode & FA_WRITE) && (dj.obj.attr & AM_RDO)) { /* R/O violation */
 800273a:	f014 0f02 	tst.w	r4, #2
 800273e:	f43f aecf 	beq.w	80024e0 <f_open+0x84>
 8002742:	f013 0f01 	tst.w	r3, #1
 8002746:	f43f aecb 	beq.w	80024e0 <f_open+0x84>
						res = FR_DENIED;
 800274a:	2307      	movs	r3, #7
 800274c:	461f      	mov	r7, r3
 800274e:	e698      	b.n	8002482 <f_open+0x26>
				fp->obj.c_scl = dj.obj.sclust;							/* Get containing directory info */
 8002750:	9b06      	ldr	r3, [sp, #24]
 8002752:	f8c8 3020 	str.w	r3, [r8, #32]
				fp->obj.c_size = ((DWORD)dj.obj.objsize & 0xFFFFFF00) | dj.obj.stat;
 8002756:	9b08      	ldr	r3, [sp, #32]
 8002758:	f023 03ff 	bic.w	r3, r3, #255	@ 0xff
 800275c:	f89d 2017 	ldrb.w	r2, [sp, #23]
 8002760:	4313      	orrs	r3, r2
 8002762:	f8c8 3024 	str.w	r3, [r8, #36]	@ 0x24
				fp->obj.c_ofs = dj.blk_ofs;
 8002766:	9b17      	ldr	r3, [sp, #92]	@ 0x5c
 8002768:	f8c8 3028 	str.w	r3, [r8, #40]	@ 0x28
				fp->obj.sclust = ld_dword(fs->dirbuf + XDIR_FstClus);	/* Get object allocation info */
 800276c:	6930      	ldr	r0, [r6, #16]
 800276e:	3034      	adds	r0, #52	@ 0x34
 8002770:	f7fd feda 	bl	8000528 <ld_dword>
 8002774:	f8c8 0008 	str.w	r0, [r8, #8]
				fp->obj.objsize = ld_qword(fs->dirbuf + XDIR_FileSize);
 8002778:	6930      	ldr	r0, [r6, #16]
 800277a:	3038      	adds	r0, #56	@ 0x38
 800277c:	f7fd fedf 	bl	800053e <ld_qword>
 8002780:	e9c8 0104 	strd	r0, r1, [r8, #16]
				fp->obj.stat = fs->dirbuf[XDIR_GenFlags] & 2;
 8002784:	6933      	ldr	r3, [r6, #16]
 8002786:	f893 3021 	ldrb.w	r3, [r3, #33]	@ 0x21
 800278a:	f003 0302 	and.w	r3, r3, #2
 800278e:	f888 3007 	strb.w	r3, [r8, #7]
 8002792:	e6d8      	b.n	8002546 <f_open+0xea>
					if (clst <= 1) res = FR_INT_ERR;
 8002794:	2302      	movs	r3, #2
 8002796:	461f      	mov	r7, r3
				for (ofs = fp->obj.objsize; res == FR_OK && ofs > bcs; ofs -= bcs) {
 8002798:	1bab      	subs	r3, r5, r6
 800279a:	461d      	mov	r5, r3
 800279c:	f164 0300 	sbc.w	r3, r4, #0
 80027a0:	461c      	mov	r4, r3
 80027a2:	b98f      	cbnz	r7, 80027c8 <f_open+0x36c>
 80027a4:	464e      	mov	r6, r9
 80027a6:	45a9      	cmp	r9, r5
 80027a8:	f04f 0300 	mov.w	r3, #0
 80027ac:	41a3      	sbcs	r3, r4
 80027ae:	d20b      	bcs.n	80027c8 <f_open+0x36c>
					clst = get_fat(&fp->obj, clst);
 80027b0:	4640      	mov	r0, r8
 80027b2:	f7fe fda6 	bl	8001302 <get_fat>
 80027b6:	4601      	mov	r1, r0
					if (clst <= 1) res = FR_INT_ERR;
 80027b8:	2801      	cmp	r0, #1
 80027ba:	d9eb      	bls.n	8002794 <f_open+0x338>
					if (clst == 0xFFFFFFFF) res = FR_DISK_ERR;
 80027bc:	f1b0 3fff 	cmp.w	r0, #4294967295	@ 0xffffffff
 80027c0:	d1ea      	bne.n	8002798 <f_open+0x33c>
 80027c2:	2301      	movs	r3, #1
 80027c4:	461f      	mov	r7, r3
 80027c6:	e7e7      	b.n	8002798 <f_open+0x33c>
				fp->clust = clst;
 80027c8:	f8c8 1040 	str.w	r1, [r8, #64]	@ 0x40
				if (res == FR_OK && ofs % SS(fs)) {	/* Fill sector buffer if not on the sector boundary */
 80027cc:	2f00      	cmp	r7, #0
 80027ce:	f47f ae58 	bne.w	8002482 <f_open+0x26>
 80027d2:	f3c5 0308 	ubfx	r3, r5, #0, #9
 80027d6:	b1ab      	cbz	r3, 8002804 <f_open+0x3a8>
					if ((sc = clust2sect(fs, clst)) == 0) {
 80027d8:	9b03      	ldr	r3, [sp, #12]
 80027da:	461e      	mov	r6, r3
 80027dc:	4618      	mov	r0, r3
 80027de:	f7fd ffef 	bl	80007c0 <clust2sect>
 80027e2:	4602      	mov	r2, r0
 80027e4:	b910      	cbnz	r0, 80027ec <f_open+0x390>
						res = FR_INT_ERR;
 80027e6:	2302      	movs	r3, #2
 80027e8:	461f      	mov	r7, r3
 80027ea:	e64a      	b.n	8002482 <f_open+0x26>
						fp->sect = sc + (DWORD)(ofs / SS(fs));
 80027ec:	0a6b      	lsrs	r3, r5, #9
 80027ee:	ea43 53c4 	orr.w	r3, r3, r4, lsl #23
 80027f2:	441a      	add	r2, r3
 80027f4:	f8c8 2044 	str.w	r2, [r8, #68]	@ 0x44
						if (disk_read(fs->drv, fp->buf, fp->sect, 1) != RES_OK) res = FR_DISK_ERR;
 80027f8:	2301      	movs	r3, #1
 80027fa:	4651      	mov	r1, sl
 80027fc:	7870      	ldrb	r0, [r6, #1]
 80027fe:	f7fd fe4b 	bl	8000498 <disk_read>
 8002802:	b960      	cbnz	r0, 800281e <f_open+0x3c2>
	if (res != FR_OK) fp->obj.fs = 0;	/* Invalidate file object on error */
 8002804:	2f00      	cmp	r7, #0
 8002806:	f43f ae3f 	beq.w	8002488 <f_open+0x2c>
 800280a:	e63a      	b.n	8002482 <f_open+0x26>
					res = FR_DENIED;
 800280c:	2307      	movs	r3, #7
 800280e:	461f      	mov	r7, r3
 8002810:	e637      	b.n	8002482 <f_open+0x26>
					res = FR_NO_FILE;
 8002812:	2304      	movs	r3, #4
 8002814:	461f      	mov	r7, r3
 8002816:	e634      	b.n	8002482 <f_open+0x26>
			if (!fp->obj.lockid) res = FR_INT_ERR;
 8002818:	2302      	movs	r3, #2
 800281a:	461f      	mov	r7, r3
 800281c:	e631      	b.n	8002482 <f_open+0x26>
						if (disk_read(fs->drv, fp->buf, fp->sect, 1) != RES_OK) res = FR_DISK_ERR;
 800281e:	2301      	movs	r3, #1
 8002820:	461f      	mov	r7, r3
 8002822:	e62e      	b.n	8002482 <f_open+0x26>
	if (!fp) return FR_INVALID_OBJECT;
 8002824:	2309      	movs	r3, #9
 8002826:	461f      	mov	r7, r3
 8002828:	e62e      	b.n	8002488 <f_open+0x2c>

0800282a <f_write>:
	FIL* fp,			/* Pointer to the file object */
	const void* buff,	/* Pointer to the data to be written */
	UINT btw,			/* Number of bytes to write */
	UINT* bw			/* Pointer to number of bytes written */
)
{
 800282a:	e92d 4ff0 	stmdb	sp!, {r4, r5, r6, r7, r8, r9, sl, fp, lr}
 800282e:	b085      	sub	sp, #20
 8002830:	4604      	mov	r4, r0
 8002832:	460e      	mov	r6, r1
 8002834:	4615      	mov	r5, r2
 8002836:	4698      	mov	r8, r3
	DWORD clst, sect;
	UINT wcnt, cc, csect;
	const BYTE *wbuff = (const BYTE*)buff;


	*bw = 0;	/* Clear write byte counter */
 8002838:	2300      	movs	r3, #0
 800283a:	f8c8 3000 	str.w	r3, [r8]
	res = validate(&fp->obj, &fs);			/* Check validity of the file object */
 800283e:	a903      	add	r1, sp, #12
 8002840:	f7fe f929 	bl	8000a96 <validate>
	if (res != FR_OK || (res = (FRESULT)fp->err) != FR_OK) LEAVE_FF(fs, res);	/* Check validity */
 8002844:	9001      	str	r0, [sp, #4]
 8002846:	2800      	cmp	r0, #0
 8002848:	d14f      	bne.n	80028ea <f_write+0xc0>
 800284a:	f894 3031 	ldrb.w	r3, [r4, #49]	@ 0x31
 800284e:	9301      	str	r3, [sp, #4]
 8002850:	2b00      	cmp	r3, #0
 8002852:	d14a      	bne.n	80028ea <f_write+0xc0>
	if (!(fp->flag & FA_WRITE)) LEAVE_FF(fs, FR_DENIED);	/* Check access mode */
 8002854:	f894 3030 	ldrb.w	r3, [r4, #48]	@ 0x30
 8002858:	f013 0f02 	tst.w	r3, #2
 800285c:	f000 8103 	beq.w	8002a66 <f_write+0x23c>

	/* Check fptr wrap-around (file size cannot reach 4GiB on FATxx) */
	if ((!_FS_EXFAT || fs->fs_type != FS_EXFAT) && (DWORD)(fp->fptr + btw) < (DWORD)fp->fptr) {
 8002860:	9b03      	ldr	r3, [sp, #12]
 8002862:	781b      	ldrb	r3, [r3, #0]
 8002864:	2b04      	cmp	r3, #4
 8002866:	f000 80c9 	beq.w	80029fc <f_write+0x1d2>
 800286a:	6ba3      	ldr	r3, [r4, #56]	@ 0x38
 800286c:	42eb      	cmn	r3, r5
 800286e:	f0c0 80c5 	bcc.w	80029fc <f_write+0x1d2>
		btw = (UINT)(0xFFFFFFFF - (DWORD)fp->fptr);
 8002872:	43dd      	mvns	r5, r3
 8002874:	e0c2      	b.n	80029fc <f_write+0x1d2>
					if (clst == 0) {		/* If no cluster is allocated, */
						clst = create_chain(&fp->obj, 0);	/* create a new cluster chain */
					}
				} else {					/* On the middle or end of the file */
#if _USE_FASTSEEK
					if (fp->cltbl) {
 8002876:	6d21      	ldr	r1, [r4, #80]	@ 0x50
 8002878:	2900      	cmp	r1, #0
 800287a:	d03a      	beq.n	80028f2 <f_write+0xc8>
						clst = clmt_clust(fp, fp->fptr);	/* Get cluster# from the CLMT */
 800287c:	4620      	mov	r0, r4
 800287e:	f7fd ffab 	bl	80007d8 <clmt_clust>
#endif
					{
						clst = create_chain(&fp->obj, fp->clust);	/* Follow or stretch cluster chain on the FAT */
					}
				}
				if (clst == 0) break;		/* Could not allocate a new cluster (disk full) */
 8002882:	2800      	cmp	r0, #0
 8002884:	f000 80e8 	beq.w	8002a58 <f_write+0x22e>
				if (clst == 1) ABORT(fs, FR_INT_ERR);
 8002888:	2801      	cmp	r0, #1
 800288a:	d037      	beq.n	80028fc <f_write+0xd2>
				if (clst == 0xFFFFFFFF) ABORT(fs, FR_DISK_ERR);
 800288c:	f1b0 3fff 	cmp.w	r0, #4294967295	@ 0xffffffff
 8002890:	d03b      	beq.n	800290a <f_write+0xe0>
				fp->clust = clst;			/* Update current cluster */
 8002892:	6420      	str	r0, [r4, #64]	@ 0x40
				if (fp->obj.sclust == 0) fp->obj.sclust = clst;	/* Set start cluster if the first write */
 8002894:	68a3      	ldr	r3, [r4, #8]
 8002896:	b903      	cbnz	r3, 800289a <f_write+0x70>
 8002898:	60a0      	str	r0, [r4, #8]
			}
#if _FS_TINY
			if (fs->winsect == fp->sect && sync_window(fs) != FR_OK) ABORT(fs, FR_DISK_ERR);	/* Write-back sector cache */
#else
			if (fp->flag & FA_DIRTY) {		/* Write-back sector cache */
 800289a:	f994 3030 	ldrsb.w	r3, [r4, #48]	@ 0x30
 800289e:	2b00      	cmp	r3, #0
 80028a0:	db3a      	blt.n	8002918 <f_write+0xee>
				if (disk_write(fs->drv, fp->buf, fp->sect, 1) != RES_OK) ABORT(fs, FR_DISK_ERR);
				fp->flag &= (BYTE)~FA_DIRTY;
			}
#endif
			sect = clust2sect(fs, fp->clust);	/* Get current sector */
 80028a2:	f8dd b00c 	ldr.w	fp, [sp, #12]
 80028a6:	6c21      	ldr	r1, [r4, #64]	@ 0x40
 80028a8:	4658      	mov	r0, fp
 80028aa:	f7fd ff89 	bl	80007c0 <clust2sect>
			if (!sect) ABORT(fs, FR_INT_ERR);
 80028ae:	4681      	mov	r9, r0
 80028b0:	2800      	cmp	r0, #0
 80028b2:	d048      	beq.n	8002946 <f_write+0x11c>
			sect += csect;
 80028b4:	44b9      	add	r9, r7
			cc = btw / SS(fs);				/* When remaining bytes >= sector size, */
			if (cc) {						/* Write maximum contiguous sectors directly */
 80028b6:	ea5f 2a55 	movs.w	sl, r5, lsr #9
 80028ba:	d062      	beq.n	8002982 <f_write+0x158>
				if (csect + cc > fs->csize) {	/* Clip at cluster boundary */
 80028bc:	eb07 030a 	add.w	r3, r7, sl
 80028c0:	f8bb 200a 	ldrh.w	r2, [fp, #10]
 80028c4:	4293      	cmp	r3, r2
 80028c6:	d901      	bls.n	80028cc <f_write+0xa2>
					cc = fs->csize - csect;
 80028c8:	eba2 0a07 	sub.w	sl, r2, r7
				}
				if (disk_write(fs->drv, wbuff, sect, cc) != RES_OK) ABORT(fs, FR_DISK_ERR);
 80028cc:	4653      	mov	r3, sl
 80028ce:	464a      	mov	r2, r9
 80028d0:	4631      	mov	r1, r6
 80028d2:	f89b 0001 	ldrb.w	r0, [fp, #1]
 80028d6:	f7fd fded 	bl	80004b4 <disk_write>
 80028da:	2800      	cmp	r0, #0
 80028dc:	d03a      	beq.n	8002954 <f_write+0x12a>
 80028de:	f04f 0a01 	mov.w	sl, #1
 80028e2:	f884 a031 	strb.w	sl, [r4, #49]	@ 0x31
 80028e6:	f8cd a004 	str.w	sl, [sp, #4]
	}

	fp->flag |= FA_MODIFIED;				/* Set file change flag */

	LEAVE_FF(fs, FR_OK);
}
 80028ea:	9801      	ldr	r0, [sp, #4]
 80028ec:	b005      	add	sp, #20
 80028ee:	e8bd 8ff0 	ldmia.w	sp!, {r4, r5, r6, r7, r8, r9, sl, fp, pc}
						clst = create_chain(&fp->obj, fp->clust);	/* Follow or stretch cluster chain on the FAT */
 80028f2:	6c21      	ldr	r1, [r4, #64]	@ 0x40
 80028f4:	4620      	mov	r0, r4
 80028f6:	f7fe fe1b 	bl	8001530 <create_chain>
 80028fa:	e7c2      	b.n	8002882 <f_write+0x58>
				if (clst == 1) ABORT(fs, FR_INT_ERR);
 80028fc:	f04f 0a02 	mov.w	sl, #2
 8002900:	f884 a031 	strb.w	sl, [r4, #49]	@ 0x31
 8002904:	f8cd a004 	str.w	sl, [sp, #4]
 8002908:	e7ef      	b.n	80028ea <f_write+0xc0>
				if (clst == 0xFFFFFFFF) ABORT(fs, FR_DISK_ERR);
 800290a:	f04f 0a01 	mov.w	sl, #1
 800290e:	f884 a031 	strb.w	sl, [r4, #49]	@ 0x31
 8002912:	f8cd a004 	str.w	sl, [sp, #4]
 8002916:	e7e8      	b.n	80028ea <f_write+0xc0>
				if (disk_write(fs->drv, fp->buf, fp->sect, 1) != RES_OK) ABORT(fs, FR_DISK_ERR);
 8002918:	2301      	movs	r3, #1
 800291a:	6c62      	ldr	r2, [r4, #68]	@ 0x44
 800291c:	f104 0154 	add.w	r1, r4, #84	@ 0x54
 8002920:	9803      	ldr	r0, [sp, #12]
 8002922:	7840      	ldrb	r0, [r0, #1]
 8002924:	f7fd fdc6 	bl	80004b4 <disk_write>
 8002928:	b930      	cbnz	r0, 8002938 <f_write+0x10e>
				fp->flag &= (BYTE)~FA_DIRTY;
 800292a:	f894 3030 	ldrb.w	r3, [r4, #48]	@ 0x30
 800292e:	f003 037f 	and.w	r3, r3, #127	@ 0x7f
 8002932:	f884 3030 	strb.w	r3, [r4, #48]	@ 0x30
 8002936:	e7b4      	b.n	80028a2 <f_write+0x78>
				if (disk_write(fs->drv, fp->buf, fp->sect, 1) != RES_OK) ABORT(fs, FR_DISK_ERR);
 8002938:	f04f 0a01 	mov.w	sl, #1
 800293c:	f884 a031 	strb.w	sl, [r4, #49]	@ 0x31
 8002940:	f8cd a004 	str.w	sl, [sp, #4]
 8002944:	e7d1      	b.n	80028ea <f_write+0xc0>
			if (!sect) ABORT(fs, FR_INT_ERR);
 8002946:	f04f 0a02 	mov.w	sl, #2
 800294a:	f884 a031 	strb.w	sl, [r4, #49]	@ 0x31
 800294e:	f8cd a004 	str.w	sl, [sp, #4]
 8002952:	e7ca      	b.n	80028ea <f_write+0xc0>
				if (fp->sect - sect < cc) { /* Refill sector cache if it gets invalidated by the direct write */
 8002954:	6c61      	ldr	r1, [r4, #68]	@ 0x44
 8002956:	eba1 0109 	sub.w	r1, r1, r9
 800295a:	4551      	cmp	r1, sl
 800295c:	d302      	bcc.n	8002964 <f_write+0x13a>
				wcnt = SS(fs) * cc;		/* Number of bytes transferred */
 800295e:	ea4f 274a 	mov.w	r7, sl, lsl #9
				continue;
 8002962:	e02f      	b.n	80029c4 <f_write+0x19a>
					mem_cpy(fp->buf, wbuff + ((fp->sect - sect) * SS(fs)), SS(fs));
 8002964:	f44f 7200 	mov.w	r2, #512	@ 0x200
 8002968:	eb06 2141 	add.w	r1, r6, r1, lsl #9
 800296c:	f104 0054 	add.w	r0, r4, #84	@ 0x54
 8002970:	f7fd fe28 	bl	80005c4 <mem_cpy>
					fp->flag &= (BYTE)~FA_DIRTY;
 8002974:	f894 3030 	ldrb.w	r3, [r4, #48]	@ 0x30
 8002978:	f003 037f 	and.w	r3, r3, #127	@ 0x7f
 800297c:	f884 3030 	strb.w	r3, [r4, #48]	@ 0x30
 8002980:	e7ed      	b.n	800295e <f_write+0x134>
			if (fp->sect != sect && 		/* Fill sector cache with file data */
 8002982:	6c63      	ldr	r3, [r4, #68]	@ 0x44
 8002984:	454b      	cmp	r3, r9
 8002986:	d006      	beq.n	8002996 <f_write+0x16c>
				fp->fptr < fp->obj.objsize &&
 8002988:	6ba0      	ldr	r0, [r4, #56]	@ 0x38
 800298a:	6be3      	ldr	r3, [r4, #60]	@ 0x3c
 800298c:	6921      	ldr	r1, [r4, #16]
 800298e:	6962      	ldr	r2, [r4, #20]
			if (fp->sect != sect && 		/* Fill sector cache with file data */
 8002990:	4288      	cmp	r0, r1
 8002992:	4193      	sbcs	r3, r2
 8002994:	d34f      	bcc.n	8002a36 <f_write+0x20c>
			fp->sect = sect;
 8002996:	f8c4 9044 	str.w	r9, [r4, #68]	@ 0x44
		wcnt = SS(fs) - (UINT)fp->fptr % SS(fs);	/* Number of bytes left in the sector */
 800299a:	6ba3      	ldr	r3, [r4, #56]	@ 0x38
 800299c:	f3c3 0308 	ubfx	r3, r3, #0, #9
 80029a0:	f5c3 7700 	rsb	r7, r3, #512	@ 0x200
		if (wcnt > btw) wcnt = btw;					/* Clip it by btw if needed */
 80029a4:	42bd      	cmp	r5, r7
 80029a6:	d200      	bcs.n	80029aa <f_write+0x180>
 80029a8:	462f      	mov	r7, r5
		mem_cpy(fp->buf + fp->fptr % SS(fs), wbuff, wcnt);	/* Fit data to the sector */
 80029aa:	f104 0054 	add.w	r0, r4, #84	@ 0x54
 80029ae:	463a      	mov	r2, r7
 80029b0:	4631      	mov	r1, r6
 80029b2:	4418      	add	r0, r3
 80029b4:	f7fd fe06 	bl	80005c4 <mem_cpy>
		fp->flag |= FA_DIRTY;
 80029b8:	f894 3030 	ldrb.w	r3, [r4, #48]	@ 0x30
 80029bc:	f063 037f 	orn	r3, r3, #127	@ 0x7f
 80029c0:	f884 3030 	strb.w	r3, [r4, #48]	@ 0x30
		wbuff += wcnt, fp->fptr += wcnt, fp->obj.objsize = (fp->fptr > fp->obj.objsize) ? fp->fptr : fp->obj.objsize, *bw += wcnt, btw -= wcnt) {
 80029c4:	443e      	add	r6, r7
 80029c6:	6ba2      	ldr	r2, [r4, #56]	@ 0x38
 80029c8:	6be3      	ldr	r3, [r4, #60]	@ 0x3c
 80029ca:	18ba      	adds	r2, r7, r2
 80029cc:	f143 0300 	adc.w	r3, r3, #0
 80029d0:	63a2      	str	r2, [r4, #56]	@ 0x38
 80029d2:	63e3      	str	r3, [r4, #60]	@ 0x3c
 80029d4:	f8d4 e010 	ldr.w	lr, [r4, #16]
 80029d8:	f8d4 c014 	ldr.w	ip, [r4, #20]
 80029dc:	4610      	mov	r0, r2
 80029de:	4619      	mov	r1, r3
 80029e0:	4572      	cmp	r2, lr
 80029e2:	eb73 030c 	sbcs.w	r3, r3, ip
 80029e6:	d201      	bcs.n	80029ec <f_write+0x1c2>
 80029e8:	4670      	mov	r0, lr
 80029ea:	4661      	mov	r1, ip
 80029ec:	6120      	str	r0, [r4, #16]
 80029ee:	6161      	str	r1, [r4, #20]
 80029f0:	f8d8 3000 	ldr.w	r3, [r8]
 80029f4:	443b      	add	r3, r7
 80029f6:	f8c8 3000 	str.w	r3, [r8]
 80029fa:	1bed      	subs	r5, r5, r7
	for ( ;  btw;							/* Repeat until all data written */
 80029fc:	b365      	cbz	r5, 8002a58 <f_write+0x22e>
		if (fp->fptr % SS(fs) == 0) {		/* On the sector boundary? */
 80029fe:	6ba2      	ldr	r2, [r4, #56]	@ 0x38
 8002a00:	6be3      	ldr	r3, [r4, #60]	@ 0x3c
 8002a02:	f3c2 0108 	ubfx	r1, r2, #0, #9
 8002a06:	2900      	cmp	r1, #0
 8002a08:	d1c7      	bne.n	800299a <f_write+0x170>
			csect = (UINT)(fp->fptr / SS(fs)) & (fs->csize - 1);	/* Sector offset in the cluster */
 8002a0a:	0a57      	lsrs	r7, r2, #9
 8002a0c:	ea47 57c3 	orr.w	r7, r7, r3, lsl #23
 8002a10:	9903      	ldr	r1, [sp, #12]
 8002a12:	8949      	ldrh	r1, [r1, #10]
 8002a14:	3901      	subs	r1, #1
			if (csect == 0) {				/* On the cluster boundary? */
 8002a16:	400f      	ands	r7, r1
 8002a18:	f47f af3f 	bne.w	800289a <f_write+0x70>
				if (fp->fptr == 0) {		/* On the top of the file? */
 8002a1c:	ea52 0103 	orrs.w	r1, r2, r3
 8002a20:	f47f af29 	bne.w	8002876 <f_write+0x4c>
					clst = fp->obj.sclust;	/* Follow from the origin */
 8002a24:	68a0      	ldr	r0, [r4, #8]
					if (clst == 0) {		/* If no cluster is allocated, */
 8002a26:	2800      	cmp	r0, #0
 8002a28:	f47f af2e 	bne.w	8002888 <f_write+0x5e>
						clst = create_chain(&fp->obj, 0);	/* create a new cluster chain */
 8002a2c:	4601      	mov	r1, r0
 8002a2e:	4620      	mov	r0, r4
 8002a30:	f7fe fd7e 	bl	8001530 <create_chain>
 8002a34:	e725      	b.n	8002882 <f_write+0x58>
				disk_read(fs->drv, fp->buf, sect, 1) != RES_OK) {
 8002a36:	2301      	movs	r3, #1
 8002a38:	464a      	mov	r2, r9
 8002a3a:	f104 0154 	add.w	r1, r4, #84	@ 0x54
 8002a3e:	f89b 0001 	ldrb.w	r0, [fp, #1]
 8002a42:	f7fd fd29 	bl	8000498 <disk_read>
				fp->fptr < fp->obj.objsize &&
 8002a46:	2800      	cmp	r0, #0
 8002a48:	d0a5      	beq.n	8002996 <f_write+0x16c>
					ABORT(fs, FR_DISK_ERR);
 8002a4a:	f04f 0a01 	mov.w	sl, #1
 8002a4e:	f884 a031 	strb.w	sl, [r4, #49]	@ 0x31
 8002a52:	f8cd a004 	str.w	sl, [sp, #4]
 8002a56:	e748      	b.n	80028ea <f_write+0xc0>
	fp->flag |= FA_MODIFIED;				/* Set file change flag */
 8002a58:	f894 3030 	ldrb.w	r3, [r4, #48]	@ 0x30
 8002a5c:	f043 0340 	orr.w	r3, r3, #64	@ 0x40
 8002a60:	f884 3030 	strb.w	r3, [r4, #48]	@ 0x30
	LEAVE_FF(fs, FR_OK);
 8002a64:	e741      	b.n	80028ea <f_write+0xc0>
	if (!(fp->flag & FA_WRITE)) LEAVE_FF(fs, FR_DENIED);	/* Check access mode */
 8002a66:	2307      	movs	r3, #7
 8002a68:	9301      	str	r3, [sp, #4]
 8002a6a:	e73e      	b.n	80028ea <f_write+0xc0>

08002a6c <f_sync>:
/*-----------------------------------------------------------------------*/

FRESULT f_sync (
	FIL* fp		/* Pointer to the file object */
)
{
 8002a6c:	b570      	push	{r4, r5, r6, lr}
 8002a6e:	b098      	sub	sp, #96	@ 0x60
 8002a70:	4604      	mov	r4, r0
#if _FS_EXFAT
	DIR dj;
	DEF_NAMBUF
#endif

	res = validate(&fp->obj, &fs);	/* Check validity of the file object */
 8002a72:	a917      	add	r1, sp, #92	@ 0x5c
 8002a74:	f7fe f80f 	bl	8000a96 <validate>
	if (res == FR_OK) {
 8002a78:	b998      	cbnz	r0, 8002aa2 <f_sync+0x36>
		if (fp->flag & FA_MODIFIED) {	/* Is there any change to the file? */
 8002a7a:	f894 3030 	ldrb.w	r3, [r4, #48]	@ 0x30
 8002a7e:	f013 0f40 	tst.w	r3, #64	@ 0x40
 8002a82:	d00e      	beq.n	8002aa2 <f_sync+0x36>
#if !_FS_TINY
			if (fp->flag & FA_DIRTY) {	/* Write-back cached data if needed */
 8002a84:	f013 0f80 	tst.w	r3, #128	@ 0x80
 8002a88:	d10d      	bne.n	8002aa6 <f_sync+0x3a>
				if (disk_write(fs->drv, fp->buf, fp->sect, 1) != RES_OK) LEAVE_FF(fs, FR_DISK_ERR);
				fp->flag &= (BYTE)~FA_DIRTY;
			}
#endif
			/* Update the directory entry */
			tm = GET_FATTIME();				/* Modified time */
 8002a8a:	f7fd fd3b 	bl	8000504 <get_fattime>
 8002a8e:	4606      	mov	r6, r0
#if _FS_EXFAT
			if (fs->fs_type == FS_EXFAT) {
 8002a90:	9817      	ldr	r0, [sp, #92]	@ 0x5c
 8002a92:	7803      	ldrb	r3, [r0, #0]
 8002a94:	2b04      	cmp	r3, #4
 8002a96:	d017      	beq.n	8002ac8 <f_sync+0x5c>
					FREE_NAMBUF();
				}
			} else
#endif
			{
				res = move_window(fs, fp->dir_sect);
 8002a98:	6ca1      	ldr	r1, [r4, #72]	@ 0x48
 8002a9a:	f7fe f849 	bl	8000b30 <move_window>
				if (res == FR_OK) {
 8002a9e:	2800      	cmp	r0, #0
 8002aa0:	d061      	beq.n	8002b66 <f_sync+0xfa>
			}
		}
	}

	LEAVE_FF(fs, res);
}
 8002aa2:	b018      	add	sp, #96	@ 0x60
 8002aa4:	bd70      	pop	{r4, r5, r6, pc}
				if (disk_write(fs->drv, fp->buf, fp->sect, 1) != RES_OK) LEAVE_FF(fs, FR_DISK_ERR);
 8002aa6:	2301      	movs	r3, #1
 8002aa8:	6c62      	ldr	r2, [r4, #68]	@ 0x44
 8002aaa:	f104 0154 	add.w	r1, r4, #84	@ 0x54
 8002aae:	9817      	ldr	r0, [sp, #92]	@ 0x5c
 8002ab0:	7840      	ldrb	r0, [r0, #1]
 8002ab2:	f7fd fcff 	bl	80004b4 <disk_write>
 8002ab6:	2800      	cmp	r0, #0
 8002ab8:	d17c      	bne.n	8002bb4 <f_sync+0x148>
				fp->flag &= (BYTE)~FA_DIRTY;
 8002aba:	f894 3030 	ldrb.w	r3, [r4, #48]	@ 0x30
 8002abe:	f003 037f 	and.w	r3, r3, #127	@ 0x7f
 8002ac2:	f884 3030 	strb.w	r3, [r4, #48]	@ 0x30
 8002ac6:	e7e0      	b.n	8002a8a <f_sync+0x1e>
				res = fill_first_frag(&fp->obj);	/* Fill first fragment on the FAT if needed */
 8002ac8:	4620      	mov	r0, r4
 8002aca:	f7fe fc01 	bl	80012d0 <fill_first_frag>
				if (res == FR_OK) {
 8002ace:	2800      	cmp	r0, #0
 8002ad0:	d1e7      	bne.n	8002aa2 <f_sync+0x36>
					res = fill_last_frag(&fp->obj, fp->clust, 0xFFFFFFFF);	/* Fill last fragment on the FAT if needed */
 8002ad2:	f04f 32ff 	mov.w	r2, #4294967295	@ 0xffffffff
 8002ad6:	6c21      	ldr	r1, [r4, #64]	@ 0x40
 8002ad8:	4620      	mov	r0, r4
 8002ada:	f7fe fbe1 	bl	80012a0 <fill_last_frag>
				if (res == FR_OK) {
 8002ade:	2800      	cmp	r0, #0
 8002ae0:	d1df      	bne.n	8002aa2 <f_sync+0x36>
					res = load_obj_dir(&dj, &fp->obj);	/* Load directory entry block */
 8002ae2:	4621      	mov	r1, r4
 8002ae4:	4668      	mov	r0, sp
 8002ae6:	f7fe ff71 	bl	80019cc <load_obj_dir>
					if (res == FR_OK) {
 8002aea:	2800      	cmp	r0, #0
 8002aec:	d1d9      	bne.n	8002aa2 <f_sync+0x36>
						fs->dirbuf[XDIR_Attr] |= AM_ARC;				/* Set archive bit */
 8002aee:	9b17      	ldr	r3, [sp, #92]	@ 0x5c
 8002af0:	6919      	ldr	r1, [r3, #16]
 8002af2:	790a      	ldrb	r2, [r1, #4]
 8002af4:	f042 0220 	orr.w	r2, r2, #32
 8002af8:	710a      	strb	r2, [r1, #4]
						fs->dirbuf[XDIR_GenFlags] = fp->obj.stat | 1;	/* Update file allocation info */
 8002afa:	79e2      	ldrb	r2, [r4, #7]
 8002afc:	6919      	ldr	r1, [r3, #16]
 8002afe:	f042 0201 	orr.w	r2, r2, #1
 8002b02:	f881 2021 	strb.w	r2, [r1, #33]	@ 0x21
						st_dword(fs->dirbuf + XDIR_FstClus, fp->obj.sclust);
 8002b06:	6918      	ldr	r0, [r3, #16]
 8002b08:	68a1      	ldr	r1, [r4, #8]
 8002b0a:	3034      	adds	r0, #52	@ 0x34
 8002b0c:	f7fd fd3d 	bl	800058a <st_dword>
						st_qword(fs->dirbuf + XDIR_FileSize, fp->obj.objsize);
 8002b10:	9b17      	ldr	r3, [sp, #92]	@ 0x5c
 8002b12:	6918      	ldr	r0, [r3, #16]
 8002b14:	e9d4 2304 	ldrd	r2, r3, [r4, #16]
 8002b18:	3038      	adds	r0, #56	@ 0x38
 8002b1a:	f7fd fd40 	bl	800059e <st_qword>
						st_qword(fs->dirbuf + XDIR_ValidFileSize, fp->obj.objsize);
 8002b1e:	9b17      	ldr	r3, [sp, #92]	@ 0x5c
 8002b20:	6918      	ldr	r0, [r3, #16]
 8002b22:	e9d4 2304 	ldrd	r2, r3, [r4, #16]
 8002b26:	3028      	adds	r0, #40	@ 0x28
 8002b28:	f7fd fd39 	bl	800059e <st_qword>
						st_dword(fs->dirbuf + XDIR_ModTime, tm);		/* Update modified time */
 8002b2c:	9b17      	ldr	r3, [sp, #92]	@ 0x5c
 8002b2e:	6918      	ldr	r0, [r3, #16]
 8002b30:	4631      	mov	r1, r6
 8002b32:	300c      	adds	r0, #12
 8002b34:	f7fd fd29 	bl	800058a <st_dword>
						fs->dirbuf[XDIR_ModTime10] = 0;
 8002b38:	9b17      	ldr	r3, [sp, #92]	@ 0x5c
 8002b3a:	691a      	ldr	r2, [r3, #16]
 8002b3c:	2100      	movs	r1, #0
 8002b3e:	7551      	strb	r1, [r2, #21]
						st_dword(fs->dirbuf + XDIR_AccTime, 0);
 8002b40:	6918      	ldr	r0, [r3, #16]
 8002b42:	3010      	adds	r0, #16
 8002b44:	f7fd fd21 	bl	800058a <st_dword>
						res = store_xdir(&dj);	/* Restore it to the directory */
 8002b48:	4668      	mov	r0, sp
 8002b4a:	f7ff f801 	bl	8001b50 <store_xdir>
						if (res == FR_OK) {
 8002b4e:	2800      	cmp	r0, #0
 8002b50:	d1a7      	bne.n	8002aa2 <f_sync+0x36>
							res = sync_fs(fs);
 8002b52:	9817      	ldr	r0, [sp, #92]	@ 0x5c
 8002b54:	f7ff fc0c 	bl	8002370 <sync_fs>
							fp->flag &= (BYTE)~FA_MODIFIED;
 8002b58:	f894 3030 	ldrb.w	r3, [r4, #48]	@ 0x30
 8002b5c:	f023 0340 	bic.w	r3, r3, #64	@ 0x40
 8002b60:	f884 3030 	strb.w	r3, [r4, #48]	@ 0x30
 8002b64:	e79d      	b.n	8002aa2 <f_sync+0x36>
					dir = fp->dir_ptr;
 8002b66:	6ce2      	ldr	r2, [r4, #76]	@ 0x4c
 8002b68:	4615      	mov	r5, r2
					dir[DIR_Attr] |= AM_ARC;						/* Set archive bit */
 8002b6a:	7ad3      	ldrb	r3, [r2, #11]
 8002b6c:	f043 0320 	orr.w	r3, r3, #32
 8002b70:	4611      	mov	r1, r2
 8002b72:	72d3      	strb	r3, [r2, #11]
					st_clust(fp->obj.fs, dir, fp->obj.sclust);		/* Update file allocation info  */
 8002b74:	68a2      	ldr	r2, [r4, #8]
 8002b76:	6820      	ldr	r0, [r4, #0]
 8002b78:	f7fd fe59 	bl	800082e <st_clust>
					st_dword(dir + DIR_FileSize, (DWORD)fp->obj.objsize);	/* Update file size */
 8002b7c:	6921      	ldr	r1, [r4, #16]
 8002b7e:	f105 001c 	add.w	r0, r5, #28
 8002b82:	f7fd fd02 	bl	800058a <st_dword>
					st_dword(dir + DIR_ModTime, tm);				/* Update modified time */
 8002b86:	4631      	mov	r1, r6
 8002b88:	f105 0016 	add.w	r0, r5, #22
 8002b8c:	f7fd fcfd 	bl	800058a <st_dword>
					st_word(dir + DIR_LstAccDate, 0);
 8002b90:	2100      	movs	r1, #0
 8002b92:	f105 0012 	add.w	r0, r5, #18
 8002b96:	f7fd fcf4 	bl	8000582 <st_word>
					fs->wflag = 1;
 8002b9a:	9b17      	ldr	r3, [sp, #92]	@ 0x5c
 8002b9c:	2201      	movs	r2, #1
 8002b9e:	70da      	strb	r2, [r3, #3]
					res = sync_fs(fs);					/* Restore it to the directory */
 8002ba0:	9817      	ldr	r0, [sp, #92]	@ 0x5c
 8002ba2:	f7ff fbe5 	bl	8002370 <sync_fs>
					fp->flag &= (BYTE)~FA_MODIFIED;
 8002ba6:	f894 3030 	ldrb.w	r3, [r4, #48]	@ 0x30
 8002baa:	f023 0340 	bic.w	r3, r3, #64	@ 0x40
 8002bae:	f884 3030 	strb.w	r3, [r4, #48]	@ 0x30
 8002bb2:	e776      	b.n	8002aa2 <f_sync+0x36>
				if (disk_write(fs->drv, fp->buf, fp->sect, 1) != RES_OK) LEAVE_FF(fs, FR_DISK_ERR);
 8002bb4:	2001      	movs	r0, #1
 8002bb6:	e774      	b.n	8002aa2 <f_sync+0x36>

08002bb8 <f_close>:
/*-----------------------------------------------------------------------*/

FRESULT f_close (
	FIL* fp		/* Pointer to the file object to be closed */
)
{
 8002bb8:	b510      	push	{r4, lr}
 8002bba:	b082      	sub	sp, #8
 8002bbc:	4604      	mov	r4, r0
	FRESULT res;
	FATFS *fs;

#if !_FS_READONLY
	res = f_sync(fp);					/* Flush cached data */
 8002bbe:	f7ff ff55 	bl	8002a6c <f_sync>
	if (res == FR_OK)
 8002bc2:	b108      	cbz	r0, 8002bc8 <f_close+0x10>
			unlock_fs(fs, FR_OK);		/* Unlock volume */
#endif
		}
	}
	return res;
}
 8002bc4:	b002      	add	sp, #8
 8002bc6:	bd10      	pop	{r4, pc}
		res = validate(&fp->obj, &fs);	/* Lock volume */
 8002bc8:	a901      	add	r1, sp, #4
 8002bca:	4620      	mov	r0, r4
 8002bcc:	f7fd ff63 	bl	8000a96 <validate>
		if (res == FR_OK) {
 8002bd0:	2800      	cmp	r0, #0
 8002bd2:	d1f7      	bne.n	8002bc4 <f_close+0xc>
			res = dec_lock(fp->obj.lockid);	/* Decrement file open counter */
 8002bd4:	6ae0      	ldr	r0, [r4, #44]	@ 0x2c
 8002bd6:	f7fd fdbf 	bl	8000758 <dec_lock>
			if (res == FR_OK)
 8002bda:	2800      	cmp	r0, #0
 8002bdc:	d1f2      	bne.n	8002bc4 <f_close+0xc>
				fp->obj.fs = 0;			/* Invalidate file object */
 8002bde:	6020      	str	r0, [r4, #0]
 8002be0:	e7f0      	b.n	8002bc4 <f_close+0xc>

08002be2 <f_getfree>:
FRESULT f_getfree (
	const TCHAR* path,	/* Path name of the logical drive number */
	DWORD* nclst,		/* Pointer to a variable to return number of free clusters */
	FATFS** fatfs		/* Pointer to return pointer to corresponding file system object */
)
{
 8002be2:	e92d 47f0 	stmdb	sp!, {r4, r5, r6, r7, r8, r9, sl, lr}
 8002be6:	b090      	sub	sp, #64	@ 0x40
 8002be8:	9001      	str	r0, [sp, #4]
 8002bea:	460d      	mov	r5, r1
 8002bec:	4689      	mov	r9, r1
 8002bee:	4614      	mov	r4, r2
	BYTE *p;
	_FDID obj;


	/* Get logical drive */
	res = find_volume(&path, &fs, 0);
 8002bf0:	2200      	movs	r2, #0
 8002bf2:	a90f      	add	r1, sp, #60	@ 0x3c
 8002bf4:	a801      	add	r0, sp, #4
 8002bf6:	f7fe f801 	bl	8000bfc <find_volume>
	if (res == FR_OK) {
 8002bfa:	4680      	mov	r8, r0
 8002bfc:	2800      	cmp	r0, #0
 8002bfe:	d17c      	bne.n	8002cfa <f_getfree+0x118>
		*fatfs = fs;				/* Return ptr to the fs object */
 8002c00:	9b0f      	ldr	r3, [sp, #60]	@ 0x3c
 8002c02:	6023      	str	r3, [r4, #0]
		/* If free_clst is valid, return it without full cluster scan */
		if (fs->free_clst <= fs->n_fatent - 2) {
 8002c04:	699a      	ldr	r2, [r3, #24]
 8002c06:	69de      	ldr	r6, [r3, #28]
 8002c08:	1eb4      	subs	r4, r6, #2
 8002c0a:	42a2      	cmp	r2, r4
 8002c0c:	d801      	bhi.n	8002c12 <f_getfree+0x30>
			*nclst = fs->free_clst;
 8002c0e:	602a      	str	r2, [r5, #0]
 8002c10:	e073      	b.n	8002cfa <f_getfree+0x118>
		} else {
			/* Get number of free clusters */
			nfree = 0;
			if (fs->fs_type == FS_FAT12) {	/* FAT12: Sector unalighed FAT entries */
 8002c12:	781f      	ldrb	r7, [r3, #0]
 8002c14:	2f01      	cmp	r7, #1
 8002c16:	d007      	beq.n	8002c28 <f_getfree+0x46>
					if (stat == 1) { res = FR_INT_ERR; break; }
					if (stat == 0) nfree++;
				} while (++clst < fs->n_fatent);
			} else {
#if _FS_EXFAT
				if (fs->fs_type == FS_EXFAT) {	/* exFAT: Scan bitmap table */
 8002c18:	2f04      	cmp	r7, #4
 8002c1a:	d01b      	beq.n	8002c54 <f_getfree+0x72>
						i = (i + 1) % SS(fs);
					} while (clst);
				} else
#endif
				{	/* FAT16/32: Sector alighed FAT entries */
					clst = fs->n_fatent; sect = fs->fatbase;
 8002c1c:	6a9b      	ldr	r3, [r3, #40]	@ 0x28
 8002c1e:	469a      	mov	sl, r3
					i = 0; p = 0;
 8002c20:	2400      	movs	r4, #0
 8002c22:	4627      	mov	r7, r4
			nfree = 0;
 8002c24:	4625      	mov	r5, r4
 8002c26:	e051      	b.n	8002ccc <f_getfree+0xea>
				clst = 2; obj.fs = fs;
 8002c28:	9302      	str	r3, [sp, #8]
 8002c2a:	2402      	movs	r4, #2
			nfree = 0;
 8002c2c:	2500      	movs	r5, #0
 8002c2e:	e004      	b.n	8002c3a <f_getfree+0x58>
				} while (++clst < fs->n_fatent);
 8002c30:	3401      	adds	r4, #1
 8002c32:	9b0f      	ldr	r3, [sp, #60]	@ 0x3c
 8002c34:	69db      	ldr	r3, [r3, #28]
 8002c36:	42a3      	cmp	r3, r4
 8002c38:	d957      	bls.n	8002cea <f_getfree+0x108>
					stat = get_fat(&obj, clst);
 8002c3a:	4621      	mov	r1, r4
 8002c3c:	a802      	add	r0, sp, #8
 8002c3e:	f7fe fb60 	bl	8001302 <get_fat>
					if (stat == 0xFFFFFFFF) { res = FR_DISK_ERR; break; }
 8002c42:	f1b0 3fff 	cmp.w	r0, #4294967295	@ 0xffffffff
 8002c46:	d04f      	beq.n	8002ce8 <f_getfree+0x106>
					if (stat == 1) { res = FR_INT_ERR; break; }
 8002c48:	2801      	cmp	r0, #1
 8002c4a:	d05a      	beq.n	8002d02 <f_getfree+0x120>
					if (stat == 0) nfree++;
 8002c4c:	2800      	cmp	r0, #0
 8002c4e:	d1ef      	bne.n	8002c30 <f_getfree+0x4e>
 8002c50:	3501      	adds	r5, #1
 8002c52:	e7ed      	b.n	8002c30 <f_getfree+0x4e>
					sect = fs->database;
 8002c54:	6b19      	ldr	r1, [r3, #48]	@ 0x30
					i = 0;
 8002c56:	2600      	movs	r6, #0
			nfree = 0;
 8002c58:	4635      	mov	r5, r6
 8002c5a:	e016      	b.n	8002c8a <f_getfree+0xa8>
						if (i == 0 && (res = move_window(fs, sect++)) != FR_OK) break;
 8002c5c:	1c4f      	adds	r7, r1, #1
 8002c5e:	980f      	ldr	r0, [sp, #60]	@ 0x3c
 8002c60:	f7fd ff66 	bl	8000b30 <move_window>
 8002c64:	4680      	mov	r8, r0
 8002c66:	2800      	cmp	r0, #0
 8002c68:	d13f      	bne.n	8002cea <f_getfree+0x108>
 8002c6a:	4639      	mov	r1, r7
 8002c6c:	e00f      	b.n	8002c8e <f_getfree+0xac>
							bm >>= 1;
 8002c6e:	0852      	lsrs	r2, r2, #1
						for (b = 8, bm = fs->win[i]; b && clst; b--, clst--) {
 8002c70:	3b01      	subs	r3, #1
 8002c72:	3c01      	subs	r4, #1
 8002c74:	b12b      	cbz	r3, 8002c82 <f_getfree+0xa0>
 8002c76:	b124      	cbz	r4, 8002c82 <f_getfree+0xa0>
							if (!(bm & 1)) nfree++;
 8002c78:	f012 0f01 	tst.w	r2, #1
 8002c7c:	d1f7      	bne.n	8002c6e <f_getfree+0x8c>
 8002c7e:	3501      	adds	r5, #1
 8002c80:	e7f5      	b.n	8002c6e <f_getfree+0x8c>
						i = (i + 1) % SS(fs);
 8002c82:	3601      	adds	r6, #1
 8002c84:	f3c6 0608 	ubfx	r6, r6, #0, #9
					} while (clst);
 8002c88:	b37c      	cbz	r4, 8002cea <f_getfree+0x108>
						if (i == 0 && (res = move_window(fs, sect++)) != FR_OK) break;
 8002c8a:	2e00      	cmp	r6, #0
 8002c8c:	d0e6      	beq.n	8002c5c <f_getfree+0x7a>
						for (b = 8, bm = fs->win[i]; b && clst; b--, clst--) {
 8002c8e:	9b0f      	ldr	r3, [sp, #60]	@ 0x3c
 8002c90:	4433      	add	r3, r6
 8002c92:	f893 2038 	ldrb.w	r2, [r3, #56]	@ 0x38
 8002c96:	2308      	movs	r3, #8
 8002c98:	e7ec      	b.n	8002c74 <f_getfree+0x92>
					do {
						if (i == 0) {
							res = move_window(fs, sect++);
 8002c9a:	4651      	mov	r1, sl
 8002c9c:	1c4f      	adds	r7, r1, #1
 8002c9e:	980f      	ldr	r0, [sp, #60]	@ 0x3c
 8002ca0:	f7fd ff46 	bl	8000b30 <move_window>
							if (res != FR_OK) break;
 8002ca4:	4680      	mov	r8, r0
 8002ca6:	bb00      	cbnz	r0, 8002cea <f_getfree+0x108>
							p = fs->win;
 8002ca8:	9c0f      	ldr	r4, [sp, #60]	@ 0x3c
 8002caa:	3438      	adds	r4, #56	@ 0x38
							res = move_window(fs, sect++);
 8002cac:	46ba      	mov	sl, r7
							i = SS(fs);
 8002cae:	f44f 7700 	mov.w	r7, #512	@ 0x200
 8002cb2:	e00d      	b.n	8002cd0 <f_getfree+0xee>
						}
						if (fs->fs_type == FS_FAT16) {
							if (ld_word(p) == 0) nfree++;
 8002cb4:	4620      	mov	r0, r4
 8002cb6:	f7fd fc32 	bl	800051e <ld_word>
 8002cba:	b900      	cbnz	r0, 8002cbe <f_getfree+0xdc>
 8002cbc:	3501      	adds	r5, #1
							p += 2; i -= 2;
 8002cbe:	3402      	adds	r4, #2
 8002cc0:	3f02      	subs	r7, #2
 8002cc2:	e001      	b.n	8002cc8 <f_getfree+0xe6>
						} else {
							if ((ld_dword(p) & 0x0FFFFFFF) == 0) nfree++;
							p += 4; i -= 4;
 8002cc4:	3404      	adds	r4, #4
 8002cc6:	3f04      	subs	r7, #4
						}
					} while (--clst);
 8002cc8:	3e01      	subs	r6, #1
 8002cca:	d00e      	beq.n	8002cea <f_getfree+0x108>
						if (i == 0) {
 8002ccc:	2f00      	cmp	r7, #0
 8002cce:	d0e4      	beq.n	8002c9a <f_getfree+0xb8>
						if (fs->fs_type == FS_FAT16) {
 8002cd0:	9b0f      	ldr	r3, [sp, #60]	@ 0x3c
 8002cd2:	781b      	ldrb	r3, [r3, #0]
 8002cd4:	2b02      	cmp	r3, #2
 8002cd6:	d0ed      	beq.n	8002cb4 <f_getfree+0xd2>
							if ((ld_dword(p) & 0x0FFFFFFF) == 0) nfree++;
 8002cd8:	4620      	mov	r0, r4
 8002cda:	f7fd fc25 	bl	8000528 <ld_dword>
 8002cde:	f030 4370 	bics.w	r3, r0, #4026531840	@ 0xf0000000
 8002ce2:	d1ef      	bne.n	8002cc4 <f_getfree+0xe2>
 8002ce4:	3501      	adds	r5, #1
 8002ce6:	e7ed      	b.n	8002cc4 <f_getfree+0xe2>
					if (stat == 0xFFFFFFFF) { res = FR_DISK_ERR; break; }
 8002ce8:	46b8      	mov	r8, r7
				}
			}
			*nclst = nfree;			/* Return the free clusters */
 8002cea:	f8c9 5000 	str.w	r5, [r9]
			fs->free_clst = nfree;	/* Now free_clst is valid */
 8002cee:	9b0f      	ldr	r3, [sp, #60]	@ 0x3c
 8002cf0:	619d      	str	r5, [r3, #24]
			fs->fsi_flag |= 1;		/* FSInfo is to be updated */
 8002cf2:	791a      	ldrb	r2, [r3, #4]
 8002cf4:	f042 0201 	orr.w	r2, r2, #1
 8002cf8:	711a      	strb	r2, [r3, #4]
		}
	}

	LEAVE_FF(fs, res);
}
 8002cfa:	4640      	mov	r0, r8
 8002cfc:	b010      	add	sp, #64	@ 0x40
 8002cfe:	e8bd 87f0 	ldmia.w	sp!, {r4, r5, r6, r7, r8, r9, sl, pc}
					if (stat == 1) { res = FR_INT_ERR; break; }
 8002d02:	2302      	movs	r3, #2
 8002d04:	4698      	mov	r8, r3
 8002d06:	e7f0      	b.n	8002cea <f_getfree+0x108>

08002d08 <FATFS_LinkDriverEx>:
uint8_t FATFS_LinkDriverEx(const Diskio_drvTypeDef *drv, char *path, uint8_t lun)
{
  uint8_t ret = 1;
  uint8_t DiskNum = 0;

  if(disk.nbr < _VOLUMES)
 8002d08:	4b15      	ldr	r3, [pc, #84]	@ (8002d60 <FATFS_LinkDriverEx+0x58>)
 8002d0a:	7a5b      	ldrb	r3, [r3, #9]
 8002d0c:	bb33      	cbnz	r3, 8002d5c <FATFS_LinkDriverEx+0x54>
{
 8002d0e:	b510      	push	{r4, lr}
 8002d10:	4684      	mov	ip, r0
 8002d12:	f003 00ff 	and.w	r0, r3, #255	@ 0xff
  {
    disk.is_initialized[disk.nbr] = 0;
 8002d16:	4b12      	ldr	r3, [pc, #72]	@ (8002d60 <FATFS_LinkDriverEx+0x58>)
 8002d18:	f893 e009 	ldrb.w	lr, [r3, #9]
 8002d1c:	fa5f fe8e 	uxtb.w	lr, lr
 8002d20:	f04f 0400 	mov.w	r4, #0
 8002d24:	f803 400e 	strb.w	r4, [r3, lr]
    disk.drv[disk.nbr] = drv;
 8002d28:	f893 e009 	ldrb.w	lr, [r3, #9]
 8002d2c:	eb03 0e8e 	add.w	lr, r3, lr, lsl #2
 8002d30:	f8ce c004 	str.w	ip, [lr, #4]
    disk.lun[disk.nbr] = lun;
 8002d34:	f893 c009 	ldrb.w	ip, [r3, #9]
 8002d38:	449c      	add	ip, r3
 8002d3a:	f88c 2008 	strb.w	r2, [ip, #8]
    DiskNum = disk.nbr++;
 8002d3e:	7a5a      	ldrb	r2, [r3, #9]
 8002d40:	f102 0c01 	add.w	ip, r2, #1
 8002d44:	fa5f fc8c 	uxtb.w	ip, ip
 8002d48:	f883 c009 	strb.w	ip, [r3, #9]
    path[0] = DiskNum + '0';
 8002d4c:	3230      	adds	r2, #48	@ 0x30
 8002d4e:	700a      	strb	r2, [r1, #0]
    path[1] = ':';
 8002d50:	233a      	movs	r3, #58	@ 0x3a
 8002d52:	704b      	strb	r3, [r1, #1]
    path[2] = '/';
 8002d54:	232f      	movs	r3, #47	@ 0x2f
 8002d56:	708b      	strb	r3, [r1, #2]
    path[3] = 0;
 8002d58:	70cc      	strb	r4, [r1, #3]
    ret = 0;
  }

  return ret;
}
 8002d5a:	bd10      	pop	{r4, pc}
  uint8_t ret = 1;
 8002d5c:	2001      	movs	r0, #1
}
 8002d5e:	4770      	bx	lr
 8002d60:	200009a0 	.word	0x200009a0

08002d64 <FATFS_LinkDriver>:
  * @param  drv: pointer to the disk IO Driver structure
  * @param  path: pointer to the logical drive path
  * @retval Returns 0 in case of success, otherwise 1.
  */
uint8_t FATFS_LinkDriver(const Diskio_drvTypeDef *drv, char *path)
{
 8002d64:	b508      	push	{r3, lr}
  return FATFS_LinkDriverEx(drv, path, 0);
 8002d66:	2200      	movs	r2, #0
 8002d68:	f7ff ffce 	bl	8002d08 <FATFS_LinkDriverEx>
}
 8002d6c:	bd08      	pop	{r3, pc}
	...

08002d70 <MX_GPIO_Init>:
  * @brief GPIO Initialization Function
  * @param None
  * @retval None
  */
static void MX_GPIO_Init(void)
{
 8002d70:	e92d 41f0 	stmdb	sp!, {r4, r5, r6, r7, r8, lr}
 8002d74:	b08a      	sub	sp, #40	@ 0x28
  GPIO_InitTypeDef GPIO_InitStruct = {0};
 8002d76:	ad05      	add	r5, sp, #20
 8002d78:	2400      	movs	r4, #0
 8002d7a:	9405      	str	r4, [sp, #20]
 8002d7c:	9406      	str	r4, [sp, #24]
 8002d7e:	9407      	str	r4, [sp, #28]
 8002d80:	9408      	str	r4, [sp, #32]
 8002d82:	9409      	str	r4, [sp, #36]	@ 0x24
  /* USER CODE BEGIN MX_GPIO_Init_1 */

  /* USER CODE END MX_GPIO_Init_1 */

  /* GPIO Ports Clock Enable */
  __HAL_RCC_GPIOC_CLK_ENABLE();
 8002d84:	4b3b      	ldr	r3, [pc, #236]	@ (8002e74 <MX_GPIO_Init+0x104>)
 8002d86:	6cda      	ldr	r2, [r3, #76]	@ 0x4c
 8002d88:	f042 0204 	orr.w	r2, r2, #4
 8002d8c:	64da      	str	r2, [r3, #76]	@ 0x4c
 8002d8e:	6cda      	ldr	r2, [r3, #76]	@ 0x4c
 8002d90:	f002 0204 	and.w	r2, r2, #4
 8002d94:	9201      	str	r2, [sp, #4]
 8002d96:	9a01      	ldr	r2, [sp, #4]
  __HAL_RCC_GPIOA_CLK_ENABLE();
 8002d98:	6cda      	ldr	r2, [r3, #76]	@ 0x4c
 8002d9a:	f042 0201 	orr.w	r2, r2, #1
 8002d9e:	64da      	str	r2, [r3, #76]	@ 0x4c
 8002da0:	6cda      	ldr	r2, [r3, #76]	@ 0x4c
 8002da2:	f002 0201 	and.w	r2, r2, #1
 8002da6:	9202      	str	r2, [sp, #8]
 8002da8:	9a02      	ldr	r2, [sp, #8]
  __HAL_RCC_GPIOB_CLK_ENABLE();
 8002daa:	6cda      	ldr	r2, [r3, #76]	@ 0x4c
 8002dac:	f042 0202 	orr.w	r2, r2, #2
 8002db0:	64da      	str	r2, [r3, #76]	@ 0x4c
 8002db2:	6cda      	ldr	r2, [r3, #76]	@ 0x4c
 8002db4:	f002 0202 	and.w	r2, r2, #2
 8002db8:	9203      	str	r2, [sp, #12]
 8002dba:	9a03      	ldr	r2, [sp, #12]
  __HAL_RCC_GPIOD_CLK_ENABLE();
 8002dbc:	6cda      	ldr	r2, [r3, #76]	@ 0x4c
 8002dbe:	f042 0208 	orr.w	r2, r2, #8
 8002dc2:	64da      	str	r2, [r3, #76]	@ 0x4c
 8002dc4:	6cdb      	ldr	r3, [r3, #76]	@ 0x4c
 8002dc6:	f003 0308 	and.w	r3, r3, #8
 8002dca:	9304      	str	r3, [sp, #16]
 8002dcc:	9b04      	ldr	r3, [sp, #16]

  /*Configure GPIO pin Output Level */
  HAL_GPIO_WritePin(GPIOC, Wi_EN_Pin|Wi_RST_Pin|Wi_WAKE_Pin|Wi_GPIO_0_Pin, GPIO_PIN_RESET);
 8002dce:	f8df 80ac 	ldr.w	r8, [pc, #172]	@ 8002e7c <MX_GPIO_Init+0x10c>
 8002dd2:	4622      	mov	r2, r4
 8002dd4:	21cc      	movs	r1, #204	@ 0xcc
 8002dd6:	4640      	mov	r0, r8
 8002dd8:	f001 f825 	bl	8003e26 <HAL_GPIO_WritePin>

  /*Configure GPIO pin Output Level */
  HAL_GPIO_WritePin(GPIOB, Wi_PWR_CTRL_Pin|Lo_PWR_CTRL_Pin|SD0_PWR_CTRL_Pin|Lo_GPIO_0_Pin
 8002ddc:	4e26      	ldr	r6, [pc, #152]	@ (8002e78 <MX_GPIO_Init+0x108>)
 8002dde:	4622      	mov	r2, r4
 8002de0:	f641 4107 	movw	r1, #7175	@ 0x1c07
 8002de4:	4630      	mov	r0, r6
 8002de6:	f001 f81e 	bl	8003e26 <HAL_GPIO_WritePin>
                          |Lo_GPIO_1_Pin|Lo_GPIO_2_Pin, GPIO_PIN_RESET);

  /*Configure GPIO pins : Wi_EN_Pin Wi_RST_Pin Wi_WAKE_Pin Wi_GPIO_0_Pin */
  GPIO_InitStruct.Pin = Wi_EN_Pin|Wi_RST_Pin|Wi_WAKE_Pin|Wi_GPIO_0_Pin;
 8002dea:	23cc      	movs	r3, #204	@ 0xcc
 8002dec:	9305      	str	r3, [sp, #20]
  GPIO_InitStruct.Mode = GPIO_MODE_OUTPUT_PP;
 8002dee:	2701      	movs	r7, #1
 8002df0:	9706      	str	r7, [sp, #24]
  GPIO_InitStruct.Pull = GPIO_NOPULL;
 8002df2:	9407      	str	r4, [sp, #28]
  GPIO_InitStruct.Speed = GPIO_SPEED_FREQ_LOW;
 8002df4:	9408      	str	r4, [sp, #32]
  HAL_GPIO_Init(GPIOC, &GPIO_InitStruct);
 8002df6:	4629      	mov	r1, r5
 8002df8:	4640      	mov	r0, r8
 8002dfa:	f000 feff 	bl	8003bfc <HAL_GPIO_Init>

  /*Configure GPIO pin : SD_GPIO_INPUT_Pin */
  GPIO_InitStruct.Pin = SD_GPIO_INPUT_Pin;
 8002dfe:	2310      	movs	r3, #16
 8002e00:	9305      	str	r3, [sp, #20]
  GPIO_InitStruct.Mode = GPIO_MODE_INPUT;
 8002e02:	9406      	str	r4, [sp, #24]
  GPIO_InitStruct.Pull = GPIO_PULLDOWN;
 8002e04:	2302      	movs	r3, #2
 8002e06:	9307      	str	r3, [sp, #28]
  HAL_GPIO_Init(SD_GPIO_INPUT_GPIO_Port, &GPIO_InitStruct);
 8002e08:	4629      	mov	r1, r5
 8002e0a:	f04f 4090 	mov.w	r0, #1207959552	@ 0x48000000
 8002e0e:	f000 fef5 	bl	8003bfc <HAL_GPIO_Init>

  /*Configure GPIO pins : Wi_PWR_CTRL_Pin Lo_PWR_CTRL_Pin SD0_PWR_CTRL_Pin Lo_GPIO_0_Pin
                           Lo_GPIO_1_Pin Lo_GPIO_2_Pin */
  GPIO_InitStruct.Pin = Wi_PWR_CTRL_Pin|Lo_PWR_CTRL_Pin|SD0_PWR_CTRL_Pin|Lo_GPIO_0_Pin
 8002e12:	f641 4307 	movw	r3, #7175	@ 0x1c07
 8002e16:	9305      	str	r3, [sp, #20]
                          |Lo_GPIO_1_Pin|Lo_GPIO_2_Pin;
  GPIO_InitStruct.Mode = GPIO_MODE_OUTPUT_PP;
 8002e18:	9706      	str	r7, [sp, #24]
  GPIO_InitStruct.Pull = GPIO_NOPULL;
 8002e1a:	9407      	str	r4, [sp, #28]
  GPIO_InitStruct.Speed = GPIO_SPEED_FREQ_LOW;
 8002e1c:	9408      	str	r4, [sp, #32]
  HAL_GPIO_Init(GPIOB, &GPIO_InitStruct);
 8002e1e:	4629      	mov	r1, r5
 8002e20:	4630      	mov	r0, r6
 8002e22:	f000 feeb 	bl	8003bfc <HAL_GPIO_Init>

  /*Configure GPIO pin : D_WAKE_Pin */
  GPIO_InitStruct.Pin = D_WAKE_Pin;
 8002e26:	f44f 6300 	mov.w	r3, #2048	@ 0x800
 8002e2a:	9305      	str	r3, [sp, #20]
  GPIO_InitStruct.Mode = GPIO_MODE_IT_RISING;
 8002e2c:	f44f 1388 	mov.w	r3, #1114112	@ 0x110000
 8002e30:	9306      	str	r3, [sp, #24]
  GPIO_InitStruct.Pull = GPIO_NOPULL;
 8002e32:	9407      	str	r4, [sp, #28]
  HAL_GPIO_Init(D_WAKE_GPIO_Port, &GPIO_InitStruct);
 8002e34:	4629      	mov	r1, r5
 8002e36:	f04f 4090 	mov.w	r0, #1207959552	@ 0x48000000
 8002e3a:	f000 fedf 	bl	8003bfc <HAL_GPIO_Init>

  /*Configure GPIO pin : D_GPIO0_Pin */
  GPIO_InitStruct.Pin = D_GPIO0_Pin;
 8002e3e:	f44f 5380 	mov.w	r3, #4096	@ 0x1000
 8002e42:	9305      	str	r3, [sp, #20]
  GPIO_InitStruct.Mode = GPIO_MODE_INPUT;
 8002e44:	9406      	str	r4, [sp, #24]
  GPIO_InitStruct.Pull = GPIO_NOPULL;
 8002e46:	9407      	str	r4, [sp, #28]
  HAL_GPIO_Init(D_GPIO0_GPIO_Port, &GPIO_InitStruct);
 8002e48:	4629      	mov	r1, r5
 8002e4a:	f04f 4090 	mov.w	r0, #1207959552	@ 0x48000000
 8002e4e:	f000 fed5 	bl	8003bfc <HAL_GPIO_Init>

  /* EXTI interrupt init*/
  HAL_NVIC_SetPriority(EXTI15_10_IRQn, 14, 0);
 8002e52:	4622      	mov	r2, r4
 8002e54:	210e      	movs	r1, #14
 8002e56:	2028      	movs	r0, #40	@ 0x28
 8002e58:	f000 fd4c 	bl	80038f4 <HAL_NVIC_SetPriority>
  HAL_NVIC_EnableIRQ(EXTI15_10_IRQn);
 8002e5c:	2028      	movs	r0, #40	@ 0x28
 8002e5e:	f000 fd59 	bl	8003914 <HAL_NVIC_EnableIRQ>

  /* USER CODE BEGIN MX_GPIO_Init_2 */
  // SET SD CARD HIGH FOR TESTING : TODO REMOVE
  HAL_GPIO_WritePin(SD0_PWR_CTRL_GPIO_Port, SD0_PWR_CTRL_Pin, GPIO_PIN_SET);
 8002e62:	463a      	mov	r2, r7
 8002e64:	2104      	movs	r1, #4
 8002e66:	4630      	mov	r0, r6
 8002e68:	f000 ffdd 	bl	8003e26 <HAL_GPIO_WritePin>
  /* USER CODE END MX_GPIO_Init_2 */
}
 8002e6c:	b00a      	add	sp, #40	@ 0x28
 8002e6e:	e8bd 81f0 	ldmia.w	sp!, {r4, r5, r6, r7, r8, pc}
 8002e72:	bf00      	nop
 8002e74:	40021000 	.word	0x40021000
 8002e78:	48000400 	.word	0x48000400
 8002e7c:	48000800 	.word	0x48000800

08002e80 <MX_DMA_Init>:
{
 8002e80:	b500      	push	{lr}
 8002e82:	b083      	sub	sp, #12
  __HAL_RCC_DMA1_CLK_ENABLE();
 8002e84:	4b09      	ldr	r3, [pc, #36]	@ (8002eac <MX_DMA_Init+0x2c>)
 8002e86:	6c9a      	ldr	r2, [r3, #72]	@ 0x48
 8002e88:	f042 0201 	orr.w	r2, r2, #1
 8002e8c:	649a      	str	r2, [r3, #72]	@ 0x48
 8002e8e:	6c9b      	ldr	r3, [r3, #72]	@ 0x48
 8002e90:	f003 0301 	and.w	r3, r3, #1
 8002e94:	9301      	str	r3, [sp, #4]
 8002e96:	9b01      	ldr	r3, [sp, #4]
  HAL_NVIC_SetPriority(DMA1_Channel5_IRQn, 14, 0);
 8002e98:	2200      	movs	r2, #0
 8002e9a:	210e      	movs	r1, #14
 8002e9c:	200f      	movs	r0, #15
 8002e9e:	f000 fd29 	bl	80038f4 <HAL_NVIC_SetPriority>
  HAL_NVIC_EnableIRQ(DMA1_Channel5_IRQn);
 8002ea2:	200f      	movs	r0, #15
 8002ea4:	f000 fd36 	bl	8003914 <HAL_NVIC_EnableIRQ>
}
 8002ea8:	b003      	add	sp, #12
 8002eaa:	bd00      	pop	{pc}
 8002eac:	40021000 	.word	0x40021000

08002eb0 <UART_SendString>:
/**
 * @brief Sends a string over the specified UART peripheral.
 * @param huart: Pointer to the UART handle (e.g., &huart3)
 * @param str: The string to be sent
 */
static void UART_SendString(UART_HandleTypeDef *huart, char *str) {
 8002eb0:	b538      	push	{r3, r4, r5, lr}
 8002eb2:	4605      	mov	r5, r0
 8002eb4:	460c      	mov	r4, r1
    HAL_UART_Transmit(huart, (uint8_t*)str, strlen(str), HAL_MAX_DELAY);
 8002eb6:	4608      	mov	r0, r1
 8002eb8:	f7fd f96a 	bl	8000190 <strlen>
 8002ebc:	f04f 33ff 	mov.w	r3, #4294967295	@ 0xffffffff
 8002ec0:	b282      	uxth	r2, r0
 8002ec2:	4621      	mov	r1, r4
 8002ec4:	4628      	mov	r0, r5
 8002ec6:	f004 faf2 	bl	80074ae <HAL_UART_Transmit>
}
 8002eca:	bd38      	pop	{r3, r4, r5, pc}

08002ecc <SD_RawWriteTest>:
    // Send the formatted string via your UART function
    UART_SendString(&huart3, msg);
}

// Direct SDMMC write/read-back test — no FatFS involved
void SD_RawWriteTest(void) {
 8002ecc:	b530      	push	{r4, r5, lr}
 8002ece:	b093      	sub	sp, #76	@ 0x4c
    char uart[64];

    // Fill write buffer with known pattern
    for (int i = 0; i < 512; i++) {
 8002ed0:	2300      	movs	r3, #0
 8002ed2:	e002      	b.n	8002eda <SD_RawWriteTest+0xe>
        writeBuf[i] = (uint8_t)(i & 0xFF);
 8002ed4:	4a56      	ldr	r2, [pc, #344]	@ (8003030 <SD_RawWriteTest+0x164>)
 8002ed6:	54d3      	strb	r3, [r2, r3]
    for (int i = 0; i < 512; i++) {
 8002ed8:	3301      	adds	r3, #1
 8002eda:	f5b3 7f00 	cmp.w	r3, #512	@ 0x200
 8002ede:	dbf9      	blt.n	8002ed4 <SD_RawWriteTest+0x8>
    }
    memset(readBuf, 0xAA, sizeof(readBuf)); // fill read buf with garbage first
 8002ee0:	f44f 7200 	mov.w	r2, #512	@ 0x200
 8002ee4:	21aa      	movs	r1, #170	@ 0xaa
 8002ee6:	4853      	ldr	r0, [pc, #332]	@ (8003034 <SD_RawWriteTest+0x168>)
 8002ee8:	f005 f836 	bl	8007f58 <memset>

    UART_SendString(&huart3, "\r\n--- RAW HAL SD TEST ---\r\n");
 8002eec:	4952      	ldr	r1, [pc, #328]	@ (8003038 <SD_RawWriteTest+0x16c>)
 8002eee:	4853      	ldr	r0, [pc, #332]	@ (800303c <SD_RawWriteTest+0x170>)
 8002ef0:	f7ff ffde 	bl	8002eb0 <UART_SendString>

    // --- WRITE ---
    HAL_StatusTypeDef wStat = HAL_SD_WriteBlocks(&hsd1, writeBuf, 100, 1, 5000);
 8002ef4:	f241 3388 	movw	r3, #5000	@ 0x1388
 8002ef8:	9300      	str	r3, [sp, #0]
 8002efa:	2301      	movs	r3, #1
 8002efc:	2264      	movs	r2, #100	@ 0x64
 8002efe:	494c      	ldr	r1, [pc, #304]	@ (8003030 <SD_RawWriteTest+0x164>)
 8002f00:	484f      	ldr	r0, [pc, #316]	@ (8003040 <SD_RawWriteTest+0x174>)
 8002f02:	f003 fb01 	bl	8006508 <HAL_SD_WriteBlocks>
    snprintf(uart, sizeof(uart), "WriteBlocks: %s (%d)\r\n",
 8002f06:	4604      	mov	r4, r0
 8002f08:	b9f8      	cbnz	r0, 8002f4a <SD_RawWriteTest+0x7e>
 8002f0a:	4b4e      	ldr	r3, [pc, #312]	@ (8003044 <SD_RawWriteTest+0x178>)
 8002f0c:	ad02      	add	r5, sp, #8
 8002f0e:	9400      	str	r4, [sp, #0]
 8002f10:	4a4d      	ldr	r2, [pc, #308]	@ (8003048 <SD_RawWriteTest+0x17c>)
 8002f12:	2140      	movs	r1, #64	@ 0x40
 8002f14:	4628      	mov	r0, r5
 8002f16:	f004 ffcb 	bl	8007eb0 <sniprintf>
             wStat == HAL_OK ? "HAL_OK" : "FAILED", wStat);
    UART_SendString(&huart3, uart);
 8002f1a:	4629      	mov	r1, r5
 8002f1c:	4847      	ldr	r0, [pc, #284]	@ (800303c <SD_RawWriteTest+0x170>)
 8002f1e:	f7ff ffc7 	bl	8002eb0 <UART_SendString>

    if (wStat != HAL_OK) {
 8002f22:	b9a4      	cbnz	r4, 8002f4e <SD_RawWriteTest+0x82>
        return;
    }


    // --- WAIT for card to finish ---
    uint32_t t = HAL_GetTick();
 8002f24:	f000 fc74 	bl	8003810 <HAL_GetTick>
 8002f28:	4604      	mov	r4, r0
    while (HAL_SD_GetCardState(&hsd1) != HAL_SD_CARD_TRANSFER) {
 8002f2a:	4845      	ldr	r0, [pc, #276]	@ (8003040 <SD_RawWriteTest+0x174>)
 8002f2c:	f003 ffa3 	bl	8006e76 <HAL_SD_GetCardState>
 8002f30:	2804      	cmp	r0, #4
 8002f32:	d027      	beq.n	8002f84 <SD_RawWriteTest+0xb8>
        if (HAL_GetTick() - t > 2000) {
 8002f34:	f000 fc6c 	bl	8003810 <HAL_GetTick>
 8002f38:	1b00      	subs	r0, r0, r4
 8002f3a:	f5b0 6ffa 	cmp.w	r0, #2000	@ 0x7d0
 8002f3e:	d9f4      	bls.n	8002f2a <SD_RawWriteTest+0x5e>
            UART_SendString(&huart3, "Timeout waiting for card after write!\r\n");
 8002f40:	4942      	ldr	r1, [pc, #264]	@ (800304c <SD_RawWriteTest+0x180>)
 8002f42:	483e      	ldr	r0, [pc, #248]	@ (800303c <SD_RawWriteTest+0x170>)
 8002f44:	f7ff ffb4 	bl	8002eb0 <UART_SendString>
            return;
 8002f48:	e01a      	b.n	8002f80 <SD_RawWriteTest+0xb4>
    snprintf(uart, sizeof(uart), "WriteBlocks: %s (%d)\r\n",
 8002f4a:	4b41      	ldr	r3, [pc, #260]	@ (8003050 <SD_RawWriteTest+0x184>)
 8002f4c:	e7de      	b.n	8002f0c <SD_RawWriteTest+0x40>
        HAL_SD_CardStateTypeDef state = HAL_SD_GetCardState(&hsd1);
 8002f4e:	4d3c      	ldr	r5, [pc, #240]	@ (8003040 <SD_RawWriteTest+0x174>)
 8002f50:	4628      	mov	r0, r5
 8002f52:	f003 ff90 	bl	8006e76 <HAL_SD_GetCardState>
 8002f56:	4603      	mov	r3, r0
        snprintf(uart, sizeof(uart), "Card state after write: %d\r\n", (int)state);
 8002f58:	ac02      	add	r4, sp, #8
 8002f5a:	4a3e      	ldr	r2, [pc, #248]	@ (8003054 <SD_RawWriteTest+0x188>)
 8002f5c:	2140      	movs	r1, #64	@ 0x40
 8002f5e:	4620      	mov	r0, r4
 8002f60:	f004 ffa6 	bl	8007eb0 <sniprintf>
        UART_SendString(&huart3, uart);
 8002f64:	4621      	mov	r1, r4
 8002f66:	4835      	ldr	r0, [pc, #212]	@ (800303c <SD_RawWriteTest+0x170>)
 8002f68:	f7ff ffa2 	bl	8002eb0 <UART_SendString>
        uint32_t sdErr = hsd1.ErrorCode;    // FAILS WITH SDMMC_ERROR_CMD_CRC_FAIL implying signal integrity issue. 
 8002f6c:	6bab      	ldr	r3, [r5, #56]	@ 0x38
        snprintf(uart, sizeof(uart), "SD ErrorCode: 0x%08lX\r\n", (unsigned long)sdErr);
 8002f6e:	4a3a      	ldr	r2, [pc, #232]	@ (8003058 <SD_RawWriteTest+0x18c>)
 8002f70:	2140      	movs	r1, #64	@ 0x40
 8002f72:	4620      	mov	r0, r4
 8002f74:	f004 ff9c 	bl	8007eb0 <sniprintf>
        UART_SendString(&huart3, uart);
 8002f78:	4621      	mov	r1, r4
 8002f7a:	4830      	ldr	r0, [pc, #192]	@ (800303c <SD_RawWriteTest+0x170>)
 8002f7c:	f7ff ff98 	bl	8002eb0 <UART_SendString>

    snprintf(uart, sizeof(uart), "Verify: %s (%d mismatches)\r\n",
             mismatches == 0 ? "PASS" : "FAIL", mismatches);
    UART_SendString(&huart3, uart);
    UART_SendString(&huart3, "--- END RAW TEST ---\r\n\r\n");
}
 8002f80:	b013      	add	sp, #76	@ 0x4c
 8002f82:	bd30      	pop	{r4, r5, pc}
    UART_SendString(&huart3, "Card ready after write.\r\n");
 8002f84:	4935      	ldr	r1, [pc, #212]	@ (800305c <SD_RawWriteTest+0x190>)
 8002f86:	482d      	ldr	r0, [pc, #180]	@ (800303c <SD_RawWriteTest+0x170>)
 8002f88:	f7ff ff92 	bl	8002eb0 <UART_SendString>
    HAL_StatusTypeDef rStat = HAL_SD_ReadBlocks(&hsd1, readBuf, 100, 1, 2000);
 8002f8c:	f44f 63fa 	mov.w	r3, #2000	@ 0x7d0
 8002f90:	9300      	str	r3, [sp, #0]
 8002f92:	2301      	movs	r3, #1
 8002f94:	2264      	movs	r2, #100	@ 0x64
 8002f96:	4927      	ldr	r1, [pc, #156]	@ (8003034 <SD_RawWriteTest+0x168>)
 8002f98:	4829      	ldr	r0, [pc, #164]	@ (8003040 <SD_RawWriteTest+0x174>)
 8002f9a:	f003 f993 	bl	80062c4 <HAL_SD_ReadBlocks>
    snprintf(uart, sizeof(uart), "ReadBlocks:  %s (%d)\r\n",
 8002f9e:	4604      	mov	r4, r0
 8002fa0:	bb00      	cbnz	r0, 8002fe4 <SD_RawWriteTest+0x118>
 8002fa2:	4b28      	ldr	r3, [pc, #160]	@ (8003044 <SD_RawWriteTest+0x178>)
 8002fa4:	ad02      	add	r5, sp, #8
 8002fa6:	9400      	str	r4, [sp, #0]
 8002fa8:	4a2d      	ldr	r2, [pc, #180]	@ (8003060 <SD_RawWriteTest+0x194>)
 8002faa:	2140      	movs	r1, #64	@ 0x40
 8002fac:	4628      	mov	r0, r5
 8002fae:	f004 ff7f 	bl	8007eb0 <sniprintf>
    UART_SendString(&huart3, uart);
 8002fb2:	4629      	mov	r1, r5
 8002fb4:	4821      	ldr	r0, [pc, #132]	@ (800303c <SD_RawWriteTest+0x170>)
 8002fb6:	f7ff ff7b 	bl	8002eb0 <UART_SendString>
    if (rStat != HAL_OK) return;
 8002fba:	2c00      	cmp	r4, #0
 8002fbc:	d1e0      	bne.n	8002f80 <SD_RawWriteTest+0xb4>
    t = HAL_GetTick();
 8002fbe:	f000 fc27 	bl	8003810 <HAL_GetTick>
 8002fc2:	4604      	mov	r4, r0
    while (HAL_SD_GetCardState(&hsd1) != HAL_SD_CARD_TRANSFER) {
 8002fc4:	481e      	ldr	r0, [pc, #120]	@ (8003040 <SD_RawWriteTest+0x174>)
 8002fc6:	f003 ff56 	bl	8006e76 <HAL_SD_GetCardState>
 8002fca:	2804      	cmp	r0, #4
 8002fcc:	d00c      	beq.n	8002fe8 <SD_RawWriteTest+0x11c>
        if (HAL_GetTick() - t > 2000) {
 8002fce:	f000 fc1f 	bl	8003810 <HAL_GetTick>
 8002fd2:	1b03      	subs	r3, r0, r4
 8002fd4:	f5b3 6ffa 	cmp.w	r3, #2000	@ 0x7d0
 8002fd8:	d9f4      	bls.n	8002fc4 <SD_RawWriteTest+0xf8>
            UART_SendString(&huart3, "Timeout waiting for card after read!\r\n");
 8002fda:	4922      	ldr	r1, [pc, #136]	@ (8003064 <SD_RawWriteTest+0x198>)
 8002fdc:	4817      	ldr	r0, [pc, #92]	@ (800303c <SD_RawWriteTest+0x170>)
 8002fde:	f7ff ff67 	bl	8002eb0 <UART_SendString>
            return;
 8002fe2:	e7cd      	b.n	8002f80 <SD_RawWriteTest+0xb4>
    snprintf(uart, sizeof(uart), "ReadBlocks:  %s (%d)\r\n",
 8002fe4:	4b1a      	ldr	r3, [pc, #104]	@ (8003050 <SD_RawWriteTest+0x184>)
 8002fe6:	e7dd      	b.n	8002fa4 <SD_RawWriteTest+0xd8>
    for (int i = 0; i < 512; i++) {
 8002fe8:	2300      	movs	r3, #0
    int mismatches = 0;
 8002fea:	4618      	mov	r0, r3
 8002fec:	e000      	b.n	8002ff0 <SD_RawWriteTest+0x124>
    for (int i = 0; i < 512; i++) {
 8002fee:	3301      	adds	r3, #1
 8002ff0:	f5b3 7f00 	cmp.w	r3, #512	@ 0x200
 8002ff4:	da07      	bge.n	8003006 <SD_RawWriteTest+0x13a>
        if (readBuf[i] != writeBuf[i]) mismatches++;
 8002ff6:	4a0f      	ldr	r2, [pc, #60]	@ (8003034 <SD_RawWriteTest+0x168>)
 8002ff8:	5cd1      	ldrb	r1, [r2, r3]
 8002ffa:	4a0d      	ldr	r2, [pc, #52]	@ (8003030 <SD_RawWriteTest+0x164>)
 8002ffc:	5cd2      	ldrb	r2, [r2, r3]
 8002ffe:	4291      	cmp	r1, r2
 8003000:	d0f5      	beq.n	8002fee <SD_RawWriteTest+0x122>
 8003002:	3001      	adds	r0, #1
 8003004:	e7f3      	b.n	8002fee <SD_RawWriteTest+0x122>
    snprintf(uart, sizeof(uart), "Verify: %s (%d mismatches)\r\n",
 8003006:	b988      	cbnz	r0, 800302c <SD_RawWriteTest+0x160>
 8003008:	4b17      	ldr	r3, [pc, #92]	@ (8003068 <SD_RawWriteTest+0x19c>)
 800300a:	ad02      	add	r5, sp, #8
 800300c:	9000      	str	r0, [sp, #0]
 800300e:	4a17      	ldr	r2, [pc, #92]	@ (800306c <SD_RawWriteTest+0x1a0>)
 8003010:	2140      	movs	r1, #64	@ 0x40
 8003012:	4628      	mov	r0, r5
 8003014:	f004 ff4c 	bl	8007eb0 <sniprintf>
    UART_SendString(&huart3, uart);
 8003018:	4c08      	ldr	r4, [pc, #32]	@ (800303c <SD_RawWriteTest+0x170>)
 800301a:	4629      	mov	r1, r5
 800301c:	4620      	mov	r0, r4
 800301e:	f7ff ff47 	bl	8002eb0 <UART_SendString>
    UART_SendString(&huart3, "--- END RAW TEST ---\r\n\r\n");
 8003022:	4913      	ldr	r1, [pc, #76]	@ (8003070 <SD_RawWriteTest+0x1a4>)
 8003024:	4620      	mov	r0, r4
 8003026:	f7ff ff43 	bl	8002eb0 <UART_SendString>
 800302a:	e7a9      	b.n	8002f80 <SD_RawWriteTest+0xb4>
    snprintf(uart, sizeof(uart), "Verify: %s (%d mismatches)\r\n",
 800302c:	4b11      	ldr	r3, [pc, #68]	@ (8003074 <SD_RawWriteTest+0x1a8>)
 800302e:	e7ec      	b.n	800300a <SD_RawWriteTest+0x13e>
 8003030:	20000f78 	.word	0x20000f78
 8003034:	20000d78 	.word	0x20000d78
 8003038:	08008fa0 	.word	0x08008fa0
 800303c:	20000b04 	.word	0x20000b04
 8003040:	20000a14 	.word	0x20000a14
 8003044:	08008f80 	.word	0x08008f80
 8003048:	08008fbc 	.word	0x08008fbc
 800304c:	0800900c 	.word	0x0800900c
 8003050:	08008f88 	.word	0x08008f88
 8003054:	08008fd4 	.word	0x08008fd4
 8003058:	08008ff4 	.word	0x08008ff4
 800305c:	08009034 	.word	0x08009034
 8003060:	08009050 	.word	0x08009050
 8003064:	08009068 	.word	0x08009068
 8003068:	08008f90 	.word	0x08008f90
 800306c:	08009090 	.word	0x08009090
 8003070:	080090b0 	.word	0x080090b0
 8003074:	08008f98 	.word	0x08008f98

08003078 <Print_SD_Details>:
void Print_SD_Details(void) {
 8003078:	b510      	push	{r4, lr}
 800307a:	b0a2      	sub	sp, #136	@ 0x88
        (uint32_t)hsd1.SdCard.CardVersion,
 800307c:	4a09      	ldr	r2, [pc, #36]	@ (80030a4 <Print_SD_Details+0x2c>)
        (uint32_t)hsd1.SdCard.BlockSize,
 800307e:	6d93      	ldr	r3, [r2, #88]	@ 0x58
        (uint32_t)hsd1.SdCard.BlockNbr,
 8003080:	6d50      	ldr	r0, [r2, #84]	@ 0x54
        (uint32_t)(hsd1.SdCard.BlockNbr * hsd1.SdCard.BlockSize / 1024) // Calculated Size
 8003082:	fb00 f103 	mul.w	r1, r0, r3
    int len = sprintf(msg, 
 8003086:	ac02      	add	r4, sp, #8
 8003088:	0a89      	lsrs	r1, r1, #10
 800308a:	9101      	str	r1, [sp, #4]
 800308c:	9000      	str	r0, [sp, #0]
 800308e:	6c92      	ldr	r2, [r2, #72]	@ 0x48
 8003090:	4905      	ldr	r1, [pc, #20]	@ (80030a8 <Print_SD_Details+0x30>)
 8003092:	4620      	mov	r0, r4
 8003094:	f004 ff3e 	bl	8007f14 <siprintf>
    UART_SendString(&huart3, msg);
 8003098:	4621      	mov	r1, r4
 800309a:	4804      	ldr	r0, [pc, #16]	@ (80030ac <Print_SD_Details+0x34>)
 800309c:	f7ff ff08 	bl	8002eb0 <UART_SendString>
}
 80030a0:	b022      	add	sp, #136	@ 0x88
 80030a2:	bd10      	pop	{r4, pc}
 80030a4:	20000a14 	.word	0x20000a14
 80030a8:	080090cc 	.word	0x080090cc
 80030ac:	20000b04 	.word	0x20000b04

080030b0 <HAL_GPIO_EXTI_Callback>:
    if (GPIO_Pin == D_WAKE_Pin) // Ensure it's the right pin
 80030b0:	f5b0 6f00 	cmp.w	r0, #2048	@ 0x800
 80030b4:	d000      	beq.n	80030b8 <HAL_GPIO_EXTI_Callback+0x8>
 80030b6:	4770      	bx	lr
{
 80030b8:	b508      	push	{r3, lr}
       wake_up_flag = 1; // Set flag to indicate wake-up event occurred 
 80030ba:	4b04      	ldr	r3, [pc, #16]	@ (80030cc <HAL_GPIO_EXTI_Callback+0x1c>)
 80030bc:	2201      	movs	r2, #1
 80030be:	701a      	strb	r2, [r3, #0]
       HAL_GPIO_TogglePin(Lo_PWR_CTRL_GPIO_Port, Lo_PWR_CTRL_Pin);
 80030c0:	2102      	movs	r1, #2
 80030c2:	4803      	ldr	r0, [pc, #12]	@ (80030d0 <HAL_GPIO_EXTI_Callback+0x20>)
 80030c4:	f000 feb4 	bl	8003e30 <HAL_GPIO_TogglePin>
}
 80030c8:	bd08      	pop	{r3, pc}
 80030ca:	bf00      	nop
 80030cc:	20001178 	.word	0x20001178
 80030d0:	48000400 	.word	0x48000400

080030d4 <Error_Handler>:
  \details Disables IRQ interrupts by setting the I-bit in the CPSR.
           Can only be executed in Privileged modes.
 */
__STATIC_FORCEINLINE void __disable_irq(void)
{
  __ASM volatile ("cpsid i" : : : "memory");
 80030d4:	b672      	cpsid	i
void Error_Handler(void)
{
  /* USER CODE BEGIN Error_Handler_Debug */
  /* User can add his own implementation to report the HAL error return state */
  __disable_irq();
  while (1)
 80030d6:	e7fe      	b.n	80030d6 <Error_Handler+0x2>

080030d8 <MX_LPUART1_UART_Init>:
{
 80030d8:	b508      	push	{r3, lr}
  hlpuart1.Instance = LPUART1;
 80030da:	480b      	ldr	r0, [pc, #44]	@ (8003108 <MX_LPUART1_UART_Init+0x30>)
 80030dc:	4b0b      	ldr	r3, [pc, #44]	@ (800310c <MX_LPUART1_UART_Init+0x34>)
 80030de:	6003      	str	r3, [r0, #0]
  hlpuart1.Init.BaudRate = 209700;
 80030e0:	4b0b      	ldr	r3, [pc, #44]	@ (8003110 <MX_LPUART1_UART_Init+0x38>)
 80030e2:	6043      	str	r3, [r0, #4]
  hlpuart1.Init.WordLength = UART_WORDLENGTH_7B;
 80030e4:	f04f 5380 	mov.w	r3, #268435456	@ 0x10000000
 80030e8:	6083      	str	r3, [r0, #8]
  hlpuart1.Init.StopBits = UART_STOPBITS_1;
 80030ea:	2300      	movs	r3, #0
 80030ec:	60c3      	str	r3, [r0, #12]
  hlpuart1.Init.Parity = UART_PARITY_NONE;
 80030ee:	6103      	str	r3, [r0, #16]
  hlpuart1.Init.Mode = UART_MODE_TX_RX;
 80030f0:	220c      	movs	r2, #12
 80030f2:	6142      	str	r2, [r0, #20]
  hlpuart1.Init.HwFlowCtl = UART_HWCONTROL_NONE;
 80030f4:	6183      	str	r3, [r0, #24]
  hlpuart1.Init.OneBitSampling = UART_ONE_BIT_SAMPLE_DISABLE;
 80030f6:	6203      	str	r3, [r0, #32]
  hlpuart1.AdvancedInit.AdvFeatureInit = UART_ADVFEATURE_NO_INIT;
 80030f8:	6243      	str	r3, [r0, #36]	@ 0x24
  if (HAL_UART_Init(&hlpuart1) != HAL_OK)
 80030fa:	f004 faa7 	bl	800764c <HAL_UART_Init>
 80030fe:	b900      	cbnz	r0, 8003102 <MX_LPUART1_UART_Init+0x2a>
}
 8003100:	bd08      	pop	{r3, pc}
    Error_Handler();
 8003102:	f7ff ffe7 	bl	80030d4 <Error_Handler>
 8003106:	bf00      	nop
 8003108:	20000c9c 	.word	0x20000c9c
 800310c:	40008000 	.word	0x40008000
 8003110:	00033324 	.word	0x00033324

08003114 <MX_USART2_UART_Init>:
{
 8003114:	b508      	push	{r3, lr}
  huart2.Instance = USART2;
 8003116:	480c      	ldr	r0, [pc, #48]	@ (8003148 <MX_USART2_UART_Init+0x34>)
 8003118:	4b0c      	ldr	r3, [pc, #48]	@ (800314c <MX_USART2_UART_Init+0x38>)
 800311a:	6003      	str	r3, [r0, #0]
  huart2.Init.BaudRate = 115200;
 800311c:	f44f 33e1 	mov.w	r3, #115200	@ 0x1c200
 8003120:	6043      	str	r3, [r0, #4]
  huart2.Init.WordLength = UART_WORDLENGTH_8B;
 8003122:	2300      	movs	r3, #0
 8003124:	6083      	str	r3, [r0, #8]
  huart2.Init.StopBits = UART_STOPBITS_1;
 8003126:	60c3      	str	r3, [r0, #12]
  huart2.Init.Parity = UART_PARITY_NONE;
 8003128:	6103      	str	r3, [r0, #16]
  huart2.Init.Mode = UART_MODE_TX_RX;
 800312a:	220c      	movs	r2, #12
 800312c:	6142      	str	r2, [r0, #20]
  huart2.Init.HwFlowCtl = UART_HWCONTROL_RTS_CTS;
 800312e:	f44f 7240 	mov.w	r2, #768	@ 0x300
 8003132:	6182      	str	r2, [r0, #24]
  huart2.Init.OverSampling = UART_OVERSAMPLING_16;
 8003134:	61c3      	str	r3, [r0, #28]
  huart2.Init.OneBitSampling = UART_ONE_BIT_SAMPLE_DISABLE;
 8003136:	6203      	str	r3, [r0, #32]
  huart2.AdvancedInit.AdvFeatureInit = UART_ADVFEATURE_NO_INIT;
 8003138:	6243      	str	r3, [r0, #36]	@ 0x24
  if (HAL_UART_Init(&huart2) != HAL_OK)
 800313a:	f004 fa87 	bl	800764c <HAL_UART_Init>
 800313e:	b900      	cbnz	r0, 8003142 <MX_USART2_UART_Init+0x2e>
}
 8003140:	bd08      	pop	{r3, pc}
    Error_Handler();
 8003142:	f7ff ffc7 	bl	80030d4 <Error_Handler>
 8003146:	bf00      	nop
 8003148:	20000b8c 	.word	0x20000b8c
 800314c:	40004400 	.word	0x40004400

08003150 <MX_USART3_UART_Init>:
{
 8003150:	b508      	push	{r3, lr}
  huart3.Instance = USART3;
 8003152:	480b      	ldr	r0, [pc, #44]	@ (8003180 <MX_USART3_UART_Init+0x30>)
 8003154:	4b0b      	ldr	r3, [pc, #44]	@ (8003184 <MX_USART3_UART_Init+0x34>)
 8003156:	6003      	str	r3, [r0, #0]
  huart3.Init.BaudRate = 115200;
 8003158:	f44f 33e1 	mov.w	r3, #115200	@ 0x1c200
 800315c:	6043      	str	r3, [r0, #4]
  huart3.Init.WordLength = UART_WORDLENGTH_8B;
 800315e:	2300      	movs	r3, #0
 8003160:	6083      	str	r3, [r0, #8]
  huart3.Init.StopBits = UART_STOPBITS_1;
 8003162:	60c3      	str	r3, [r0, #12]
  huart3.Init.Parity = UART_PARITY_NONE;
 8003164:	6103      	str	r3, [r0, #16]
  huart3.Init.Mode = UART_MODE_TX_RX;
 8003166:	220c      	movs	r2, #12
 8003168:	6142      	str	r2, [r0, #20]
  huart3.Init.HwFlowCtl = UART_HWCONTROL_NONE;
 800316a:	6183      	str	r3, [r0, #24]
  huart3.Init.OverSampling = UART_OVERSAMPLING_16;
 800316c:	61c3      	str	r3, [r0, #28]
  huart3.Init.OneBitSampling = UART_ONE_BIT_SAMPLE_DISABLE;
 800316e:	6203      	str	r3, [r0, #32]
  huart3.AdvancedInit.AdvFeatureInit = UART_ADVFEATURE_NO_INIT;
 8003170:	6243      	str	r3, [r0, #36]	@ 0x24
  if (HAL_UART_Init(&huart3) != HAL_OK)
 8003172:	f004 fa6b 	bl	800764c <HAL_UART_Init>
 8003176:	b900      	cbnz	r0, 800317a <MX_USART3_UART_Init+0x2a>
}
 8003178:	bd08      	pop	{r3, pc}
    Error_Handler();
 800317a:	f7ff ffab 	bl	80030d4 <Error_Handler>
 800317e:	bf00      	nop
 8003180:	20000b04 	.word	0x20000b04
 8003184:	40004800 	.word	0x40004800

08003188 <MX_SPI1_Init>:
{
 8003188:	b508      	push	{r3, lr}
  hspi1.Instance = SPI1;
 800318a:	480f      	ldr	r0, [pc, #60]	@ (80031c8 <MX_SPI1_Init+0x40>)
 800318c:	4b0f      	ldr	r3, [pc, #60]	@ (80031cc <MX_SPI1_Init+0x44>)
 800318e:	6003      	str	r3, [r0, #0]
  hspi1.Init.Mode = SPI_MODE_MASTER;
 8003190:	f44f 7382 	mov.w	r3, #260	@ 0x104
 8003194:	6043      	str	r3, [r0, #4]
  hspi1.Init.Direction = SPI_DIRECTION_2LINES;
 8003196:	2300      	movs	r3, #0
 8003198:	6083      	str	r3, [r0, #8]
  hspi1.Init.DataSize = SPI_DATASIZE_4BIT;
 800319a:	f44f 7240 	mov.w	r2, #768	@ 0x300
 800319e:	60c2      	str	r2, [r0, #12]
  hspi1.Init.CLKPolarity = SPI_POLARITY_LOW;
 80031a0:	6103      	str	r3, [r0, #16]
  hspi1.Init.CLKPhase = SPI_PHASE_1EDGE;
 80031a2:	6143      	str	r3, [r0, #20]
  hspi1.Init.NSS = SPI_NSS_SOFT;
 80031a4:	f44f 7200 	mov.w	r2, #512	@ 0x200
 80031a8:	6182      	str	r2, [r0, #24]
  hspi1.Init.BaudRatePrescaler = SPI_BAUDRATEPRESCALER_2;
 80031aa:	61c3      	str	r3, [r0, #28]
  hspi1.Init.FirstBit = SPI_FIRSTBIT_MSB;
 80031ac:	6203      	str	r3, [r0, #32]
  hspi1.Init.TIMode = SPI_TIMODE_DISABLE;
 80031ae:	6243      	str	r3, [r0, #36]	@ 0x24
  hspi1.Init.CRCCalculation = SPI_CRCCALCULATION_DISABLE;
 80031b0:	6283      	str	r3, [r0, #40]	@ 0x28
  hspi1.Init.CRCPolynomial = 7;
 80031b2:	2207      	movs	r2, #7
 80031b4:	62c2      	str	r2, [r0, #44]	@ 0x2c
  hspi1.Init.CRCLength = SPI_CRC_LENGTH_DATASIZE;
 80031b6:	6303      	str	r3, [r0, #48]	@ 0x30
  hspi1.Init.NSSPMode = SPI_NSS_PULSE_ENABLE;
 80031b8:	2308      	movs	r3, #8
 80031ba:	6343      	str	r3, [r0, #52]	@ 0x34
  if (HAL_SPI_Init(&hspi1) != HAL_OK)
 80031bc:	f003 fe9c 	bl	8006ef8 <HAL_SPI_Init>
 80031c0:	b900      	cbnz	r0, 80031c4 <MX_SPI1_Init+0x3c>
}
 80031c2:	bd08      	pop	{r3, pc}
    Error_Handler();
 80031c4:	f7ff ff86 	bl	80030d4 <Error_Handler>
 80031c8:	200009b0 	.word	0x200009b0
 80031cc:	40013000 	.word	0x40013000

080031d0 <MX_RTC_Init>:
{
 80031d0:	b500      	push	{lr}
 80031d2:	b087      	sub	sp, #28
  RTC_TimeTypeDef sTime = {0};
 80031d4:	2300      	movs	r3, #0
 80031d6:	9301      	str	r3, [sp, #4]
 80031d8:	9302      	str	r3, [sp, #8]
 80031da:	9303      	str	r3, [sp, #12]
 80031dc:	9304      	str	r3, [sp, #16]
 80031de:	9305      	str	r3, [sp, #20]
  RTC_DateTypeDef sDate = {0};
 80031e0:	9300      	str	r3, [sp, #0]
  hrtc.Instance = RTC;
 80031e2:	4819      	ldr	r0, [pc, #100]	@ (8003248 <MX_RTC_Init+0x78>)
 80031e4:	4a19      	ldr	r2, [pc, #100]	@ (800324c <MX_RTC_Init+0x7c>)
 80031e6:	6002      	str	r2, [r0, #0]
  hrtc.Init.HourFormat = RTC_HOURFORMAT_24;
 80031e8:	6043      	str	r3, [r0, #4]
  hrtc.Init.AsynchPrediv = 127;
 80031ea:	227f      	movs	r2, #127	@ 0x7f
 80031ec:	6082      	str	r2, [r0, #8]
  hrtc.Init.SynchPrediv = 255;
 80031ee:	22ff      	movs	r2, #255	@ 0xff
 80031f0:	60c2      	str	r2, [r0, #12]
  hrtc.Init.OutPut = RTC_OUTPUT_DISABLE;
 80031f2:	6103      	str	r3, [r0, #16]
  hrtc.Init.OutPutRemap = RTC_OUTPUT_REMAP_NONE;
 80031f4:	6143      	str	r3, [r0, #20]
  hrtc.Init.OutPutPolarity = RTC_OUTPUT_POLARITY_HIGH;
 80031f6:	6183      	str	r3, [r0, #24]
  hrtc.Init.OutPutType = RTC_OUTPUT_TYPE_OPENDRAIN;
 80031f8:	61c3      	str	r3, [r0, #28]
  if (HAL_RTC_Init(&hrtc) != HAL_OK)
 80031fa:	f002 fdf9 	bl	8005df0 <HAL_RTC_Init>
 80031fe:	b9e8      	cbnz	r0, 800323c <MX_RTC_Init+0x6c>
  sTime.Hours = 0x0;
 8003200:	f88d 0004 	strb.w	r0, [sp, #4]
  sTime.Minutes = 0x0;
 8003204:	f88d 0005 	strb.w	r0, [sp, #5]
  sTime.Seconds = 0x0;
 8003208:	f88d 0006 	strb.w	r0, [sp, #6]
  sTime.DayLightSaving = RTC_DAYLIGHTSAVING_NONE;
 800320c:	9004      	str	r0, [sp, #16]
  sTime.StoreOperation = RTC_STOREOPERATION_RESET;
 800320e:	9005      	str	r0, [sp, #20]
  if (HAL_RTC_SetTime(&hrtc, &sTime, RTC_FORMAT_BCD) != HAL_OK)
 8003210:	2201      	movs	r2, #1
 8003212:	a901      	add	r1, sp, #4
 8003214:	480c      	ldr	r0, [pc, #48]	@ (8003248 <MX_RTC_Init+0x78>)
 8003216:	f002 fe49 	bl	8005eac <HAL_RTC_SetTime>
 800321a:	b988      	cbnz	r0, 8003240 <MX_RTC_Init+0x70>
  sDate.WeekDay = RTC_WEEKDAY_MONDAY;
 800321c:	2201      	movs	r2, #1
 800321e:	f88d 2000 	strb.w	r2, [sp]
  sDate.Month = RTC_MONTH_JANUARY;
 8003222:	f88d 2001 	strb.w	r2, [sp, #1]
  sDate.Date = 0x1;
 8003226:	f88d 2002 	strb.w	r2, [sp, #2]
  sDate.Year = 0x0;
 800322a:	f88d 0003 	strb.w	r0, [sp, #3]
  if (HAL_RTC_SetDate(&hrtc, &sDate, RTC_FORMAT_BCD) != HAL_OK)
 800322e:	4669      	mov	r1, sp
 8003230:	4805      	ldr	r0, [pc, #20]	@ (8003248 <MX_RTC_Init+0x78>)
 8003232:	f002 fea3 	bl	8005f7c <HAL_RTC_SetDate>
 8003236:	b928      	cbnz	r0, 8003244 <MX_RTC_Init+0x74>
}
 8003238:	b007      	add	sp, #28
 800323a:	bd00      	pop	{pc}
    Error_Handler();
 800323c:	f7ff ff4a 	bl	80030d4 <Error_Handler>
    Error_Handler();
 8003240:	f7ff ff48 	bl	80030d4 <Error_Handler>
    Error_Handler();
 8003244:	f7ff ff46 	bl	80030d4 <Error_Handler>
 8003248:	20000a98 	.word	0x20000a98
 800324c:	40002800 	.word	0x40002800

08003250 <MX_I2C2_Init>:
{
 8003250:	b508      	push	{r3, lr}
  hi2c2.Instance = I2C2;
 8003252:	4811      	ldr	r0, [pc, #68]	@ (8003298 <MX_I2C2_Init+0x48>)
 8003254:	4b11      	ldr	r3, [pc, #68]	@ (800329c <MX_I2C2_Init+0x4c>)
 8003256:	6003      	str	r3, [r0, #0]
  hi2c2.Init.Timing = 0x10D19CE4;
 8003258:	4b11      	ldr	r3, [pc, #68]	@ (80032a0 <MX_I2C2_Init+0x50>)
 800325a:	6043      	str	r3, [r0, #4]
  hi2c2.Init.OwnAddress1 = 0;
 800325c:	2300      	movs	r3, #0
 800325e:	6083      	str	r3, [r0, #8]
  hi2c2.Init.AddressingMode = I2C_ADDRESSINGMODE_7BIT;
 8003260:	2201      	movs	r2, #1
 8003262:	60c2      	str	r2, [r0, #12]
  hi2c2.Init.DualAddressMode = I2C_DUALADDRESS_DISABLE;
 8003264:	6103      	str	r3, [r0, #16]
  hi2c2.Init.OwnAddress2 = 0;
 8003266:	6143      	str	r3, [r0, #20]
  hi2c2.Init.OwnAddress2Masks = I2C_OA2_NOMASK;
 8003268:	6183      	str	r3, [r0, #24]
  hi2c2.Init.GeneralCallMode = I2C_GENERALCALL_DISABLE;
 800326a:	61c3      	str	r3, [r0, #28]
  hi2c2.Init.NoStretchMode = I2C_NOSTRETCH_DISABLE;
 800326c:	6203      	str	r3, [r0, #32]
  if (HAL_I2C_Init(&hi2c2) != HAL_OK)
 800326e:	f000 fdf7 	bl	8003e60 <HAL_I2C_Init>
 8003272:	b950      	cbnz	r0, 800328a <MX_I2C2_Init+0x3a>
  if (HAL_I2CEx_ConfigAnalogFilter(&hi2c2, I2C_ANALOGFILTER_ENABLE) != HAL_OK)
 8003274:	4601      	mov	r1, r0
 8003276:	4808      	ldr	r0, [pc, #32]	@ (8003298 <MX_I2C2_Init+0x48>)
 8003278:	f000 fe56 	bl	8003f28 <HAL_I2CEx_ConfigAnalogFilter>
 800327c:	b938      	cbnz	r0, 800328e <MX_I2C2_Init+0x3e>
  if (HAL_I2CEx_ConfigDigitalFilter(&hi2c2, 0) != HAL_OK)
 800327e:	4601      	mov	r1, r0
 8003280:	4805      	ldr	r0, [pc, #20]	@ (8003298 <MX_I2C2_Init+0x48>)
 8003282:	f000 fe7e 	bl	8003f82 <HAL_I2CEx_ConfigDigitalFilter>
 8003286:	b920      	cbnz	r0, 8003292 <MX_I2C2_Init+0x42>
}
 8003288:	bd08      	pop	{r3, pc}
    Error_Handler();
 800328a:	f7ff ff23 	bl	80030d4 <Error_Handler>
    Error_Handler();
 800328e:	f7ff ff21 	bl	80030d4 <Error_Handler>
    Error_Handler();
 8003292:	f7ff ff1f 	bl	80030d4 <Error_Handler>
 8003296:	bf00      	nop
 8003298:	20000d24 	.word	0x20000d24
 800329c:	40005800 	.word	0x40005800
 80032a0:	10d19ce4 	.word	0x10d19ce4

080032a4 <MX_SDMMC1_SD_Init>:
{
 80032a4:	b508      	push	{r3, lr}
  hsd1.Instance = SDMMC1;
 80032a6:	4810      	ldr	r0, [pc, #64]	@ (80032e8 <MX_SDMMC1_SD_Init+0x44>)
 80032a8:	4b10      	ldr	r3, [pc, #64]	@ (80032ec <MX_SDMMC1_SD_Init+0x48>)
 80032aa:	6003      	str	r3, [r0, #0]
  hsd1.Init.ClockEdge = SDMMC_CLOCK_EDGE_RISING;
 80032ac:	2300      	movs	r3, #0
 80032ae:	6043      	str	r3, [r0, #4]
  hsd1.Init.ClockBypass = SDMMC_CLOCK_BYPASS_DISABLE;
 80032b0:	6083      	str	r3, [r0, #8]
  hsd1.Init.ClockPowerSave = SDMMC_CLOCK_POWER_SAVE_DISABLE;
 80032b2:	60c3      	str	r3, [r0, #12]
  hsd1.Init.BusWide = SDMMC_BUS_WIDE_4B;
 80032b4:	f44f 6200 	mov.w	r2, #2048	@ 0x800
 80032b8:	6102      	str	r2, [r0, #16]
  hsd1.Init.HardwareFlowControl = SDMMC_HARDWARE_FLOW_CONTROL_ENABLE;
 80032ba:	f44f 4280 	mov.w	r2, #16384	@ 0x4000
 80032be:	6142      	str	r2, [r0, #20]
  hsd1.Init.ClockDiv = 0;
 80032c0:	6183      	str	r3, [r0, #24]
  hsd1.Init.BusWide = SDMMC_BUS_WIDE_1B;
 80032c2:	6103      	str	r3, [r0, #16]
  if (HAL_SD_Init(&hsd1) != HAL_OK) {
 80032c4:	f003 fdae 	bl	8006e24 <HAL_SD_Init>
 80032c8:	b950      	cbnz	r0, 80032e0 <MX_SDMMC1_SD_Init+0x3c>
 if (HAL_SD_ConfigWideBusOperation(&hsd1, SDMMC_BUS_WIDE_4B) != HAL_OK) {
 80032ca:	f44f 6100 	mov.w	r1, #2048	@ 0x800
 80032ce:	4806      	ldr	r0, [pc, #24]	@ (80032e8 <MX_SDMMC1_SD_Init+0x44>)
 80032d0:	f003 fd28 	bl	8006d24 <HAL_SD_ConfigWideBusOperation>
 80032d4:	b930      	cbnz	r0, 80032e4 <MX_SDMMC1_SD_Init+0x40>
  UART_SendString(&huart3, "SD CARD INIT\r\n");
 80032d6:	4906      	ldr	r1, [pc, #24]	@ (80032f0 <MX_SDMMC1_SD_Init+0x4c>)
 80032d8:	4806      	ldr	r0, [pc, #24]	@ (80032f4 <MX_SDMMC1_SD_Init+0x50>)
 80032da:	f7ff fde9 	bl	8002eb0 <UART_SendString>
}
 80032de:	bd08      	pop	{r3, pc}
     Error_Handler();
 80032e0:	f7ff fef8 	bl	80030d4 <Error_Handler>
    Error_Handler();
 80032e4:	f7ff fef6 	bl	80030d4 <Error_Handler>
 80032e8:	20000a14 	.word	0x20000a14
 80032ec:	40012800 	.word	0x40012800
 80032f0:	08009148 	.word	0x08009148
 80032f4:	20000b04 	.word	0x20000b04

080032f8 <MX_USART1_UART_Init>:
{
 80032f8:	b508      	push	{r3, lr}
  huart1.Instance = USART1;
 80032fa:	480b      	ldr	r0, [pc, #44]	@ (8003328 <MX_USART1_UART_Init+0x30>)
 80032fc:	4b0b      	ldr	r3, [pc, #44]	@ (800332c <MX_USART1_UART_Init+0x34>)
 80032fe:	6003      	str	r3, [r0, #0]
  huart1.Init.BaudRate = 115200;
 8003300:	f44f 33e1 	mov.w	r3, #115200	@ 0x1c200
 8003304:	6043      	str	r3, [r0, #4]
  huart1.Init.WordLength = UART_WORDLENGTH_8B;
 8003306:	2300      	movs	r3, #0
 8003308:	6083      	str	r3, [r0, #8]
  huart1.Init.StopBits = UART_STOPBITS_1;
 800330a:	60c3      	str	r3, [r0, #12]
  huart1.Init.Parity = UART_PARITY_NONE;
 800330c:	6103      	str	r3, [r0, #16]
  huart1.Init.Mode = UART_MODE_TX_RX;
 800330e:	220c      	movs	r2, #12
 8003310:	6142      	str	r2, [r0, #20]
  huart1.Init.HwFlowCtl = UART_HWCONTROL_NONE;
 8003312:	6183      	str	r3, [r0, #24]
  huart1.Init.OverSampling = UART_OVERSAMPLING_16;
 8003314:	61c3      	str	r3, [r0, #28]
  huart1.Init.OneBitSampling = UART_ONE_BIT_SAMPLE_DISABLE;
 8003316:	6203      	str	r3, [r0, #32]
  huart1.AdvancedInit.AdvFeatureInit = UART_ADVFEATURE_NO_INIT;
 8003318:	6243      	str	r3, [r0, #36]	@ 0x24
  if (HAL_UART_Init(&huart1) != HAL_OK)
 800331a:	f004 f997 	bl	800764c <HAL_UART_Init>
 800331e:	b900      	cbnz	r0, 8003322 <MX_USART1_UART_Init+0x2a>
}
 8003320:	bd08      	pop	{r3, pc}
    Error_Handler();
 8003322:	f7ff fed7 	bl	80030d4 <Error_Handler>
 8003326:	bf00      	nop
 8003328:	20000c14 	.word	0x20000c14
 800332c:	40013800 	.word	0x40013800

08003330 <SystemClock_Config>:
{
 8003330:	b500      	push	{lr}
 8003332:	b097      	sub	sp, #92	@ 0x5c
  RCC_OscInitTypeDef RCC_OscInitStruct = {0};
 8003334:	2244      	movs	r2, #68	@ 0x44
 8003336:	2100      	movs	r1, #0
 8003338:	a805      	add	r0, sp, #20
 800333a:	f004 fe0d 	bl	8007f58 <memset>
  RCC_ClkInitTypeDef RCC_ClkInitStruct = {0};
 800333e:	2300      	movs	r3, #0
 8003340:	9300      	str	r3, [sp, #0]
 8003342:	9301      	str	r3, [sp, #4]
 8003344:	9302      	str	r3, [sp, #8]
 8003346:	9303      	str	r3, [sp, #12]
 8003348:	9304      	str	r3, [sp, #16]
  if (HAL_PWREx_ControlVoltageScaling(PWR_REGULATOR_VOLTAGE_SCALE1) != HAL_OK)
 800334a:	f44f 7000 	mov.w	r0, #512	@ 0x200
 800334e:	f001 f863 	bl	8004418 <HAL_PWREx_ControlVoltageScaling>
 8003352:	bb20      	cbnz	r0, 800339e <SystemClock_Config+0x6e>
  RCC_OscInitStruct.OscillatorType = RCC_OSCILLATORTYPE_LSI|RCC_OSCILLATORTYPE_MSI;
 8003354:	2318      	movs	r3, #24
 8003356:	9305      	str	r3, [sp, #20]
  RCC_OscInitStruct.LSIState = RCC_LSI_ON;
 8003358:	2301      	movs	r3, #1
 800335a:	930a      	str	r3, [sp, #40]	@ 0x28
  RCC_OscInitStruct.MSIState = RCC_MSI_ON;
 800335c:	930b      	str	r3, [sp, #44]	@ 0x2c
  RCC_OscInitStruct.MSICalibrationValue = 0;
 800335e:	900c      	str	r0, [sp, #48]	@ 0x30
  RCC_OscInitStruct.MSIClockRange = RCC_MSIRANGE_6;
 8003360:	2260      	movs	r2, #96	@ 0x60
 8003362:	920d      	str	r2, [sp, #52]	@ 0x34
  RCC_OscInitStruct.PLL.PLLState = RCC_PLL_ON;
 8003364:	2202      	movs	r2, #2
 8003366:	920f      	str	r2, [sp, #60]	@ 0x3c
  RCC_OscInitStruct.PLL.PLLSource = RCC_PLLSOURCE_MSI;
 8003368:	9310      	str	r3, [sp, #64]	@ 0x40
  RCC_OscInitStruct.PLL.PLLM = 1;
 800336a:	9311      	str	r3, [sp, #68]	@ 0x44
  RCC_OscInitStruct.PLL.PLLN = 40;
 800336c:	2328      	movs	r3, #40	@ 0x28
 800336e:	9312      	str	r3, [sp, #72]	@ 0x48
  RCC_OscInitStruct.PLL.PLLP = RCC_PLLP_DIV7;
 8003370:	2307      	movs	r3, #7
 8003372:	9313      	str	r3, [sp, #76]	@ 0x4c
  RCC_OscInitStruct.PLL.PLLQ = RCC_PLLQ_DIV4;
 8003374:	2304      	movs	r3, #4
 8003376:	9314      	str	r3, [sp, #80]	@ 0x50
  RCC_OscInitStruct.PLL.PLLR = RCC_PLLR_DIV2;
 8003378:	9215      	str	r2, [sp, #84]	@ 0x54
  if (HAL_RCC_OscConfig(&RCC_OscInitStruct) != HAL_OK)
 800337a:	a805      	add	r0, sp, #20
 800337c:	f001 f930 	bl	80045e0 <HAL_RCC_OscConfig>
 8003380:	b978      	cbnz	r0, 80033a2 <SystemClock_Config+0x72>
  RCC_ClkInitStruct.ClockType = RCC_CLOCKTYPE_HCLK|RCC_CLOCKTYPE_SYSCLK
 8003382:	230f      	movs	r3, #15
 8003384:	9300      	str	r3, [sp, #0]
  RCC_ClkInitStruct.SYSCLKSource = RCC_SYSCLKSOURCE_PLLCLK;
 8003386:	2303      	movs	r3, #3
 8003388:	9301      	str	r3, [sp, #4]
  RCC_ClkInitStruct.AHBCLKDivider = RCC_SYSCLK_DIV1;
 800338a:	9002      	str	r0, [sp, #8]
  RCC_ClkInitStruct.APB1CLKDivider = RCC_HCLK_DIV1;
 800338c:	9003      	str	r0, [sp, #12]
  RCC_ClkInitStruct.APB2CLKDivider = RCC_HCLK_DIV1;
 800338e:	9004      	str	r0, [sp, #16]
  if (HAL_RCC_ClockConfig(&RCC_ClkInitStruct, FLASH_LATENCY_4) != HAL_OK)
 8003390:	2104      	movs	r1, #4
 8003392:	4668      	mov	r0, sp
 8003394:	f001 fc34 	bl	8004c00 <HAL_RCC_ClockConfig>
 8003398:	b928      	cbnz	r0, 80033a6 <SystemClock_Config+0x76>
}
 800339a:	b017      	add	sp, #92	@ 0x5c
 800339c:	bd00      	pop	{pc}
    Error_Handler();
 800339e:	f7ff fe99 	bl	80030d4 <Error_Handler>
    Error_Handler();
 80033a2:	f7ff fe97 	bl	80030d4 <Error_Handler>
    Error_Handler();
 80033a6:	f7ff fe95 	bl	80030d4 <Error_Handler>
	...

080033ac <main>:
{
 80033ac:	b570      	push	{r4, r5, r6, lr}
 80033ae:	b098      	sub	sp, #96	@ 0x60
  HAL_Init();
 80033b0:	f000 fa12 	bl	80037d8 <HAL_Init>
  SystemClock_Config();
 80033b4:	f7ff ffbc 	bl	8003330 <SystemClock_Config>
  MX_GPIO_Init();
 80033b8:	f7ff fcda 	bl	8002d70 <MX_GPIO_Init>
  MX_DMA_Init();
 80033bc:	f7ff fd60 	bl	8002e80 <MX_DMA_Init>
  MX_LPUART1_UART_Init();
 80033c0:	f7ff fe8a 	bl	80030d8 <MX_LPUART1_UART_Init>
  MX_USART2_UART_Init();
 80033c4:	f7ff fea6 	bl	8003114 <MX_USART2_UART_Init>
  MX_USART3_UART_Init();
 80033c8:	f7ff fec2 	bl	8003150 <MX_USART3_UART_Init>
  MX_SPI1_Init();
 80033cc:	f7ff fedc 	bl	8003188 <MX_SPI1_Init>
  MX_RTC_Init();
 80033d0:	f7ff fefe 	bl	80031d0 <MX_RTC_Init>
  MX_I2C2_Init();
 80033d4:	f7ff ff3c 	bl	8003250 <MX_I2C2_Init>
  MX_SDMMC1_SD_Init();
 80033d8:	f7ff ff64 	bl	80032a4 <MX_SDMMC1_SD_Init>
  MX_FATFS_Init();
 80033dc:	f7fd f884 	bl	80004e8 <MX_FATFS_Init>
  MX_USART1_UART_Init();
 80033e0:	f7ff ff8a 	bl	80032f8 <MX_USART1_UART_Init>
  HAL_GPIO_WritePin(Lo_PWR_CTRL_GPIO_Port, Lo_PWR_CTRL_Pin, GPIO_PIN_SET);
 80033e4:	2201      	movs	r2, #1
 80033e6:	2102      	movs	r1, #2
 80033e8:	485c      	ldr	r0, [pc, #368]	@ (800355c <main+0x1b0>)
 80033ea:	f000 fd1c 	bl	8003e26 <HAL_GPIO_WritePin>
  HAL_GPIO_WritePin(Wi_EN_GPIO_Port, Wi_EN_Pin, GPIO_PIN_SET);
 80033ee:	4c5c      	ldr	r4, [pc, #368]	@ (8003560 <main+0x1b4>)
 80033f0:	2201      	movs	r2, #1
 80033f2:	2104      	movs	r1, #4
 80033f4:	4620      	mov	r0, r4
 80033f6:	f000 fd16 	bl	8003e26 <HAL_GPIO_WritePin>
  HAL_GPIO_WritePin(Wi_GPIO_0_GPIO_Port, Wi_GPIO_0_Pin, GPIO_PIN_SET);
 80033fa:	2201      	movs	r2, #1
 80033fc:	2180      	movs	r1, #128	@ 0x80
 80033fe:	4620      	mov	r0, r4
 8003400:	f000 fd11 	bl	8003e26 <HAL_GPIO_WritePin>
  UART_SendString(&huart3, "SETUP\r\n");
 8003404:	4957      	ldr	r1, [pc, #348]	@ (8003564 <main+0x1b8>)
 8003406:	4858      	ldr	r0, [pc, #352]	@ (8003568 <main+0x1bc>)
 8003408:	f7ff fd52 	bl	8002eb0 <UART_SendString>
  SD_RawWriteTest();
 800340c:	f7ff fd5e 	bl	8002ecc <SD_RawWriteTest>
  Print_SD_Details();
 8003410:	f7ff fe32 	bl	8003078 <Print_SD_Details>
if (f_mount(&SDFatFS, SDPath, 1) == FR_OK) {
 8003414:	2201      	movs	r2, #1
 8003416:	4955      	ldr	r1, [pc, #340]	@ (800356c <main+0x1c0>)
 8003418:	4855      	ldr	r0, [pc, #340]	@ (8003570 <main+0x1c4>)
 800341a:	f7fe fff1 	bl	8002400 <f_mount>
 800341e:	2800      	cmp	r0, #0
 8003420:	d15d      	bne.n	80034de <main+0x132>
    UART_SendString(&huart3, "SD Card Mounted Successfully!\r\n");
 8003422:	4954      	ldr	r1, [pc, #336]	@ (8003574 <main+0x1c8>)
 8003424:	4850      	ldr	r0, [pc, #320]	@ (8003568 <main+0x1bc>)
 8003426:	f7ff fd43 	bl	8002eb0 <UART_SendString>
    if (f_getfree(SDPath, &freeClusters, &pFatFs) == FR_OK) {
 800342a:	aa03      	add	r2, sp, #12
 800342c:	a902      	add	r1, sp, #8
 800342e:	484f      	ldr	r0, [pc, #316]	@ (800356c <main+0x1c0>)
 8003430:	f7ff fbd7 	bl	8002be2 <f_getfree>
 8003434:	2800      	cmp	r0, #0
 8003436:	d13a      	bne.n	80034ae <main+0x102>
        uint32_t freeKB = freeClusters * pFatFs->csize * (pFatFs->csize / 1024);
 8003438:	9b03      	ldr	r3, [sp, #12]
 800343a:	895a      	ldrh	r2, [r3, #10]
 800343c:	9b02      	ldr	r3, [sp, #8]
 800343e:	fb02 f303 	mul.w	r3, r2, r3
 8003442:	0a92      	lsrs	r2, r2, #10
        snprintf(diagBuf, sizeof(diagBuf), "Free space: %lu KB\r\n", (unsigned long)freeKB);
 8003444:	ac08      	add	r4, sp, #32
 8003446:	fb02 f303 	mul.w	r3, r2, r3
 800344a:	4a4b      	ldr	r2, [pc, #300]	@ (8003578 <main+0x1cc>)
 800344c:	2140      	movs	r1, #64	@ 0x40
 800344e:	4620      	mov	r0, r4
 8003450:	f004 fd2e 	bl	8007eb0 <sniprintf>
        UART_SendString(&huart3, diagBuf);
 8003454:	4621      	mov	r1, r4
 8003456:	4844      	ldr	r0, [pc, #272]	@ (8003568 <main+0x1bc>)
 8003458:	f7ff fd2a 	bl	8002eb0 <UART_SendString>
    FRESULT res = f_open(&SDFile, "TEST.txt", FA_CREATE_ALWAYS | FA_WRITE);
 800345c:	220a      	movs	r2, #10
 800345e:	4947      	ldr	r1, [pc, #284]	@ (800357c <main+0x1d0>)
 8003460:	4847      	ldr	r0, [pc, #284]	@ (8003580 <main+0x1d4>)
 8003462:	f7fe fffb 	bl	800245c <f_open>
 8003466:	4604      	mov	r4, r0
    snprintf(diagBuf, sizeof(diagBuf), "f_open TEST.txt result: %d\r\n", res);
 8003468:	ad08      	add	r5, sp, #32
 800346a:	4603      	mov	r3, r0
 800346c:	4a45      	ldr	r2, [pc, #276]	@ (8003584 <main+0x1d8>)
 800346e:	2140      	movs	r1, #64	@ 0x40
 8003470:	4628      	mov	r0, r5
 8003472:	f004 fd1d 	bl	8007eb0 <sniprintf>
    UART_SendString(&huart3, diagBuf);
 8003476:	4629      	mov	r1, r5
 8003478:	483b      	ldr	r0, [pc, #236]	@ (8003568 <main+0x1bc>)
 800347a:	f7ff fd19 	bl	8002eb0 <UART_SendString>
    if (res == FR_OK) {
 800347e:	bb74      	cbnz	r4, 80034de <main+0x132>
        FRESULT wres = f_write(&SDFile, "hello", 5, &bw);
 8003480:	4c3f      	ldr	r4, [pc, #252]	@ (8003580 <main+0x1d4>)
 8003482:	ab04      	add	r3, sp, #16
 8003484:	2205      	movs	r2, #5
 8003486:	4940      	ldr	r1, [pc, #256]	@ (8003588 <main+0x1dc>)
 8003488:	4620      	mov	r0, r4
 800348a:	f7ff f9ce 	bl	800282a <f_write>
 800348e:	4603      	mov	r3, r0
        snprintf(diagBuf, sizeof(diagBuf), "f_write result: %d, bytes: %u\r\n", wres, bw);
 8003490:	9a04      	ldr	r2, [sp, #16]
 8003492:	9200      	str	r2, [sp, #0]
 8003494:	4a3d      	ldr	r2, [pc, #244]	@ (800358c <main+0x1e0>)
 8003496:	2140      	movs	r1, #64	@ 0x40
 8003498:	4628      	mov	r0, r5
 800349a:	f004 fd09 	bl	8007eb0 <sniprintf>
        UART_SendString(&huart3, diagBuf);
 800349e:	4629      	mov	r1, r5
 80034a0:	4831      	ldr	r0, [pc, #196]	@ (8003568 <main+0x1bc>)
 80034a2:	f7ff fd05 	bl	8002eb0 <UART_SendString>
        f_close(&SDFile);
 80034a6:	4620      	mov	r0, r4
 80034a8:	f7ff fb86 	bl	8002bb8 <f_close>
 80034ac:	e017      	b.n	80034de <main+0x132>
        UART_SendString(&huart3, "f_getfree FAILED - possible FAT type or config issue\r\n");
 80034ae:	4938      	ldr	r1, [pc, #224]	@ (8003590 <main+0x1e4>)
 80034b0:	482d      	ldr	r0, [pc, #180]	@ (8003568 <main+0x1bc>)
 80034b2:	f7ff fcfd 	bl	8002eb0 <UART_SendString>
 80034b6:	e7d1      	b.n	800345c <main+0xb0>
            UART_SendString(&huart3, "Failed to write uptime.\r\n");
 80034b8:	4936      	ldr	r1, [pc, #216]	@ (8003594 <main+0x1e8>)
 80034ba:	482b      	ldr	r0, [pc, #172]	@ (8003568 <main+0x1bc>)
 80034bc:	f7ff fcf8 	bl	8002eb0 <UART_SendString>
        f_sync(&SDFile);  // Flush to card — critical for FAT reliability
 80034c0:	4c2f      	ldr	r4, [pc, #188]	@ (8003580 <main+0x1d4>)
 80034c2:	4620      	mov	r0, r4
 80034c4:	f7ff fad2 	bl	8002a6c <f_sync>
        f_close(&SDFile);
 80034c8:	4620      	mov	r0, r4
 80034ca:	f7ff fb75 	bl	8002bb8 <f_close>
  HAL_GPIO_TogglePin(Lo_PWR_CTRL_GPIO_Port, Lo_PWR_CTRL_Pin);
 80034ce:	2102      	movs	r1, #2
 80034d0:	4822      	ldr	r0, [pc, #136]	@ (800355c <main+0x1b0>)
 80034d2:	f000 fcad 	bl	8003e30 <HAL_GPIO_TogglePin>
    HAL_Delay(10000); // Toggle every 1 second
 80034d6:	f242 7010 	movw	r0, #10000	@ 0x2710
 80034da:	f000 f99f 	bl	800381c <HAL_Delay>
    FRESULT res = f_open(&SDFile, total_uptime_filename, FA_CREATE_ALWAYS | FA_WRITE);
 80034de:	4d2e      	ldr	r5, [pc, #184]	@ (8003598 <main+0x1ec>)
 80034e0:	4c27      	ldr	r4, [pc, #156]	@ (8003580 <main+0x1d4>)
 80034e2:	220a      	movs	r2, #10
 80034e4:	4629      	mov	r1, r5
 80034e6:	4620      	mov	r0, r4
 80034e8:	f7fe ffb8 	bl	800245c <f_open>
 80034ec:	4603      	mov	r3, r0
    snprintf(dbg, sizeof(dbg), "f_open res: %d\r\n", res);
 80034ee:	ae08      	add	r6, sp, #32
 80034f0:	4a2a      	ldr	r2, [pc, #168]	@ (800359c <main+0x1f0>)
 80034f2:	2120      	movs	r1, #32
 80034f4:	4630      	mov	r0, r6
 80034f6:	f004 fcdb 	bl	8007eb0 <sniprintf>
    UART_SendString(&huart3, dbg);
 80034fa:	4631      	mov	r1, r6
 80034fc:	481a      	ldr	r0, [pc, #104]	@ (8003568 <main+0x1bc>)
 80034fe:	f7ff fcd7 	bl	8002eb0 <UART_SendString>
    total_uptime += 10; // Increment uptime by the delay interval
 8003502:	4a27      	ldr	r2, [pc, #156]	@ (80035a0 <main+0x1f4>)
 8003504:	6813      	ldr	r3, [r2, #0]
 8003506:	330a      	adds	r3, #10
 8003508:	6013      	str	r3, [r2, #0]
    if (f_open(&SDFile, total_uptime_filename, FA_CREATE_ALWAYS | FA_WRITE) == FR_OK) {
 800350a:	220a      	movs	r2, #10
 800350c:	4629      	mov	r1, r5
 800350e:	4620      	mov	r0, r4
 8003510:	f7fe ffa4 	bl	800245c <f_open>
 8003514:	b9e8      	cbnz	r0, 8003552 <main+0x1a6>
        char writeBuf[16] = {0};
 8003516:	ac04      	add	r4, sp, #16
 8003518:	9004      	str	r0, [sp, #16]
 800351a:	9005      	str	r0, [sp, #20]
 800351c:	9006      	str	r0, [sp, #24]
 800351e:	9007      	str	r0, [sp, #28]
        UINT bytesWritten = 0;
 8003520:	9003      	str	r0, [sp, #12]
        int len = snprintf(writeBuf, sizeof(writeBuf), "%lu\r\n", (unsigned long)total_uptime);
 8003522:	4b1f      	ldr	r3, [pc, #124]	@ (80035a0 <main+0x1f4>)
 8003524:	681b      	ldr	r3, [r3, #0]
 8003526:	4a1f      	ldr	r2, [pc, #124]	@ (80035a4 <main+0x1f8>)
 8003528:	2110      	movs	r1, #16
 800352a:	4620      	mov	r0, r4
 800352c:	f004 fcc0 	bl	8007eb0 <sniprintf>
 8003530:	4605      	mov	r5, r0
        if (f_write(&SDFile, writeBuf, (UINT)len, &bytesWritten) == FR_OK && bytesWritten == (UINT)len) {
 8003532:	ab03      	add	r3, sp, #12
 8003534:	4602      	mov	r2, r0
 8003536:	4621      	mov	r1, r4
 8003538:	4811      	ldr	r0, [pc, #68]	@ (8003580 <main+0x1d4>)
 800353a:	f7ff f976 	bl	800282a <f_write>
 800353e:	2800      	cmp	r0, #0
 8003540:	d1ba      	bne.n	80034b8 <main+0x10c>
 8003542:	9b03      	ldr	r3, [sp, #12]
 8003544:	429d      	cmp	r5, r3
 8003546:	d1b7      	bne.n	80034b8 <main+0x10c>
            UART_SendString(&huart3, "Uptime written to SD card.\r\n");
 8003548:	4917      	ldr	r1, [pc, #92]	@ (80035a8 <main+0x1fc>)
 800354a:	4807      	ldr	r0, [pc, #28]	@ (8003568 <main+0x1bc>)
 800354c:	f7ff fcb0 	bl	8002eb0 <UART_SendString>
 8003550:	e7b6      	b.n	80034c0 <main+0x114>
        UART_SendString(&huart3, "Failed to open uptime file for writing.\r\n");
 8003552:	4916      	ldr	r1, [pc, #88]	@ (80035ac <main+0x200>)
 8003554:	4804      	ldr	r0, [pc, #16]	@ (8003568 <main+0x1bc>)
 8003556:	f7ff fcab 	bl	8002eb0 <UART_SendString>
 800355a:	e7b8      	b.n	80034ce <main+0x122>
 800355c:	48000400 	.word	0x48000400
 8003560:	48000800 	.word	0x48000800
 8003564:	08009158 	.word	0x08009158
 8003568:	20000b04 	.word	0x20000b04
 800356c:	20000510 	.word	0x20000510
 8003570:	200002d8 	.word	0x200002d8
 8003574:	08009160 	.word	0x08009160
 8003578:	08009180 	.word	0x08009180
 800357c:	080091d0 	.word	0x080091d0
 8003580:	20000080 	.word	0x20000080
 8003584:	080091dc 	.word	0x080091dc
 8003588:	080091fc 	.word	0x080091fc
 800358c:	08009204 	.word	0x08009204
 8003590:	08009198 	.word	0x08009198
 8003594:	08009260 	.word	0x08009260
 8003598:	08009338 	.word	0x08009338
 800359c:	08009224 	.word	0x08009224
 80035a0:	200009ac 	.word	0x200009ac
 80035a4:	08009238 	.word	0x08009238
 80035a8:	08009240 	.word	0x08009240
 80035ac:	0800927c 	.word	0x0800927c

080035b0 <SD_CheckStatus>:

  return -1;
}

static DSTATUS SD_CheckStatus(BYTE lun)
{
 80035b0:	b508      	push	{r3, lr}
  Stat = STA_NOINIT;
 80035b2:	4b07      	ldr	r3, [pc, #28]	@ (80035d0 <SD_CheckStatus+0x20>)
 80035b4:	2201      	movs	r2, #1
 80035b6:	701a      	strb	r2, [r3, #0]

  if(BSP_SD_GetCardState() == MSD_OK)
 80035b8:	f7fc fe96 	bl	80002e8 <BSP_SD_GetCardState>
 80035bc:	b920      	cbnz	r0, 80035c8 <SD_CheckStatus+0x18>
  {
    Stat &= ~STA_NOINIT;
 80035be:	4a04      	ldr	r2, [pc, #16]	@ (80035d0 <SD_CheckStatus+0x20>)
 80035c0:	7813      	ldrb	r3, [r2, #0]
 80035c2:	f003 03fe 	and.w	r3, r3, #254	@ 0xfe
 80035c6:	7013      	strb	r3, [r2, #0]
  }

  return Stat;
 80035c8:	4b01      	ldr	r3, [pc, #4]	@ (80035d0 <SD_CheckStatus+0x20>)
 80035ca:	7818      	ldrb	r0, [r3, #0]
}
 80035cc:	bd08      	pop	{r3, pc}
 80035ce:	bf00      	nop
 80035d0:	20000000 	.word	0x20000000

080035d4 <SD_initialize>:
  * @brief  Initializes a Drive
  * @param  lun : not used
  * @retval DSTATUS: Operation status
  */
DSTATUS SD_initialize(BYTE lun)
{
 80035d4:	b510      	push	{r4, lr}
 80035d6:	4604      	mov	r4, r0

#if !defined(DISABLE_SD_INIT)

  if(BSP_SD_Init() == MSD_OK)
 80035d8:	f7fc feaa 	bl	8000330 <BSP_SD_Init>
 80035dc:	b110      	cbz	r0, 80035e4 <SD_initialize+0x10>

#else
  Stat = SD_CheckStatus(lun);
#endif

  return Stat;
 80035de:	4b04      	ldr	r3, [pc, #16]	@ (80035f0 <SD_initialize+0x1c>)
 80035e0:	7818      	ldrb	r0, [r3, #0]
}
 80035e2:	bd10      	pop	{r4, pc}
    Stat = SD_CheckStatus(lun);
 80035e4:	4620      	mov	r0, r4
 80035e6:	f7ff ffe3 	bl	80035b0 <SD_CheckStatus>
 80035ea:	4b01      	ldr	r3, [pc, #4]	@ (80035f0 <SD_initialize+0x1c>)
 80035ec:	7018      	strb	r0, [r3, #0]
 80035ee:	e7f6      	b.n	80035de <SD_initialize+0xa>
 80035f0:	20000000 	.word	0x20000000

080035f4 <SD_status>:
  * @brief  Gets Disk Status
  * @param  lun : not used
  * @retval DSTATUS: Operation status
  */
DSTATUS SD_status(BYTE lun)
{
 80035f4:	b508      	push	{r3, lr}
  return SD_CheckStatus(lun);
 80035f6:	f7ff ffdb 	bl	80035b0 <SD_CheckStatus>
}
 80035fa:	bd08      	pop	{r3, pc}

080035fc <SD_CheckStatusWithTimeout>:
{
 80035fc:	b538      	push	{r3, r4, r5, lr}
 80035fe:	4605      	mov	r5, r0
  uint32_t timer = HAL_GetTick();
 8003600:	f000 f906 	bl	8003810 <HAL_GetTick>
 8003604:	4604      	mov	r4, r0
  while(HAL_GetTick() - timer < timeout)
 8003606:	f000 f903 	bl	8003810 <HAL_GetTick>
 800360a:	1b00      	subs	r0, r0, r4
 800360c:	42a8      	cmp	r0, r5
 800360e:	d204      	bcs.n	800361a <SD_CheckStatusWithTimeout+0x1e>
    if (BSP_SD_GetCardState() == SD_TRANSFER_OK)
 8003610:	f7fc fe6a 	bl	80002e8 <BSP_SD_GetCardState>
 8003614:	2800      	cmp	r0, #0
 8003616:	d1f6      	bne.n	8003606 <SD_CheckStatusWithTimeout+0xa>
 8003618:	e001      	b.n	800361e <SD_CheckStatusWithTimeout+0x22>
  return -1;
 800361a:	f04f 30ff 	mov.w	r0, #4294967295	@ 0xffffffff
}
 800361e:	bd38      	pop	{r3, r4, r5, pc}

08003620 <SD_read>:
  * @param  count: Number of sectors to read (1..128)
  * @retval DRESULT: Operation result
  */

DRESULT SD_read(BYTE lun, BYTE *buff, DWORD sector, UINT count)
{
 8003620:	b570      	push	{r4, r5, r6, lr}
 8003622:	460e      	mov	r6, r1
 8003624:	4615      	mov	r5, r2
 8003626:	461c      	mov	r4, r3

  /*
  * ensure the SDCard is ready for a new operation
  */

  if (SD_CheckStatusWithTimeout(SD_TIMEOUT) < 0)
 8003628:	f247 5030 	movw	r0, #30000	@ 0x7530
 800362c:	f7ff ffe6 	bl	80035fc <SD_CheckStatusWithTimeout>
 8003630:	2800      	cmp	r0, #0
 8003632:	db2f      	blt.n	8003694 <SD_read+0x74>

#if defined(ENABLE_SCRATCH_BUFFER)
  if (!((uint32_t)buff & 0x3))
  {
#endif
    if(BSP_SD_ReadBlocks_DMA((uint32_t*)buff,
 8003634:	4622      	mov	r2, r4
 8003636:	4629      	mov	r1, r5
 8003638:	4630      	mov	r0, r6
 800363a:	f7fc fe3d 	bl	80002b8 <BSP_SD_ReadBlocks_DMA>
 800363e:	b108      	cbz	r0, 8003644 <SD_read+0x24>
  DRESULT res = RES_ERROR;
 8003640:	2001      	movs	r0, #1
 8003642:	e028      	b.n	8003696 <SD_read+0x76>
                             (uint32_t) (sector),
                             count) == MSD_OK)
    {
      ReadStatus = 0;
 8003644:	4b14      	ldr	r3, [pc, #80]	@ (8003698 <SD_read+0x78>)
 8003646:	6018      	str	r0, [r3, #0]
      /* Wait that the reading process is completed or a timeout occurs */
      timeout = HAL_GetTick();
 8003648:	f000 f8e2 	bl	8003810 <HAL_GetTick>
 800364c:	4604      	mov	r4, r0
      while((ReadStatus == 0) && ((HAL_GetTick() - timeout) < SD_TIMEOUT))
 800364e:	4b12      	ldr	r3, [pc, #72]	@ (8003698 <SD_read+0x78>)
 8003650:	681b      	ldr	r3, [r3, #0]
 8003652:	b933      	cbnz	r3, 8003662 <SD_read+0x42>
 8003654:	f000 f8dc 	bl	8003810 <HAL_GetTick>
 8003658:	1b00      	subs	r0, r0, r4
 800365a:	f247 532f 	movw	r3, #29999	@ 0x752f
 800365e:	4298      	cmp	r0, r3
 8003660:	d9f5      	bls.n	800364e <SD_read+0x2e>
      {
      }
      /* in case of a timeout return error */
      if (ReadStatus == 0)
 8003662:	4b0d      	ldr	r3, [pc, #52]	@ (8003698 <SD_read+0x78>)
 8003664:	681b      	ldr	r3, [r3, #0]
 8003666:	b90b      	cbnz	r3, 800366c <SD_read+0x4c>
      {
        res = RES_ERROR;
 8003668:	2001      	movs	r0, #1
 800366a:	e014      	b.n	8003696 <SD_read+0x76>
      }
      else
      {
        ReadStatus = 0;
 800366c:	4b0a      	ldr	r3, [pc, #40]	@ (8003698 <SD_read+0x78>)
 800366e:	2200      	movs	r2, #0
 8003670:	601a      	str	r2, [r3, #0]
        timeout = HAL_GetTick();
 8003672:	f000 f8cd 	bl	8003810 <HAL_GetTick>
 8003676:	4604      	mov	r4, r0

        while((HAL_GetTick() - timeout) < SD_TIMEOUT)
 8003678:	f000 f8ca 	bl	8003810 <HAL_GetTick>
 800367c:	1b00      	subs	r0, r0, r4
 800367e:	f247 532f 	movw	r3, #29999	@ 0x752f
 8003682:	4298      	cmp	r0, r3
 8003684:	d804      	bhi.n	8003690 <SD_read+0x70>
        {
          if (BSP_SD_GetCardState() == SD_TRANSFER_OK)
 8003686:	f7fc fe2f 	bl	80002e8 <BSP_SD_GetCardState>
 800368a:	2800      	cmp	r0, #0
 800368c:	d1f4      	bne.n	8003678 <SD_read+0x58>
 800368e:	e002      	b.n	8003696 <SD_read+0x76>
  DRESULT res = RES_ERROR;
 8003690:	2001      	movs	r0, #1
 8003692:	e000      	b.n	8003696 <SD_read+0x76>
    return res;
 8003694:	2001      	movs	r0, #1
        res = RES_OK;
    }
#endif

  return res;
}
 8003696:	bd70      	pop	{r4, r5, r6, pc}
 8003698:	2000117c 	.word	0x2000117c

0800369c <SD_write>:
  * @retval DRESULT: Operation result
  */
#if _USE_WRITE == 1

DRESULT SD_write(BYTE lun, const BYTE *buff, DWORD sector, UINT count)
{
 800369c:	b570      	push	{r4, r5, r6, lr}
 800369e:	460e      	mov	r6, r1
 80036a0:	4615      	mov	r5, r2
 80036a2:	461c      	mov	r4, r3
#if defined(ENABLE_SCRATCH_BUFFER)
  uint8_t ret;
  int i;
#endif

   WriteStatus = 0;
 80036a4:	4b1c      	ldr	r3, [pc, #112]	@ (8003718 <SD_write+0x7c>)
 80036a6:	2200      	movs	r2, #0
 80036a8:	601a      	str	r2, [r3, #0]
#if (ENABLE_SD_DMA_CACHE_MAINTENANCE == 1)
  uint32_t alignedAddr;
#endif

  if (SD_CheckStatusWithTimeout(SD_TIMEOUT) < 0)
 80036aa:	f247 5030 	movw	r0, #30000	@ 0x7530
 80036ae:	f7ff ffa5 	bl	80035fc <SD_CheckStatusWithTimeout>
 80036b2:	2800      	cmp	r0, #0
 80036b4:	db2d      	blt.n	8003712 <SD_write+0x76>
    */
    alignedAddr = (uint32_t)buff &  ~0x1F;
    SCB_CleanDCache_by_Addr((uint32_t*)alignedAddr, count*BLOCKSIZE + ((uint32_t)buff - alignedAddr));
#endif

    if(BSP_SD_WriteBlocks_DMA((uint32_t*)buff,
 80036b6:	4622      	mov	r2, r4
 80036b8:	4629      	mov	r1, r5
 80036ba:	4630      	mov	r0, r6
 80036bc:	f7fc fe08 	bl	80002d0 <BSP_SD_WriteBlocks_DMA>
 80036c0:	b108      	cbz	r0, 80036c6 <SD_write+0x2a>
  DRESULT res = RES_ERROR;
 80036c2:	2001      	movs	r0, #1
 80036c4:	e026      	b.n	8003714 <SD_write+0x78>
                              (uint32_t)(sector),
                              count) == MSD_OK)
    {
      /* Wait that writing process is completed or a timeout occurs */

      timeout = HAL_GetTick();
 80036c6:	f000 f8a3 	bl	8003810 <HAL_GetTick>
 80036ca:	4604      	mov	r4, r0
      while((WriteStatus == 0) && ((HAL_GetTick() - timeout) < SD_TIMEOUT))
 80036cc:	4b12      	ldr	r3, [pc, #72]	@ (8003718 <SD_write+0x7c>)
 80036ce:	681b      	ldr	r3, [r3, #0]
 80036d0:	b933      	cbnz	r3, 80036e0 <SD_write+0x44>
 80036d2:	f000 f89d 	bl	8003810 <HAL_GetTick>
 80036d6:	1b00      	subs	r0, r0, r4
 80036d8:	f247 532f 	movw	r3, #29999	@ 0x752f
 80036dc:	4298      	cmp	r0, r3
 80036de:	d9f5      	bls.n	80036cc <SD_write+0x30>
      {
      }
      /* in case of a timeout return error */
      if (WriteStatus == 0)
 80036e0:	4b0d      	ldr	r3, [pc, #52]	@ (8003718 <SD_write+0x7c>)
 80036e2:	681b      	ldr	r3, [r3, #0]
 80036e4:	b90b      	cbnz	r3, 80036ea <SD_write+0x4e>
      {
        res = RES_ERROR;
 80036e6:	2001      	movs	r0, #1
 80036e8:	e014      	b.n	8003714 <SD_write+0x78>
      }
      else
      {
        WriteStatus = 0;
 80036ea:	4b0b      	ldr	r3, [pc, #44]	@ (8003718 <SD_write+0x7c>)
 80036ec:	2200      	movs	r2, #0
 80036ee:	601a      	str	r2, [r3, #0]
        timeout = HAL_GetTick();
 80036f0:	f000 f88e 	bl	8003810 <HAL_GetTick>
 80036f4:	4604      	mov	r4, r0

        while((HAL_GetTick() - timeout) < SD_TIMEOUT)
 80036f6:	f000 f88b 	bl	8003810 <HAL_GetTick>
 80036fa:	1b00      	subs	r0, r0, r4
 80036fc:	f247 532f 	movw	r3, #29999	@ 0x752f
 8003700:	4298      	cmp	r0, r3
 8003702:	d804      	bhi.n	800370e <SD_write+0x72>
        {
          if (BSP_SD_GetCardState() == SD_TRANSFER_OK)
 8003704:	f7fc fdf0 	bl	80002e8 <BSP_SD_GetCardState>
 8003708:	2800      	cmp	r0, #0
 800370a:	d1f4      	bne.n	80036f6 <SD_write+0x5a>
 800370c:	e002      	b.n	8003714 <SD_write+0x78>
  DRESULT res = RES_ERROR;
 800370e:	2001      	movs	r0, #1
 8003710:	e000      	b.n	8003714 <SD_write+0x78>
    return res;
 8003712:	2001      	movs	r0, #1
      if ((i == count) && (ret == MSD_OK))
        res = RES_OK;
    }
#endif
  return res;
}
 8003714:	bd70      	pop	{r4, r5, r6, pc}
 8003716:	bf00      	nop
 8003718:	20001180 	.word	0x20001180

0800371c <SD_ioctl>:
  * @param  *buff: Buffer to send/receive control data
  * @retval DRESULT: Operation result
  */
#if _USE_IOCTL == 1
DRESULT SD_ioctl(BYTE lun, BYTE cmd, void *buff)
{
 800371c:	b530      	push	{r4, r5, lr}
 800371e:	b089      	sub	sp, #36	@ 0x24
  DRESULT res = RES_ERROR;
  BSP_SD_CardInfo CardInfo;

  if (Stat & STA_NOINIT) return RES_NOTRDY;
 8003720:	4b15      	ldr	r3, [pc, #84]	@ (8003778 <SD_ioctl+0x5c>)
 8003722:	7818      	ldrb	r0, [r3, #0]
 8003724:	f010 0401 	ands.w	r4, r0, #1
 8003728:	d11f      	bne.n	800376a <SD_ioctl+0x4e>
 800372a:	4615      	mov	r5, r2

  switch (cmd)
 800372c:	2902      	cmp	r1, #2
 800372e:	d016      	beq.n	800375e <SD_ioctl+0x42>
 8003730:	d80a      	bhi.n	8003748 <SD_ioctl+0x2c>
 8003732:	b1f1      	cbz	r1, 8003772 <SD_ioctl+0x56>
 8003734:	2901      	cmp	r1, #1
 8003736:	d105      	bne.n	8003744 <SD_ioctl+0x28>
    res = RES_OK;
    break;

  /* Get number of sectors on the disk (DWORD) */
  case GET_SECTOR_COUNT :
    BSP_SD_GetCardInfo(&CardInfo);
 8003738:	4668      	mov	r0, sp
 800373a:	f7fc fddf 	bl	80002fc <BSP_SD_GetCardInfo>
    *(DWORD*)buff = CardInfo.LogBlockNbr;
 800373e:	9b06      	ldr	r3, [sp, #24]
 8003740:	602b      	str	r3, [r5, #0]
    res = RES_OK;
    break;
 8003742:	e013      	b.n	800376c <SD_ioctl+0x50>
    *(DWORD*)buff = CardInfo.LogBlockSize / SD_DEFAULT_BLOCK_SIZE;
    res = RES_OK;
    break;

  default:
    res = RES_PARERR;
 8003744:	2404      	movs	r4, #4
 8003746:	e011      	b.n	800376c <SD_ioctl+0x50>
  switch (cmd)
 8003748:	2903      	cmp	r1, #3
 800374a:	d106      	bne.n	800375a <SD_ioctl+0x3e>
    BSP_SD_GetCardInfo(&CardInfo);
 800374c:	4668      	mov	r0, sp
 800374e:	f7fc fdd5 	bl	80002fc <BSP_SD_GetCardInfo>
    *(DWORD*)buff = CardInfo.LogBlockSize / SD_DEFAULT_BLOCK_SIZE;
 8003752:	9b07      	ldr	r3, [sp, #28]
 8003754:	0a5b      	lsrs	r3, r3, #9
 8003756:	602b      	str	r3, [r5, #0]
    break;
 8003758:	e008      	b.n	800376c <SD_ioctl+0x50>
    res = RES_PARERR;
 800375a:	2404      	movs	r4, #4
 800375c:	e006      	b.n	800376c <SD_ioctl+0x50>
    BSP_SD_GetCardInfo(&CardInfo);
 800375e:	4668      	mov	r0, sp
 8003760:	f7fc fdcc 	bl	80002fc <BSP_SD_GetCardInfo>
    *(WORD*)buff = CardInfo.LogBlockSize;
 8003764:	9b07      	ldr	r3, [sp, #28]
 8003766:	802b      	strh	r3, [r5, #0]
    break;
 8003768:	e000      	b.n	800376c <SD_ioctl+0x50>
  if (Stat & STA_NOINIT) return RES_NOTRDY;
 800376a:	2403      	movs	r4, #3
  }

  return res;
}
 800376c:	4620      	mov	r0, r4
 800376e:	b009      	add	sp, #36	@ 0x24
 8003770:	bd30      	pop	{r4, r5, pc}
  switch (cmd)
 8003772:	460c      	mov	r4, r1
 8003774:	e7fa      	b.n	800376c <SD_ioctl+0x50>
 8003776:	bf00      	nop
 8003778:	20000000 	.word	0x20000000

0800377c <BSP_SD_ReadCpltCallback>:
  * @param hsd: SD handle
  * @retval None
  */
void BSP_SD_ReadCpltCallback(void)
{
  ReadStatus = 1;
 800377c:	4b01      	ldr	r3, [pc, #4]	@ (8003784 <BSP_SD_ReadCpltCallback+0x8>)
 800377e:	2201      	movs	r2, #1
 8003780:	601a      	str	r2, [r3, #0]
}
 8003782:	4770      	bx	lr
 8003784:	2000117c 	.word	0x2000117c

08003788 <HAL_InitTick>:
__weak HAL_StatusTypeDef HAL_InitTick(uint32_t TickPriority)
{
  HAL_StatusTypeDef  status = HAL_OK;

  /* Check uwTickFreq for MisraC 2012 (even if uwTickFreq is a enum type that doesn't take the value zero)*/
  if ((uint32_t)uwTickFreq != 0U)
 8003788:	4b10      	ldr	r3, [pc, #64]	@ (80037cc <HAL_InitTick+0x44>)
 800378a:	781b      	ldrb	r3, [r3, #0]
 800378c:	b90b      	cbnz	r3, 8003792 <HAL_InitTick+0xa>
      status = HAL_ERROR;
    }
  }
  else
  {
    status = HAL_ERROR;
 800378e:	2001      	movs	r0, #1
  }

  /* Return function status */
  return status;
}
 8003790:	4770      	bx	lr
{
 8003792:	b510      	push	{r4, lr}
 8003794:	4604      	mov	r4, r0
    if (HAL_SYSTICK_Config(SystemCoreClock / (1000U / (uint32_t)uwTickFreq)) == 0U)
 8003796:	4a0e      	ldr	r2, [pc, #56]	@ (80037d0 <HAL_InitTick+0x48>)
 8003798:	6810      	ldr	r0, [r2, #0]
 800379a:	f44f 727a 	mov.w	r2, #1000	@ 0x3e8
 800379e:	fbb2 f3f3 	udiv	r3, r2, r3
 80037a2:	fbb0 f0f3 	udiv	r0, r0, r3
 80037a6:	f000 f8b9 	bl	800391c <HAL_SYSTICK_Config>
 80037aa:	b968      	cbnz	r0, 80037c8 <HAL_InitTick+0x40>
      if (TickPriority < (1UL << __NVIC_PRIO_BITS))
 80037ac:	2c0f      	cmp	r4, #15
 80037ae:	d901      	bls.n	80037b4 <HAL_InitTick+0x2c>
        status = HAL_ERROR;
 80037b0:	2001      	movs	r0, #1
 80037b2:	e00a      	b.n	80037ca <HAL_InitTick+0x42>
        HAL_NVIC_SetPriority(SysTick_IRQn, TickPriority, 0U);
 80037b4:	4602      	mov	r2, r0
 80037b6:	4621      	mov	r1, r4
 80037b8:	f04f 30ff 	mov.w	r0, #4294967295	@ 0xffffffff
 80037bc:	f000 f89a 	bl	80038f4 <HAL_NVIC_SetPriority>
        uwTickPrio = TickPriority;
 80037c0:	4b04      	ldr	r3, [pc, #16]	@ (80037d4 <HAL_InitTick+0x4c>)
 80037c2:	601c      	str	r4, [r3, #0]
  HAL_StatusTypeDef  status = HAL_OK;
 80037c4:	2000      	movs	r0, #0
 80037c6:	e000      	b.n	80037ca <HAL_InitTick+0x42>
      status = HAL_ERROR;
 80037c8:	2001      	movs	r0, #1
}
 80037ca:	bd10      	pop	{r4, pc}
 80037cc:	20000001 	.word	0x20000001
 80037d0:	20000008 	.word	0x20000008
 80037d4:	20000004 	.word	0x20000004

080037d8 <HAL_Init>:
{
 80037d8:	b510      	push	{r4, lr}
  HAL_NVIC_SetPriorityGrouping(NVIC_PRIORITYGROUP_4);
 80037da:	2003      	movs	r0, #3
 80037dc:	f000 f878 	bl	80038d0 <HAL_NVIC_SetPriorityGrouping>
  if (HAL_InitTick(TICK_INT_PRIORITY) != HAL_OK)
 80037e0:	200f      	movs	r0, #15
 80037e2:	f7ff ffd1 	bl	8003788 <HAL_InitTick>
 80037e6:	b118      	cbz	r0, 80037f0 <HAL_Init+0x18>
    status = HAL_ERROR;
 80037e8:	2301      	movs	r3, #1
 80037ea:	461c      	mov	r4, r3
}
 80037ec:	4620      	mov	r0, r4
 80037ee:	bd10      	pop	{r4, pc}
 80037f0:	4604      	mov	r4, r0
    HAL_MspInit();
 80037f2:	f000 fbf1 	bl	8003fd8 <HAL_MspInit>
 80037f6:	e7f9      	b.n	80037ec <HAL_Init+0x14>

080037f8 <HAL_IncTick>:
  *      implementations in user file.
  * @retval None
  */
__weak void HAL_IncTick(void)
{
  uwTick += (uint32_t)uwTickFreq;
 80037f8:	4b03      	ldr	r3, [pc, #12]	@ (8003808 <HAL_IncTick+0x10>)
 80037fa:	781b      	ldrb	r3, [r3, #0]
 80037fc:	4a03      	ldr	r2, [pc, #12]	@ (800380c <HAL_IncTick+0x14>)
 80037fe:	6811      	ldr	r1, [r2, #0]
 8003800:	440b      	add	r3, r1
 8003802:	6013      	str	r3, [r2, #0]
}
 8003804:	4770      	bx	lr
 8003806:	bf00      	nop
 8003808:	20000001 	.word	0x20000001
 800380c:	20001184 	.word	0x20001184

08003810 <HAL_GetTick>:
  *       implementations in user file.
  * @retval tick value
  */
__weak uint32_t HAL_GetTick(void)
{
  return uwTick;
 8003810:	4b01      	ldr	r3, [pc, #4]	@ (8003818 <HAL_GetTick+0x8>)
 8003812:	6818      	ldr	r0, [r3, #0]
}
 8003814:	4770      	bx	lr
 8003816:	bf00      	nop
 8003818:	20001184 	.word	0x20001184

0800381c <HAL_Delay>:
  *       implementations in user file.
  * @param Delay  specifies the delay time length, in milliseconds.
  * @retval None
  */
__weak void HAL_Delay(uint32_t Delay)
{
 800381c:	b538      	push	{r3, r4, r5, lr}
 800381e:	4604      	mov	r4, r0
  uint32_t tickstart = HAL_GetTick();
 8003820:	f7ff fff6 	bl	8003810 <HAL_GetTick>
 8003824:	4605      	mov	r5, r0
  uint32_t wait = Delay;

  /* Add a period to guaranty minimum wait */
  if (wait < HAL_MAX_DELAY)
 8003826:	f1b4 3fff 	cmp.w	r4, #4294967295	@ 0xffffffff
 800382a:	d002      	beq.n	8003832 <HAL_Delay+0x16>
  {
    wait += (uint32_t)uwTickFreq;
 800382c:	4b04      	ldr	r3, [pc, #16]	@ (8003840 <HAL_Delay+0x24>)
 800382e:	781b      	ldrb	r3, [r3, #0]
 8003830:	441c      	add	r4, r3
  }

  while ((HAL_GetTick() - tickstart) < wait)
 8003832:	f7ff ffed 	bl	8003810 <HAL_GetTick>
 8003836:	1b40      	subs	r0, r0, r5
 8003838:	42a0      	cmp	r0, r4
 800383a:	d3fa      	bcc.n	8003832 <HAL_Delay+0x16>
  {
  }
}
 800383c:	bd38      	pop	{r3, r4, r5, pc}
 800383e:	bf00      	nop
 8003840:	20000001 	.word	0x20000001

08003844 <__NVIC_EnableIRQ>:
  \param [in]      IRQn  Device specific interrupt number.
  \note    IRQn must not be negative.
 */
__STATIC_INLINE void __NVIC_EnableIRQ(IRQn_Type IRQn)
{
  if ((int32_t)(IRQn) >= 0)
 8003844:	2800      	cmp	r0, #0
 8003846:	db07      	blt.n	8003858 <__NVIC_EnableIRQ+0x14>
  {
    __COMPILER_BARRIER();
    NVIC->ISER[(((uint32_t)IRQn) >> 5UL)] = (uint32_t)(1UL << (((uint32_t)IRQn) & 0x1FUL));
 8003848:	f000 021f 	and.w	r2, r0, #31
 800384c:	0940      	lsrs	r0, r0, #5
 800384e:	2301      	movs	r3, #1
 8003850:	4093      	lsls	r3, r2
 8003852:	4a02      	ldr	r2, [pc, #8]	@ (800385c <__NVIC_EnableIRQ+0x18>)
 8003854:	f842 3020 	str.w	r3, [r2, r0, lsl #2]
    __COMPILER_BARRIER();
  }
}
 8003858:	4770      	bx	lr
 800385a:	bf00      	nop
 800385c:	e000e100 	.word	0xe000e100

08003860 <__NVIC_SetPriority>:
  \param [in]  priority  Priority to set.
  \note    The priority cannot be set for every processor exception.
 */
__STATIC_INLINE void __NVIC_SetPriority(IRQn_Type IRQn, uint32_t priority)
{
  if ((int32_t)(IRQn) >= 0)
 8003860:	2800      	cmp	r0, #0
 8003862:	db08      	blt.n	8003876 <__NVIC_SetPriority+0x16>
  {
    NVIC->IP[((uint32_t)IRQn)]               = (uint8_t)((priority << (8U - __NVIC_PRIO_BITS)) & (uint32_t)0xFFUL);
 8003864:	0109      	lsls	r1, r1, #4
 8003866:	b2c9      	uxtb	r1, r1
 8003868:	f100 4060 	add.w	r0, r0, #3758096384	@ 0xe0000000
 800386c:	f500 4061 	add.w	r0, r0, #57600	@ 0xe100
 8003870:	f880 1300 	strb.w	r1, [r0, #768]	@ 0x300
 8003874:	4770      	bx	lr
  }
  else
  {
    SCB->SHP[(((uint32_t)IRQn) & 0xFUL)-4UL] = (uint8_t)((priority << (8U - __NVIC_PRIO_BITS)) & (uint32_t)0xFFUL);
 8003876:	f000 000f 	and.w	r0, r0, #15
 800387a:	0109      	lsls	r1, r1, #4
 800387c:	b2c9      	uxtb	r1, r1
 800387e:	4b01      	ldr	r3, [pc, #4]	@ (8003884 <__NVIC_SetPriority+0x24>)
 8003880:	5419      	strb	r1, [r3, r0]
  }
}
 8003882:	4770      	bx	lr
 8003884:	e000ed14 	.word	0xe000ed14

08003888 <NVIC_EncodePriority>:
  \param [in]   PreemptPriority  Preemptive priority value (starting from 0).
  \param [in]       SubPriority  Subpriority value (starting from 0).
  \return                        Encoded priority. Value can be used in the function \ref NVIC_SetPriority().
 */
__STATIC_INLINE uint32_t NVIC_EncodePriority (uint32_t PriorityGroup, uint32_t PreemptPriority, uint32_t SubPriority)
{
 8003888:	b500      	push	{lr}
  uint32_t PriorityGroupTmp = (PriorityGroup & (uint32_t)0x07UL);   /* only values 0..7 are used          */
 800388a:	f000 0007 	and.w	r0, r0, #7
  uint32_t PreemptPriorityBits;
  uint32_t SubPriorityBits;

  PreemptPriorityBits = ((7UL - PriorityGroupTmp) > (uint32_t)(__NVIC_PRIO_BITS)) ? (uint32_t)(__NVIC_PRIO_BITS) : (uint32_t)(7UL - PriorityGroupTmp);
 800388e:	f1a0 0c03 	sub.w	ip, r0, #3
 8003892:	f1bc 0f04 	cmp.w	ip, #4
 8003896:	d807      	bhi.n	80038a8 <NVIC_EncodePriority+0x20>
 8003898:	f1c0 0e07 	rsb	lr, r0, #7
  SubPriorityBits     = ((PriorityGroupTmp + (uint32_t)(__NVIC_PRIO_BITS)) < (uint32_t)7UL) ? (uint32_t)0UL : (uint32_t)((PriorityGroupTmp - 7UL) + (uint32_t)(__NVIC_PRIO_BITS));
 800389c:	3004      	adds	r0, #4
 800389e:	2806      	cmp	r0, #6
 80038a0:	d806      	bhi.n	80038b0 <NVIC_EncodePriority+0x28>
 80038a2:	f04f 0c00 	mov.w	ip, #0
 80038a6:	e003      	b.n	80038b0 <NVIC_EncodePriority+0x28>
  PreemptPriorityBits = ((7UL - PriorityGroupTmp) > (uint32_t)(__NVIC_PRIO_BITS)) ? (uint32_t)(__NVIC_PRIO_BITS) : (uint32_t)(7UL - PriorityGroupTmp);
 80038a8:	f04f 0e04 	mov.w	lr, #4
  SubPriorityBits     = ((PriorityGroupTmp + (uint32_t)(__NVIC_PRIO_BITS)) < (uint32_t)7UL) ? (uint32_t)0UL : (uint32_t)((PriorityGroupTmp - 7UL) + (uint32_t)(__NVIC_PRIO_BITS));
 80038ac:	f04f 0c00 	mov.w	ip, #0

  return (
           ((PreemptPriority & (uint32_t)((1UL << (PreemptPriorityBits)) - 1UL)) << SubPriorityBits) |
 80038b0:	f04f 33ff 	mov.w	r3, #4294967295	@ 0xffffffff
 80038b4:	fa03 f00e 	lsl.w	r0, r3, lr
 80038b8:	ea21 0100 	bic.w	r1, r1, r0
 80038bc:	fa01 f10c 	lsl.w	r1, r1, ip
           ((SubPriority     & (uint32_t)((1UL << (SubPriorityBits    )) - 1UL)))
 80038c0:	fa03 f30c 	lsl.w	r3, r3, ip
 80038c4:	ea22 0203 	bic.w	r2, r2, r3
         );
}
 80038c8:	ea41 0002 	orr.w	r0, r1, r2
 80038cc:	bd00      	pop	{pc}
	...

080038d0 <HAL_NVIC_SetPriorityGrouping>:
  reg_value  =  SCB->AIRCR;                                                   /* read old register configuration    */
 80038d0:	4a07      	ldr	r2, [pc, #28]	@ (80038f0 <HAL_NVIC_SetPriorityGrouping+0x20>)
 80038d2:	68d3      	ldr	r3, [r2, #12]
  reg_value &= ~((uint32_t)(SCB_AIRCR_VECTKEY_Msk | SCB_AIRCR_PRIGROUP_Msk)); /* clear bits to change               */
 80038d4:	f423 63e0 	bic.w	r3, r3, #1792	@ 0x700
 80038d8:	041b      	lsls	r3, r3, #16
 80038da:	0c1b      	lsrs	r3, r3, #16
                (PriorityGroupTmp << SCB_AIRCR_PRIGROUP_Pos)  );              /* Insert write key and priority group */
 80038dc:	0200      	lsls	r0, r0, #8
 80038de:	f400 60e0 	and.w	r0, r0, #1792	@ 0x700
                ((uint32_t)0x5FAUL << SCB_AIRCR_VECTKEY_Pos) |
 80038e2:	4303      	orrs	r3, r0
  reg_value  =  (reg_value                                   |
 80038e4:	f043 63bf 	orr.w	r3, r3, #100139008	@ 0x5f80000
 80038e8:	f443 3300 	orr.w	r3, r3, #131072	@ 0x20000
  SCB->AIRCR =  reg_value;
 80038ec:	60d3      	str	r3, [r2, #12]
  /* Check the parameters */
  assert_param(IS_NVIC_PRIORITY_GROUP(PriorityGroup));

  /* Set the PRIGROUP[10:8] bits according to the PriorityGroup parameter value */
  NVIC_SetPriorityGrouping(PriorityGroup);
}
 80038ee:	4770      	bx	lr
 80038f0:	e000ed00 	.word	0xe000ed00

080038f4 <HAL_NVIC_SetPriority>:
  *         This parameter can be a value between 0 and 15
  *         A lower priority value indicates a higher priority.
  * @retval None
  */
void HAL_NVIC_SetPriority(IRQn_Type IRQn, uint32_t PreemptPriority, uint32_t SubPriority)
{
 80038f4:	b510      	push	{r4, lr}
 80038f6:	4604      	mov	r4, r0
  return ((uint32_t)((SCB->AIRCR & SCB_AIRCR_PRIGROUP_Msk) >> SCB_AIRCR_PRIGROUP_Pos));
 80038f8:	4b05      	ldr	r3, [pc, #20]	@ (8003910 <HAL_NVIC_SetPriority+0x1c>)
 80038fa:	68d8      	ldr	r0, [r3, #12]
  assert_param(IS_NVIC_SUB_PRIORITY(SubPriority));
  assert_param(IS_NVIC_PREEMPTION_PRIORITY(PreemptPriority));

  prioritygroup = NVIC_GetPriorityGrouping();

  NVIC_SetPriority(IRQn, NVIC_EncodePriority(prioritygroup, PreemptPriority, SubPriority));
 80038fc:	f3c0 2002 	ubfx	r0, r0, #8, #3
 8003900:	f7ff ffc2 	bl	8003888 <NVIC_EncodePriority>
 8003904:	4601      	mov	r1, r0
 8003906:	4620      	mov	r0, r4
 8003908:	f7ff ffaa 	bl	8003860 <__NVIC_SetPriority>
}
 800390c:	bd10      	pop	{r4, pc}
 800390e:	bf00      	nop
 8003910:	e000ed00 	.word	0xe000ed00

08003914 <HAL_NVIC_EnableIRQ>:
  *         This parameter can be an enumerator of IRQn_Type enumeration
  *         (For the complete STM32 Devices IRQ Channels list, please refer to the appropriate CMSIS device file (stm32l4xxxx.h))
  * @retval None
  */
void HAL_NVIC_EnableIRQ(IRQn_Type IRQn)
{
 8003914:	b508      	push	{r3, lr}
  /* Check the parameters */
  assert_param(IS_NVIC_DEVICE_IRQ(IRQn));
  
  /* Enable interrupt */
  NVIC_EnableIRQ(IRQn);
 8003916:	f7ff ff95 	bl	8003844 <__NVIC_EnableIRQ>
}
 800391a:	bd08      	pop	{r3, pc}

0800391c <HAL_SYSTICK_Config>:
           function <b>SysTick_Config</b> is not included. In this case, the file <b><i>device</i>.h</b>
           must contain a vendor-specific implementation of this function.
 */
__STATIC_INLINE uint32_t SysTick_Config(uint32_t ticks)
{
  if ((ticks - 1UL) > SysTick_LOAD_RELOAD_Msk)
 800391c:	3801      	subs	r0, #1
 800391e:	f1b0 7f80 	cmp.w	r0, #16777216	@ 0x1000000
 8003922:	d20b      	bcs.n	800393c <HAL_SYSTICK_Config+0x20>
  {
    return (1UL);                                                   /* Reload value impossible */
  }

  SysTick->LOAD  = (uint32_t)(ticks - 1UL);                         /* set reload register */
 8003924:	f04f 23e0 	mov.w	r3, #3758153728	@ 0xe000e000
 8003928:	6158      	str	r0, [r3, #20]
    SCB->SHP[(((uint32_t)IRQn) & 0xFUL)-4UL] = (uint8_t)((priority << (8U - __NVIC_PRIO_BITS)) & (uint32_t)0xFFUL);
 800392a:	4a05      	ldr	r2, [pc, #20]	@ (8003940 <HAL_SYSTICK_Config+0x24>)
 800392c:	21f0      	movs	r1, #240	@ 0xf0
 800392e:	f882 1023 	strb.w	r1, [r2, #35]	@ 0x23
  NVIC_SetPriority (SysTick_IRQn, (1UL << __NVIC_PRIO_BITS) - 1UL); /* set Priority for Systick Interrupt */
  SysTick->VAL   = 0UL;                                             /* Load the SysTick Counter Value */
 8003932:	2000      	movs	r0, #0
 8003934:	6198      	str	r0, [r3, #24]
  SysTick->CTRL  = SysTick_CTRL_CLKSOURCE_Msk |
 8003936:	2207      	movs	r2, #7
 8003938:	611a      	str	r2, [r3, #16]
                   SysTick_CTRL_TICKINT_Msk   |
                   SysTick_CTRL_ENABLE_Msk;                         /* Enable SysTick IRQ and SysTick Timer */
  return (0UL);                                                     /* Function successful */
 800393a:	4770      	bx	lr
    return (1UL);                                                   /* Reload value impossible */
 800393c:	2001      	movs	r0, #1
  *                  - 1  Function failed.
  */
uint32_t HAL_SYSTICK_Config(uint32_t TicksNumb)
{
   return SysTick_Config(TicksNumb);
}
 800393e:	4770      	bx	lr
 8003940:	e000ed00 	.word	0xe000ed00

08003944 <DMA_SetConfig>:
  * @param DstAddress The destination memory Buffer address
  * @param DataLength The length of data to be transferred from source to destination
  * @retval HAL status
  */
static void DMA_SetConfig(DMA_HandleTypeDef *hdma, uint32_t SrcAddress, uint32_t DstAddress, uint32_t DataLength)
{
 8003944:	b510      	push	{r4, lr}
    hdma->DMAmuxRequestGenStatus->RGCFR = hdma->DMAmuxRequestGenStatusMask;
  }
#endif /* DMAMUX1 */

  /* Clear all flags */
  hdma->DmaBaseAddress->IFCR = (DMA_ISR_GIF1 << (hdma->ChannelIndex & 0x1CU));
 8003946:	6c44      	ldr	r4, [r0, #68]	@ 0x44
 8003948:	f004 0e1c 	and.w	lr, r4, #28
 800394c:	f04f 0c01 	mov.w	ip, #1
 8003950:	fa0c fc0e 	lsl.w	ip, ip, lr
 8003954:	6c04      	ldr	r4, [r0, #64]	@ 0x40
 8003956:	f8c4 c004 	str.w	ip, [r4, #4]

  /* Configure DMA Channel data length */
  hdma->Instance->CNDTR = DataLength;
 800395a:	6804      	ldr	r4, [r0, #0]
 800395c:	6063      	str	r3, [r4, #4]

  /* Memory to Peripheral */
  if ((hdma->Init.Direction) == DMA_MEMORY_TO_PERIPH)
 800395e:	6883      	ldr	r3, [r0, #8]
 8003960:	2b10      	cmp	r3, #16
 8003962:	d004      	beq.n	800396e <DMA_SetConfig+0x2a>
  }
  /* Peripheral to Memory */
  else
  {
    /* Configure DMA Channel source address */
    hdma->Instance->CPAR = SrcAddress;
 8003964:	6803      	ldr	r3, [r0, #0]
 8003966:	6099      	str	r1, [r3, #8]

    /* Configure DMA Channel destination address */
    hdma->Instance->CMAR = DstAddress;
 8003968:	6803      	ldr	r3, [r0, #0]
 800396a:	60da      	str	r2, [r3, #12]
  }
}
 800396c:	bd10      	pop	{r4, pc}
    hdma->Instance->CPAR = DstAddress;
 800396e:	6803      	ldr	r3, [r0, #0]
 8003970:	609a      	str	r2, [r3, #8]
    hdma->Instance->CMAR = SrcAddress;
 8003972:	6803      	ldr	r3, [r0, #0]
 8003974:	60d9      	str	r1, [r3, #12]
 8003976:	e7f9      	b.n	800396c <DMA_SetConfig+0x28>

08003978 <HAL_DMA_Init>:
  if (hdma == NULL)
 8003978:	2800      	cmp	r0, #0
 800397a:	d073      	beq.n	8003a64 <HAL_DMA_Init+0xec>
{
 800397c:	b410      	push	{r4}
 800397e:	4603      	mov	r3, r0
  if ((uint32_t)(hdma->Instance) < (uint32_t)(DMA2_Channel1))
 8003980:	6802      	ldr	r2, [r0, #0]
 8003982:	4939      	ldr	r1, [pc, #228]	@ (8003a68 <HAL_DMA_Init+0xf0>)
 8003984:	428a      	cmp	r2, r1
 8003986:	d84a      	bhi.n	8003a1e <HAL_DMA_Init+0xa6>
    hdma->ChannelIndex = (((uint32_t)hdma->Instance - (uint32_t)DMA1_Channel1) / ((uint32_t)DMA1_Channel2 - (uint32_t)DMA1_Channel1)) << 2U;
 8003988:	4938      	ldr	r1, [pc, #224]	@ (8003a6c <HAL_DMA_Init+0xf4>)
 800398a:	4411      	add	r1, r2
 800398c:	4838      	ldr	r0, [pc, #224]	@ (8003a70 <HAL_DMA_Init+0xf8>)
 800398e:	fba0 0101 	umull	r0, r1, r0, r1
 8003992:	0909      	lsrs	r1, r1, #4
 8003994:	0089      	lsls	r1, r1, #2
 8003996:	6459      	str	r1, [r3, #68]	@ 0x44
    hdma->DmaBaseAddress = DMA1;
 8003998:	4936      	ldr	r1, [pc, #216]	@ (8003a74 <HAL_DMA_Init+0xfc>)
 800399a:	6419      	str	r1, [r3, #64]	@ 0x40
  hdma->State = HAL_DMA_STATE_BUSY;
 800399c:	2102      	movs	r1, #2
 800399e:	f883 1025 	strb.w	r1, [r3, #37]	@ 0x25
  CLEAR_BIT(hdma->Instance->CCR, (DMA_CCR_PL    | DMA_CCR_MSIZE  | DMA_CCR_PSIZE  | \
 80039a2:	6811      	ldr	r1, [r2, #0]
 80039a4:	f36f 110e 	bfc	r1, #4, #11
 80039a8:	6011      	str	r1, [r2, #0]
  SET_BIT(hdma->Instance->CCR, (hdma->Init.Direction           |                               \
 80039aa:	6818      	ldr	r0, [r3, #0]
 80039ac:	6801      	ldr	r1, [r0, #0]
 80039ae:	689a      	ldr	r2, [r3, #8]
 80039b0:	68dc      	ldr	r4, [r3, #12]
 80039b2:	4322      	orrs	r2, r4
 80039b4:	691c      	ldr	r4, [r3, #16]
 80039b6:	4322      	orrs	r2, r4
 80039b8:	695c      	ldr	r4, [r3, #20]
 80039ba:	4322      	orrs	r2, r4
 80039bc:	699c      	ldr	r4, [r3, #24]
 80039be:	4322      	orrs	r2, r4
 80039c0:	69dc      	ldr	r4, [r3, #28]
 80039c2:	4322      	orrs	r2, r4
 80039c4:	6a1c      	ldr	r4, [r3, #32]
 80039c6:	4322      	orrs	r2, r4
 80039c8:	430a      	orrs	r2, r1
 80039ca:	6002      	str	r2, [r0, #0]
  if (hdma->Init.Direction != DMA_MEMORY_TO_MEMORY)
 80039cc:	689a      	ldr	r2, [r3, #8]
 80039ce:	f5b2 4f80 	cmp.w	r2, #16384	@ 0x4000
 80039d2:	d01b      	beq.n	8003a0c <HAL_DMA_Init+0x94>
    if (DMA1 == hdma->DmaBaseAddress)
 80039d4:	6c19      	ldr	r1, [r3, #64]	@ 0x40
 80039d6:	4a27      	ldr	r2, [pc, #156]	@ (8003a74 <HAL_DMA_Init+0xfc>)
 80039d8:	4291      	cmp	r1, r2
 80039da:	d02b      	beq.n	8003a34 <HAL_DMA_Init+0xbc>
      DMA2_CSELR->CSELR &= ~(DMA_CSELR_C1S << (hdma->ChannelIndex & 0x1cU));
 80039dc:	4a25      	ldr	r2, [pc, #148]	@ (8003a74 <HAL_DMA_Init+0xfc>)
 80039de:	f8d2 14a8 	ldr.w	r1, [r2, #1192]	@ 0x4a8
 80039e2:	6c58      	ldr	r0, [r3, #68]	@ 0x44
 80039e4:	f000 0c1c 	and.w	ip, r0, #28
 80039e8:	200f      	movs	r0, #15
 80039ea:	fa00 f00c 	lsl.w	r0, r0, ip
 80039ee:	ea21 0100 	bic.w	r1, r1, r0
 80039f2:	f8c2 14a8 	str.w	r1, [r2, #1192]	@ 0x4a8
      DMA2_CSELR->CSELR |= (uint32_t)(hdma->Init.Request << (hdma->ChannelIndex & 0x1cU));
 80039f6:	f8d2 14a8 	ldr.w	r1, [r2, #1192]	@ 0x4a8
 80039fa:	6858      	ldr	r0, [r3, #4]
 80039fc:	6c5c      	ldr	r4, [r3, #68]	@ 0x44
 80039fe:	f004 0c1c 	and.w	ip, r4, #28
 8003a02:	fa00 f00c 	lsl.w	r0, r0, ip
 8003a06:	4301      	orrs	r1, r0
 8003a08:	f8c2 14a8 	str.w	r1, [r2, #1192]	@ 0x4a8
  hdma->ErrorCode = HAL_DMA_ERROR_NONE;
 8003a0c:	2000      	movs	r0, #0
 8003a0e:	63d8      	str	r0, [r3, #60]	@ 0x3c
  hdma->State = HAL_DMA_STATE_READY;
 8003a10:	2201      	movs	r2, #1
 8003a12:	f883 2025 	strb.w	r2, [r3, #37]	@ 0x25
  __HAL_UNLOCK(hdma);
 8003a16:	f883 0024 	strb.w	r0, [r3, #36]	@ 0x24
}
 8003a1a:	bc10      	pop	{r4}
 8003a1c:	4770      	bx	lr
    hdma->ChannelIndex = (((uint32_t)hdma->Instance - (uint32_t)DMA2_Channel1) / ((uint32_t)DMA2_Channel2 - (uint32_t)DMA2_Channel1)) << 2U;
 8003a1e:	4916      	ldr	r1, [pc, #88]	@ (8003a78 <HAL_DMA_Init+0x100>)
 8003a20:	4411      	add	r1, r2
 8003a22:	4813      	ldr	r0, [pc, #76]	@ (8003a70 <HAL_DMA_Init+0xf8>)
 8003a24:	fba0 0101 	umull	r0, r1, r0, r1
 8003a28:	0909      	lsrs	r1, r1, #4
 8003a2a:	0089      	lsls	r1, r1, #2
 8003a2c:	6459      	str	r1, [r3, #68]	@ 0x44
    hdma->DmaBaseAddress = DMA2;
 8003a2e:	4913      	ldr	r1, [pc, #76]	@ (8003a7c <HAL_DMA_Init+0x104>)
 8003a30:	6419      	str	r1, [r3, #64]	@ 0x40
 8003a32:	e7b3      	b.n	800399c <HAL_DMA_Init+0x24>
      DMA1_CSELR->CSELR &= ~(DMA_CSELR_C1S << (hdma->ChannelIndex & 0x1cU));
 8003a34:	f8d2 10a8 	ldr.w	r1, [r2, #168]	@ 0xa8
 8003a38:	6c58      	ldr	r0, [r3, #68]	@ 0x44
 8003a3a:	f000 0c1c 	and.w	ip, r0, #28
 8003a3e:	200f      	movs	r0, #15
 8003a40:	fa00 f00c 	lsl.w	r0, r0, ip
 8003a44:	ea21 0100 	bic.w	r1, r1, r0
 8003a48:	f8c2 10a8 	str.w	r1, [r2, #168]	@ 0xa8
      DMA1_CSELR->CSELR |= (uint32_t)(hdma->Init.Request << (hdma->ChannelIndex & 0x1cU));
 8003a4c:	f8d2 10a8 	ldr.w	r1, [r2, #168]	@ 0xa8
 8003a50:	6858      	ldr	r0, [r3, #4]
 8003a52:	6c5c      	ldr	r4, [r3, #68]	@ 0x44
 8003a54:	f004 0c1c 	and.w	ip, r4, #28
 8003a58:	fa00 f00c 	lsl.w	r0, r0, ip
 8003a5c:	4301      	orrs	r1, r0
 8003a5e:	f8c2 10a8 	str.w	r1, [r2, #168]	@ 0xa8
 8003a62:	e7d3      	b.n	8003a0c <HAL_DMA_Init+0x94>
    return HAL_ERROR;
 8003a64:	2001      	movs	r0, #1
}
 8003a66:	4770      	bx	lr
 8003a68:	40020407 	.word	0x40020407
 8003a6c:	bffdfff8 	.word	0xbffdfff8
 8003a70:	cccccccd 	.word	0xcccccccd
 8003a74:	40020000 	.word	0x40020000
 8003a78:	bffdfbf8 	.word	0xbffdfbf8
 8003a7c:	40020400 	.word	0x40020400

08003a80 <HAL_DMA_Start_IT>:
{
 8003a80:	b510      	push	{r4, lr}
 8003a82:	4604      	mov	r4, r0
  __HAL_LOCK(hdma);
 8003a84:	f890 0024 	ldrb.w	r0, [r0, #36]	@ 0x24
 8003a88:	2801      	cmp	r0, #1
 8003a8a:	d036      	beq.n	8003afa <HAL_DMA_Start_IT+0x7a>
 8003a8c:	2001      	movs	r0, #1
 8003a8e:	f884 0024 	strb.w	r0, [r4, #36]	@ 0x24
  if (hdma->State == HAL_DMA_STATE_READY)
 8003a92:	f894 0025 	ldrb.w	r0, [r4, #37]	@ 0x25
 8003a96:	2801      	cmp	r0, #1
 8003a98:	d006      	beq.n	8003aa8 <HAL_DMA_Start_IT+0x28>
    hdma->ErrorCode = HAL_DMA_ERROR_BUSY;
 8003a9a:	2380      	movs	r3, #128	@ 0x80
 8003a9c:	63e3      	str	r3, [r4, #60]	@ 0x3c
    __HAL_UNLOCK(hdma);
 8003a9e:	2300      	movs	r3, #0
 8003aa0:	f884 3024 	strb.w	r3, [r4, #36]	@ 0x24
    status = HAL_ERROR;
 8003aa4:	2001      	movs	r0, #1
}
 8003aa6:	bd10      	pop	{r4, pc}
    hdma->State = HAL_DMA_STATE_BUSY;
 8003aa8:	2002      	movs	r0, #2
 8003aaa:	f884 0025 	strb.w	r0, [r4, #37]	@ 0x25
    hdma->ErrorCode = HAL_DMA_ERROR_NONE;
 8003aae:	2000      	movs	r0, #0
 8003ab0:	63e0      	str	r0, [r4, #60]	@ 0x3c
    __HAL_DMA_DISABLE(hdma);
 8003ab2:	f8d4 c000 	ldr.w	ip, [r4]
 8003ab6:	f8dc 0000 	ldr.w	r0, [ip]
 8003aba:	f020 0001 	bic.w	r0, r0, #1
 8003abe:	f8cc 0000 	str.w	r0, [ip]
    DMA_SetConfig(hdma, SrcAddress, DstAddress, DataLength);
 8003ac2:	4620      	mov	r0, r4
 8003ac4:	f7ff ff3e 	bl	8003944 <DMA_SetConfig>
    if (NULL != hdma->XferHalfCpltCallback)
 8003ac8:	6b23      	ldr	r3, [r4, #48]	@ 0x30
 8003aca:	b15b      	cbz	r3, 8003ae4 <HAL_DMA_Start_IT+0x64>
      __HAL_DMA_ENABLE_IT(hdma, (DMA_IT_TC | DMA_IT_HT | DMA_IT_TE));
 8003acc:	6822      	ldr	r2, [r4, #0]
 8003ace:	6813      	ldr	r3, [r2, #0]
 8003ad0:	f043 030e 	orr.w	r3, r3, #14
 8003ad4:	6013      	str	r3, [r2, #0]
    __HAL_DMA_ENABLE(hdma);
 8003ad6:	6822      	ldr	r2, [r4, #0]
 8003ad8:	6813      	ldr	r3, [r2, #0]
 8003ada:	f043 0301 	orr.w	r3, r3, #1
 8003ade:	6013      	str	r3, [r2, #0]
  HAL_StatusTypeDef status = HAL_OK;
 8003ae0:	2000      	movs	r0, #0
 8003ae2:	e7e0      	b.n	8003aa6 <HAL_DMA_Start_IT+0x26>
      __HAL_DMA_DISABLE_IT(hdma, DMA_IT_HT);
 8003ae4:	6822      	ldr	r2, [r4, #0]
 8003ae6:	6813      	ldr	r3, [r2, #0]
 8003ae8:	f023 0304 	bic.w	r3, r3, #4
 8003aec:	6013      	str	r3, [r2, #0]
      __HAL_DMA_ENABLE_IT(hdma, (DMA_IT_TC | DMA_IT_TE));
 8003aee:	6822      	ldr	r2, [r4, #0]
 8003af0:	6813      	ldr	r3, [r2, #0]
 8003af2:	f043 030a 	orr.w	r3, r3, #10
 8003af6:	6013      	str	r3, [r2, #0]
 8003af8:	e7ed      	b.n	8003ad6 <HAL_DMA_Start_IT+0x56>
  __HAL_LOCK(hdma);
 8003afa:	2002      	movs	r0, #2
 8003afc:	e7d3      	b.n	8003aa6 <HAL_DMA_Start_IT+0x26>
	...

08003b00 <HAL_DMA_IRQHandler>:
{
 8003b00:	b508      	push	{r3, lr}
  uint32_t flag_it = hdma->DmaBaseAddress->ISR;
 8003b02:	6c03      	ldr	r3, [r0, #64]	@ 0x40
 8003b04:	6819      	ldr	r1, [r3, #0]
  uint32_t source_it = hdma->Instance->CCR;
 8003b06:	f8d0 c000 	ldr.w	ip, [r0]
 8003b0a:	f8dc e000 	ldr.w	lr, [ip]
  if (((flag_it & (DMA_FLAG_HT1 << (hdma->ChannelIndex & 0x1CU))) != 0U) && ((source_it & DMA_IT_HT) != 0U))
 8003b0e:	6c43      	ldr	r3, [r0, #68]	@ 0x44
 8003b10:	f003 031c 	and.w	r3, r3, #28
 8003b14:	2204      	movs	r2, #4
 8003b16:	409a      	lsls	r2, r3
 8003b18:	420a      	tst	r2, r1
 8003b1a:	d018      	beq.n	8003b4e <HAL_DMA_IRQHandler+0x4e>
 8003b1c:	f01e 0f04 	tst.w	lr, #4
 8003b20:	d015      	beq.n	8003b4e <HAL_DMA_IRQHandler+0x4e>
    if ((hdma->Instance->CCR & DMA_CCR_CIRC) == 0U)
 8003b22:	f8dc 3000 	ldr.w	r3, [ip]
 8003b26:	f013 0f20 	tst.w	r3, #32
 8003b2a:	d105      	bne.n	8003b38 <HAL_DMA_IRQHandler+0x38>
      __HAL_DMA_DISABLE_IT(hdma, DMA_IT_HT);
 8003b2c:	f8dc 3000 	ldr.w	r3, [ip]
 8003b30:	f023 0304 	bic.w	r3, r3, #4
 8003b34:	f8cc 3000 	str.w	r3, [ip]
    hdma->DmaBaseAddress->IFCR = DMA_ISR_HTIF1 << (hdma->ChannelIndex & 0x1CU);
 8003b38:	6c43      	ldr	r3, [r0, #68]	@ 0x44
 8003b3a:	f003 021c 	and.w	r2, r3, #28
 8003b3e:	6c01      	ldr	r1, [r0, #64]	@ 0x40
 8003b40:	2304      	movs	r3, #4
 8003b42:	4093      	lsls	r3, r2
 8003b44:	604b      	str	r3, [r1, #4]
    if (hdma->XferHalfCpltCallback != NULL)
 8003b46:	6b03      	ldr	r3, [r0, #48]	@ 0x30
 8003b48:	b103      	cbz	r3, 8003b4c <HAL_DMA_IRQHandler+0x4c>
      hdma->XferHalfCpltCallback(hdma);
 8003b4a:	4798      	blx	r3
}
 8003b4c:	bd08      	pop	{r3, pc}
  else if ((0U != (flag_it & (DMA_FLAG_TC1 << (hdma->ChannelIndex & 0x1CU)))) && (0U != (source_it & DMA_IT_TC)))
 8003b4e:	2202      	movs	r2, #2
 8003b50:	409a      	lsls	r2, r3
 8003b52:	420a      	tst	r2, r1
 8003b54:	d02b      	beq.n	8003bae <HAL_DMA_IRQHandler+0xae>
 8003b56:	f01e 0f02 	tst.w	lr, #2
 8003b5a:	d028      	beq.n	8003bae <HAL_DMA_IRQHandler+0xae>
    if ((hdma->Instance->CCR & DMA_CCR_CIRC) == 0U)
 8003b5c:	f8dc 3000 	ldr.w	r3, [ip]
 8003b60:	f013 0f20 	tst.w	r3, #32
 8003b64:	d108      	bne.n	8003b78 <HAL_DMA_IRQHandler+0x78>
      __HAL_DMA_DISABLE_IT(hdma, DMA_IT_TE | DMA_IT_TC);
 8003b66:	f8dc 3000 	ldr.w	r3, [ip]
 8003b6a:	f023 030a 	bic.w	r3, r3, #10
 8003b6e:	f8cc 3000 	str.w	r3, [ip]
      hdma->State = HAL_DMA_STATE_READY;
 8003b72:	2301      	movs	r3, #1
 8003b74:	f880 3025 	strb.w	r3, [r0, #37]	@ 0x25
    __HAL_DMA_CLEAR_FLAG(hdma, (DMA_FLAG_TC1 << (hdma->ChannelIndex & 0x1CU)));
 8003b78:	6802      	ldr	r2, [r0, #0]
 8003b7a:	4b1d      	ldr	r3, [pc, #116]	@ (8003bf0 <HAL_DMA_IRQHandler+0xf0>)
 8003b7c:	429a      	cmp	r2, r3
 8003b7e:	d90e      	bls.n	8003b9e <HAL_DMA_IRQHandler+0x9e>
 8003b80:	6c43      	ldr	r3, [r0, #68]	@ 0x44
 8003b82:	f003 021c 	and.w	r2, r3, #28
 8003b86:	2302      	movs	r3, #2
 8003b88:	4093      	lsls	r3, r2
 8003b8a:	4a1a      	ldr	r2, [pc, #104]	@ (8003bf4 <HAL_DMA_IRQHandler+0xf4>)
 8003b8c:	6053      	str	r3, [r2, #4]
    __HAL_UNLOCK(hdma);
 8003b8e:	2300      	movs	r3, #0
 8003b90:	f880 3024 	strb.w	r3, [r0, #36]	@ 0x24
    if (hdma->XferCpltCallback != NULL)
 8003b94:	6ac3      	ldr	r3, [r0, #44]	@ 0x2c
 8003b96:	2b00      	cmp	r3, #0
 8003b98:	d0d8      	beq.n	8003b4c <HAL_DMA_IRQHandler+0x4c>
      hdma->XferCpltCallback(hdma);
 8003b9a:	4798      	blx	r3
 8003b9c:	e7d6      	b.n	8003b4c <HAL_DMA_IRQHandler+0x4c>
    __HAL_DMA_CLEAR_FLAG(hdma, (DMA_FLAG_TC1 << (hdma->ChannelIndex & 0x1CU)));
 8003b9e:	6c43      	ldr	r3, [r0, #68]	@ 0x44
 8003ba0:	f003 021c 	and.w	r2, r3, #28
 8003ba4:	2302      	movs	r3, #2
 8003ba6:	4093      	lsls	r3, r2
 8003ba8:	4a13      	ldr	r2, [pc, #76]	@ (8003bf8 <HAL_DMA_IRQHandler+0xf8>)
 8003baa:	6053      	str	r3, [r2, #4]
 8003bac:	e7ef      	b.n	8003b8e <HAL_DMA_IRQHandler+0x8e>
  else if (((flag_it & (DMA_FLAG_TE1 << (hdma->ChannelIndex & 0x1CU))) != 0U) && ((source_it & DMA_IT_TE) != 0U))
 8003bae:	2208      	movs	r2, #8
 8003bb0:	fa02 f303 	lsl.w	r3, r2, r3
 8003bb4:	420b      	tst	r3, r1
 8003bb6:	d0c9      	beq.n	8003b4c <HAL_DMA_IRQHandler+0x4c>
 8003bb8:	f01e 0f08 	tst.w	lr, #8
 8003bbc:	d0c6      	beq.n	8003b4c <HAL_DMA_IRQHandler+0x4c>
    __HAL_DMA_DISABLE_IT(hdma, (DMA_IT_TC | DMA_IT_HT | DMA_IT_TE));
 8003bbe:	f8dc 3000 	ldr.w	r3, [ip]
 8003bc2:	f023 030e 	bic.w	r3, r3, #14
 8003bc6:	f8cc 3000 	str.w	r3, [ip]
    hdma->DmaBaseAddress->IFCR = (DMA_ISR_GIF1 << (hdma->ChannelIndex & 0x1CU));
 8003bca:	6c43      	ldr	r3, [r0, #68]	@ 0x44
 8003bcc:	f003 031c 	and.w	r3, r3, #28
 8003bd0:	6c01      	ldr	r1, [r0, #64]	@ 0x40
 8003bd2:	2201      	movs	r2, #1
 8003bd4:	fa02 f303 	lsl.w	r3, r2, r3
 8003bd8:	604b      	str	r3, [r1, #4]
    hdma->ErrorCode = HAL_DMA_ERROR_TE;
 8003bda:	63c2      	str	r2, [r0, #60]	@ 0x3c
    hdma->State = HAL_DMA_STATE_READY;
 8003bdc:	f880 2025 	strb.w	r2, [r0, #37]	@ 0x25
    __HAL_UNLOCK(hdma);
 8003be0:	2300      	movs	r3, #0
 8003be2:	f880 3024 	strb.w	r3, [r0, #36]	@ 0x24
    if (hdma->XferErrorCallback != NULL)
 8003be6:	6b43      	ldr	r3, [r0, #52]	@ 0x34
 8003be8:	2b00      	cmp	r3, #0
 8003bea:	d0af      	beq.n	8003b4c <HAL_DMA_IRQHandler+0x4c>
      hdma->XferErrorCallback(hdma);
 8003bec:	4798      	blx	r3
  return;
 8003bee:	e7ad      	b.n	8003b4c <HAL_DMA_IRQHandler+0x4c>
 8003bf0:	40020080 	.word	0x40020080
 8003bf4:	40020400 	.word	0x40020400
 8003bf8:	40020000 	.word	0x40020000

08003bfc <HAL_GPIO_Init>:
  * @param  GPIO_Init pointer to a GPIO_InitTypeDef structure that contains
  *         the configuration information for the specified GPIO peripheral.
  * @retval None
  */
void HAL_GPIO_Init(GPIO_TypeDef  *GPIOx, GPIO_InitTypeDef *GPIO_Init)
{
 8003bfc:	b570      	push	{r4, r5, r6, lr}
 8003bfe:	b082      	sub	sp, #8
  uint32_t position = 0x00u;
 8003c00:	2300      	movs	r3, #0
  assert_param(IS_GPIO_ALL_INSTANCE(GPIOx));
  assert_param(IS_GPIO_PIN(GPIO_Init->Pin));
  assert_param(IS_GPIO_MODE(GPIO_Init->Mode));

  /* Configure the port pins */
  while (((GPIO_Init->Pin) >> position) != 0x00u)
 8003c02:	e074      	b.n	8003cee <HAL_GPIO_Init+0xf2>
      {
        /* Check the Speed parameter */
        assert_param(IS_GPIO_SPEED(GPIO_Init->Speed));

        /* Configure the IO Speed */
        temp = GPIOx->OSPEEDR;
 8003c04:	6885      	ldr	r5, [r0, #8]
        temp &= ~(GPIO_OSPEEDR_OSPEED0 << (position * 2u));
 8003c06:	ea4f 0e43 	mov.w	lr, r3, lsl #1
 8003c0a:	2403      	movs	r4, #3
 8003c0c:	fa04 f40e 	lsl.w	r4, r4, lr
 8003c10:	ea25 0504 	bic.w	r5, r5, r4
        temp |= (GPIO_Init->Speed << (position * 2u));
 8003c14:	68cc      	ldr	r4, [r1, #12]
 8003c16:	fa04 f40e 	lsl.w	r4, r4, lr
 8003c1a:	432c      	orrs	r4, r5
        GPIOx->OSPEEDR = temp;
 8003c1c:	6084      	str	r4, [r0, #8]

        /* Configure the IO Output Type */
        temp = GPIOx->OTYPER;
 8003c1e:	6844      	ldr	r4, [r0, #4]
        temp &= ~(GPIO_OTYPER_OT0 << position) ;
 8003c20:	ea24 040c 	bic.w	r4, r4, ip
        temp |= (((GPIO_Init->Mode & OUTPUT_TYPE) >> OUTPUT_TYPE_Pos) << position);
 8003c24:	684d      	ldr	r5, [r1, #4]
 8003c26:	f3c5 1e00 	ubfx	lr, r5, #4, #1
 8003c2a:	fa0e fe03 	lsl.w	lr, lr, r3
 8003c2e:	ea4e 0404 	orr.w	r4, lr, r4
        GPIOx->OTYPER = temp;
 8003c32:	6044      	str	r4, [r0, #4]
 8003c34:	e070      	b.n	8003d18 <HAL_GPIO_Init+0x11c>

      /* In case of Analog mode, check if ADC control mode is selected */
      if((GPIO_Init->Mode & GPIO_MODE_ANALOG) == GPIO_MODE_ANALOG)
      {
        /* Configure the IO Output Type */
        temp = GPIOx->ASCR;
 8003c36:	6ac4      	ldr	r4, [r0, #44]	@ 0x2c
        temp &= ~(GPIO_ASCR_ASC0 << position) ;
 8003c38:	ea24 040c 	bic.w	r4, r4, ip
        temp |= (((GPIO_Init->Mode & GPIO_MODE_ANALOG_ADC_CONTROL) >> 3) << position);
 8003c3c:	f3c5 0ec0 	ubfx	lr, r5, #3, #1
 8003c40:	fa0e fe03 	lsl.w	lr, lr, r3
 8003c44:	ea4e 0404 	orr.w	r4, lr, r4
        GPIOx->ASCR = temp;
 8003c48:	62c4      	str	r4, [r0, #44]	@ 0x2c
 8003c4a:	e06a      	b.n	8003d22 <HAL_GPIO_Init+0x126>
        /* Check the Alternate function parameters */
        assert_param(IS_GPIO_AF_INSTANCE(GPIOx));
        assert_param(IS_GPIO_AF(GPIO_Init->Alternate));

        /* Configure Alternate function mapped with the current IO */
        temp = GPIOx->AFR[position >> 3u];
 8003c4c:	08dd      	lsrs	r5, r3, #3
 8003c4e:	3508      	adds	r5, #8
 8003c50:	f850 4025 	ldr.w	r4, [r0, r5, lsl #2]
        temp &= ~(0xFul << ((position & 0x07u) * 4u));
 8003c54:	f003 0c07 	and.w	ip, r3, #7
 8003c58:	ea4f 0c8c 	mov.w	ip, ip, lsl #2
 8003c5c:	f04f 0e0f 	mov.w	lr, #15
 8003c60:	fa0e fe0c 	lsl.w	lr, lr, ip
 8003c64:	ea24 0e0e 	bic.w	lr, r4, lr
        temp |= ((GPIO_Init->Alternate) << ((position & 0x07u) * 4u));
 8003c68:	690c      	ldr	r4, [r1, #16]
 8003c6a:	fa04 f40c 	lsl.w	r4, r4, ip
 8003c6e:	ea44 040e 	orr.w	r4, r4, lr
        GPIOx->AFR[position >> 3u] = temp;
 8003c72:	f840 4025 	str.w	r4, [r0, r5, lsl #2]
 8003c76:	e06f      	b.n	8003d58 <HAL_GPIO_Init+0x15c>
        /* Enable SYSCFG Clock */
        __HAL_RCC_SYSCFG_CLK_ENABLE();

        temp = SYSCFG->EXTICR[position >> 2u];
        temp &= ~(0x0FuL << (4u * (position & 0x03u)));
        temp |= (GPIO_GET_INDEX(GPIOx) << (4u * (position & 0x03u)));
 8003c78:	2406      	movs	r4, #6
 8003c7a:	e000      	b.n	8003c7e <HAL_GPIO_Init+0x82>
 8003c7c:	2400      	movs	r4, #0
 8003c7e:	fa04 f40e 	lsl.w	r4, r4, lr
 8003c82:	432c      	orrs	r4, r5
        SYSCFG->EXTICR[position >> 2u] = temp;
 8003c84:	f10c 0c02 	add.w	ip, ip, #2
 8003c88:	4d5f      	ldr	r5, [pc, #380]	@ (8003e08 <HAL_GPIO_Init+0x20c>)
 8003c8a:	f845 402c 	str.w	r4, [r5, ip, lsl #2]

        /* Clear Rising Falling edge configuration */
        temp = EXTI->RTSR1;
 8003c8e:	4c5f      	ldr	r4, [pc, #380]	@ (8003e0c <HAL_GPIO_Init+0x210>)
 8003c90:	68a4      	ldr	r4, [r4, #8]
        temp &= ~(iocurrent);
 8003c92:	ea6f 0c02 	mvn.w	ip, r2
 8003c96:	ea24 0502 	bic.w	r5, r4, r2
        if ((GPIO_Init->Mode & TRIGGER_RISING) != 0x00u)
 8003c9a:	684e      	ldr	r6, [r1, #4]
 8003c9c:	f416 1f80 	tst.w	r6, #1048576	@ 0x100000
 8003ca0:	d001      	beq.n	8003ca6 <HAL_GPIO_Init+0xaa>
        {
          temp |= iocurrent;
 8003ca2:	ea42 0504 	orr.w	r5, r2, r4
        }
        EXTI->RTSR1 = temp;
 8003ca6:	4c59      	ldr	r4, [pc, #356]	@ (8003e0c <HAL_GPIO_Init+0x210>)
 8003ca8:	60a5      	str	r5, [r4, #8]

        temp = EXTI->FTSR1;
 8003caa:	68e4      	ldr	r4, [r4, #12]
        temp &= ~(iocurrent);
 8003cac:	ea0c 0504 	and.w	r5, ip, r4
        if ((GPIO_Init->Mode & TRIGGER_FALLING) != 0x00u)
 8003cb0:	684e      	ldr	r6, [r1, #4]
 8003cb2:	f416 1f00 	tst.w	r6, #2097152	@ 0x200000
 8003cb6:	d001      	beq.n	8003cbc <HAL_GPIO_Init+0xc0>
        {
          temp |= iocurrent;
 8003cb8:	ea42 0504 	orr.w	r5, r2, r4
        }
        EXTI->FTSR1 = temp;
 8003cbc:	4c53      	ldr	r4, [pc, #332]	@ (8003e0c <HAL_GPIO_Init+0x210>)
 8003cbe:	60e5      	str	r5, [r4, #12]

        /* Clear EXTI line configuration */
        temp = EXTI->EMR1;
 8003cc0:	6864      	ldr	r4, [r4, #4]
        temp &= ~(iocurrent);
 8003cc2:	ea0c 0504 	and.w	r5, ip, r4
        if ((GPIO_Init->Mode & EXTI_EVT) != 0x00u)
 8003cc6:	684e      	ldr	r6, [r1, #4]
 8003cc8:	f416 3f00 	tst.w	r6, #131072	@ 0x20000
 8003ccc:	d001      	beq.n	8003cd2 <HAL_GPIO_Init+0xd6>
        {
          temp |= iocurrent;
 8003cce:	ea42 0504 	orr.w	r5, r2, r4
        }
        EXTI->EMR1 = temp;
 8003cd2:	4c4e      	ldr	r4, [pc, #312]	@ (8003e0c <HAL_GPIO_Init+0x210>)
 8003cd4:	6065      	str	r5, [r4, #4]

        temp = EXTI->IMR1;
 8003cd6:	6824      	ldr	r4, [r4, #0]
        temp &= ~(iocurrent);
 8003cd8:	ea0c 0504 	and.w	r5, ip, r4
        if ((GPIO_Init->Mode & EXTI_IT) != 0x00u)
 8003cdc:	684e      	ldr	r6, [r1, #4]
 8003cde:	f416 3f80 	tst.w	r6, #65536	@ 0x10000
 8003ce2:	d001      	beq.n	8003ce8 <HAL_GPIO_Init+0xec>
        {
          temp |= iocurrent;
 8003ce4:	ea42 0504 	orr.w	r5, r2, r4
        }
        EXTI->IMR1 = temp;
 8003ce8:	4a48      	ldr	r2, [pc, #288]	@ (8003e0c <HAL_GPIO_Init+0x210>)
 8003cea:	6015      	str	r5, [r2, #0]
      }
    }

    position++;
 8003cec:	3301      	adds	r3, #1
  while (((GPIO_Init->Pin) >> position) != 0x00u)
 8003cee:	680a      	ldr	r2, [r1, #0]
 8003cf0:	fa32 f403 	lsrs.w	r4, r2, r3
 8003cf4:	f000 8086 	beq.w	8003e04 <HAL_GPIO_Init+0x208>
    iocurrent = (GPIO_Init->Pin) & (1uL << position);
 8003cf8:	f04f 0c01 	mov.w	ip, #1
 8003cfc:	fa0c fc03 	lsl.w	ip, ip, r3
    if (iocurrent != 0x00u)
 8003d00:	ea1c 0202 	ands.w	r2, ip, r2
 8003d04:	d0f2      	beq.n	8003cec <HAL_GPIO_Init+0xf0>
      if (((GPIO_Init->Mode & GPIO_MODE) == MODE_OUTPUT) || ((GPIO_Init->Mode & GPIO_MODE) == MODE_AF))
 8003d06:	684c      	ldr	r4, [r1, #4]
 8003d08:	f004 0e03 	and.w	lr, r4, #3
 8003d0c:	f10e 3eff 	add.w	lr, lr, #4294967295	@ 0xffffffff
 8003d10:	f1be 0f01 	cmp.w	lr, #1
 8003d14:	f67f af76 	bls.w	8003c04 <HAL_GPIO_Init+0x8>
      if((GPIO_Init->Mode & GPIO_MODE_ANALOG) == GPIO_MODE_ANALOG)
 8003d18:	684d      	ldr	r5, [r1, #4]
 8003d1a:	f005 0403 	and.w	r4, r5, #3
 8003d1e:	2c03      	cmp	r4, #3
 8003d20:	d089      	beq.n	8003c36 <HAL_GPIO_Init+0x3a>
      if ((GPIO_Init->Mode & GPIO_MODE) != MODE_ANALOG)
 8003d22:	684c      	ldr	r4, [r1, #4]
 8003d24:	f004 0c03 	and.w	ip, r4, #3
 8003d28:	f1bc 0f03 	cmp.w	ip, #3
 8003d2c:	d00d      	beq.n	8003d4a <HAL_GPIO_Init+0x14e>
        temp = GPIOx->PUPDR;
 8003d2e:	68c4      	ldr	r4, [r0, #12]
        temp &= ~(GPIO_PUPDR_PUPD0 << (position * 2U));
 8003d30:	005d      	lsls	r5, r3, #1
 8003d32:	f04f 0c03 	mov.w	ip, #3
 8003d36:	fa0c fc05 	lsl.w	ip, ip, r5
 8003d3a:	ea24 040c 	bic.w	r4, r4, ip
        temp |= ((GPIO_Init->Pull) << (position * 2U));
 8003d3e:	688e      	ldr	r6, [r1, #8]
 8003d40:	fa06 fc05 	lsl.w	ip, r6, r5
 8003d44:	ea4c 0404 	orr.w	r4, ip, r4
        GPIOx->PUPDR = temp;
 8003d48:	60c4      	str	r4, [r0, #12]
      if ((GPIO_Init->Mode & GPIO_MODE) == MODE_AF)
 8003d4a:	684c      	ldr	r4, [r1, #4]
 8003d4c:	f004 0c03 	and.w	ip, r4, #3
 8003d50:	f1bc 0f02 	cmp.w	ip, #2
 8003d54:	f43f af7a 	beq.w	8003c4c <HAL_GPIO_Init+0x50>
      temp = GPIOx->MODER;
 8003d58:	6805      	ldr	r5, [r0, #0]
      temp &= ~(GPIO_MODER_MODE0 << (position * 2u));
 8003d5a:	005c      	lsls	r4, r3, #1
 8003d5c:	f04f 0c03 	mov.w	ip, #3
 8003d60:	fa0c fc04 	lsl.w	ip, ip, r4
 8003d64:	ea25 0e0c 	bic.w	lr, r5, ip
      temp |= ((GPIO_Init->Mode & GPIO_MODE) << (position * 2u));
 8003d68:	684d      	ldr	r5, [r1, #4]
 8003d6a:	f005 0c03 	and.w	ip, r5, #3
 8003d6e:	fa0c fc04 	lsl.w	ip, ip, r4
 8003d72:	ea4c 040e 	orr.w	r4, ip, lr
      GPIOx->MODER = temp;
 8003d76:	6004      	str	r4, [r0, #0]
      if ((GPIO_Init->Mode & EXTI_MODE) != 0x00u)
 8003d78:	684c      	ldr	r4, [r1, #4]
 8003d7a:	f414 3f40 	tst.w	r4, #196608	@ 0x30000
 8003d7e:	d0b5      	beq.n	8003cec <HAL_GPIO_Init+0xf0>
        __HAL_RCC_SYSCFG_CLK_ENABLE();
 8003d80:	4c23      	ldr	r4, [pc, #140]	@ (8003e10 <HAL_GPIO_Init+0x214>)
 8003d82:	6e25      	ldr	r5, [r4, #96]	@ 0x60
 8003d84:	f045 0501 	orr.w	r5, r5, #1
 8003d88:	6625      	str	r5, [r4, #96]	@ 0x60
 8003d8a:	6e24      	ldr	r4, [r4, #96]	@ 0x60
 8003d8c:	f004 0401 	and.w	r4, r4, #1
 8003d90:	9401      	str	r4, [sp, #4]
 8003d92:	9c01      	ldr	r4, [sp, #4]
        temp = SYSCFG->EXTICR[position >> 2u];
 8003d94:	ea4f 0c93 	mov.w	ip, r3, lsr #2
 8003d98:	f10c 0502 	add.w	r5, ip, #2
 8003d9c:	4c1a      	ldr	r4, [pc, #104]	@ (8003e08 <HAL_GPIO_Init+0x20c>)
 8003d9e:	f854 5025 	ldr.w	r5, [r4, r5, lsl #2]
        temp &= ~(0x0FuL << (4u * (position & 0x03u)));
 8003da2:	f003 0e03 	and.w	lr, r3, #3
 8003da6:	ea4f 0e8e 	mov.w	lr, lr, lsl #2
 8003daa:	240f      	movs	r4, #15
 8003dac:	fa04 f40e 	lsl.w	r4, r4, lr
 8003db0:	ea25 0504 	bic.w	r5, r5, r4
        temp |= (GPIO_GET_INDEX(GPIOx) << (4u * (position & 0x03u)));
 8003db4:	f1b0 4f90 	cmp.w	r0, #1207959552	@ 0x48000000
 8003db8:	f43f af60 	beq.w	8003c7c <HAL_GPIO_Init+0x80>
 8003dbc:	4c15      	ldr	r4, [pc, #84]	@ (8003e14 <HAL_GPIO_Init+0x218>)
 8003dbe:	42a0      	cmp	r0, r4
 8003dc0:	d016      	beq.n	8003df0 <HAL_GPIO_Init+0x1f4>
 8003dc2:	f504 6480 	add.w	r4, r4, #1024	@ 0x400
 8003dc6:	42a0      	cmp	r0, r4
 8003dc8:	d014      	beq.n	8003df4 <HAL_GPIO_Init+0x1f8>
 8003dca:	f504 6480 	add.w	r4, r4, #1024	@ 0x400
 8003dce:	42a0      	cmp	r0, r4
 8003dd0:	d012      	beq.n	8003df8 <HAL_GPIO_Init+0x1fc>
 8003dd2:	f504 6480 	add.w	r4, r4, #1024	@ 0x400
 8003dd6:	42a0      	cmp	r0, r4
 8003dd8:	d010      	beq.n	8003dfc <HAL_GPIO_Init+0x200>
 8003dda:	f504 6480 	add.w	r4, r4, #1024	@ 0x400
 8003dde:	42a0      	cmp	r0, r4
 8003de0:	d00e      	beq.n	8003e00 <HAL_GPIO_Init+0x204>
 8003de2:	f504 6480 	add.w	r4, r4, #1024	@ 0x400
 8003de6:	42a0      	cmp	r0, r4
 8003de8:	f43f af46 	beq.w	8003c78 <HAL_GPIO_Init+0x7c>
 8003dec:	2407      	movs	r4, #7
 8003dee:	e746      	b.n	8003c7e <HAL_GPIO_Init+0x82>
 8003df0:	2401      	movs	r4, #1
 8003df2:	e744      	b.n	8003c7e <HAL_GPIO_Init+0x82>
 8003df4:	2402      	movs	r4, #2
 8003df6:	e742      	b.n	8003c7e <HAL_GPIO_Init+0x82>
 8003df8:	2403      	movs	r4, #3
 8003dfa:	e740      	b.n	8003c7e <HAL_GPIO_Init+0x82>
 8003dfc:	2404      	movs	r4, #4
 8003dfe:	e73e      	b.n	8003c7e <HAL_GPIO_Init+0x82>
 8003e00:	2405      	movs	r4, #5
 8003e02:	e73c      	b.n	8003c7e <HAL_GPIO_Init+0x82>
  }
}
 8003e04:	b002      	add	sp, #8
 8003e06:	bd70      	pop	{r4, r5, r6, pc}
 8003e08:	40010000 	.word	0x40010000
 8003e0c:	40010400 	.word	0x40010400
 8003e10:	40021000 	.word	0x40021000
 8003e14:	48000400 	.word	0x48000400

08003e18 <HAL_GPIO_ReadPin>:
  GPIO_PinState bitstatus;

  /* Check the parameters */
  assert_param(IS_GPIO_PIN(GPIO_Pin));

  if ((GPIOx->IDR & GPIO_Pin) != 0x00u)
 8003e18:	6903      	ldr	r3, [r0, #16]
 8003e1a:	4219      	tst	r1, r3
 8003e1c:	d001      	beq.n	8003e22 <HAL_GPIO_ReadPin+0xa>
  {
    bitstatus = GPIO_PIN_SET;
 8003e1e:	2001      	movs	r0, #1
 8003e20:	4770      	bx	lr
  }
  else
  {
    bitstatus = GPIO_PIN_RESET;
 8003e22:	2000      	movs	r0, #0
  }
  return bitstatus;
}
 8003e24:	4770      	bx	lr

08003e26 <HAL_GPIO_WritePin>:
{
  /* Check the parameters */
  assert_param(IS_GPIO_PIN(GPIO_Pin));
  assert_param(IS_GPIO_PIN_ACTION(PinState));

  if(PinState != GPIO_PIN_RESET)
 8003e26:	b10a      	cbz	r2, 8003e2c <HAL_GPIO_WritePin+0x6>
  {
    GPIOx->BSRR = (uint32_t)GPIO_Pin;
 8003e28:	6181      	str	r1, [r0, #24]
 8003e2a:	4770      	bx	lr
  }
  else
  {
    GPIOx->BRR = (uint32_t)GPIO_Pin;
 8003e2c:	6281      	str	r1, [r0, #40]	@ 0x28
  }
}
 8003e2e:	4770      	bx	lr

08003e30 <HAL_GPIO_TogglePin>:

  /* Check the parameters */
  assert_param(IS_GPIO_PIN(GPIO_Pin));

  /* get current Output Data Register value */
  odr = GPIOx->ODR;
 8003e30:	6943      	ldr	r3, [r0, #20]

  /* Set selected pins that were at low level, and reset ones that were high */
  GPIOx->BSRR = ((odr & GPIO_Pin) << GPIO_NUMBER) | (~odr & GPIO_Pin);
 8003e32:	ea01 0203 	and.w	r2, r1, r3
 8003e36:	ea21 0103 	bic.w	r1, r1, r3
 8003e3a:	ea41 4102 	orr.w	r1, r1, r2, lsl #16
 8003e3e:	6181      	str	r1, [r0, #24]
}
 8003e40:	4770      	bx	lr
	...

08003e44 <HAL_GPIO_EXTI_IRQHandler>:
  * @brief  Handle EXTI interrupt request.
  * @param  GPIO_Pin Specifies the port pin connected to corresponding EXTI line.
  * @retval None
  */
void HAL_GPIO_EXTI_IRQHandler(uint16_t GPIO_Pin)
{
 8003e44:	b508      	push	{r3, lr}
  /* EXTI line interrupt detected */
  if(__HAL_GPIO_EXTI_GET_IT(GPIO_Pin) != 0x00u)
 8003e46:	4b05      	ldr	r3, [pc, #20]	@ (8003e5c <HAL_GPIO_EXTI_IRQHandler+0x18>)
 8003e48:	695b      	ldr	r3, [r3, #20]
 8003e4a:	4203      	tst	r3, r0
 8003e4c:	d100      	bne.n	8003e50 <HAL_GPIO_EXTI_IRQHandler+0xc>
  {
    __HAL_GPIO_EXTI_CLEAR_IT(GPIO_Pin);
    HAL_GPIO_EXTI_Callback(GPIO_Pin);
  }
}
 8003e4e:	bd08      	pop	{r3, pc}
    __HAL_GPIO_EXTI_CLEAR_IT(GPIO_Pin);
 8003e50:	4b02      	ldr	r3, [pc, #8]	@ (8003e5c <HAL_GPIO_EXTI_IRQHandler+0x18>)
 8003e52:	6158      	str	r0, [r3, #20]
    HAL_GPIO_EXTI_Callback(GPIO_Pin);
 8003e54:	f7ff f92c 	bl	80030b0 <HAL_GPIO_EXTI_Callback>
}
 8003e58:	e7f9      	b.n	8003e4e <HAL_GPIO_EXTI_IRQHandler+0xa>
 8003e5a:	bf00      	nop
 8003e5c:	40010400 	.word	0x40010400

08003e60 <HAL_I2C_Init>:
  * @retval HAL status
  */
HAL_StatusTypeDef HAL_I2C_Init(I2C_HandleTypeDef *hi2c)
{
  /* Check the I2C handle allocation */
  if (hi2c == NULL)
 8003e60:	2800      	cmp	r0, #0
 8003e62:	d05f      	beq.n	8003f24 <HAL_I2C_Init+0xc4>
{
 8003e64:	b510      	push	{r4, lr}
 8003e66:	4604      	mov	r4, r0
  assert_param(IS_I2C_OWN_ADDRESS2(hi2c->Init.OwnAddress2));
  assert_param(IS_I2C_OWN_ADDRESS2_MASK(hi2c->Init.OwnAddress2Masks));
  assert_param(IS_I2C_GENERAL_CALL(hi2c->Init.GeneralCallMode));
  assert_param(IS_I2C_NO_STRETCH(hi2c->Init.NoStretchMode));

  if (hi2c->State == HAL_I2C_STATE_RESET)
 8003e68:	f890 3041 	ldrb.w	r3, [r0, #65]	@ 0x41
 8003e6c:	2b00      	cmp	r3, #0
 8003e6e:	d048      	beq.n	8003f02 <HAL_I2C_Init+0xa2>
    /* Init the low level hardware : GPIO, CLOCK, CORTEX...etc */
    HAL_I2C_MspInit(hi2c);
#endif /* USE_HAL_I2C_REGISTER_CALLBACKS */
  }

  hi2c->State = HAL_I2C_STATE_BUSY;
 8003e70:	2324      	movs	r3, #36	@ 0x24
 8003e72:	f884 3041 	strb.w	r3, [r4, #65]	@ 0x41

  /* Disable the selected I2C peripheral */
  __HAL_I2C_DISABLE(hi2c);
 8003e76:	6822      	ldr	r2, [r4, #0]
 8003e78:	6813      	ldr	r3, [r2, #0]
 8003e7a:	f023 0301 	bic.w	r3, r3, #1
 8003e7e:	6013      	str	r3, [r2, #0]

  /*---------------------------- I2Cx TIMINGR Configuration ------------------*/
  /* Configure I2Cx: Frequency range */
  hi2c->Instance->TIMINGR = hi2c->Init.Timing & TIMING_CLEAR_MASK;
 8003e80:	6863      	ldr	r3, [r4, #4]
 8003e82:	6822      	ldr	r2, [r4, #0]
 8003e84:	f023 6370 	bic.w	r3, r3, #251658240	@ 0xf000000
 8003e88:	6113      	str	r3, [r2, #16]

  /*---------------------------- I2Cx OAR1 Configuration ---------------------*/
  /* Disable Own Address1 before set the Own Address1 configuration */
  hi2c->Instance->OAR1 &= ~I2C_OAR1_OA1EN;
 8003e8a:	6822      	ldr	r2, [r4, #0]
 8003e8c:	6893      	ldr	r3, [r2, #8]
 8003e8e:	f423 4300 	bic.w	r3, r3, #32768	@ 0x8000
 8003e92:	6093      	str	r3, [r2, #8]

  /* Configure I2Cx: Own Address1 and ack own address1 mode */
  if (hi2c->Init.AddressingMode == I2C_ADDRESSINGMODE_7BIT)
 8003e94:	68e3      	ldr	r3, [r4, #12]
 8003e96:	2b01      	cmp	r3, #1
 8003e98:	d038      	beq.n	8003f0c <HAL_I2C_Init+0xac>
  {
    hi2c->Instance->OAR1 = (I2C_OAR1_OA1EN | hi2c->Init.OwnAddress1);
  }
  else /* I2C_ADDRESSINGMODE_10BIT */
  {
    hi2c->Instance->OAR1 = (I2C_OAR1_OA1EN | I2C_OAR1_OA1MODE | hi2c->Init.OwnAddress1);
 8003e9a:	68a3      	ldr	r3, [r4, #8]
 8003e9c:	6822      	ldr	r2, [r4, #0]
 8003e9e:	f443 4304 	orr.w	r3, r3, #33792	@ 0x8400
 8003ea2:	6093      	str	r3, [r2, #8]
  }

  /*---------------------------- I2Cx CR2 Configuration ----------------------*/
  /* Configure I2Cx: Addressing Master mode */
  if (hi2c->Init.AddressingMode == I2C_ADDRESSINGMODE_10BIT)
 8003ea4:	68e3      	ldr	r3, [r4, #12]
 8003ea6:	2b02      	cmp	r3, #2
 8003ea8:	d036      	beq.n	8003f18 <HAL_I2C_Init+0xb8>
    SET_BIT(hi2c->Instance->CR2, I2C_CR2_ADD10);
  }
  else
  {
    /* Clear the I2C ADD10 bit */
    CLEAR_BIT(hi2c->Instance->CR2, I2C_CR2_ADD10);
 8003eaa:	6822      	ldr	r2, [r4, #0]
 8003eac:	6853      	ldr	r3, [r2, #4]
 8003eae:	f423 6300 	bic.w	r3, r3, #2048	@ 0x800
 8003eb2:	6053      	str	r3, [r2, #4]
  }
  /* Enable the AUTOEND by default, and enable NACK (should be disable only during Slave process */
  hi2c->Instance->CR2 |= (I2C_CR2_AUTOEND | I2C_CR2_NACK);
 8003eb4:	6822      	ldr	r2, [r4, #0]
 8003eb6:	6853      	ldr	r3, [r2, #4]
 8003eb8:	f043 7300 	orr.w	r3, r3, #33554432	@ 0x2000000
 8003ebc:	f443 4300 	orr.w	r3, r3, #32768	@ 0x8000
 8003ec0:	6053      	str	r3, [r2, #4]

  /*---------------------------- I2Cx OAR2 Configuration ---------------------*/
  /* Disable Own Address2 before set the Own Address2 configuration */
  hi2c->Instance->OAR2 &= ~I2C_DUALADDRESS_ENABLE;
 8003ec2:	6822      	ldr	r2, [r4, #0]
 8003ec4:	68d3      	ldr	r3, [r2, #12]
 8003ec6:	f423 4300 	bic.w	r3, r3, #32768	@ 0x8000
 8003eca:	60d3      	str	r3, [r2, #12]

  /* Configure I2Cx: Dual mode and Own Address2 */
  hi2c->Instance->OAR2 = (hi2c->Init.DualAddressMode | hi2c->Init.OwnAddress2 | \
 8003ecc:	6923      	ldr	r3, [r4, #16]
 8003ece:	6962      	ldr	r2, [r4, #20]
 8003ed0:	4313      	orrs	r3, r2
                          (hi2c->Init.OwnAddress2Masks << 8));
 8003ed2:	69a1      	ldr	r1, [r4, #24]
  hi2c->Instance->OAR2 = (hi2c->Init.DualAddressMode | hi2c->Init.OwnAddress2 | \
 8003ed4:	6822      	ldr	r2, [r4, #0]
 8003ed6:	ea43 2301 	orr.w	r3, r3, r1, lsl #8
 8003eda:	60d3      	str	r3, [r2, #12]

  /*---------------------------- I2Cx CR1 Configuration ----------------------*/
  /* Configure I2Cx: Generalcall and NoStretch mode */
  hi2c->Instance->CR1 = (hi2c->Init.GeneralCallMode | hi2c->Init.NoStretchMode);
 8003edc:	69e3      	ldr	r3, [r4, #28]
 8003ede:	6a21      	ldr	r1, [r4, #32]
 8003ee0:	6822      	ldr	r2, [r4, #0]
 8003ee2:	430b      	orrs	r3, r1
 8003ee4:	6013      	str	r3, [r2, #0]

  /* Enable the selected I2C peripheral */
  __HAL_I2C_ENABLE(hi2c);
 8003ee6:	6822      	ldr	r2, [r4, #0]
 8003ee8:	6813      	ldr	r3, [r2, #0]
 8003eea:	f043 0301 	orr.w	r3, r3, #1
 8003eee:	6013      	str	r3, [r2, #0]

  hi2c->ErrorCode = HAL_I2C_ERROR_NONE;
 8003ef0:	2000      	movs	r0, #0
 8003ef2:	6460      	str	r0, [r4, #68]	@ 0x44
  hi2c->State = HAL_I2C_STATE_READY;
 8003ef4:	2320      	movs	r3, #32
 8003ef6:	f884 3041 	strb.w	r3, [r4, #65]	@ 0x41
  hi2c->PreviousState = I2C_STATE_NONE;
 8003efa:	6320      	str	r0, [r4, #48]	@ 0x30
  hi2c->Mode = HAL_I2C_MODE_NONE;
 8003efc:	f884 0042 	strb.w	r0, [r4, #66]	@ 0x42

  return HAL_OK;
}
 8003f00:	bd10      	pop	{r4, pc}
    hi2c->Lock = HAL_UNLOCKED;
 8003f02:	f880 3040 	strb.w	r3, [r0, #64]	@ 0x40
    HAL_I2C_MspInit(hi2c);
 8003f06:	f000 f87f 	bl	8004008 <HAL_I2C_MspInit>
 8003f0a:	e7b1      	b.n	8003e70 <HAL_I2C_Init+0x10>
    hi2c->Instance->OAR1 = (I2C_OAR1_OA1EN | hi2c->Init.OwnAddress1);
 8003f0c:	68a3      	ldr	r3, [r4, #8]
 8003f0e:	6822      	ldr	r2, [r4, #0]
 8003f10:	f443 4300 	orr.w	r3, r3, #32768	@ 0x8000
 8003f14:	6093      	str	r3, [r2, #8]
 8003f16:	e7c5      	b.n	8003ea4 <HAL_I2C_Init+0x44>
    SET_BIT(hi2c->Instance->CR2, I2C_CR2_ADD10);
 8003f18:	6822      	ldr	r2, [r4, #0]
 8003f1a:	6853      	ldr	r3, [r2, #4]
 8003f1c:	f443 6300 	orr.w	r3, r3, #2048	@ 0x800
 8003f20:	6053      	str	r3, [r2, #4]
 8003f22:	e7c7      	b.n	8003eb4 <HAL_I2C_Init+0x54>
    return HAL_ERROR;
 8003f24:	2001      	movs	r0, #1
}
 8003f26:	4770      	bx	lr

08003f28 <HAL_I2CEx_ConfigAnalogFilter>:
  *                the configuration information for the specified I2Cx peripheral.
  * @param  AnalogFilter New state of the Analog filter.
  * @retval HAL status
  */
HAL_StatusTypeDef HAL_I2CEx_ConfigAnalogFilter(I2C_HandleTypeDef *hi2c, uint32_t AnalogFilter)
{
 8003f28:	4603      	mov	r3, r0
  /* Check the parameters */
  assert_param(IS_I2C_ALL_INSTANCE(hi2c->Instance));
  assert_param(IS_I2C_ANALOG_FILTER(AnalogFilter));

  if (hi2c->State == HAL_I2C_STATE_READY)
 8003f2a:	f890 2041 	ldrb.w	r2, [r0, #65]	@ 0x41
 8003f2e:	2a20      	cmp	r2, #32
 8003f30:	d123      	bne.n	8003f7a <HAL_I2CEx_ConfigAnalogFilter+0x52>
  {
    /* Process Locked */
    __HAL_LOCK(hi2c);
 8003f32:	f890 2040 	ldrb.w	r2, [r0, #64]	@ 0x40
 8003f36:	2a01      	cmp	r2, #1
 8003f38:	d021      	beq.n	8003f7e <HAL_I2CEx_ConfigAnalogFilter+0x56>
 8003f3a:	2201      	movs	r2, #1
 8003f3c:	f880 2040 	strb.w	r2, [r0, #64]	@ 0x40

    hi2c->State = HAL_I2C_STATE_BUSY;
 8003f40:	2224      	movs	r2, #36	@ 0x24
 8003f42:	f880 2041 	strb.w	r2, [r0, #65]	@ 0x41

    /* Disable the selected I2C peripheral */
    __HAL_I2C_DISABLE(hi2c);
 8003f46:	6800      	ldr	r0, [r0, #0]
 8003f48:	6802      	ldr	r2, [r0, #0]
 8003f4a:	f022 0201 	bic.w	r2, r2, #1
 8003f4e:	6002      	str	r2, [r0, #0]

    /* Reset I2Cx ANOFF bit */
    hi2c->Instance->CR1 &= ~(I2C_CR1_ANFOFF);
 8003f50:	6818      	ldr	r0, [r3, #0]
 8003f52:	6802      	ldr	r2, [r0, #0]
 8003f54:	f422 5280 	bic.w	r2, r2, #4096	@ 0x1000
 8003f58:	6002      	str	r2, [r0, #0]

    /* Set analog filter bit*/
    hi2c->Instance->CR1 |= AnalogFilter;
 8003f5a:	6818      	ldr	r0, [r3, #0]
 8003f5c:	6802      	ldr	r2, [r0, #0]
 8003f5e:	430a      	orrs	r2, r1
 8003f60:	6002      	str	r2, [r0, #0]

    __HAL_I2C_ENABLE(hi2c);
 8003f62:	6819      	ldr	r1, [r3, #0]
 8003f64:	680a      	ldr	r2, [r1, #0]
 8003f66:	f042 0201 	orr.w	r2, r2, #1
 8003f6a:	600a      	str	r2, [r1, #0]

    hi2c->State = HAL_I2C_STATE_READY;
 8003f6c:	2220      	movs	r2, #32
 8003f6e:	f883 2041 	strb.w	r2, [r3, #65]	@ 0x41

    /* Process Unlocked */
    __HAL_UNLOCK(hi2c);
 8003f72:	2000      	movs	r0, #0
 8003f74:	f883 0040 	strb.w	r0, [r3, #64]	@ 0x40

    return HAL_OK;
 8003f78:	4770      	bx	lr
  }
  else
  {
    return HAL_BUSY;
 8003f7a:	2002      	movs	r0, #2
 8003f7c:	4770      	bx	lr
    __HAL_LOCK(hi2c);
 8003f7e:	2002      	movs	r0, #2
  }
}
 8003f80:	4770      	bx	lr

08003f82 <HAL_I2CEx_ConfigDigitalFilter>:
  *                the configuration information for the specified I2Cx peripheral.
  * @param  DigitalFilter Coefficient of digital noise filter between Min_Data=0x00 and Max_Data=0x0F.
  * @retval HAL status
  */
HAL_StatusTypeDef HAL_I2CEx_ConfigDigitalFilter(I2C_HandleTypeDef *hi2c, uint32_t DigitalFilter)
{
 8003f82:	4603      	mov	r3, r0

  /* Check the parameters */
  assert_param(IS_I2C_ALL_INSTANCE(hi2c->Instance));
  assert_param(IS_I2C_DIGITAL_FILTER(DigitalFilter));

  if (hi2c->State == HAL_I2C_STATE_READY)
 8003f84:	f890 2041 	ldrb.w	r2, [r0, #65]	@ 0x41
 8003f88:	2a20      	cmp	r2, #32
 8003f8a:	d121      	bne.n	8003fd0 <HAL_I2CEx_ConfigDigitalFilter+0x4e>
  {
    /* Process Locked */
    __HAL_LOCK(hi2c);
 8003f8c:	f890 2040 	ldrb.w	r2, [r0, #64]	@ 0x40
 8003f90:	2a01      	cmp	r2, #1
 8003f92:	d01f      	beq.n	8003fd4 <HAL_I2CEx_ConfigDigitalFilter+0x52>
 8003f94:	2201      	movs	r2, #1
 8003f96:	f880 2040 	strb.w	r2, [r0, #64]	@ 0x40

    hi2c->State = HAL_I2C_STATE_BUSY;
 8003f9a:	2224      	movs	r2, #36	@ 0x24
 8003f9c:	f880 2041 	strb.w	r2, [r0, #65]	@ 0x41

    /* Disable the selected I2C peripheral */
    __HAL_I2C_DISABLE(hi2c);
 8003fa0:	6800      	ldr	r0, [r0, #0]
 8003fa2:	6802      	ldr	r2, [r0, #0]
 8003fa4:	f022 0201 	bic.w	r2, r2, #1
 8003fa8:	6002      	str	r2, [r0, #0]

    /* Get the old register value */
    tmpreg = hi2c->Instance->CR1;
 8003faa:	6818      	ldr	r0, [r3, #0]
 8003fac:	6802      	ldr	r2, [r0, #0]

    /* Reset I2Cx DNF bits [11:8] */
    tmpreg &= ~(I2C_CR1_DNF);
 8003fae:	f422 6270 	bic.w	r2, r2, #3840	@ 0xf00

    /* Set I2Cx DNF coefficient */
    tmpreg |= DigitalFilter << 8U;
 8003fb2:	ea42 2201 	orr.w	r2, r2, r1, lsl #8

    /* Store the new register value */
    hi2c->Instance->CR1 = tmpreg;
 8003fb6:	6002      	str	r2, [r0, #0]

    __HAL_I2C_ENABLE(hi2c);
 8003fb8:	6819      	ldr	r1, [r3, #0]
 8003fba:	680a      	ldr	r2, [r1, #0]
 8003fbc:	f042 0201 	orr.w	r2, r2, #1
 8003fc0:	600a      	str	r2, [r1, #0]

    hi2c->State = HAL_I2C_STATE_READY;
 8003fc2:	2220      	movs	r2, #32
 8003fc4:	f883 2041 	strb.w	r2, [r3, #65]	@ 0x41

    /* Process Unlocked */
    __HAL_UNLOCK(hi2c);
 8003fc8:	2000      	movs	r0, #0
 8003fca:	f883 0040 	strb.w	r0, [r3, #64]	@ 0x40

    return HAL_OK;
 8003fce:	4770      	bx	lr
  }
  else
  {
    return HAL_BUSY;
 8003fd0:	2002      	movs	r0, #2
 8003fd2:	4770      	bx	lr
    __HAL_LOCK(hi2c);
 8003fd4:	2002      	movs	r0, #2
  }
}
 8003fd6:	4770      	bx	lr

08003fd8 <HAL_MspInit>:
/* USER CODE END 0 */
/**
  * Initializes the Global MSP.
  */
void HAL_MspInit(void)
{
 8003fd8:	b082      	sub	sp, #8

  /* USER CODE BEGIN MspInit 0 */

  /* USER CODE END MspInit 0 */

  __HAL_RCC_SYSCFG_CLK_ENABLE();
 8003fda:	4b0a      	ldr	r3, [pc, #40]	@ (8004004 <HAL_MspInit+0x2c>)
 8003fdc:	6e1a      	ldr	r2, [r3, #96]	@ 0x60
 8003fde:	f042 0201 	orr.w	r2, r2, #1
 8003fe2:	661a      	str	r2, [r3, #96]	@ 0x60
 8003fe4:	6e1a      	ldr	r2, [r3, #96]	@ 0x60
 8003fe6:	f002 0201 	and.w	r2, r2, #1
 8003fea:	9200      	str	r2, [sp, #0]
 8003fec:	9a00      	ldr	r2, [sp, #0]
  __HAL_RCC_PWR_CLK_ENABLE();
 8003fee:	6d9a      	ldr	r2, [r3, #88]	@ 0x58
 8003ff0:	f042 5280 	orr.w	r2, r2, #268435456	@ 0x10000000
 8003ff4:	659a      	str	r2, [r3, #88]	@ 0x58
 8003ff6:	6d9b      	ldr	r3, [r3, #88]	@ 0x58
 8003ff8:	f003 5380 	and.w	r3, r3, #268435456	@ 0x10000000
 8003ffc:	9301      	str	r3, [sp, #4]
 8003ffe:	9b01      	ldr	r3, [sp, #4]
  /* System interrupt init*/

  /* USER CODE BEGIN MspInit 1 */

  /* USER CODE END MspInit 1 */
}
 8004000:	b002      	add	sp, #8
 8004002:	4770      	bx	lr
 8004004:	40021000 	.word	0x40021000

08004008 <HAL_I2C_MspInit>:
  * This function configures the hardware resources used in this example
  * @param hi2c: I2C handle pointer
  * @retval None
  */
void HAL_I2C_MspInit(I2C_HandleTypeDef* hi2c)
{
 8004008:	b510      	push	{r4, lr}
 800400a:	b0aa      	sub	sp, #168	@ 0xa8
 800400c:	4604      	mov	r4, r0
  GPIO_InitTypeDef GPIO_InitStruct = {0};
 800400e:	2100      	movs	r1, #0
 8004010:	9125      	str	r1, [sp, #148]	@ 0x94
 8004012:	9126      	str	r1, [sp, #152]	@ 0x98
 8004014:	9127      	str	r1, [sp, #156]	@ 0x9c
 8004016:	9128      	str	r1, [sp, #160]	@ 0xa0
 8004018:	9129      	str	r1, [sp, #164]	@ 0xa4
  RCC_PeriphCLKInitTypeDef PeriphClkInit = {0};
 800401a:	2288      	movs	r2, #136	@ 0x88
 800401c:	a803      	add	r0, sp, #12
 800401e:	f003 ff9b 	bl	8007f58 <memset>
  if(hi2c->Instance==I2C2)
 8004022:	6822      	ldr	r2, [r4, #0]
 8004024:	4b18      	ldr	r3, [pc, #96]	@ (8004088 <HAL_I2C_MspInit+0x80>)
 8004026:	429a      	cmp	r2, r3
 8004028:	d001      	beq.n	800402e <HAL_I2C_MspInit+0x26>

    /* USER CODE END I2C2_MspInit 1 */

  }

}
 800402a:	b02a      	add	sp, #168	@ 0xa8
 800402c:	bd10      	pop	{r4, pc}
    PeriphClkInit.PeriphClockSelection = RCC_PERIPHCLK_I2C2;
 800402e:	2380      	movs	r3, #128	@ 0x80
 8004030:	9303      	str	r3, [sp, #12]
    if (HAL_RCCEx_PeriphCLKConfig(&PeriphClkInit) != HAL_OK)
 8004032:	a803      	add	r0, sp, #12
 8004034:	f001 f8d6 	bl	80051e4 <HAL_RCCEx_PeriphCLKConfig>
 8004038:	bb10      	cbnz	r0, 8004080 <HAL_I2C_MspInit+0x78>
    __HAL_RCC_GPIOB_CLK_ENABLE();
 800403a:	4c14      	ldr	r4, [pc, #80]	@ (800408c <HAL_I2C_MspInit+0x84>)
 800403c:	6ce3      	ldr	r3, [r4, #76]	@ 0x4c
 800403e:	f043 0302 	orr.w	r3, r3, #2
 8004042:	64e3      	str	r3, [r4, #76]	@ 0x4c
 8004044:	6ce3      	ldr	r3, [r4, #76]	@ 0x4c
 8004046:	f003 0302 	and.w	r3, r3, #2
 800404a:	9301      	str	r3, [sp, #4]
 800404c:	9b01      	ldr	r3, [sp, #4]
    GPIO_InitStruct.Pin = GPIO_PIN_13|GPIO_PIN_14;
 800404e:	f44f 43c0 	mov.w	r3, #24576	@ 0x6000
 8004052:	9325      	str	r3, [sp, #148]	@ 0x94
    GPIO_InitStruct.Mode = GPIO_MODE_AF_OD;
 8004054:	2312      	movs	r3, #18
 8004056:	9326      	str	r3, [sp, #152]	@ 0x98
    GPIO_InitStruct.Pull = GPIO_NOPULL;
 8004058:	2300      	movs	r3, #0
 800405a:	9327      	str	r3, [sp, #156]	@ 0x9c
    GPIO_InitStruct.Speed = GPIO_SPEED_FREQ_VERY_HIGH;
 800405c:	2303      	movs	r3, #3
 800405e:	9328      	str	r3, [sp, #160]	@ 0xa0
    GPIO_InitStruct.Alternate = GPIO_AF4_I2C2;
 8004060:	2304      	movs	r3, #4
 8004062:	9329      	str	r3, [sp, #164]	@ 0xa4
    HAL_GPIO_Init(GPIOB, &GPIO_InitStruct);
 8004064:	a925      	add	r1, sp, #148	@ 0x94
 8004066:	480a      	ldr	r0, [pc, #40]	@ (8004090 <HAL_I2C_MspInit+0x88>)
 8004068:	f7ff fdc8 	bl	8003bfc <HAL_GPIO_Init>
    __HAL_RCC_I2C2_CLK_ENABLE();
 800406c:	6da3      	ldr	r3, [r4, #88]	@ 0x58
 800406e:	f443 0380 	orr.w	r3, r3, #4194304	@ 0x400000
 8004072:	65a3      	str	r3, [r4, #88]	@ 0x58
 8004074:	6da3      	ldr	r3, [r4, #88]	@ 0x58
 8004076:	f403 0380 	and.w	r3, r3, #4194304	@ 0x400000
 800407a:	9302      	str	r3, [sp, #8]
 800407c:	9b02      	ldr	r3, [sp, #8]
}
 800407e:	e7d4      	b.n	800402a <HAL_I2C_MspInit+0x22>
      Error_Handler();
 8004080:	f7ff f828 	bl	80030d4 <Error_Handler>
 8004084:	e7d9      	b.n	800403a <HAL_I2C_MspInit+0x32>
 8004086:	bf00      	nop
 8004088:	40005800 	.word	0x40005800
 800408c:	40021000 	.word	0x40021000
 8004090:	48000400 	.word	0x48000400

08004094 <HAL_UART_MspInit>:
  * This function configures the hardware resources used in this example
  * @param huart: UART handle pointer
  * @retval None
  */
void HAL_UART_MspInit(UART_HandleTypeDef* huart)
{
 8004094:	b570      	push	{r4, r5, r6, lr}
 8004096:	b0b0      	sub	sp, #192	@ 0xc0
 8004098:	4604      	mov	r4, r0
 800409a:	4606      	mov	r6, r0
  GPIO_InitTypeDef GPIO_InitStruct = {0};
 800409c:	2100      	movs	r1, #0
 800409e:	912b      	str	r1, [sp, #172]	@ 0xac
 80040a0:	912c      	str	r1, [sp, #176]	@ 0xb0
 80040a2:	912d      	str	r1, [sp, #180]	@ 0xb4
 80040a4:	912e      	str	r1, [sp, #184]	@ 0xb8
 80040a6:	912f      	str	r1, [sp, #188]	@ 0xbc
  RCC_PeriphCLKInitTypeDef PeriphClkInit = {0};
 80040a8:	2288      	movs	r2, #136	@ 0x88
 80040aa:	a809      	add	r0, sp, #36	@ 0x24
 80040ac:	f003 ff54 	bl	8007f58 <memset>
  if(huart->Instance==LPUART1)
 80040b0:	6823      	ldr	r3, [r4, #0]
 80040b2:	4a6a      	ldr	r2, [pc, #424]	@ (800425c <HAL_UART_MspInit+0x1c8>)
 80040b4:	4293      	cmp	r3, r2
 80040b6:	d00b      	beq.n	80040d0 <HAL_UART_MspInit+0x3c>

    /* USER CODE BEGIN LPUART1_MspInit 1 */

    /* USER CODE END LPUART1_MspInit 1 */
  }
  else if(huart->Instance==USART1)
 80040b8:	4a69      	ldr	r2, [pc, #420]	@ (8004260 <HAL_UART_MspInit+0x1cc>)
 80040ba:	4293      	cmp	r3, r2
 80040bc:	d032      	beq.n	8004124 <HAL_UART_MspInit+0x90>

    /* USER CODE BEGIN USART1_MspInit 1 */

    /* USER CODE END USART1_MspInit 1 */
  }
  else if(huart->Instance==USART2)
 80040be:	4a69      	ldr	r2, [pc, #420]	@ (8004264 <HAL_UART_MspInit+0x1d0>)
 80040c0:	4293      	cmp	r3, r2
 80040c2:	d073      	beq.n	80041ac <HAL_UART_MspInit+0x118>

    /* USER CODE BEGIN USART2_MspInit 1 */

    /* USER CODE END USART2_MspInit 1 */
  }
  else if(huart->Instance==USART3)
 80040c4:	4a68      	ldr	r2, [pc, #416]	@ (8004268 <HAL_UART_MspInit+0x1d4>)
 80040c6:	4293      	cmp	r3, r2
 80040c8:	f000 809c 	beq.w	8004204 <HAL_UART_MspInit+0x170>
    /* USER CODE BEGIN USART3_MspInit 1 */

    /* USER CODE END USART3_MspInit 1 */
  }

}
 80040cc:	b030      	add	sp, #192	@ 0xc0
 80040ce:	bd70      	pop	{r4, r5, r6, pc}
    PeriphClkInit.PeriphClockSelection = RCC_PERIPHCLK_LPUART1;
 80040d0:	2320      	movs	r3, #32
 80040d2:	9309      	str	r3, [sp, #36]	@ 0x24
    if (HAL_RCCEx_PeriphCLKConfig(&PeriphClkInit) != HAL_OK)
 80040d4:	a809      	add	r0, sp, #36	@ 0x24
 80040d6:	f001 f885 	bl	80051e4 <HAL_RCCEx_PeriphCLKConfig>
 80040da:	bb00      	cbnz	r0, 800411e <HAL_UART_MspInit+0x8a>
    __HAL_RCC_LPUART1_CLK_ENABLE();
 80040dc:	4b63      	ldr	r3, [pc, #396]	@ (800426c <HAL_UART_MspInit+0x1d8>)
 80040de:	6dda      	ldr	r2, [r3, #92]	@ 0x5c
 80040e0:	f042 0201 	orr.w	r2, r2, #1
 80040e4:	65da      	str	r2, [r3, #92]	@ 0x5c
 80040e6:	6dda      	ldr	r2, [r3, #92]	@ 0x5c
 80040e8:	f002 0201 	and.w	r2, r2, #1
 80040ec:	9201      	str	r2, [sp, #4]
 80040ee:	9a01      	ldr	r2, [sp, #4]
    __HAL_RCC_GPIOC_CLK_ENABLE();
 80040f0:	6cda      	ldr	r2, [r3, #76]	@ 0x4c
 80040f2:	f042 0204 	orr.w	r2, r2, #4
 80040f6:	64da      	str	r2, [r3, #76]	@ 0x4c
 80040f8:	6cdb      	ldr	r3, [r3, #76]	@ 0x4c
 80040fa:	f003 0304 	and.w	r3, r3, #4
 80040fe:	9302      	str	r3, [sp, #8]
 8004100:	9b02      	ldr	r3, [sp, #8]
    GPIO_InitStruct.Pin = L0_LPUART1_RX_Pin|L0_LPUART1_TX_Pin;
 8004102:	2303      	movs	r3, #3
 8004104:	932b      	str	r3, [sp, #172]	@ 0xac
    GPIO_InitStruct.Mode = GPIO_MODE_AF_PP;
 8004106:	2202      	movs	r2, #2
 8004108:	922c      	str	r2, [sp, #176]	@ 0xb0
    GPIO_InitStruct.Pull = GPIO_NOPULL;
 800410a:	2200      	movs	r2, #0
 800410c:	922d      	str	r2, [sp, #180]	@ 0xb4
    GPIO_InitStruct.Speed = GPIO_SPEED_FREQ_VERY_HIGH;
 800410e:	932e      	str	r3, [sp, #184]	@ 0xb8
    GPIO_InitStruct.Alternate = GPIO_AF8_LPUART1;
 8004110:	2308      	movs	r3, #8
 8004112:	932f      	str	r3, [sp, #188]	@ 0xbc
    HAL_GPIO_Init(GPIOC, &GPIO_InitStruct);
 8004114:	a92b      	add	r1, sp, #172	@ 0xac
 8004116:	4856      	ldr	r0, [pc, #344]	@ (8004270 <HAL_UART_MspInit+0x1dc>)
 8004118:	f7ff fd70 	bl	8003bfc <HAL_GPIO_Init>
 800411c:	e7d6      	b.n	80040cc <HAL_UART_MspInit+0x38>
      Error_Handler();
 800411e:	f7fe ffd9 	bl	80030d4 <Error_Handler>
 8004122:	e7db      	b.n	80040dc <HAL_UART_MspInit+0x48>
    PeriphClkInit.PeriphClockSelection = RCC_PERIPHCLK_USART1;
 8004124:	2301      	movs	r3, #1
 8004126:	9309      	str	r3, [sp, #36]	@ 0x24
    if (HAL_RCCEx_PeriphCLKConfig(&PeriphClkInit) != HAL_OK)
 8004128:	a809      	add	r0, sp, #36	@ 0x24
 800412a:	f001 f85b 	bl	80051e4 <HAL_RCCEx_PeriphCLKConfig>
 800412e:	2800      	cmp	r0, #0
 8004130:	d136      	bne.n	80041a0 <HAL_UART_MspInit+0x10c>
    __HAL_RCC_USART1_CLK_ENABLE();
 8004132:	4b4e      	ldr	r3, [pc, #312]	@ (800426c <HAL_UART_MspInit+0x1d8>)
 8004134:	6e1a      	ldr	r2, [r3, #96]	@ 0x60
 8004136:	f442 4280 	orr.w	r2, r2, #16384	@ 0x4000
 800413a:	661a      	str	r2, [r3, #96]	@ 0x60
 800413c:	6e1a      	ldr	r2, [r3, #96]	@ 0x60
 800413e:	f402 4280 	and.w	r2, r2, #16384	@ 0x4000
 8004142:	9203      	str	r2, [sp, #12]
 8004144:	9a03      	ldr	r2, [sp, #12]
    __HAL_RCC_GPIOA_CLK_ENABLE();
 8004146:	6cda      	ldr	r2, [r3, #76]	@ 0x4c
 8004148:	f042 0201 	orr.w	r2, r2, #1
 800414c:	64da      	str	r2, [r3, #76]	@ 0x4c
 800414e:	6cdb      	ldr	r3, [r3, #76]	@ 0x4c
 8004150:	f003 0301 	and.w	r3, r3, #1
 8004154:	9304      	str	r3, [sp, #16]
 8004156:	9b04      	ldr	r3, [sp, #16]
    GPIO_InitStruct.Pin = D_USART_RX_Pin|D_USART_TX_Pin;
 8004158:	f44f 63c0 	mov.w	r3, #1536	@ 0x600
 800415c:	932b      	str	r3, [sp, #172]	@ 0xac
    GPIO_InitStruct.Mode = GPIO_MODE_AF_PP;
 800415e:	2502      	movs	r5, #2
 8004160:	952c      	str	r5, [sp, #176]	@ 0xb0
    GPIO_InitStruct.Pull = GPIO_NOPULL;
 8004162:	2400      	movs	r4, #0
 8004164:	942d      	str	r4, [sp, #180]	@ 0xb4
    GPIO_InitStruct.Speed = GPIO_SPEED_FREQ_VERY_HIGH;
 8004166:	2303      	movs	r3, #3
 8004168:	932e      	str	r3, [sp, #184]	@ 0xb8
    GPIO_InitStruct.Alternate = GPIO_AF7_USART1;
 800416a:	2307      	movs	r3, #7
 800416c:	932f      	str	r3, [sp, #188]	@ 0xbc
    HAL_GPIO_Init(GPIOA, &GPIO_InitStruct);
 800416e:	a92b      	add	r1, sp, #172	@ 0xac
 8004170:	f04f 4090 	mov.w	r0, #1207959552	@ 0x48000000
 8004174:	f7ff fd42 	bl	8003bfc <HAL_GPIO_Init>
    hdma_usart1_rx.Instance = DMA1_Channel5;
 8004178:	483e      	ldr	r0, [pc, #248]	@ (8004274 <HAL_UART_MspInit+0x1e0>)
 800417a:	4b3f      	ldr	r3, [pc, #252]	@ (8004278 <HAL_UART_MspInit+0x1e4>)
 800417c:	6003      	str	r3, [r0, #0]
    hdma_usart1_rx.Init.Request = DMA_REQUEST_2;
 800417e:	6045      	str	r5, [r0, #4]
    hdma_usart1_rx.Init.Direction = DMA_PERIPH_TO_MEMORY;
 8004180:	6084      	str	r4, [r0, #8]
    hdma_usart1_rx.Init.PeriphInc = DMA_PINC_DISABLE;
 8004182:	60c4      	str	r4, [r0, #12]
    hdma_usart1_rx.Init.MemInc = DMA_MINC_ENABLE;
 8004184:	2380      	movs	r3, #128	@ 0x80
 8004186:	6103      	str	r3, [r0, #16]
    hdma_usart1_rx.Init.PeriphDataAlignment = DMA_PDATAALIGN_BYTE;
 8004188:	6144      	str	r4, [r0, #20]
    hdma_usart1_rx.Init.MemDataAlignment = DMA_MDATAALIGN_BYTE;
 800418a:	6184      	str	r4, [r0, #24]
    hdma_usart1_rx.Init.Mode = DMA_CIRCULAR;
 800418c:	2320      	movs	r3, #32
 800418e:	61c3      	str	r3, [r0, #28]
    hdma_usart1_rx.Init.Priority = DMA_PRIORITY_LOW;
 8004190:	6204      	str	r4, [r0, #32]
    if (HAL_DMA_Init(&hdma_usart1_rx) != HAL_OK)
 8004192:	f7ff fbf1 	bl	8003978 <HAL_DMA_Init>
 8004196:	b930      	cbnz	r0, 80041a6 <HAL_UART_MspInit+0x112>
    __HAL_LINKDMA(huart,hdmarx,hdma_usart1_rx);
 8004198:	4b36      	ldr	r3, [pc, #216]	@ (8004274 <HAL_UART_MspInit+0x1e0>)
 800419a:	6773      	str	r3, [r6, #116]	@ 0x74
 800419c:	629e      	str	r6, [r3, #40]	@ 0x28
 800419e:	e795      	b.n	80040cc <HAL_UART_MspInit+0x38>
      Error_Handler();
 80041a0:	f7fe ff98 	bl	80030d4 <Error_Handler>
 80041a4:	e7c5      	b.n	8004132 <HAL_UART_MspInit+0x9e>
      Error_Handler();
 80041a6:	f7fe ff95 	bl	80030d4 <Error_Handler>
 80041aa:	e7f5      	b.n	8004198 <HAL_UART_MspInit+0x104>
    PeriphClkInit.PeriphClockSelection = RCC_PERIPHCLK_USART2;
 80041ac:	2302      	movs	r3, #2
 80041ae:	9309      	str	r3, [sp, #36]	@ 0x24
    if (HAL_RCCEx_PeriphCLKConfig(&PeriphClkInit) != HAL_OK)
 80041b0:	a809      	add	r0, sp, #36	@ 0x24
 80041b2:	f001 f817 	bl	80051e4 <HAL_RCCEx_PeriphCLKConfig>
 80041b6:	bb10      	cbnz	r0, 80041fe <HAL_UART_MspInit+0x16a>
    __HAL_RCC_USART2_CLK_ENABLE();
 80041b8:	4b2c      	ldr	r3, [pc, #176]	@ (800426c <HAL_UART_MspInit+0x1d8>)
 80041ba:	6d9a      	ldr	r2, [r3, #88]	@ 0x58
 80041bc:	f442 3200 	orr.w	r2, r2, #131072	@ 0x20000
 80041c0:	659a      	str	r2, [r3, #88]	@ 0x58
 80041c2:	6d9a      	ldr	r2, [r3, #88]	@ 0x58
 80041c4:	f402 3200 	and.w	r2, r2, #131072	@ 0x20000
 80041c8:	9205      	str	r2, [sp, #20]
 80041ca:	9a05      	ldr	r2, [sp, #20]
    __HAL_RCC_GPIOA_CLK_ENABLE();
 80041cc:	6cda      	ldr	r2, [r3, #76]	@ 0x4c
 80041ce:	f042 0201 	orr.w	r2, r2, #1
 80041d2:	64da      	str	r2, [r3, #76]	@ 0x4c
 80041d4:	6cdb      	ldr	r3, [r3, #76]	@ 0x4c
 80041d6:	f003 0301 	and.w	r3, r3, #1
 80041da:	9306      	str	r3, [sp, #24]
 80041dc:	9b06      	ldr	r3, [sp, #24]
    GPIO_InitStruct.Pin = Wi_USART2_CTS_Pin|Wi_USART2_RTS_Pin|Wi_USART2_TX_Pin|Wi_USART2_RX_Pin;
 80041de:	230f      	movs	r3, #15
 80041e0:	932b      	str	r3, [sp, #172]	@ 0xac
    GPIO_InitStruct.Mode = GPIO_MODE_AF_PP;
 80041e2:	2302      	movs	r3, #2
 80041e4:	932c      	str	r3, [sp, #176]	@ 0xb0
    GPIO_InitStruct.Pull = GPIO_NOPULL;
 80041e6:	2300      	movs	r3, #0
 80041e8:	932d      	str	r3, [sp, #180]	@ 0xb4
    GPIO_InitStruct.Speed = GPIO_SPEED_FREQ_VERY_HIGH;
 80041ea:	2303      	movs	r3, #3
 80041ec:	932e      	str	r3, [sp, #184]	@ 0xb8
    GPIO_InitStruct.Alternate = GPIO_AF7_USART2;
 80041ee:	2307      	movs	r3, #7
 80041f0:	932f      	str	r3, [sp, #188]	@ 0xbc
    HAL_GPIO_Init(GPIOA, &GPIO_InitStruct);
 80041f2:	a92b      	add	r1, sp, #172	@ 0xac
 80041f4:	f04f 4090 	mov.w	r0, #1207959552	@ 0x48000000
 80041f8:	f7ff fd00 	bl	8003bfc <HAL_GPIO_Init>
 80041fc:	e766      	b.n	80040cc <HAL_UART_MspInit+0x38>
      Error_Handler();
 80041fe:	f7fe ff69 	bl	80030d4 <Error_Handler>
 8004202:	e7d9      	b.n	80041b8 <HAL_UART_MspInit+0x124>
    PeriphClkInit.PeriphClockSelection = RCC_PERIPHCLK_USART3;
 8004204:	2304      	movs	r3, #4
 8004206:	9309      	str	r3, [sp, #36]	@ 0x24
    if (HAL_RCCEx_PeriphCLKConfig(&PeriphClkInit) != HAL_OK)
 8004208:	a809      	add	r0, sp, #36	@ 0x24
 800420a:	f000 ffeb 	bl	80051e4 <HAL_RCCEx_PeriphCLKConfig>
 800420e:	bb08      	cbnz	r0, 8004254 <HAL_UART_MspInit+0x1c0>
    __HAL_RCC_USART3_CLK_ENABLE();
 8004210:	4b16      	ldr	r3, [pc, #88]	@ (800426c <HAL_UART_MspInit+0x1d8>)
 8004212:	6d9a      	ldr	r2, [r3, #88]	@ 0x58
 8004214:	f442 2280 	orr.w	r2, r2, #262144	@ 0x40000
 8004218:	659a      	str	r2, [r3, #88]	@ 0x58
 800421a:	6d9a      	ldr	r2, [r3, #88]	@ 0x58
 800421c:	f402 2280 	and.w	r2, r2, #262144	@ 0x40000
 8004220:	9207      	str	r2, [sp, #28]
 8004222:	9a07      	ldr	r2, [sp, #28]
    __HAL_RCC_GPIOC_CLK_ENABLE();
 8004224:	6cda      	ldr	r2, [r3, #76]	@ 0x4c
 8004226:	f042 0204 	orr.w	r2, r2, #4
 800422a:	64da      	str	r2, [r3, #76]	@ 0x4c
 800422c:	6cdb      	ldr	r3, [r3, #76]	@ 0x4c
 800422e:	f003 0304 	and.w	r3, r3, #4
 8004232:	9308      	str	r3, [sp, #32]
 8004234:	9b08      	ldr	r3, [sp, #32]
    GPIO_InitStruct.Pin = Wi_USART3_TX_Pin|Wi_USART3_RX_Pin;
 8004236:	2330      	movs	r3, #48	@ 0x30
 8004238:	932b      	str	r3, [sp, #172]	@ 0xac
    GPIO_InitStruct.Mode = GPIO_MODE_AF_PP;
 800423a:	2302      	movs	r3, #2
 800423c:	932c      	str	r3, [sp, #176]	@ 0xb0
    GPIO_InitStruct.Pull = GPIO_NOPULL;
 800423e:	2300      	movs	r3, #0
 8004240:	932d      	str	r3, [sp, #180]	@ 0xb4
    GPIO_InitStruct.Speed = GPIO_SPEED_FREQ_VERY_HIGH;
 8004242:	2303      	movs	r3, #3
 8004244:	932e      	str	r3, [sp, #184]	@ 0xb8
    GPIO_InitStruct.Alternate = GPIO_AF7_USART3;
 8004246:	2307      	movs	r3, #7
 8004248:	932f      	str	r3, [sp, #188]	@ 0xbc
    HAL_GPIO_Init(GPIOC, &GPIO_InitStruct);
 800424a:	a92b      	add	r1, sp, #172	@ 0xac
 800424c:	4808      	ldr	r0, [pc, #32]	@ (8004270 <HAL_UART_MspInit+0x1dc>)
 800424e:	f7ff fcd5 	bl	8003bfc <HAL_GPIO_Init>
}
 8004252:	e73b      	b.n	80040cc <HAL_UART_MspInit+0x38>
      Error_Handler();
 8004254:	f7fe ff3e 	bl	80030d4 <Error_Handler>
 8004258:	e7da      	b.n	8004210 <HAL_UART_MspInit+0x17c>
 800425a:	bf00      	nop
 800425c:	40008000 	.word	0x40008000
 8004260:	40013800 	.word	0x40013800
 8004264:	40004400 	.word	0x40004400
 8004268:	40004800 	.word	0x40004800
 800426c:	40021000 	.word	0x40021000
 8004270:	48000800 	.word	0x48000800
 8004274:	20000abc 	.word	0x20000abc
 8004278:	40020058 	.word	0x40020058

0800427c <HAL_RTC_MspInit>:
  * This function configures the hardware resources used in this example
  * @param hrtc: RTC handle pointer
  * @retval None
  */
void HAL_RTC_MspInit(RTC_HandleTypeDef* hrtc)
{
 800427c:	b510      	push	{r4, lr}
 800427e:	b0a2      	sub	sp, #136	@ 0x88
 8004280:	4604      	mov	r4, r0
  RCC_PeriphCLKInitTypeDef PeriphClkInit = {0};
 8004282:	2288      	movs	r2, #136	@ 0x88
 8004284:	2100      	movs	r1, #0
 8004286:	4668      	mov	r0, sp
 8004288:	f003 fe66 	bl	8007f58 <memset>
  if(hrtc->Instance==RTC)
 800428c:	6822      	ldr	r2, [r4, #0]
 800428e:	4b0d      	ldr	r3, [pc, #52]	@ (80042c4 <HAL_RTC_MspInit+0x48>)
 8004290:	429a      	cmp	r2, r3
 8004292:	d001      	beq.n	8004298 <HAL_RTC_MspInit+0x1c>

    /* USER CODE END RTC_MspInit 1 */

  }

}
 8004294:	b022      	add	sp, #136	@ 0x88
 8004296:	bd10      	pop	{r4, pc}
    PeriphClkInit.PeriphClockSelection = RCC_PERIPHCLK_RTC;
 8004298:	f44f 3300 	mov.w	r3, #131072	@ 0x20000
 800429c:	9300      	str	r3, [sp, #0]
    PeriphClkInit.RTCClockSelection = RCC_RTCCLKSOURCE_LSI;
 800429e:	f44f 7300 	mov.w	r3, #512	@ 0x200
 80042a2:	9321      	str	r3, [sp, #132]	@ 0x84
    if (HAL_RCCEx_PeriphCLKConfig(&PeriphClkInit) != HAL_OK)
 80042a4:	4668      	mov	r0, sp
 80042a6:	f000 ff9d 	bl	80051e4 <HAL_RCCEx_PeriphCLKConfig>
 80042aa:	b938      	cbnz	r0, 80042bc <HAL_RTC_MspInit+0x40>
    __HAL_RCC_RTC_ENABLE();
 80042ac:	4a06      	ldr	r2, [pc, #24]	@ (80042c8 <HAL_RTC_MspInit+0x4c>)
 80042ae:	f8d2 3090 	ldr.w	r3, [r2, #144]	@ 0x90
 80042b2:	f443 4300 	orr.w	r3, r3, #32768	@ 0x8000
 80042b6:	f8c2 3090 	str.w	r3, [r2, #144]	@ 0x90
}
 80042ba:	e7eb      	b.n	8004294 <HAL_RTC_MspInit+0x18>
      Error_Handler();
 80042bc:	f7fe ff0a 	bl	80030d4 <Error_Handler>
 80042c0:	e7f4      	b.n	80042ac <HAL_RTC_MspInit+0x30>
 80042c2:	bf00      	nop
 80042c4:	40002800 	.word	0x40002800
 80042c8:	40021000 	.word	0x40021000

080042cc <HAL_SD_MspInit>:
  * This function configures the hardware resources used in this example
  * @param hsd: SD handle pointer
  * @retval None
  */
void HAL_SD_MspInit(SD_HandleTypeDef* hsd)
{
 80042cc:	b5f0      	push	{r4, r5, r6, r7, lr}
 80042ce:	b0ab      	sub	sp, #172	@ 0xac
 80042d0:	4604      	mov	r4, r0
  GPIO_InitTypeDef GPIO_InitStruct = {0};
 80042d2:	2100      	movs	r1, #0
 80042d4:	9125      	str	r1, [sp, #148]	@ 0x94
 80042d6:	9126      	str	r1, [sp, #152]	@ 0x98
 80042d8:	9127      	str	r1, [sp, #156]	@ 0x9c
 80042da:	9128      	str	r1, [sp, #160]	@ 0xa0
 80042dc:	9129      	str	r1, [sp, #164]	@ 0xa4
  RCC_PeriphCLKInitTypeDef PeriphClkInit = {0};
 80042de:	2288      	movs	r2, #136	@ 0x88
 80042e0:	a803      	add	r0, sp, #12
 80042e2:	f003 fe39 	bl	8007f58 <memset>
  if(hsd->Instance==SDMMC1)
 80042e6:	6822      	ldr	r2, [r4, #0]
 80042e8:	4b2a      	ldr	r3, [pc, #168]	@ (8004394 <HAL_SD_MspInit+0xc8>)
 80042ea:	429a      	cmp	r2, r3
 80042ec:	d001      	beq.n	80042f2 <HAL_SD_MspInit+0x26>

    /* USER CODE END SDMMC1_MspInit 1 */

  }

}
 80042ee:	b02b      	add	sp, #172	@ 0xac
 80042f0:	bdf0      	pop	{r4, r5, r6, r7, pc}
    PeriphClkInit.PeriphClockSelection = RCC_PERIPHCLK_SDMMC1;
 80042f2:	f44f 2300 	mov.w	r3, #524288	@ 0x80000
 80042f6:	9303      	str	r3, [sp, #12]
    PeriphClkInit.Sdmmc1ClockSelection = RCC_SDMMC1CLKSOURCE_PLLSAI1;
 80042f8:	f04f 6380 	mov.w	r3, #67108864	@ 0x4000000
 80042fc:	931f      	str	r3, [sp, #124]	@ 0x7c
    PeriphClkInit.PLLSAI1.PLLSAI1Source = RCC_PLLSOURCE_MSI;
 80042fe:	2301      	movs	r3, #1
 8004300:	9304      	str	r3, [sp, #16]
    PeriphClkInit.PLLSAI1.PLLSAI1M = 1;
 8004302:	9305      	str	r3, [sp, #20]
    PeriphClkInit.PLLSAI1.PLLSAI1N = 24;
 8004304:	2318      	movs	r3, #24
 8004306:	9306      	str	r3, [sp, #24]
    PeriphClkInit.PLLSAI1.PLLSAI1P = RCC_PLLP_DIV7;
 8004308:	2307      	movs	r3, #7
 800430a:	9307      	str	r3, [sp, #28]
    PeriphClkInit.PLLSAI1.PLLSAI1Q = RCC_PLLQ_DIV2;
 800430c:	2302      	movs	r3, #2
 800430e:	9308      	str	r3, [sp, #32]
    PeriphClkInit.PLLSAI1.PLLSAI1R = RCC_PLLR_DIV2;
 8004310:	9309      	str	r3, [sp, #36]	@ 0x24
    PeriphClkInit.PLLSAI1.PLLSAI1ClockOut = RCC_PLLSAI1_48M2CLK;
 8004312:	f44f 1380 	mov.w	r3, #1048576	@ 0x100000
 8004316:	930a      	str	r3, [sp, #40]	@ 0x28
    if (HAL_RCCEx_PeriphCLKConfig(&PeriphClkInit) != HAL_OK)
 8004318:	a803      	add	r0, sp, #12
 800431a:	f000 ff63 	bl	80051e4 <HAL_RCCEx_PeriphCLKConfig>
 800431e:	2800      	cmp	r0, #0
 8004320:	d135      	bne.n	800438e <HAL_SD_MspInit+0xc2>
    __HAL_RCC_SDMMC1_CLK_ENABLE();
 8004322:	4b1d      	ldr	r3, [pc, #116]	@ (8004398 <HAL_SD_MspInit+0xcc>)
 8004324:	6e1a      	ldr	r2, [r3, #96]	@ 0x60
 8004326:	f442 6280 	orr.w	r2, r2, #1024	@ 0x400
 800432a:	661a      	str	r2, [r3, #96]	@ 0x60
 800432c:	6e1a      	ldr	r2, [r3, #96]	@ 0x60
 800432e:	f402 6280 	and.w	r2, r2, #1024	@ 0x400
 8004332:	9200      	str	r2, [sp, #0]
 8004334:	9a00      	ldr	r2, [sp, #0]
    __HAL_RCC_GPIOC_CLK_ENABLE();
 8004336:	6cda      	ldr	r2, [r3, #76]	@ 0x4c
 8004338:	f042 0204 	orr.w	r2, r2, #4
 800433c:	64da      	str	r2, [r3, #76]	@ 0x4c
 800433e:	6cda      	ldr	r2, [r3, #76]	@ 0x4c
 8004340:	f002 0204 	and.w	r2, r2, #4
 8004344:	9201      	str	r2, [sp, #4]
 8004346:	9a01      	ldr	r2, [sp, #4]
    __HAL_RCC_GPIOD_CLK_ENABLE();
 8004348:	6cda      	ldr	r2, [r3, #76]	@ 0x4c
 800434a:	f042 0208 	orr.w	r2, r2, #8
 800434e:	64da      	str	r2, [r3, #76]	@ 0x4c
 8004350:	6cdb      	ldr	r3, [r3, #76]	@ 0x4c
 8004352:	f003 0308 	and.w	r3, r3, #8
 8004356:	9302      	str	r3, [sp, #8]
 8004358:	9b02      	ldr	r3, [sp, #8]
    GPIO_InitStruct.Pin = GPIO_PIN_8|GPIO_PIN_9|GPIO_PIN_10|GPIO_PIN_11
 800435a:	f44f 53f8 	mov.w	r3, #7936	@ 0x1f00
 800435e:	9325      	str	r3, [sp, #148]	@ 0x94
    GPIO_InitStruct.Mode = GPIO_MODE_AF_PP;
 8004360:	2402      	movs	r4, #2
 8004362:	9426      	str	r4, [sp, #152]	@ 0x98
    GPIO_InitStruct.Pull = GPIO_NOPULL;
 8004364:	2500      	movs	r5, #0
 8004366:	9527      	str	r5, [sp, #156]	@ 0x9c
    GPIO_InitStruct.Speed = GPIO_SPEED_FREQ_VERY_HIGH;
 8004368:	2603      	movs	r6, #3
 800436a:	9628      	str	r6, [sp, #160]	@ 0xa0
    GPIO_InitStruct.Alternate = GPIO_AF12_SDMMC1;
 800436c:	270c      	movs	r7, #12
 800436e:	9729      	str	r7, [sp, #164]	@ 0xa4
    HAL_GPIO_Init(GPIOC, &GPIO_InitStruct);
 8004370:	a925      	add	r1, sp, #148	@ 0x94
 8004372:	480a      	ldr	r0, [pc, #40]	@ (800439c <HAL_SD_MspInit+0xd0>)
 8004374:	f7ff fc42 	bl	8003bfc <HAL_GPIO_Init>
    GPIO_InitStruct.Pin = GPIO_PIN_2;
 8004378:	2304      	movs	r3, #4
 800437a:	9325      	str	r3, [sp, #148]	@ 0x94
    GPIO_InitStruct.Mode = GPIO_MODE_AF_PP;
 800437c:	9426      	str	r4, [sp, #152]	@ 0x98
    GPIO_InitStruct.Pull = GPIO_NOPULL;
 800437e:	9527      	str	r5, [sp, #156]	@ 0x9c
    GPIO_InitStruct.Speed = GPIO_SPEED_FREQ_VERY_HIGH;
 8004380:	9628      	str	r6, [sp, #160]	@ 0xa0
    GPIO_InitStruct.Alternate = GPIO_AF12_SDMMC1;
 8004382:	9729      	str	r7, [sp, #164]	@ 0xa4
    HAL_GPIO_Init(GPIOD, &GPIO_InitStruct);
 8004384:	a925      	add	r1, sp, #148	@ 0x94
 8004386:	4806      	ldr	r0, [pc, #24]	@ (80043a0 <HAL_SD_MspInit+0xd4>)
 8004388:	f7ff fc38 	bl	8003bfc <HAL_GPIO_Init>
}
 800438c:	e7af      	b.n	80042ee <HAL_SD_MspInit+0x22>
      Error_Handler();
 800438e:	f7fe fea1 	bl	80030d4 <Error_Handler>
 8004392:	e7c6      	b.n	8004322 <HAL_SD_MspInit+0x56>
 8004394:	40012800 	.word	0x40012800
 8004398:	40021000 	.word	0x40021000
 800439c:	48000800 	.word	0x48000800
 80043a0:	48000c00 	.word	0x48000c00

080043a4 <HAL_SPI_MspInit>:
  * This function configures the hardware resources used in this example
  * @param hspi: SPI handle pointer
  * @retval None
  */
void HAL_SPI_MspInit(SPI_HandleTypeDef* hspi)
{
 80043a4:	b500      	push	{lr}
 80043a6:	b089      	sub	sp, #36	@ 0x24
  GPIO_InitTypeDef GPIO_InitStruct = {0};
 80043a8:	2300      	movs	r3, #0
 80043aa:	9303      	str	r3, [sp, #12]
 80043ac:	9304      	str	r3, [sp, #16]
 80043ae:	9305      	str	r3, [sp, #20]
 80043b0:	9306      	str	r3, [sp, #24]
 80043b2:	9307      	str	r3, [sp, #28]
  if(hspi->Instance==SPI1)
 80043b4:	6802      	ldr	r2, [r0, #0]
 80043b6:	4b13      	ldr	r3, [pc, #76]	@ (8004404 <HAL_SPI_MspInit+0x60>)
 80043b8:	429a      	cmp	r2, r3
 80043ba:	d001      	beq.n	80043c0 <HAL_SPI_MspInit+0x1c>

    /* USER CODE END SPI1_MspInit 1 */

  }

}
 80043bc:	b009      	add	sp, #36	@ 0x24
 80043be:	bd00      	pop	{pc}
    __HAL_RCC_SPI1_CLK_ENABLE();
 80043c0:	f503 4360 	add.w	r3, r3, #57344	@ 0xe000
 80043c4:	6e1a      	ldr	r2, [r3, #96]	@ 0x60
 80043c6:	f442 5280 	orr.w	r2, r2, #4096	@ 0x1000
 80043ca:	661a      	str	r2, [r3, #96]	@ 0x60
 80043cc:	6e1a      	ldr	r2, [r3, #96]	@ 0x60
 80043ce:	f402 5280 	and.w	r2, r2, #4096	@ 0x1000
 80043d2:	9201      	str	r2, [sp, #4]
 80043d4:	9a01      	ldr	r2, [sp, #4]
    __HAL_RCC_GPIOA_CLK_ENABLE();
 80043d6:	6cda      	ldr	r2, [r3, #76]	@ 0x4c
 80043d8:	f042 0201 	orr.w	r2, r2, #1
 80043dc:	64da      	str	r2, [r3, #76]	@ 0x4c
 80043de:	6cdb      	ldr	r3, [r3, #76]	@ 0x4c
 80043e0:	f003 0301 	and.w	r3, r3, #1
 80043e4:	9302      	str	r3, [sp, #8]
 80043e6:	9b02      	ldr	r3, [sp, #8]
    GPIO_InitStruct.Pin = SD_SPI1_SCK_Pin|SD_SPI1_MISO_Pin|SD_SPI1_MOSI_Pin;
 80043e8:	23e0      	movs	r3, #224	@ 0xe0
 80043ea:	9303      	str	r3, [sp, #12]
    GPIO_InitStruct.Mode = GPIO_MODE_AF_PP;
 80043ec:	2302      	movs	r3, #2
 80043ee:	9304      	str	r3, [sp, #16]
    GPIO_InitStruct.Speed = GPIO_SPEED_FREQ_VERY_HIGH;
 80043f0:	2303      	movs	r3, #3
 80043f2:	9306      	str	r3, [sp, #24]
    GPIO_InitStruct.Alternate = GPIO_AF5_SPI1;
 80043f4:	2305      	movs	r3, #5
 80043f6:	9307      	str	r3, [sp, #28]
    HAL_GPIO_Init(GPIOA, &GPIO_InitStruct);
 80043f8:	a903      	add	r1, sp, #12
 80043fa:	f04f 4090 	mov.w	r0, #1207959552	@ 0x48000000
 80043fe:	f7ff fbfd 	bl	8003bfc <HAL_GPIO_Init>
}
 8004402:	e7db      	b.n	80043bc <HAL_SPI_MspInit+0x18>
 8004404:	40013000 	.word	0x40013000

08004408 <HAL_PWREx_GetVoltageRange>:
    else
    {
      return PWR_REGULATOR_VOLTAGE_SCALE1_BOOST;
    }
#else
  return  (PWR->CR1 & PWR_CR1_VOS);
 8004408:	4b02      	ldr	r3, [pc, #8]	@ (8004414 <HAL_PWREx_GetVoltageRange+0xc>)
 800440a:	6818      	ldr	r0, [r3, #0]
#endif
}
 800440c:	f400 60c0 	and.w	r0, r0, #1536	@ 0x600
 8004410:	4770      	bx	lr
 8004412:	bf00      	nop
 8004414:	40007000 	.word	0x40007000

08004418 <HAL_PWREx_ControlVoltageScaling>:
  }

#else

  /* If Set Range 1 */
  if (VoltageScaling == PWR_REGULATOR_VOLTAGE_SCALE1)
 8004418:	f5b0 7f00 	cmp.w	r0, #512	@ 0x200
 800441c:	d00f      	beq.n	800443e <HAL_PWREx_ControlVoltageScaling+0x26>
      }
    }
  }
  else
  {
    if (READ_BIT(PWR->CR1, PWR_CR1_VOS) != PWR_REGULATOR_VOLTAGE_SCALE2)
 800441e:	4b1f      	ldr	r3, [pc, #124]	@ (800449c <HAL_PWREx_ControlVoltageScaling+0x84>)
 8004420:	681b      	ldr	r3, [r3, #0]
 8004422:	f403 63c0 	and.w	r3, r3, #1536	@ 0x600
 8004426:	f5b3 6f80 	cmp.w	r3, #1024	@ 0x400
 800442a:	d034      	beq.n	8004496 <HAL_PWREx_ControlVoltageScaling+0x7e>
    {
      /* Set Range 2 */
      MODIFY_REG(PWR->CR1, PWR_CR1_VOS, PWR_REGULATOR_VOLTAGE_SCALE2);
 800442c:	4a1b      	ldr	r2, [pc, #108]	@ (800449c <HAL_PWREx_ControlVoltageScaling+0x84>)
 800442e:	6813      	ldr	r3, [r2, #0]
 8004430:	f423 63c0 	bic.w	r3, r3, #1536	@ 0x600
 8004434:	f443 6380 	orr.w	r3, r3, #1024	@ 0x400
 8004438:	6013      	str	r3, [r2, #0]
      /* No need to wait for VOSF to be cleared for this transition */
    }
  }
#endif

  return HAL_OK;
 800443a:	2000      	movs	r0, #0
 800443c:	4770      	bx	lr
    if (READ_BIT(PWR->CR1, PWR_CR1_VOS) != PWR_REGULATOR_VOLTAGE_SCALE1)
 800443e:	4b17      	ldr	r3, [pc, #92]	@ (800449c <HAL_PWREx_ControlVoltageScaling+0x84>)
 8004440:	681b      	ldr	r3, [r3, #0]
 8004442:	f403 63c0 	and.w	r3, r3, #1536	@ 0x600
 8004446:	f5b3 7f00 	cmp.w	r3, #512	@ 0x200
 800444a:	d020      	beq.n	800448e <HAL_PWREx_ControlVoltageScaling+0x76>
      MODIFY_REG(PWR->CR1, PWR_CR1_VOS, PWR_REGULATOR_VOLTAGE_SCALE1);
 800444c:	4a13      	ldr	r2, [pc, #76]	@ (800449c <HAL_PWREx_ControlVoltageScaling+0x84>)
 800444e:	6813      	ldr	r3, [r2, #0]
 8004450:	f423 63c0 	bic.w	r3, r3, #1536	@ 0x600
 8004454:	f443 7300 	orr.w	r3, r3, #512	@ 0x200
 8004458:	6013      	str	r3, [r2, #0]
      wait_loop_index = ((PWR_FLAG_SETTING_DELAY_US * SystemCoreClock) / 1000000U) + 1U;
 800445a:	4b11      	ldr	r3, [pc, #68]	@ (80044a0 <HAL_PWREx_ControlVoltageScaling+0x88>)
 800445c:	681b      	ldr	r3, [r3, #0]
 800445e:	2232      	movs	r2, #50	@ 0x32
 8004460:	fb02 f303 	mul.w	r3, r2, r3
 8004464:	4a0f      	ldr	r2, [pc, #60]	@ (80044a4 <HAL_PWREx_ControlVoltageScaling+0x8c>)
 8004466:	fba2 2303 	umull	r2, r3, r2, r3
 800446a:	0c9b      	lsrs	r3, r3, #18
 800446c:	3301      	adds	r3, #1
      while ((HAL_IS_BIT_SET(PWR->SR2, PWR_SR2_VOSF)) && (wait_loop_index != 0U))
 800446e:	e000      	b.n	8004472 <HAL_PWREx_ControlVoltageScaling+0x5a>
        wait_loop_index--;
 8004470:	3b01      	subs	r3, #1
      while ((HAL_IS_BIT_SET(PWR->SR2, PWR_SR2_VOSF)) && (wait_loop_index != 0U))
 8004472:	4a0a      	ldr	r2, [pc, #40]	@ (800449c <HAL_PWREx_ControlVoltageScaling+0x84>)
 8004474:	6952      	ldr	r2, [r2, #20]
 8004476:	f412 6f80 	tst.w	r2, #1024	@ 0x400
 800447a:	d001      	beq.n	8004480 <HAL_PWREx_ControlVoltageScaling+0x68>
 800447c:	2b00      	cmp	r3, #0
 800447e:	d1f7      	bne.n	8004470 <HAL_PWREx_ControlVoltageScaling+0x58>
      if (HAL_IS_BIT_SET(PWR->SR2, PWR_SR2_VOSF))
 8004480:	4b06      	ldr	r3, [pc, #24]	@ (800449c <HAL_PWREx_ControlVoltageScaling+0x84>)
 8004482:	695b      	ldr	r3, [r3, #20]
 8004484:	f413 6f80 	tst.w	r3, #1024	@ 0x400
 8004488:	d103      	bne.n	8004492 <HAL_PWREx_ControlVoltageScaling+0x7a>
  return HAL_OK;
 800448a:	2000      	movs	r0, #0
 800448c:	4770      	bx	lr
 800448e:	2000      	movs	r0, #0
 8004490:	4770      	bx	lr
        return HAL_TIMEOUT;
 8004492:	2003      	movs	r0, #3
 8004494:	4770      	bx	lr
  return HAL_OK;
 8004496:	2000      	movs	r0, #0
}
 8004498:	4770      	bx	lr
 800449a:	bf00      	nop
 800449c:	40007000 	.word	0x40007000
 80044a0:	20000008 	.word	0x20000008
 80044a4:	431bde83 	.word	0x431bde83

080044a8 <RCC_SetFlashLatencyFromMSIRange>:
            voltage range.
  * @param  msirange  MSI range value from RCC_MSIRANGE_0 to RCC_MSIRANGE_11
  * @retval HAL status
  */
static HAL_StatusTypeDef RCC_SetFlashLatencyFromMSIRange(uint32_t msirange)
{
 80044a8:	b530      	push	{r4, r5, lr}
 80044aa:	b083      	sub	sp, #12
 80044ac:	4605      	mov	r5, r0
  uint32_t vos;
  uint32_t latency = FLASH_LATENCY_0;  /* default value 0WS */

  if(__HAL_RCC_PWR_IS_CLK_ENABLED())
 80044ae:	4b20      	ldr	r3, [pc, #128]	@ (8004530 <RCC_SetFlashLatencyFromMSIRange+0x88>)
 80044b0:	6d9b      	ldr	r3, [r3, #88]	@ 0x58
 80044b2:	f013 5f80 	tst.w	r3, #268435456	@ 0x10000000
 80044b6:	d00b      	beq.n	80044d0 <RCC_SetFlashLatencyFromMSIRange+0x28>
  {
    vos = HAL_PWREx_GetVoltageRange();
 80044b8:	f7ff ffa6 	bl	8004408 <HAL_PWREx_GetVoltageRange>
    __HAL_RCC_PWR_CLK_ENABLE();
    vos = HAL_PWREx_GetVoltageRange();
    __HAL_RCC_PWR_CLK_DISABLE();
  }

  if(vos == PWR_REGULATOR_VOLTAGE_SCALE1)
 80044bc:	f5b0 7f00 	cmp.w	r0, #512	@ 0x200
 80044c0:	d017      	beq.n	80044f2 <RCC_SetFlashLatencyFromMSIRange+0x4a>
        latency = FLASH_LATENCY_1; /* 1WS */
      }
      /* else MSI < 8Mhz default FLASH_LATENCY_0 0WS */
    }
#else
    if(msirange > RCC_MSIRANGE_8)
 80044c2:	2d80      	cmp	r5, #128	@ 0x80
 80044c4:	d81f      	bhi.n	8004506 <RCC_SetFlashLatencyFromMSIRange+0x5e>
      /* MSI > 16Mhz */
      latency = FLASH_LATENCY_3; /* 3WS */
    }
    else
    {
      if(msirange == RCC_MSIRANGE_8)
 80044c6:	d02d      	beq.n	8004524 <RCC_SetFlashLatencyFromMSIRange+0x7c>
      {
        /* MSI 16Mhz */
        latency = FLASH_LATENCY_2; /* 2WS */
      }
      else if(msirange == RCC_MSIRANGE_7)
 80044c8:	2d70      	cmp	r5, #112	@ 0x70
 80044ca:	d02d      	beq.n	8004528 <RCC_SetFlashLatencyFromMSIRange+0x80>
  uint32_t latency = FLASH_LATENCY_0;  /* default value 0WS */
 80044cc:	2100      	movs	r1, #0
 80044ce:	e01b      	b.n	8004508 <RCC_SetFlashLatencyFromMSIRange+0x60>
    __HAL_RCC_PWR_CLK_ENABLE();
 80044d0:	4c17      	ldr	r4, [pc, #92]	@ (8004530 <RCC_SetFlashLatencyFromMSIRange+0x88>)
 80044d2:	6da3      	ldr	r3, [r4, #88]	@ 0x58
 80044d4:	f043 5380 	orr.w	r3, r3, #268435456	@ 0x10000000
 80044d8:	65a3      	str	r3, [r4, #88]	@ 0x58
 80044da:	6da3      	ldr	r3, [r4, #88]	@ 0x58
 80044dc:	f003 5380 	and.w	r3, r3, #268435456	@ 0x10000000
 80044e0:	9301      	str	r3, [sp, #4]
 80044e2:	9b01      	ldr	r3, [sp, #4]
    vos = HAL_PWREx_GetVoltageRange();
 80044e4:	f7ff ff90 	bl	8004408 <HAL_PWREx_GetVoltageRange>
    __HAL_RCC_PWR_CLK_DISABLE();
 80044e8:	6da3      	ldr	r3, [r4, #88]	@ 0x58
 80044ea:	f023 5380 	bic.w	r3, r3, #268435456	@ 0x10000000
 80044ee:	65a3      	str	r3, [r4, #88]	@ 0x58
 80044f0:	e7e4      	b.n	80044bc <RCC_SetFlashLatencyFromMSIRange+0x14>
    if(msirange > RCC_MSIRANGE_8)
 80044f2:	2d80      	cmp	r5, #128	@ 0x80
 80044f4:	d903      	bls.n	80044fe <RCC_SetFlashLatencyFromMSIRange+0x56>
      if(msirange > RCC_MSIRANGE_10)
 80044f6:	2da0      	cmp	r5, #160	@ 0xa0
 80044f8:	d903      	bls.n	8004502 <RCC_SetFlashLatencyFromMSIRange+0x5a>
        latency = FLASH_LATENCY_2; /* 2WS */
 80044fa:	2102      	movs	r1, #2
 80044fc:	e004      	b.n	8004508 <RCC_SetFlashLatencyFromMSIRange+0x60>
  uint32_t latency = FLASH_LATENCY_0;  /* default value 0WS */
 80044fe:	2100      	movs	r1, #0
 8004500:	e002      	b.n	8004508 <RCC_SetFlashLatencyFromMSIRange+0x60>
        latency = FLASH_LATENCY_1; /* 1WS */
 8004502:	2101      	movs	r1, #1
 8004504:	e000      	b.n	8004508 <RCC_SetFlashLatencyFromMSIRange+0x60>
      latency = FLASH_LATENCY_3; /* 3WS */
 8004506:	2103      	movs	r1, #3
      }
    }
#endif
  }

  __HAL_FLASH_SET_LATENCY(latency);
 8004508:	4a0a      	ldr	r2, [pc, #40]	@ (8004534 <RCC_SetFlashLatencyFromMSIRange+0x8c>)
 800450a:	6813      	ldr	r3, [r2, #0]
 800450c:	f023 0307 	bic.w	r3, r3, #7
 8004510:	430b      	orrs	r3, r1
 8004512:	6013      	str	r3, [r2, #0]

  /* Check that the new number of wait states is taken into account to access the Flash
     memory by reading the FLASH_ACR register */
  if(__HAL_FLASH_GET_LATENCY() != latency)
 8004514:	6813      	ldr	r3, [r2, #0]
 8004516:	f003 0307 	and.w	r3, r3, #7
 800451a:	428b      	cmp	r3, r1
 800451c:	d106      	bne.n	800452c <RCC_SetFlashLatencyFromMSIRange+0x84>
  {
    return HAL_ERROR;
  }

  return HAL_OK;
 800451e:	2000      	movs	r0, #0
}
 8004520:	b003      	add	sp, #12
 8004522:	bd30      	pop	{r4, r5, pc}
        latency = FLASH_LATENCY_2; /* 2WS */
 8004524:	2102      	movs	r1, #2
 8004526:	e7ef      	b.n	8004508 <RCC_SetFlashLatencyFromMSIRange+0x60>
        latency = FLASH_LATENCY_1; /* 1WS */
 8004528:	2101      	movs	r1, #1
 800452a:	e7ed      	b.n	8004508 <RCC_SetFlashLatencyFromMSIRange+0x60>
    return HAL_ERROR;
 800452c:	2001      	movs	r0, #1
 800452e:	e7f7      	b.n	8004520 <RCC_SetFlashLatencyFromMSIRange+0x78>
 8004530:	40021000 	.word	0x40021000
 8004534:	40022000 	.word	0x40022000

08004538 <HAL_RCC_GetSysClockFreq>:
  sysclk_source = __HAL_RCC_GET_SYSCLK_SOURCE();
 8004538:	4a25      	ldr	r2, [pc, #148]	@ (80045d0 <HAL_RCC_GetSysClockFreq+0x98>)
 800453a:	6893      	ldr	r3, [r2, #8]
  pll_oscsource = __HAL_RCC_GET_PLL_OSCSOURCE();
 800453c:	68d2      	ldr	r2, [r2, #12]
 800453e:	f002 0203 	and.w	r2, r2, #3
  if((sysclk_source == RCC_CFGR_SWS_MSI) ||
 8004542:	f013 030c 	ands.w	r3, r3, #12
 8004546:	d009      	beq.n	800455c <HAL_RCC_GetSysClockFreq+0x24>
 8004548:	2b0c      	cmp	r3, #12
 800454a:	d005      	beq.n	8004558 <HAL_RCC_GetSysClockFreq+0x20>
  else if(sysclk_source == RCC_CFGR_SWS_HSI)
 800454c:	2b04      	cmp	r3, #4
 800454e:	d03b      	beq.n	80045c8 <HAL_RCC_GetSysClockFreq+0x90>
  else if(sysclk_source == RCC_CFGR_SWS_HSE)
 8004550:	2b08      	cmp	r3, #8
 8004552:	d03b      	beq.n	80045cc <HAL_RCC_GetSysClockFreq+0x94>
  uint32_t msirange = 0U, sysclockfreq = 0U;
 8004554:	2000      	movs	r0, #0
 8004556:	e00f      	b.n	8004578 <HAL_RCC_GetSysClockFreq+0x40>
     ((sysclk_source == RCC_CFGR_SWS_PLL) && (pll_oscsource == RCC_PLLSOURCE_MSI)))
 8004558:	2a01      	cmp	r2, #1
 800455a:	d1f7      	bne.n	800454c <HAL_RCC_GetSysClockFreq+0x14>
    if(READ_BIT(RCC->CR, RCC_CR_MSIRGSEL) == 0U)
 800455c:	4a1c      	ldr	r2, [pc, #112]	@ (80045d0 <HAL_RCC_GetSysClockFreq+0x98>)
 800455e:	6812      	ldr	r2, [r2, #0]
 8004560:	f012 0f08 	tst.w	r2, #8
 8004564:	d10c      	bne.n	8004580 <HAL_RCC_GetSysClockFreq+0x48>
      msirange = READ_BIT(RCC->CSR, RCC_CSR_MSISRANGE) >> RCC_CSR_MSISRANGE_Pos;
 8004566:	4a1a      	ldr	r2, [pc, #104]	@ (80045d0 <HAL_RCC_GetSysClockFreq+0x98>)
 8004568:	f8d2 2094 	ldr.w	r2, [r2, #148]	@ 0x94
 800456c:	f3c2 2203 	ubfx	r2, r2, #8, #4
    msirange = MSIRangeTable[msirange];
 8004570:	4918      	ldr	r1, [pc, #96]	@ (80045d4 <HAL_RCC_GetSysClockFreq+0x9c>)
 8004572:	f851 0022 	ldr.w	r0, [r1, r2, lsl #2]
    if(sysclk_source == RCC_CFGR_SWS_MSI)
 8004576:	b113      	cbz	r3, 800457e <HAL_RCC_GetSysClockFreq+0x46>
  if(sysclk_source == RCC_CFGR_SWS_PLL)
 8004578:	2b0c      	cmp	r3, #12
 800457a:	d006      	beq.n	800458a <HAL_RCC_GetSysClockFreq+0x52>
 800457c:	2000      	movs	r0, #0
}
 800457e:	4770      	bx	lr
      msirange = READ_BIT(RCC->CR, RCC_CR_MSIRANGE) >> RCC_CR_MSIRANGE_Pos;
 8004580:	4a13      	ldr	r2, [pc, #76]	@ (80045d0 <HAL_RCC_GetSysClockFreq+0x98>)
 8004582:	6812      	ldr	r2, [r2, #0]
 8004584:	f3c2 1203 	ubfx	r2, r2, #4, #4
 8004588:	e7f2      	b.n	8004570 <HAL_RCC_GetSysClockFreq+0x38>
    pllsource = READ_BIT(RCC->PLLCFGR, RCC_PLLCFGR_PLLSRC);
 800458a:	4b11      	ldr	r3, [pc, #68]	@ (80045d0 <HAL_RCC_GetSysClockFreq+0x98>)
 800458c:	68db      	ldr	r3, [r3, #12]
 800458e:	f003 0303 	and.w	r3, r3, #3
    switch (pllsource)
 8004592:	2b02      	cmp	r3, #2
 8004594:	d016      	beq.n	80045c4 <HAL_RCC_GetSysClockFreq+0x8c>
 8004596:	2b03      	cmp	r3, #3
 8004598:	d100      	bne.n	800459c <HAL_RCC_GetSysClockFreq+0x64>
      pllvco = HSE_VALUE;
 800459a:	480f      	ldr	r0, [pc, #60]	@ (80045d8 <HAL_RCC_GetSysClockFreq+0xa0>)
    pllm = (READ_BIT(RCC->PLLCFGR, RCC_PLLCFGR_PLLM) >> RCC_PLLCFGR_PLLM_Pos) + 1U ;
 800459c:	490c      	ldr	r1, [pc, #48]	@ (80045d0 <HAL_RCC_GetSysClockFreq+0x98>)
 800459e:	68ca      	ldr	r2, [r1, #12]
 80045a0:	f3c2 1202 	ubfx	r2, r2, #4, #3
 80045a4:	3201      	adds	r2, #1
    pllvco = (pllvco * (READ_BIT(RCC->PLLCFGR, RCC_PLLCFGR_PLLN) >> RCC_PLLCFGR_PLLN_Pos)) / pllm;
 80045a6:	68cb      	ldr	r3, [r1, #12]
 80045a8:	f3c3 2306 	ubfx	r3, r3, #8, #7
 80045ac:	fb00 f303 	mul.w	r3, r0, r3
 80045b0:	fbb3 f3f2 	udiv	r3, r3, r2
    pllr = ((READ_BIT(RCC->PLLCFGR, RCC_PLLCFGR_PLLR) >> RCC_PLLCFGR_PLLR_Pos) + 1U ) * 2U;
 80045b4:	68c8      	ldr	r0, [r1, #12]
 80045b6:	f3c0 6041 	ubfx	r0, r0, #25, #2
 80045ba:	3001      	adds	r0, #1
 80045bc:	0040      	lsls	r0, r0, #1
    sysclockfreq = pllvco / pllr;
 80045be:	fbb3 f0f0 	udiv	r0, r3, r0
 80045c2:	4770      	bx	lr
    switch (pllsource)
 80045c4:	4805      	ldr	r0, [pc, #20]	@ (80045dc <HAL_RCC_GetSysClockFreq+0xa4>)
 80045c6:	e7e9      	b.n	800459c <HAL_RCC_GetSysClockFreq+0x64>
    sysclockfreq = HSI_VALUE;
 80045c8:	4804      	ldr	r0, [pc, #16]	@ (80045dc <HAL_RCC_GetSysClockFreq+0xa4>)
 80045ca:	4770      	bx	lr
    sysclockfreq = HSE_VALUE;
 80045cc:	4802      	ldr	r0, [pc, #8]	@ (80045d8 <HAL_RCC_GetSysClockFreq+0xa0>)
 80045ce:	4770      	bx	lr
 80045d0:	40021000 	.word	0x40021000
 80045d4:	08009358 	.word	0x08009358
 80045d8:	00b71b00 	.word	0x00b71b00
 80045dc:	00f42400 	.word	0x00f42400

080045e0 <HAL_RCC_OscConfig>:
  if(RCC_OscInitStruct == NULL)
 80045e0:	2800      	cmp	r0, #0
 80045e2:	f000 82f3 	beq.w	8004bcc <HAL_RCC_OscConfig+0x5ec>
{
 80045e6:	b5f0      	push	{r4, r5, r6, r7, lr}
 80045e8:	b083      	sub	sp, #12
 80045ea:	4604      	mov	r4, r0
  sysclk_source = __HAL_RCC_GET_SYSCLK_SOURCE();
 80045ec:	4b96      	ldr	r3, [pc, #600]	@ (8004848 <HAL_RCC_OscConfig+0x268>)
 80045ee:	689d      	ldr	r5, [r3, #8]
 80045f0:	f005 050c 	and.w	r5, r5, #12
  pll_config = __HAL_RCC_GET_PLL_OSCSOURCE();
 80045f4:	68db      	ldr	r3, [r3, #12]
 80045f6:	f003 0303 	and.w	r3, r3, #3
 80045fa:	461e      	mov	r6, r3
  if(((RCC_OscInitStruct->OscillatorType) & RCC_OSCILLATORTYPE_MSI) == RCC_OSCILLATORTYPE_MSI)
 80045fc:	6803      	ldr	r3, [r0, #0]
 80045fe:	f013 0f10 	tst.w	r3, #16
 8004602:	d05a      	beq.n	80046ba <HAL_RCC_OscConfig+0xda>
    if((sysclk_source == RCC_CFGR_SWS_MSI) ||
 8004604:	b1e5      	cbz	r5, 8004640 <HAL_RCC_OscConfig+0x60>
 8004606:	2d0c      	cmp	r5, #12
 8004608:	d018      	beq.n	800463c <HAL_RCC_OscConfig+0x5c>
      if(RCC_OscInitStruct->MSIState != RCC_MSI_OFF)
 800460a:	69a3      	ldr	r3, [r4, #24]
 800460c:	2b00      	cmp	r3, #0
 800460e:	f000 80bb 	beq.w	8004788 <HAL_RCC_OscConfig+0x1a8>
        __HAL_RCC_MSI_ENABLE();
 8004612:	4a8d      	ldr	r2, [pc, #564]	@ (8004848 <HAL_RCC_OscConfig+0x268>)
 8004614:	6813      	ldr	r3, [r2, #0]
 8004616:	f043 0301 	orr.w	r3, r3, #1
 800461a:	6013      	str	r3, [r2, #0]
        tickstart = HAL_GetTick();
 800461c:	f7ff f8f8 	bl	8003810 <HAL_GetTick>
 8004620:	4607      	mov	r7, r0
        while(READ_BIT(RCC->CR, RCC_CR_MSIRDY) == 0U)
 8004622:	4b89      	ldr	r3, [pc, #548]	@ (8004848 <HAL_RCC_OscConfig+0x268>)
 8004624:	681b      	ldr	r3, [r3, #0]
 8004626:	f013 0f02 	tst.w	r3, #2
 800462a:	f040 809a 	bne.w	8004762 <HAL_RCC_OscConfig+0x182>
          if((HAL_GetTick() - tickstart) > MSI_TIMEOUT_VALUE)
 800462e:	f7ff f8ef 	bl	8003810 <HAL_GetTick>
 8004632:	1bc0      	subs	r0, r0, r7
 8004634:	2802      	cmp	r0, #2
 8004636:	d9f4      	bls.n	8004622 <HAL_RCC_OscConfig+0x42>
            return HAL_TIMEOUT;
 8004638:	2003      	movs	r0, #3
 800463a:	e2d2      	b.n	8004be2 <HAL_RCC_OscConfig+0x602>
       ((sysclk_source == RCC_CFGR_SWS_PLL) && (pll_config == RCC_PLLSOURCE_MSI)))
 800463c:	2e01      	cmp	r6, #1
 800463e:	d1e4      	bne.n	800460a <HAL_RCC_OscConfig+0x2a>
      if((READ_BIT(RCC->CR, RCC_CR_MSIRDY) != 0U) && (RCC_OscInitStruct->MSIState == RCC_MSI_OFF))
 8004640:	4b81      	ldr	r3, [pc, #516]	@ (8004848 <HAL_RCC_OscConfig+0x268>)
 8004642:	681b      	ldr	r3, [r3, #0]
 8004644:	f013 0f02 	tst.w	r3, #2
 8004648:	d003      	beq.n	8004652 <HAL_RCC_OscConfig+0x72>
 800464a:	69a3      	ldr	r3, [r4, #24]
 800464c:	2b00      	cmp	r3, #0
 800464e:	f000 82bf 	beq.w	8004bd0 <HAL_RCC_OscConfig+0x5f0>
        if(RCC_OscInitStruct->MSIClockRange > __HAL_RCC_GET_MSI_RANGE())
 8004652:	6a20      	ldr	r0, [r4, #32]
 8004654:	4b7c      	ldr	r3, [pc, #496]	@ (8004848 <HAL_RCC_OscConfig+0x268>)
 8004656:	681b      	ldr	r3, [r3, #0]
 8004658:	f013 0f08 	tst.w	r3, #8
 800465c:	d05b      	beq.n	8004716 <HAL_RCC_OscConfig+0x136>
 800465e:	4b7a      	ldr	r3, [pc, #488]	@ (8004848 <HAL_RCC_OscConfig+0x268>)
 8004660:	681b      	ldr	r3, [r3, #0]
 8004662:	f003 03f0 	and.w	r3, r3, #240	@ 0xf0
 8004666:	4298      	cmp	r0, r3
 8004668:	d85c      	bhi.n	8004724 <HAL_RCC_OscConfig+0x144>
          __HAL_RCC_MSI_RANGE_CONFIG(RCC_OscInitStruct->MSIClockRange);
 800466a:	4b77      	ldr	r3, [pc, #476]	@ (8004848 <HAL_RCC_OscConfig+0x268>)
 800466c:	681a      	ldr	r2, [r3, #0]
 800466e:	f042 0208 	orr.w	r2, r2, #8
 8004672:	601a      	str	r2, [r3, #0]
 8004674:	681a      	ldr	r2, [r3, #0]
 8004676:	f022 02f0 	bic.w	r2, r2, #240	@ 0xf0
 800467a:	6a21      	ldr	r1, [r4, #32]
 800467c:	430a      	orrs	r2, r1
 800467e:	601a      	str	r2, [r3, #0]
          __HAL_RCC_MSI_CALIBRATIONVALUE_ADJUST(RCC_OscInitStruct->MSICalibrationValue);
 8004680:	685a      	ldr	r2, [r3, #4]
 8004682:	f422 427f 	bic.w	r2, r2, #65280	@ 0xff00
 8004686:	69e1      	ldr	r1, [r4, #28]
 8004688:	ea42 2201 	orr.w	r2, r2, r1, lsl #8
 800468c:	605a      	str	r2, [r3, #4]
          if(sysclk_source == RCC_CFGR_SWS_MSI)
 800468e:	2d00      	cmp	r5, #0
 8004690:	d060      	beq.n	8004754 <HAL_RCC_OscConfig+0x174>
        SystemCoreClock = HAL_RCC_GetSysClockFreq() >> (AHBPrescTable[READ_BIT(RCC->CFGR, RCC_CFGR_HPRE) >> RCC_CFGR_HPRE_Pos] & 0x1FU);
 8004692:	f7ff ff51 	bl	8004538 <HAL_RCC_GetSysClockFreq>
 8004696:	4b6c      	ldr	r3, [pc, #432]	@ (8004848 <HAL_RCC_OscConfig+0x268>)
 8004698:	689b      	ldr	r3, [r3, #8]
 800469a:	f3c3 1303 	ubfx	r3, r3, #4, #4
 800469e:	4a6b      	ldr	r2, [pc, #428]	@ (800484c <HAL_RCC_OscConfig+0x26c>)
 80046a0:	5cd3      	ldrb	r3, [r2, r3]
 80046a2:	f003 031f 	and.w	r3, r3, #31
 80046a6:	40d8      	lsrs	r0, r3
 80046a8:	4b69      	ldr	r3, [pc, #420]	@ (8004850 <HAL_RCC_OscConfig+0x270>)
 80046aa:	6018      	str	r0, [r3, #0]
        status = HAL_InitTick(uwTickPrio);
 80046ac:	4b69      	ldr	r3, [pc, #420]	@ (8004854 <HAL_RCC_OscConfig+0x274>)
 80046ae:	6818      	ldr	r0, [r3, #0]
 80046b0:	f7ff f86a 	bl	8003788 <HAL_InitTick>
        if(status != HAL_OK)
 80046b4:	2800      	cmp	r0, #0
 80046b6:	f040 8294 	bne.w	8004be2 <HAL_RCC_OscConfig+0x602>
  if(((RCC_OscInitStruct->OscillatorType) & RCC_OSCILLATORTYPE_HSE) == RCC_OSCILLATORTYPE_HSE)
 80046ba:	6823      	ldr	r3, [r4, #0]
 80046bc:	f013 0f01 	tst.w	r3, #1
 80046c0:	f000 8081 	beq.w	80047c6 <HAL_RCC_OscConfig+0x1e6>
    if((sysclk_source == RCC_CFGR_SWS_HSE) ||
 80046c4:	2d08      	cmp	r5, #8
 80046c6:	d075      	beq.n	80047b4 <HAL_RCC_OscConfig+0x1d4>
 80046c8:	2d0c      	cmp	r5, #12
 80046ca:	d071      	beq.n	80047b0 <HAL_RCC_OscConfig+0x1d0>
      __HAL_RCC_HSE_CONFIG(RCC_OscInitStruct->HSEState);
 80046cc:	6863      	ldr	r3, [r4, #4]
 80046ce:	f5b3 3f80 	cmp.w	r3, #65536	@ 0x10000
 80046d2:	f000 8097 	beq.w	8004804 <HAL_RCC_OscConfig+0x224>
 80046d6:	f5b3 2fa0 	cmp.w	r3, #327680	@ 0x50000
 80046da:	f000 8099 	beq.w	8004810 <HAL_RCC_OscConfig+0x230>
 80046de:	4b5a      	ldr	r3, [pc, #360]	@ (8004848 <HAL_RCC_OscConfig+0x268>)
 80046e0:	681a      	ldr	r2, [r3, #0]
 80046e2:	f422 3280 	bic.w	r2, r2, #65536	@ 0x10000
 80046e6:	601a      	str	r2, [r3, #0]
 80046e8:	681a      	ldr	r2, [r3, #0]
 80046ea:	f422 2280 	bic.w	r2, r2, #262144	@ 0x40000
 80046ee:	601a      	str	r2, [r3, #0]
      if(RCC_OscInitStruct->HSEState != RCC_HSE_OFF)
 80046f0:	6863      	ldr	r3, [r4, #4]
 80046f2:	2b00      	cmp	r3, #0
 80046f4:	f000 8099 	beq.w	800482a <HAL_RCC_OscConfig+0x24a>
        tickstart = HAL_GetTick();
 80046f8:	f7ff f88a 	bl	8003810 <HAL_GetTick>
 80046fc:	4607      	mov	r7, r0
        while(READ_BIT(RCC->CR, RCC_CR_HSERDY) == 0U)
 80046fe:	4b52      	ldr	r3, [pc, #328]	@ (8004848 <HAL_RCC_OscConfig+0x268>)
 8004700:	681b      	ldr	r3, [r3, #0]
 8004702:	f413 3f00 	tst.w	r3, #131072	@ 0x20000
 8004706:	d15e      	bne.n	80047c6 <HAL_RCC_OscConfig+0x1e6>
          if((HAL_GetTick() - tickstart) > HSE_TIMEOUT_VALUE)
 8004708:	f7ff f882 	bl	8003810 <HAL_GetTick>
 800470c:	1bc0      	subs	r0, r0, r7
 800470e:	2864      	cmp	r0, #100	@ 0x64
 8004710:	d9f5      	bls.n	80046fe <HAL_RCC_OscConfig+0x11e>
            return HAL_TIMEOUT;
 8004712:	2003      	movs	r0, #3
 8004714:	e265      	b.n	8004be2 <HAL_RCC_OscConfig+0x602>
        if(RCC_OscInitStruct->MSIClockRange > __HAL_RCC_GET_MSI_RANGE())
 8004716:	4b4c      	ldr	r3, [pc, #304]	@ (8004848 <HAL_RCC_OscConfig+0x268>)
 8004718:	f8d3 3094 	ldr.w	r3, [r3, #148]	@ 0x94
 800471c:	091b      	lsrs	r3, r3, #4
 800471e:	f003 03f0 	and.w	r3, r3, #240	@ 0xf0
 8004722:	e7a0      	b.n	8004666 <HAL_RCC_OscConfig+0x86>
          if(RCC_SetFlashLatencyFromMSIRange(RCC_OscInitStruct->MSIClockRange) != HAL_OK)
 8004724:	f7ff fec0 	bl	80044a8 <RCC_SetFlashLatencyFromMSIRange>
 8004728:	2800      	cmp	r0, #0
 800472a:	f040 8253 	bne.w	8004bd4 <HAL_RCC_OscConfig+0x5f4>
          __HAL_RCC_MSI_RANGE_CONFIG(RCC_OscInitStruct->MSIClockRange);
 800472e:	4b46      	ldr	r3, [pc, #280]	@ (8004848 <HAL_RCC_OscConfig+0x268>)
 8004730:	681a      	ldr	r2, [r3, #0]
 8004732:	f042 0208 	orr.w	r2, r2, #8
 8004736:	601a      	str	r2, [r3, #0]
 8004738:	681a      	ldr	r2, [r3, #0]
 800473a:	f022 02f0 	bic.w	r2, r2, #240	@ 0xf0
 800473e:	6a21      	ldr	r1, [r4, #32]
 8004740:	430a      	orrs	r2, r1
 8004742:	601a      	str	r2, [r3, #0]
          __HAL_RCC_MSI_CALIBRATIONVALUE_ADJUST(RCC_OscInitStruct->MSICalibrationValue);
 8004744:	685a      	ldr	r2, [r3, #4]
 8004746:	f422 427f 	bic.w	r2, r2, #65280	@ 0xff00
 800474a:	69e1      	ldr	r1, [r4, #28]
 800474c:	ea42 2201 	orr.w	r2, r2, r1, lsl #8
 8004750:	605a      	str	r2, [r3, #4]
 8004752:	e79e      	b.n	8004692 <HAL_RCC_OscConfig+0xb2>
            if(RCC_SetFlashLatencyFromMSIRange(RCC_OscInitStruct->MSIClockRange) != HAL_OK)
 8004754:	6a20      	ldr	r0, [r4, #32]
 8004756:	f7ff fea7 	bl	80044a8 <RCC_SetFlashLatencyFromMSIRange>
 800475a:	2800      	cmp	r0, #0
 800475c:	d099      	beq.n	8004692 <HAL_RCC_OscConfig+0xb2>
              return HAL_ERROR;
 800475e:	2001      	movs	r0, #1
 8004760:	e23f      	b.n	8004be2 <HAL_RCC_OscConfig+0x602>
        __HAL_RCC_MSI_RANGE_CONFIG(RCC_OscInitStruct->MSIClockRange);
 8004762:	4b39      	ldr	r3, [pc, #228]	@ (8004848 <HAL_RCC_OscConfig+0x268>)
 8004764:	681a      	ldr	r2, [r3, #0]
 8004766:	f042 0208 	orr.w	r2, r2, #8
 800476a:	601a      	str	r2, [r3, #0]
 800476c:	681a      	ldr	r2, [r3, #0]
 800476e:	f022 02f0 	bic.w	r2, r2, #240	@ 0xf0
 8004772:	6a21      	ldr	r1, [r4, #32]
 8004774:	430a      	orrs	r2, r1
 8004776:	601a      	str	r2, [r3, #0]
        __HAL_RCC_MSI_CALIBRATIONVALUE_ADJUST(RCC_OscInitStruct->MSICalibrationValue);
 8004778:	685a      	ldr	r2, [r3, #4]
 800477a:	f422 427f 	bic.w	r2, r2, #65280	@ 0xff00
 800477e:	69e1      	ldr	r1, [r4, #28]
 8004780:	ea42 2201 	orr.w	r2, r2, r1, lsl #8
 8004784:	605a      	str	r2, [r3, #4]
 8004786:	e798      	b.n	80046ba <HAL_RCC_OscConfig+0xda>
        __HAL_RCC_MSI_DISABLE();
 8004788:	4a2f      	ldr	r2, [pc, #188]	@ (8004848 <HAL_RCC_OscConfig+0x268>)
 800478a:	6813      	ldr	r3, [r2, #0]
 800478c:	f023 0301 	bic.w	r3, r3, #1
 8004790:	6013      	str	r3, [r2, #0]
        tickstart = HAL_GetTick();
 8004792:	f7ff f83d 	bl	8003810 <HAL_GetTick>
 8004796:	4607      	mov	r7, r0
        while(READ_BIT(RCC->CR, RCC_CR_MSIRDY) != 0U)
 8004798:	4b2b      	ldr	r3, [pc, #172]	@ (8004848 <HAL_RCC_OscConfig+0x268>)
 800479a:	681b      	ldr	r3, [r3, #0]
 800479c:	f013 0f02 	tst.w	r3, #2
 80047a0:	d08b      	beq.n	80046ba <HAL_RCC_OscConfig+0xda>
          if((HAL_GetTick() - tickstart) > MSI_TIMEOUT_VALUE)
 80047a2:	f7ff f835 	bl	8003810 <HAL_GetTick>
 80047a6:	1bc0      	subs	r0, r0, r7
 80047a8:	2802      	cmp	r0, #2
 80047aa:	d9f5      	bls.n	8004798 <HAL_RCC_OscConfig+0x1b8>
            return HAL_TIMEOUT;
 80047ac:	2003      	movs	r0, #3
 80047ae:	e218      	b.n	8004be2 <HAL_RCC_OscConfig+0x602>
       ((sysclk_source == RCC_CFGR_SWS_PLL) && (pll_config == RCC_PLLSOURCE_HSE)))
 80047b0:	2e03      	cmp	r6, #3
 80047b2:	d18b      	bne.n	80046cc <HAL_RCC_OscConfig+0xec>
      if((READ_BIT(RCC->CR, RCC_CR_HSERDY) != 0U) && (RCC_OscInitStruct->HSEState == RCC_HSE_OFF))
 80047b4:	4b24      	ldr	r3, [pc, #144]	@ (8004848 <HAL_RCC_OscConfig+0x268>)
 80047b6:	681b      	ldr	r3, [r3, #0]
 80047b8:	f413 3f00 	tst.w	r3, #131072	@ 0x20000
 80047bc:	d003      	beq.n	80047c6 <HAL_RCC_OscConfig+0x1e6>
 80047be:	6863      	ldr	r3, [r4, #4]
 80047c0:	2b00      	cmp	r3, #0
 80047c2:	f000 8209 	beq.w	8004bd8 <HAL_RCC_OscConfig+0x5f8>
  if(((RCC_OscInitStruct->OscillatorType) & RCC_OSCILLATORTYPE_HSI) == RCC_OSCILLATORTYPE_HSI)
 80047c6:	6823      	ldr	r3, [r4, #0]
 80047c8:	f013 0f02 	tst.w	r3, #2
 80047cc:	d057      	beq.n	800487e <HAL_RCC_OscConfig+0x29e>
    if((sysclk_source == RCC_CFGR_SWS_HSI) ||
 80047ce:	2d04      	cmp	r5, #4
 80047d0:	d044      	beq.n	800485c <HAL_RCC_OscConfig+0x27c>
 80047d2:	2d0c      	cmp	r5, #12
 80047d4:	d040      	beq.n	8004858 <HAL_RCC_OscConfig+0x278>
      if(RCC_OscInitStruct->HSIState != RCC_HSI_OFF)
 80047d6:	68e3      	ldr	r3, [r4, #12]
 80047d8:	2b00      	cmp	r3, #0
 80047da:	d076      	beq.n	80048ca <HAL_RCC_OscConfig+0x2ea>
        __HAL_RCC_HSI_ENABLE();
 80047dc:	4a1a      	ldr	r2, [pc, #104]	@ (8004848 <HAL_RCC_OscConfig+0x268>)
 80047de:	6813      	ldr	r3, [r2, #0]
 80047e0:	f443 7380 	orr.w	r3, r3, #256	@ 0x100
 80047e4:	6013      	str	r3, [r2, #0]
        tickstart = HAL_GetTick();
 80047e6:	f7ff f813 	bl	8003810 <HAL_GetTick>
 80047ea:	4606      	mov	r6, r0
        while(READ_BIT(RCC->CR, RCC_CR_HSIRDY) == 0U)
 80047ec:	4b16      	ldr	r3, [pc, #88]	@ (8004848 <HAL_RCC_OscConfig+0x268>)
 80047ee:	681b      	ldr	r3, [r3, #0]
 80047f0:	f413 6f80 	tst.w	r3, #1024	@ 0x400
 80047f4:	d160      	bne.n	80048b8 <HAL_RCC_OscConfig+0x2d8>
          if((HAL_GetTick() - tickstart) > HSI_TIMEOUT_VALUE)
 80047f6:	f7ff f80b 	bl	8003810 <HAL_GetTick>
 80047fa:	1b80      	subs	r0, r0, r6
 80047fc:	2802      	cmp	r0, #2
 80047fe:	d9f5      	bls.n	80047ec <HAL_RCC_OscConfig+0x20c>
            return HAL_TIMEOUT;
 8004800:	2003      	movs	r0, #3
 8004802:	e1ee      	b.n	8004be2 <HAL_RCC_OscConfig+0x602>
      __HAL_RCC_HSE_CONFIG(RCC_OscInitStruct->HSEState);
 8004804:	4a10      	ldr	r2, [pc, #64]	@ (8004848 <HAL_RCC_OscConfig+0x268>)
 8004806:	6813      	ldr	r3, [r2, #0]
 8004808:	f443 3380 	orr.w	r3, r3, #65536	@ 0x10000
 800480c:	6013      	str	r3, [r2, #0]
 800480e:	e76f      	b.n	80046f0 <HAL_RCC_OscConfig+0x110>
 8004810:	f103 4380 	add.w	r3, r3, #1073741824	@ 0x40000000
 8004814:	f5a3 333c 	sub.w	r3, r3, #192512	@ 0x2f000
 8004818:	681a      	ldr	r2, [r3, #0]
 800481a:	f442 2280 	orr.w	r2, r2, #262144	@ 0x40000
 800481e:	601a      	str	r2, [r3, #0]
 8004820:	681a      	ldr	r2, [r3, #0]
 8004822:	f442 3280 	orr.w	r2, r2, #65536	@ 0x10000
 8004826:	601a      	str	r2, [r3, #0]
 8004828:	e762      	b.n	80046f0 <HAL_RCC_OscConfig+0x110>
        tickstart = HAL_GetTick();
 800482a:	f7fe fff1 	bl	8003810 <HAL_GetTick>
 800482e:	4607      	mov	r7, r0
        while(READ_BIT(RCC->CR, RCC_CR_HSERDY) != 0U)
 8004830:	4b05      	ldr	r3, [pc, #20]	@ (8004848 <HAL_RCC_OscConfig+0x268>)
 8004832:	681b      	ldr	r3, [r3, #0]
 8004834:	f413 3f00 	tst.w	r3, #131072	@ 0x20000
 8004838:	d0c5      	beq.n	80047c6 <HAL_RCC_OscConfig+0x1e6>
          if((HAL_GetTick() - tickstart) > HSE_TIMEOUT_VALUE)
 800483a:	f7fe ffe9 	bl	8003810 <HAL_GetTick>
 800483e:	1bc0      	subs	r0, r0, r7
 8004840:	2864      	cmp	r0, #100	@ 0x64
 8004842:	d9f5      	bls.n	8004830 <HAL_RCC_OscConfig+0x250>
            return HAL_TIMEOUT;
 8004844:	2003      	movs	r0, #3
 8004846:	e1cc      	b.n	8004be2 <HAL_RCC_OscConfig+0x602>
 8004848:	40021000 	.word	0x40021000
 800484c:	08009390 	.word	0x08009390
 8004850:	20000008 	.word	0x20000008
 8004854:	20000004 	.word	0x20000004
       ((sysclk_source == RCC_CFGR_SWS_PLL) && (pll_config == RCC_PLLSOURCE_HSI)))
 8004858:	2e02      	cmp	r6, #2
 800485a:	d1bc      	bne.n	80047d6 <HAL_RCC_OscConfig+0x1f6>
      if((READ_BIT(RCC->CR, RCC_CR_HSIRDY) != 0U) && (RCC_OscInitStruct->HSIState == RCC_HSI_OFF))
 800485c:	4ba4      	ldr	r3, [pc, #656]	@ (8004af0 <HAL_RCC_OscConfig+0x510>)
 800485e:	681b      	ldr	r3, [r3, #0]
 8004860:	f413 6f80 	tst.w	r3, #1024	@ 0x400
 8004864:	d003      	beq.n	800486e <HAL_RCC_OscConfig+0x28e>
 8004866:	68e3      	ldr	r3, [r4, #12]
 8004868:	2b00      	cmp	r3, #0
 800486a:	f000 81b7 	beq.w	8004bdc <HAL_RCC_OscConfig+0x5fc>
        __HAL_RCC_HSI_CALIBRATIONVALUE_ADJUST(RCC_OscInitStruct->HSICalibrationValue);
 800486e:	4aa0      	ldr	r2, [pc, #640]	@ (8004af0 <HAL_RCC_OscConfig+0x510>)
 8004870:	6853      	ldr	r3, [r2, #4]
 8004872:	f023 53f8 	bic.w	r3, r3, #520093696	@ 0x1f000000
 8004876:	6921      	ldr	r1, [r4, #16]
 8004878:	ea43 6301 	orr.w	r3, r3, r1, lsl #24
 800487c:	6053      	str	r3, [r2, #4]
  if(((RCC_OscInitStruct->OscillatorType) & RCC_OSCILLATORTYPE_LSI) == RCC_OSCILLATORTYPE_LSI)
 800487e:	6823      	ldr	r3, [r4, #0]
 8004880:	f013 0f08 	tst.w	r3, #8
 8004884:	d04c      	beq.n	8004920 <HAL_RCC_OscConfig+0x340>
    if(RCC_OscInitStruct->LSIState != RCC_LSI_OFF)
 8004886:	6963      	ldr	r3, [r4, #20]
 8004888:	b39b      	cbz	r3, 80048f2 <HAL_RCC_OscConfig+0x312>
      __HAL_RCC_LSI_ENABLE();
 800488a:	4a99      	ldr	r2, [pc, #612]	@ (8004af0 <HAL_RCC_OscConfig+0x510>)
 800488c:	f8d2 3094 	ldr.w	r3, [r2, #148]	@ 0x94
 8004890:	f043 0301 	orr.w	r3, r3, #1
 8004894:	f8c2 3094 	str.w	r3, [r2, #148]	@ 0x94
      tickstart = HAL_GetTick();
 8004898:	f7fe ffba 	bl	8003810 <HAL_GetTick>
 800489c:	4606      	mov	r6, r0
      while(READ_BIT(RCC->CSR, RCC_CSR_LSIRDY) == 0U)
 800489e:	4b94      	ldr	r3, [pc, #592]	@ (8004af0 <HAL_RCC_OscConfig+0x510>)
 80048a0:	f8d3 3094 	ldr.w	r3, [r3, #148]	@ 0x94
 80048a4:	f013 0f02 	tst.w	r3, #2
 80048a8:	d13a      	bne.n	8004920 <HAL_RCC_OscConfig+0x340>
        if((HAL_GetTick() - tickstart) > LSI_TIMEOUT_VALUE)
 80048aa:	f7fe ffb1 	bl	8003810 <HAL_GetTick>
 80048ae:	1b80      	subs	r0, r0, r6
 80048b0:	2802      	cmp	r0, #2
 80048b2:	d9f4      	bls.n	800489e <HAL_RCC_OscConfig+0x2be>
          return HAL_TIMEOUT;
 80048b4:	2003      	movs	r0, #3
 80048b6:	e194      	b.n	8004be2 <HAL_RCC_OscConfig+0x602>
        __HAL_RCC_HSI_CALIBRATIONVALUE_ADJUST(RCC_OscInitStruct->HSICalibrationValue);
 80048b8:	4a8d      	ldr	r2, [pc, #564]	@ (8004af0 <HAL_RCC_OscConfig+0x510>)
 80048ba:	6853      	ldr	r3, [r2, #4]
 80048bc:	f023 53f8 	bic.w	r3, r3, #520093696	@ 0x1f000000
 80048c0:	6921      	ldr	r1, [r4, #16]
 80048c2:	ea43 6301 	orr.w	r3, r3, r1, lsl #24
 80048c6:	6053      	str	r3, [r2, #4]
 80048c8:	e7d9      	b.n	800487e <HAL_RCC_OscConfig+0x29e>
        __HAL_RCC_HSI_DISABLE();
 80048ca:	4a89      	ldr	r2, [pc, #548]	@ (8004af0 <HAL_RCC_OscConfig+0x510>)
 80048cc:	6813      	ldr	r3, [r2, #0]
 80048ce:	f423 7380 	bic.w	r3, r3, #256	@ 0x100
 80048d2:	6013      	str	r3, [r2, #0]
        tickstart = HAL_GetTick();
 80048d4:	f7fe ff9c 	bl	8003810 <HAL_GetTick>
 80048d8:	4606      	mov	r6, r0
        while(READ_BIT(RCC->CR, RCC_CR_HSIRDY) != 0U)
 80048da:	4b85      	ldr	r3, [pc, #532]	@ (8004af0 <HAL_RCC_OscConfig+0x510>)
 80048dc:	681b      	ldr	r3, [r3, #0]
 80048de:	f413 6f80 	tst.w	r3, #1024	@ 0x400
 80048e2:	d0cc      	beq.n	800487e <HAL_RCC_OscConfig+0x29e>
          if((HAL_GetTick() - tickstart) > HSI_TIMEOUT_VALUE)
 80048e4:	f7fe ff94 	bl	8003810 <HAL_GetTick>
 80048e8:	1b80      	subs	r0, r0, r6
 80048ea:	2802      	cmp	r0, #2
 80048ec:	d9f5      	bls.n	80048da <HAL_RCC_OscConfig+0x2fa>
            return HAL_TIMEOUT;
 80048ee:	2003      	movs	r0, #3
 80048f0:	e177      	b.n	8004be2 <HAL_RCC_OscConfig+0x602>
      __HAL_RCC_LSI_DISABLE();
 80048f2:	4a7f      	ldr	r2, [pc, #508]	@ (8004af0 <HAL_RCC_OscConfig+0x510>)
 80048f4:	f8d2 3094 	ldr.w	r3, [r2, #148]	@ 0x94
 80048f8:	f023 0301 	bic.w	r3, r3, #1
 80048fc:	f8c2 3094 	str.w	r3, [r2, #148]	@ 0x94
      tickstart = HAL_GetTick();
 8004900:	f7fe ff86 	bl	8003810 <HAL_GetTick>
 8004904:	4606      	mov	r6, r0
      while(READ_BIT(RCC->CSR, RCC_CSR_LSIRDY) != 0U)
 8004906:	4b7a      	ldr	r3, [pc, #488]	@ (8004af0 <HAL_RCC_OscConfig+0x510>)
 8004908:	f8d3 3094 	ldr.w	r3, [r3, #148]	@ 0x94
 800490c:	f013 0f02 	tst.w	r3, #2
 8004910:	d006      	beq.n	8004920 <HAL_RCC_OscConfig+0x340>
        if((HAL_GetTick() - tickstart) > LSI_TIMEOUT_VALUE)
 8004912:	f7fe ff7d 	bl	8003810 <HAL_GetTick>
 8004916:	1b80      	subs	r0, r0, r6
 8004918:	2802      	cmp	r0, #2
 800491a:	d9f4      	bls.n	8004906 <HAL_RCC_OscConfig+0x326>
          return HAL_TIMEOUT;
 800491c:	2003      	movs	r0, #3
 800491e:	e160      	b.n	8004be2 <HAL_RCC_OscConfig+0x602>
  if(((RCC_OscInitStruct->OscillatorType) & RCC_OSCILLATORTYPE_LSE) == RCC_OSCILLATORTYPE_LSE)
 8004920:	6823      	ldr	r3, [r4, #0]
 8004922:	f013 0f04 	tst.w	r3, #4
 8004926:	d07c      	beq.n	8004a22 <HAL_RCC_OscConfig+0x442>
    if(HAL_IS_BIT_CLR(RCC->APB1ENR1, RCC_APB1ENR1_PWREN))
 8004928:	4b71      	ldr	r3, [pc, #452]	@ (8004af0 <HAL_RCC_OscConfig+0x510>)
 800492a:	6d9b      	ldr	r3, [r3, #88]	@ 0x58
 800492c:	f013 5f80 	tst.w	r3, #268435456	@ 0x10000000
 8004930:	d137      	bne.n	80049a2 <HAL_RCC_OscConfig+0x3c2>
      __HAL_RCC_PWR_CLK_ENABLE();
 8004932:	4b6f      	ldr	r3, [pc, #444]	@ (8004af0 <HAL_RCC_OscConfig+0x510>)
 8004934:	6d9a      	ldr	r2, [r3, #88]	@ 0x58
 8004936:	f042 5280 	orr.w	r2, r2, #268435456	@ 0x10000000
 800493a:	659a      	str	r2, [r3, #88]	@ 0x58
 800493c:	6d9b      	ldr	r3, [r3, #88]	@ 0x58
 800493e:	f003 5380 	and.w	r3, r3, #268435456	@ 0x10000000
 8004942:	9301      	str	r3, [sp, #4]
 8004944:	9b01      	ldr	r3, [sp, #4]
      pwrclkchanged = SET;
 8004946:	2301      	movs	r3, #1
 8004948:	461f      	mov	r7, r3
    if(HAL_IS_BIT_CLR(PWR->CR1, PWR_CR1_DBP))
 800494a:	4b6a      	ldr	r3, [pc, #424]	@ (8004af4 <HAL_RCC_OscConfig+0x514>)
 800494c:	681b      	ldr	r3, [r3, #0]
 800494e:	f413 7f80 	tst.w	r3, #256	@ 0x100
 8004952:	d029      	beq.n	80049a8 <HAL_RCC_OscConfig+0x3c8>
    __HAL_RCC_LSE_CONFIG(RCC_OscInitStruct->LSEState);
 8004954:	68a3      	ldr	r3, [r4, #8]
 8004956:	2b01      	cmp	r3, #1
 8004958:	d03a      	beq.n	80049d0 <HAL_RCC_OscConfig+0x3f0>
 800495a:	2b05      	cmp	r3, #5
 800495c:	d040      	beq.n	80049e0 <HAL_RCC_OscConfig+0x400>
 800495e:	4b64      	ldr	r3, [pc, #400]	@ (8004af0 <HAL_RCC_OscConfig+0x510>)
 8004960:	f8d3 2090 	ldr.w	r2, [r3, #144]	@ 0x90
 8004964:	f022 0201 	bic.w	r2, r2, #1
 8004968:	f8c3 2090 	str.w	r2, [r3, #144]	@ 0x90
 800496c:	f8d3 2090 	ldr.w	r2, [r3, #144]	@ 0x90
 8004970:	f022 0204 	bic.w	r2, r2, #4
 8004974:	f8c3 2090 	str.w	r2, [r3, #144]	@ 0x90
    if(RCC_OscInitStruct->LSEState != RCC_LSE_OFF)
 8004978:	68a3      	ldr	r3, [r4, #8]
 800497a:	2b00      	cmp	r3, #0
 800497c:	d03e      	beq.n	80049fc <HAL_RCC_OscConfig+0x41c>
      tickstart = HAL_GetTick();
 800497e:	f7fe ff47 	bl	8003810 <HAL_GetTick>
 8004982:	4606      	mov	r6, r0
      while(READ_BIT(RCC->BDCR, RCC_BDCR_LSERDY) == 0U)
 8004984:	4b5a      	ldr	r3, [pc, #360]	@ (8004af0 <HAL_RCC_OscConfig+0x510>)
 8004986:	f8d3 3090 	ldr.w	r3, [r3, #144]	@ 0x90
 800498a:	f013 0f02 	tst.w	r3, #2
 800498e:	d147      	bne.n	8004a20 <HAL_RCC_OscConfig+0x440>
        if((HAL_GetTick() - tickstart) > RCC_LSE_TIMEOUT_VALUE)
 8004990:	f7fe ff3e 	bl	8003810 <HAL_GetTick>
 8004994:	1b80      	subs	r0, r0, r6
 8004996:	f241 3388 	movw	r3, #5000	@ 0x1388
 800499a:	4298      	cmp	r0, r3
 800499c:	d9f2      	bls.n	8004984 <HAL_RCC_OscConfig+0x3a4>
          return HAL_TIMEOUT;
 800499e:	2003      	movs	r0, #3
 80049a0:	e11f      	b.n	8004be2 <HAL_RCC_OscConfig+0x602>
    FlagStatus       pwrclkchanged = RESET;
 80049a2:	2300      	movs	r3, #0
 80049a4:	461f      	mov	r7, r3
 80049a6:	e7d0      	b.n	800494a <HAL_RCC_OscConfig+0x36a>
      SET_BIT(PWR->CR1, PWR_CR1_DBP);
 80049a8:	4a52      	ldr	r2, [pc, #328]	@ (8004af4 <HAL_RCC_OscConfig+0x514>)
 80049aa:	6813      	ldr	r3, [r2, #0]
 80049ac:	f443 7380 	orr.w	r3, r3, #256	@ 0x100
 80049b0:	6013      	str	r3, [r2, #0]
      tickstart = HAL_GetTick();
 80049b2:	f7fe ff2d 	bl	8003810 <HAL_GetTick>
 80049b6:	4606      	mov	r6, r0
      while(HAL_IS_BIT_CLR(PWR->CR1, PWR_CR1_DBP))
 80049b8:	4b4e      	ldr	r3, [pc, #312]	@ (8004af4 <HAL_RCC_OscConfig+0x514>)
 80049ba:	681b      	ldr	r3, [r3, #0]
 80049bc:	f413 7f80 	tst.w	r3, #256	@ 0x100
 80049c0:	d1c8      	bne.n	8004954 <HAL_RCC_OscConfig+0x374>
        if((HAL_GetTick() - tickstart) > RCC_DBP_TIMEOUT_VALUE)
 80049c2:	f7fe ff25 	bl	8003810 <HAL_GetTick>
 80049c6:	1b80      	subs	r0, r0, r6
 80049c8:	2802      	cmp	r0, #2
 80049ca:	d9f5      	bls.n	80049b8 <HAL_RCC_OscConfig+0x3d8>
          return HAL_TIMEOUT;
 80049cc:	2003      	movs	r0, #3
 80049ce:	e108      	b.n	8004be2 <HAL_RCC_OscConfig+0x602>
    __HAL_RCC_LSE_CONFIG(RCC_OscInitStruct->LSEState);
 80049d0:	4a47      	ldr	r2, [pc, #284]	@ (8004af0 <HAL_RCC_OscConfig+0x510>)
 80049d2:	f8d2 3090 	ldr.w	r3, [r2, #144]	@ 0x90
 80049d6:	f043 0301 	orr.w	r3, r3, #1
 80049da:	f8c2 3090 	str.w	r3, [r2, #144]	@ 0x90
 80049de:	e7cb      	b.n	8004978 <HAL_RCC_OscConfig+0x398>
 80049e0:	4b43      	ldr	r3, [pc, #268]	@ (8004af0 <HAL_RCC_OscConfig+0x510>)
 80049e2:	f8d3 2090 	ldr.w	r2, [r3, #144]	@ 0x90
 80049e6:	f042 0204 	orr.w	r2, r2, #4
 80049ea:	f8c3 2090 	str.w	r2, [r3, #144]	@ 0x90
 80049ee:	f8d3 2090 	ldr.w	r2, [r3, #144]	@ 0x90
 80049f2:	f042 0201 	orr.w	r2, r2, #1
 80049f6:	f8c3 2090 	str.w	r2, [r3, #144]	@ 0x90
 80049fa:	e7bd      	b.n	8004978 <HAL_RCC_OscConfig+0x398>
      tickstart = HAL_GetTick();
 80049fc:	f7fe ff08 	bl	8003810 <HAL_GetTick>
 8004a00:	4606      	mov	r6, r0
      while(READ_BIT(RCC->BDCR, RCC_BDCR_LSERDY) != 0U)
 8004a02:	4b3b      	ldr	r3, [pc, #236]	@ (8004af0 <HAL_RCC_OscConfig+0x510>)
 8004a04:	f8d3 3090 	ldr.w	r3, [r3, #144]	@ 0x90
 8004a08:	f013 0f02 	tst.w	r3, #2
 8004a0c:	d008      	beq.n	8004a20 <HAL_RCC_OscConfig+0x440>
        if((HAL_GetTick() - tickstart) > RCC_LSE_TIMEOUT_VALUE)
 8004a0e:	f7fe feff 	bl	8003810 <HAL_GetTick>
 8004a12:	1b80      	subs	r0, r0, r6
 8004a14:	f241 3388 	movw	r3, #5000	@ 0x1388
 8004a18:	4298      	cmp	r0, r3
 8004a1a:	d9f2      	bls.n	8004a02 <HAL_RCC_OscConfig+0x422>
          return HAL_TIMEOUT;
 8004a1c:	2003      	movs	r0, #3
 8004a1e:	e0e0      	b.n	8004be2 <HAL_RCC_OscConfig+0x602>
    if(pwrclkchanged == SET)
 8004a20:	b9ef      	cbnz	r7, 8004a5e <HAL_RCC_OscConfig+0x47e>
  if(RCC_OscInitStruct->PLL.PLLState != RCC_PLL_NONE)
 8004a22:	6aa3      	ldr	r3, [r4, #40]	@ 0x28
 8004a24:	2b00      	cmp	r3, #0
 8004a26:	f000 80db 	beq.w	8004be0 <HAL_RCC_OscConfig+0x600>
    if(RCC_OscInitStruct->PLL.PLLState == RCC_PLL_ON)
 8004a2a:	2b02      	cmp	r3, #2
 8004a2c:	d01d      	beq.n	8004a6a <HAL_RCC_OscConfig+0x48a>
      if(sysclk_source != RCC_CFGR_SWS_PLL)
 8004a2e:	2d0c      	cmp	r5, #12
 8004a30:	f000 80dd 	beq.w	8004bee <HAL_RCC_OscConfig+0x60e>
        __HAL_RCC_PLL_DISABLE();
 8004a34:	4a2e      	ldr	r2, [pc, #184]	@ (8004af0 <HAL_RCC_OscConfig+0x510>)
 8004a36:	6813      	ldr	r3, [r2, #0]
 8004a38:	f023 7380 	bic.w	r3, r3, #16777216	@ 0x1000000
 8004a3c:	6013      	str	r3, [r2, #0]
        tickstart = HAL_GetTick();
 8004a3e:	f7fe fee7 	bl	8003810 <HAL_GetTick>
 8004a42:	4604      	mov	r4, r0
        while(READ_BIT(RCC->CR, RCC_CR_PLLRDY) != 0U)
 8004a44:	4b2a      	ldr	r3, [pc, #168]	@ (8004af0 <HAL_RCC_OscConfig+0x510>)
 8004a46:	681b      	ldr	r3, [r3, #0]
 8004a48:	f013 7f00 	tst.w	r3, #33554432	@ 0x2000000
 8004a4c:	f000 80b7 	beq.w	8004bbe <HAL_RCC_OscConfig+0x5de>
          if((HAL_GetTick() - tickstart) > PLL_TIMEOUT_VALUE)
 8004a50:	f7fe fede 	bl	8003810 <HAL_GetTick>
 8004a54:	1b00      	subs	r0, r0, r4
 8004a56:	2802      	cmp	r0, #2
 8004a58:	d9f4      	bls.n	8004a44 <HAL_RCC_OscConfig+0x464>
            return HAL_TIMEOUT;
 8004a5a:	2003      	movs	r0, #3
 8004a5c:	e0c1      	b.n	8004be2 <HAL_RCC_OscConfig+0x602>
      __HAL_RCC_PWR_CLK_DISABLE();
 8004a5e:	4a24      	ldr	r2, [pc, #144]	@ (8004af0 <HAL_RCC_OscConfig+0x510>)
 8004a60:	6d93      	ldr	r3, [r2, #88]	@ 0x58
 8004a62:	f023 5380 	bic.w	r3, r3, #268435456	@ 0x10000000
 8004a66:	6593      	str	r3, [r2, #88]	@ 0x58
 8004a68:	e7db      	b.n	8004a22 <HAL_RCC_OscConfig+0x442>
      pll_config = RCC->PLLCFGR;
 8004a6a:	4b21      	ldr	r3, [pc, #132]	@ (8004af0 <HAL_RCC_OscConfig+0x510>)
 8004a6c:	68db      	ldr	r3, [r3, #12]
      if((READ_BIT(pll_config, RCC_PLLCFGR_PLLSRC)  != RCC_OscInitStruct->PLL.PLLSource) ||
 8004a6e:	f003 0103 	and.w	r1, r3, #3
 8004a72:	6ae2      	ldr	r2, [r4, #44]	@ 0x2c
 8004a74:	4291      	cmp	r1, r2
 8004a76:	d00f      	beq.n	8004a98 <HAL_RCC_OscConfig+0x4b8>
        if(sysclk_source != RCC_CFGR_SWS_PLL)
 8004a78:	2d0c      	cmp	r5, #12
 8004a7a:	f000 80b4 	beq.w	8004be6 <HAL_RCC_OscConfig+0x606>
          if((READ_BIT(RCC->CR, RCC_CR_PLLSAI1ON) != 0U)
 8004a7e:	4b1c      	ldr	r3, [pc, #112]	@ (8004af0 <HAL_RCC_OscConfig+0x510>)
 8004a80:	681b      	ldr	r3, [r3, #0]
 8004a82:	f013 6f80 	tst.w	r3, #67108864	@ 0x4000000
 8004a86:	f040 80b0 	bne.w	8004bea <HAL_RCC_OscConfig+0x60a>
             || (READ_BIT(RCC->CR, RCC_CR_PLLSAI2ON) != 0U)
 8004a8a:	4b19      	ldr	r3, [pc, #100]	@ (8004af0 <HAL_RCC_OscConfig+0x510>)
 8004a8c:	681b      	ldr	r3, [r3, #0]
 8004a8e:	f013 5f80 	tst.w	r3, #268435456	@ 0x10000000
 8004a92:	d031      	beq.n	8004af8 <HAL_RCC_OscConfig+0x518>
            return HAL_ERROR;
 8004a94:	2001      	movs	r0, #1
 8004a96:	e0a4      	b.n	8004be2 <HAL_RCC_OscConfig+0x602>
         (READ_BIT(pll_config, RCC_PLLCFGR_PLLM)    != ((RCC_OscInitStruct->PLL.PLLM - 1U) << RCC_PLLCFGR_PLLM_Pos)) ||
 8004a98:	f003 0270 	and.w	r2, r3, #112	@ 0x70
 8004a9c:	6b21      	ldr	r1, [r4, #48]	@ 0x30
 8004a9e:	3901      	subs	r1, #1
      if((READ_BIT(pll_config, RCC_PLLCFGR_PLLSRC)  != RCC_OscInitStruct->PLL.PLLSource) ||
 8004aa0:	ebb2 1f01 	cmp.w	r2, r1, lsl #4
 8004aa4:	d1e8      	bne.n	8004a78 <HAL_RCC_OscConfig+0x498>
         (READ_BIT(pll_config, RCC_PLLCFGR_PLLN)    != (RCC_OscInitStruct->PLL.PLLN << RCC_PLLCFGR_PLLN_Pos)) ||
 8004aa6:	f403 42fe 	and.w	r2, r3, #32512	@ 0x7f00
 8004aaa:	6b61      	ldr	r1, [r4, #52]	@ 0x34
         (READ_BIT(pll_config, RCC_PLLCFGR_PLLM)    != ((RCC_OscInitStruct->PLL.PLLM - 1U) << RCC_PLLCFGR_PLLM_Pos)) ||
 8004aac:	ebb2 2f01 	cmp.w	r2, r1, lsl #8
 8004ab0:	d1e2      	bne.n	8004a78 <HAL_RCC_OscConfig+0x498>
         (READ_BIT(pll_config, RCC_PLLCFGR_PLLP)    != ((RCC_OscInitStruct->PLL.PLLP == RCC_PLLP_DIV7) ? 0U : 1U)) ||
 8004ab2:	f403 3100 	and.w	r1, r3, #131072	@ 0x20000
 8004ab6:	6ba2      	ldr	r2, [r4, #56]	@ 0x38
 8004ab8:	3a07      	subs	r2, #7
 8004aba:	bf18      	it	ne
 8004abc:	2201      	movne	r2, #1
         (READ_BIT(pll_config, RCC_PLLCFGR_PLLN)    != (RCC_OscInitStruct->PLL.PLLN << RCC_PLLCFGR_PLLN_Pos)) ||
 8004abe:	4291      	cmp	r1, r2
 8004ac0:	d1da      	bne.n	8004a78 <HAL_RCC_OscConfig+0x498>
         (READ_BIT(pll_config, RCC_PLLCFGR_PLLQ)    != ((((RCC_OscInitStruct->PLL.PLLQ) >> 1U) - 1U) << RCC_PLLCFGR_PLLQ_Pos)) ||
 8004ac2:	f403 01c0 	and.w	r1, r3, #6291456	@ 0x600000
 8004ac6:	6be2      	ldr	r2, [r4, #60]	@ 0x3c
 8004ac8:	0852      	lsrs	r2, r2, #1
 8004aca:	3a01      	subs	r2, #1
         (READ_BIT(pll_config, RCC_PLLCFGR_PLLP)    != ((RCC_OscInitStruct->PLL.PLLP == RCC_PLLP_DIV7) ? 0U : 1U)) ||
 8004acc:	ebb1 5f42 	cmp.w	r1, r2, lsl #21
 8004ad0:	d1d2      	bne.n	8004a78 <HAL_RCC_OscConfig+0x498>
         (READ_BIT(pll_config, RCC_PLLCFGR_PLLR)    != ((((RCC_OscInitStruct->PLL.PLLR) >> 1U) - 1U) << RCC_PLLCFGR_PLLR_Pos)))
 8004ad2:	f003 63c0 	and.w	r3, r3, #100663296	@ 0x6000000
 8004ad6:	6c22      	ldr	r2, [r4, #64]	@ 0x40
 8004ad8:	0852      	lsrs	r2, r2, #1
 8004ada:	3a01      	subs	r2, #1
         (READ_BIT(pll_config, RCC_PLLCFGR_PLLQ)    != ((((RCC_OscInitStruct->PLL.PLLQ) >> 1U) - 1U) << RCC_PLLCFGR_PLLQ_Pos)) ||
 8004adc:	ebb3 6f42 	cmp.w	r3, r2, lsl #25
 8004ae0:	d1ca      	bne.n	8004a78 <HAL_RCC_OscConfig+0x498>
        if(READ_BIT(RCC->CR, RCC_CR_PLLRDY) == 0U)
 8004ae2:	4b03      	ldr	r3, [pc, #12]	@ (8004af0 <HAL_RCC_OscConfig+0x510>)
 8004ae4:	681b      	ldr	r3, [r3, #0]
 8004ae6:	f013 7f00 	tst.w	r3, #33554432	@ 0x2000000
 8004aea:	d04e      	beq.n	8004b8a <HAL_RCC_OscConfig+0x5aa>
  return HAL_OK;
 8004aec:	2000      	movs	r0, #0
 8004aee:	e078      	b.n	8004be2 <HAL_RCC_OscConfig+0x602>
 8004af0:	40021000 	.word	0x40021000
 8004af4:	40007000 	.word	0x40007000
            __HAL_RCC_PLL_DISABLE();
 8004af8:	4a3e      	ldr	r2, [pc, #248]	@ (8004bf4 <HAL_RCC_OscConfig+0x614>)
 8004afa:	6813      	ldr	r3, [r2, #0]
 8004afc:	f023 7380 	bic.w	r3, r3, #16777216	@ 0x1000000
 8004b00:	6013      	str	r3, [r2, #0]
            tickstart = HAL_GetTick();
 8004b02:	f7fe fe85 	bl	8003810 <HAL_GetTick>
 8004b06:	4605      	mov	r5, r0
            while(READ_BIT(RCC->CR, RCC_CR_PLLRDY) != 0U)
 8004b08:	4b3a      	ldr	r3, [pc, #232]	@ (8004bf4 <HAL_RCC_OscConfig+0x614>)
 8004b0a:	681b      	ldr	r3, [r3, #0]
 8004b0c:	f013 7f00 	tst.w	r3, #33554432	@ 0x2000000
 8004b10:	d006      	beq.n	8004b20 <HAL_RCC_OscConfig+0x540>
              if((HAL_GetTick() - tickstart) > PLL_TIMEOUT_VALUE)
 8004b12:	f7fe fe7d 	bl	8003810 <HAL_GetTick>
 8004b16:	1b40      	subs	r0, r0, r5
 8004b18:	2802      	cmp	r0, #2
 8004b1a:	d9f5      	bls.n	8004b08 <HAL_RCC_OscConfig+0x528>
                return HAL_TIMEOUT;
 8004b1c:	2003      	movs	r0, #3
 8004b1e:	e060      	b.n	8004be2 <HAL_RCC_OscConfig+0x602>
            __HAL_RCC_PLL_CONFIG(RCC_OscInitStruct->PLL.PLLSource,
 8004b20:	4a34      	ldr	r2, [pc, #208]	@ (8004bf4 <HAL_RCC_OscConfig+0x614>)
 8004b22:	68d3      	ldr	r3, [r2, #12]
 8004b24:	4934      	ldr	r1, [pc, #208]	@ (8004bf8 <HAL_RCC_OscConfig+0x618>)
 8004b26:	4019      	ands	r1, r3
 8004b28:	6ae3      	ldr	r3, [r4, #44]	@ 0x2c
 8004b2a:	6b20      	ldr	r0, [r4, #48]	@ 0x30
 8004b2c:	3801      	subs	r0, #1
 8004b2e:	ea43 1300 	orr.w	r3, r3, r0, lsl #4
 8004b32:	6b60      	ldr	r0, [r4, #52]	@ 0x34
 8004b34:	ea43 2300 	orr.w	r3, r3, r0, lsl #8
 8004b38:	6be0      	ldr	r0, [r4, #60]	@ 0x3c
 8004b3a:	0840      	lsrs	r0, r0, #1
 8004b3c:	3801      	subs	r0, #1
 8004b3e:	ea43 5340 	orr.w	r3, r3, r0, lsl #21
 8004b42:	6c20      	ldr	r0, [r4, #64]	@ 0x40
 8004b44:	0840      	lsrs	r0, r0, #1
 8004b46:	3801      	subs	r0, #1
 8004b48:	ea43 6340 	orr.w	r3, r3, r0, lsl #25
 8004b4c:	6ba0      	ldr	r0, [r4, #56]	@ 0x38
 8004b4e:	0900      	lsrs	r0, r0, #4
 8004b50:	ea43 4340 	orr.w	r3, r3, r0, lsl #17
 8004b54:	4319      	orrs	r1, r3
 8004b56:	60d1      	str	r1, [r2, #12]
            __HAL_RCC_PLL_ENABLE();
 8004b58:	6813      	ldr	r3, [r2, #0]
 8004b5a:	f043 7380 	orr.w	r3, r3, #16777216	@ 0x1000000
 8004b5e:	6013      	str	r3, [r2, #0]
            __HAL_RCC_PLLCLKOUT_ENABLE(RCC_PLL_SYSCLK);
 8004b60:	68d3      	ldr	r3, [r2, #12]
 8004b62:	f043 7380 	orr.w	r3, r3, #16777216	@ 0x1000000
 8004b66:	60d3      	str	r3, [r2, #12]
            tickstart = HAL_GetTick();
 8004b68:	f7fe fe52 	bl	8003810 <HAL_GetTick>
 8004b6c:	4604      	mov	r4, r0
            while(READ_BIT(RCC->CR, RCC_CR_PLLRDY) == 0U)
 8004b6e:	4b21      	ldr	r3, [pc, #132]	@ (8004bf4 <HAL_RCC_OscConfig+0x614>)
 8004b70:	681b      	ldr	r3, [r3, #0]
 8004b72:	f013 7f00 	tst.w	r3, #33554432	@ 0x2000000
 8004b76:	d106      	bne.n	8004b86 <HAL_RCC_OscConfig+0x5a6>
              if((HAL_GetTick() - tickstart) > PLL_TIMEOUT_VALUE)
 8004b78:	f7fe fe4a 	bl	8003810 <HAL_GetTick>
 8004b7c:	1b00      	subs	r0, r0, r4
 8004b7e:	2802      	cmp	r0, #2
 8004b80:	d9f5      	bls.n	8004b6e <HAL_RCC_OscConfig+0x58e>
                return HAL_TIMEOUT;
 8004b82:	2003      	movs	r0, #3
 8004b84:	e02d      	b.n	8004be2 <HAL_RCC_OscConfig+0x602>
  return HAL_OK;
 8004b86:	2000      	movs	r0, #0
 8004b88:	e02b      	b.n	8004be2 <HAL_RCC_OscConfig+0x602>
          __HAL_RCC_PLL_ENABLE();
 8004b8a:	4b1a      	ldr	r3, [pc, #104]	@ (8004bf4 <HAL_RCC_OscConfig+0x614>)
 8004b8c:	681a      	ldr	r2, [r3, #0]
 8004b8e:	f042 7280 	orr.w	r2, r2, #16777216	@ 0x1000000
 8004b92:	601a      	str	r2, [r3, #0]
          __HAL_RCC_PLLCLKOUT_ENABLE(RCC_PLL_SYSCLK);
 8004b94:	68da      	ldr	r2, [r3, #12]
 8004b96:	f042 7280 	orr.w	r2, r2, #16777216	@ 0x1000000
 8004b9a:	60da      	str	r2, [r3, #12]
          tickstart = HAL_GetTick();
 8004b9c:	f7fe fe38 	bl	8003810 <HAL_GetTick>
 8004ba0:	4604      	mov	r4, r0
          while(READ_BIT(RCC->CR, RCC_CR_PLLRDY) == 0U)
 8004ba2:	4b14      	ldr	r3, [pc, #80]	@ (8004bf4 <HAL_RCC_OscConfig+0x614>)
 8004ba4:	681b      	ldr	r3, [r3, #0]
 8004ba6:	f013 7f00 	tst.w	r3, #33554432	@ 0x2000000
 8004baa:	d106      	bne.n	8004bba <HAL_RCC_OscConfig+0x5da>
            if((HAL_GetTick() - tickstart) > PLL_TIMEOUT_VALUE)
 8004bac:	f7fe fe30 	bl	8003810 <HAL_GetTick>
 8004bb0:	1b03      	subs	r3, r0, r4
 8004bb2:	2b02      	cmp	r3, #2
 8004bb4:	d9f5      	bls.n	8004ba2 <HAL_RCC_OscConfig+0x5c2>
              return HAL_TIMEOUT;
 8004bb6:	2003      	movs	r0, #3
 8004bb8:	e013      	b.n	8004be2 <HAL_RCC_OscConfig+0x602>
  return HAL_OK;
 8004bba:	2000      	movs	r0, #0
 8004bbc:	e011      	b.n	8004be2 <HAL_RCC_OscConfig+0x602>
        RCC->PLLCFGR &= ~(RCC_PLLCFGR_PLLSRC | RCC_PLL_SYSCLK | RCC_PLL_48M1CLK | RCC_PLL_SAI3CLK);
 8004bbe:	4a0d      	ldr	r2, [pc, #52]	@ (8004bf4 <HAL_RCC_OscConfig+0x614>)
 8004bc0:	68d1      	ldr	r1, [r2, #12]
 8004bc2:	4b0e      	ldr	r3, [pc, #56]	@ (8004bfc <HAL_RCC_OscConfig+0x61c>)
 8004bc4:	400b      	ands	r3, r1
 8004bc6:	60d3      	str	r3, [r2, #12]
  return HAL_OK;
 8004bc8:	2000      	movs	r0, #0
 8004bca:	e00a      	b.n	8004be2 <HAL_RCC_OscConfig+0x602>
    return HAL_ERROR;
 8004bcc:	2001      	movs	r0, #1
}
 8004bce:	4770      	bx	lr
        return HAL_ERROR;
 8004bd0:	2001      	movs	r0, #1
 8004bd2:	e006      	b.n	8004be2 <HAL_RCC_OscConfig+0x602>
            return HAL_ERROR;
 8004bd4:	2001      	movs	r0, #1
 8004bd6:	e004      	b.n	8004be2 <HAL_RCC_OscConfig+0x602>
        return HAL_ERROR;
 8004bd8:	2001      	movs	r0, #1
 8004bda:	e002      	b.n	8004be2 <HAL_RCC_OscConfig+0x602>
        return HAL_ERROR;
 8004bdc:	2001      	movs	r0, #1
 8004bde:	e000      	b.n	8004be2 <HAL_RCC_OscConfig+0x602>
  return HAL_OK;
 8004be0:	4618      	mov	r0, r3
}
 8004be2:	b003      	add	sp, #12
 8004be4:	bdf0      	pop	{r4, r5, r6, r7, pc}
          return HAL_ERROR;
 8004be6:	2001      	movs	r0, #1
 8004be8:	e7fb      	b.n	8004be2 <HAL_RCC_OscConfig+0x602>
            return HAL_ERROR;
 8004bea:	2001      	movs	r0, #1
 8004bec:	e7f9      	b.n	8004be2 <HAL_RCC_OscConfig+0x602>
        return HAL_ERROR;
 8004bee:	2001      	movs	r0, #1
 8004bf0:	e7f7      	b.n	8004be2 <HAL_RCC_OscConfig+0x602>
 8004bf2:	bf00      	nop
 8004bf4:	40021000 	.word	0x40021000
 8004bf8:	f99d808c 	.word	0xf99d808c
 8004bfc:	feeefffc 	.word	0xfeeefffc

08004c00 <HAL_RCC_ClockConfig>:
  if(RCC_ClkInitStruct == NULL)
 8004c00:	2800      	cmp	r0, #0
 8004c02:	f000 80af 	beq.w	8004d64 <HAL_RCC_ClockConfig+0x164>
{
 8004c06:	b570      	push	{r4, r5, r6, lr}
 8004c08:	460d      	mov	r5, r1
 8004c0a:	4604      	mov	r4, r0
  if(FLatency > __HAL_FLASH_GET_LATENCY())
 8004c0c:	4b59      	ldr	r3, [pc, #356]	@ (8004d74 <HAL_RCC_ClockConfig+0x174>)
 8004c0e:	681b      	ldr	r3, [r3, #0]
 8004c10:	f003 0307 	and.w	r3, r3, #7
 8004c14:	428b      	cmp	r3, r1
 8004c16:	d20b      	bcs.n	8004c30 <HAL_RCC_ClockConfig+0x30>
    __HAL_FLASH_SET_LATENCY(FLatency);
 8004c18:	4a56      	ldr	r2, [pc, #344]	@ (8004d74 <HAL_RCC_ClockConfig+0x174>)
 8004c1a:	6813      	ldr	r3, [r2, #0]
 8004c1c:	f023 0307 	bic.w	r3, r3, #7
 8004c20:	430b      	orrs	r3, r1
 8004c22:	6013      	str	r3, [r2, #0]
    if(__HAL_FLASH_GET_LATENCY() != FLatency)
 8004c24:	6813      	ldr	r3, [r2, #0]
 8004c26:	f003 0307 	and.w	r3, r3, #7
 8004c2a:	428b      	cmp	r3, r1
 8004c2c:	f040 809c 	bne.w	8004d68 <HAL_RCC_ClockConfig+0x168>
  if(((RCC_ClkInitStruct->ClockType) & RCC_CLOCKTYPE_HCLK) == RCC_CLOCKTYPE_HCLK)
 8004c30:	6823      	ldr	r3, [r4, #0]
 8004c32:	f013 0f02 	tst.w	r3, #2
 8004c36:	d00c      	beq.n	8004c52 <HAL_RCC_ClockConfig+0x52>
    if(RCC_ClkInitStruct->AHBCLKDivider > READ_BIT(RCC->CFGR, RCC_CFGR_HPRE))
 8004c38:	68a2      	ldr	r2, [r4, #8]
 8004c3a:	4b4f      	ldr	r3, [pc, #316]	@ (8004d78 <HAL_RCC_ClockConfig+0x178>)
 8004c3c:	689b      	ldr	r3, [r3, #8]
 8004c3e:	f003 03f0 	and.w	r3, r3, #240	@ 0xf0
 8004c42:	429a      	cmp	r2, r3
 8004c44:	d905      	bls.n	8004c52 <HAL_RCC_ClockConfig+0x52>
      MODIFY_REG(RCC->CFGR, RCC_CFGR_HPRE, RCC_ClkInitStruct->AHBCLKDivider);
 8004c46:	494c      	ldr	r1, [pc, #304]	@ (8004d78 <HAL_RCC_ClockConfig+0x178>)
 8004c48:	688b      	ldr	r3, [r1, #8]
 8004c4a:	f023 03f0 	bic.w	r3, r3, #240	@ 0xf0
 8004c4e:	431a      	orrs	r2, r3
 8004c50:	608a      	str	r2, [r1, #8]
  if(((RCC_ClkInitStruct->ClockType) & RCC_CLOCKTYPE_SYSCLK) == RCC_CLOCKTYPE_SYSCLK)
 8004c52:	6823      	ldr	r3, [r4, #0]
 8004c54:	f013 0f01 	tst.w	r3, #1
 8004c58:	d039      	beq.n	8004cce <HAL_RCC_ClockConfig+0xce>
    if(RCC_ClkInitStruct->SYSCLKSource == RCC_SYSCLKSOURCE_PLLCLK)
 8004c5a:	6863      	ldr	r3, [r4, #4]
 8004c5c:	2b03      	cmp	r3, #3
 8004c5e:	d009      	beq.n	8004c74 <HAL_RCC_ClockConfig+0x74>
      if(RCC_ClkInitStruct->SYSCLKSource == RCC_SYSCLKSOURCE_HSE)
 8004c60:	2b02      	cmp	r3, #2
 8004c62:	d026      	beq.n	8004cb2 <HAL_RCC_ClockConfig+0xb2>
      else if(RCC_ClkInitStruct->SYSCLKSource == RCC_SYSCLKSOURCE_MSI)
 8004c64:	bb63      	cbnz	r3, 8004cc0 <HAL_RCC_ClockConfig+0xc0>
        if(READ_BIT(RCC->CR, RCC_CR_MSIRDY) == 0U)
 8004c66:	4a44      	ldr	r2, [pc, #272]	@ (8004d78 <HAL_RCC_ClockConfig+0x178>)
 8004c68:	6812      	ldr	r2, [r2, #0]
 8004c6a:	f012 0f02 	tst.w	r2, #2
 8004c6e:	d106      	bne.n	8004c7e <HAL_RCC_ClockConfig+0x7e>
          return HAL_ERROR;
 8004c70:	2001      	movs	r0, #1
 8004c72:	e076      	b.n	8004d62 <HAL_RCC_ClockConfig+0x162>
      if(READ_BIT(RCC->CR, RCC_CR_PLLRDY) == 0U)
 8004c74:	4a40      	ldr	r2, [pc, #256]	@ (8004d78 <HAL_RCC_ClockConfig+0x178>)
 8004c76:	6812      	ldr	r2, [r2, #0]
 8004c78:	f012 7f00 	tst.w	r2, #33554432	@ 0x2000000
 8004c7c:	d076      	beq.n	8004d6c <HAL_RCC_ClockConfig+0x16c>
    MODIFY_REG(RCC->CFGR, RCC_CFGR_SW, RCC_ClkInitStruct->SYSCLKSource);
 8004c7e:	493e      	ldr	r1, [pc, #248]	@ (8004d78 <HAL_RCC_ClockConfig+0x178>)
 8004c80:	688a      	ldr	r2, [r1, #8]
 8004c82:	f022 0203 	bic.w	r2, r2, #3
 8004c86:	4313      	orrs	r3, r2
 8004c88:	608b      	str	r3, [r1, #8]
    tickstart = HAL_GetTick();
 8004c8a:	f7fe fdc1 	bl	8003810 <HAL_GetTick>
 8004c8e:	4606      	mov	r6, r0
    while(__HAL_RCC_GET_SYSCLK_SOURCE() != (RCC_ClkInitStruct->SYSCLKSource << RCC_CFGR_SWS_Pos))
 8004c90:	4b39      	ldr	r3, [pc, #228]	@ (8004d78 <HAL_RCC_ClockConfig+0x178>)
 8004c92:	689b      	ldr	r3, [r3, #8]
 8004c94:	f003 030c 	and.w	r3, r3, #12
 8004c98:	6862      	ldr	r2, [r4, #4]
 8004c9a:	ebb3 0f82 	cmp.w	r3, r2, lsl #2
 8004c9e:	d016      	beq.n	8004cce <HAL_RCC_ClockConfig+0xce>
      if((HAL_GetTick() - tickstart) > CLOCKSWITCH_TIMEOUT_VALUE)
 8004ca0:	f7fe fdb6 	bl	8003810 <HAL_GetTick>
 8004ca4:	1b80      	subs	r0, r0, r6
 8004ca6:	f241 3388 	movw	r3, #5000	@ 0x1388
 8004caa:	4298      	cmp	r0, r3
 8004cac:	d9f0      	bls.n	8004c90 <HAL_RCC_ClockConfig+0x90>
        return HAL_TIMEOUT;
 8004cae:	2003      	movs	r0, #3
 8004cb0:	e057      	b.n	8004d62 <HAL_RCC_ClockConfig+0x162>
        if(READ_BIT(RCC->CR, RCC_CR_HSERDY) == 0U)
 8004cb2:	4a31      	ldr	r2, [pc, #196]	@ (8004d78 <HAL_RCC_ClockConfig+0x178>)
 8004cb4:	6812      	ldr	r2, [r2, #0]
 8004cb6:	f412 3f00 	tst.w	r2, #131072	@ 0x20000
 8004cba:	d1e0      	bne.n	8004c7e <HAL_RCC_ClockConfig+0x7e>
          return HAL_ERROR;
 8004cbc:	2001      	movs	r0, #1
 8004cbe:	e050      	b.n	8004d62 <HAL_RCC_ClockConfig+0x162>
        if(READ_BIT(RCC->CR, RCC_CR_HSIRDY) == 0U)
 8004cc0:	4a2d      	ldr	r2, [pc, #180]	@ (8004d78 <HAL_RCC_ClockConfig+0x178>)
 8004cc2:	6812      	ldr	r2, [r2, #0]
 8004cc4:	f412 6f80 	tst.w	r2, #1024	@ 0x400
 8004cc8:	d1d9      	bne.n	8004c7e <HAL_RCC_ClockConfig+0x7e>
          return HAL_ERROR;
 8004cca:	2001      	movs	r0, #1
 8004ccc:	e049      	b.n	8004d62 <HAL_RCC_ClockConfig+0x162>
  if(((RCC_ClkInitStruct->ClockType) & RCC_CLOCKTYPE_HCLK) == RCC_CLOCKTYPE_HCLK)
 8004cce:	6823      	ldr	r3, [r4, #0]
 8004cd0:	f013 0f02 	tst.w	r3, #2
 8004cd4:	d00c      	beq.n	8004cf0 <HAL_RCC_ClockConfig+0xf0>
    if(RCC_ClkInitStruct->AHBCLKDivider < READ_BIT(RCC->CFGR, RCC_CFGR_HPRE))
 8004cd6:	68a2      	ldr	r2, [r4, #8]
 8004cd8:	4b27      	ldr	r3, [pc, #156]	@ (8004d78 <HAL_RCC_ClockConfig+0x178>)
 8004cda:	689b      	ldr	r3, [r3, #8]
 8004cdc:	f003 03f0 	and.w	r3, r3, #240	@ 0xf0
 8004ce0:	429a      	cmp	r2, r3
 8004ce2:	d205      	bcs.n	8004cf0 <HAL_RCC_ClockConfig+0xf0>
      MODIFY_REG(RCC->CFGR, RCC_CFGR_HPRE, RCC_ClkInitStruct->AHBCLKDivider);
 8004ce4:	4924      	ldr	r1, [pc, #144]	@ (8004d78 <HAL_RCC_ClockConfig+0x178>)
 8004ce6:	688b      	ldr	r3, [r1, #8]
 8004ce8:	f023 03f0 	bic.w	r3, r3, #240	@ 0xf0
 8004cec:	431a      	orrs	r2, r3
 8004cee:	608a      	str	r2, [r1, #8]
  if(FLatency < __HAL_FLASH_GET_LATENCY())
 8004cf0:	4b20      	ldr	r3, [pc, #128]	@ (8004d74 <HAL_RCC_ClockConfig+0x174>)
 8004cf2:	681b      	ldr	r3, [r3, #0]
 8004cf4:	f003 0307 	and.w	r3, r3, #7
 8004cf8:	42ab      	cmp	r3, r5
 8004cfa:	d90a      	bls.n	8004d12 <HAL_RCC_ClockConfig+0x112>
    __HAL_FLASH_SET_LATENCY(FLatency);
 8004cfc:	4a1d      	ldr	r2, [pc, #116]	@ (8004d74 <HAL_RCC_ClockConfig+0x174>)
 8004cfe:	6813      	ldr	r3, [r2, #0]
 8004d00:	f023 0307 	bic.w	r3, r3, #7
 8004d04:	432b      	orrs	r3, r5
 8004d06:	6013      	str	r3, [r2, #0]
    if(__HAL_FLASH_GET_LATENCY() != FLatency)
 8004d08:	6813      	ldr	r3, [r2, #0]
 8004d0a:	f003 0307 	and.w	r3, r3, #7
 8004d0e:	42ab      	cmp	r3, r5
 8004d10:	d12e      	bne.n	8004d70 <HAL_RCC_ClockConfig+0x170>
  if(((RCC_ClkInitStruct->ClockType) & RCC_CLOCKTYPE_PCLK1) == RCC_CLOCKTYPE_PCLK1)
 8004d12:	6823      	ldr	r3, [r4, #0]
 8004d14:	f013 0f04 	tst.w	r3, #4
 8004d18:	d006      	beq.n	8004d28 <HAL_RCC_ClockConfig+0x128>
    MODIFY_REG(RCC->CFGR, RCC_CFGR_PPRE1, RCC_ClkInitStruct->APB1CLKDivider);
 8004d1a:	4a17      	ldr	r2, [pc, #92]	@ (8004d78 <HAL_RCC_ClockConfig+0x178>)
 8004d1c:	6893      	ldr	r3, [r2, #8]
 8004d1e:	f423 63e0 	bic.w	r3, r3, #1792	@ 0x700
 8004d22:	68e1      	ldr	r1, [r4, #12]
 8004d24:	430b      	orrs	r3, r1
 8004d26:	6093      	str	r3, [r2, #8]
  if(((RCC_ClkInitStruct->ClockType) & RCC_CLOCKTYPE_PCLK2) == RCC_CLOCKTYPE_PCLK2)
 8004d28:	6823      	ldr	r3, [r4, #0]
 8004d2a:	f013 0f08 	tst.w	r3, #8
 8004d2e:	d007      	beq.n	8004d40 <HAL_RCC_ClockConfig+0x140>
    MODIFY_REG(RCC->CFGR, RCC_CFGR_PPRE2, ((RCC_ClkInitStruct->APB2CLKDivider) << 3U));
 8004d30:	4a11      	ldr	r2, [pc, #68]	@ (8004d78 <HAL_RCC_ClockConfig+0x178>)
 8004d32:	6893      	ldr	r3, [r2, #8]
 8004d34:	f423 5360 	bic.w	r3, r3, #14336	@ 0x3800
 8004d38:	6921      	ldr	r1, [r4, #16]
 8004d3a:	ea43 03c1 	orr.w	r3, r3, r1, lsl #3
 8004d3e:	6093      	str	r3, [r2, #8]
  SystemCoreClock = HAL_RCC_GetSysClockFreq() >> (AHBPrescTable[READ_BIT(RCC->CFGR, RCC_CFGR_HPRE) >> RCC_CFGR_HPRE_Pos] & 0x1FU);
 8004d40:	f7ff fbfa 	bl	8004538 <HAL_RCC_GetSysClockFreq>
 8004d44:	4b0c      	ldr	r3, [pc, #48]	@ (8004d78 <HAL_RCC_ClockConfig+0x178>)
 8004d46:	689b      	ldr	r3, [r3, #8]
 8004d48:	f3c3 1303 	ubfx	r3, r3, #4, #4
 8004d4c:	4a0b      	ldr	r2, [pc, #44]	@ (8004d7c <HAL_RCC_ClockConfig+0x17c>)
 8004d4e:	5cd3      	ldrb	r3, [r2, r3]
 8004d50:	f003 031f 	and.w	r3, r3, #31
 8004d54:	40d8      	lsrs	r0, r3
 8004d56:	4b0a      	ldr	r3, [pc, #40]	@ (8004d80 <HAL_RCC_ClockConfig+0x180>)
 8004d58:	6018      	str	r0, [r3, #0]
  status = HAL_InitTick(uwTickPrio);
 8004d5a:	4b0a      	ldr	r3, [pc, #40]	@ (8004d84 <HAL_RCC_ClockConfig+0x184>)
 8004d5c:	6818      	ldr	r0, [r3, #0]
 8004d5e:	f7fe fd13 	bl	8003788 <HAL_InitTick>
}
 8004d62:	bd70      	pop	{r4, r5, r6, pc}
    return HAL_ERROR;
 8004d64:	2001      	movs	r0, #1
}
 8004d66:	4770      	bx	lr
      return HAL_ERROR;
 8004d68:	2001      	movs	r0, #1
 8004d6a:	e7fa      	b.n	8004d62 <HAL_RCC_ClockConfig+0x162>
        return HAL_ERROR;
 8004d6c:	2001      	movs	r0, #1
 8004d6e:	e7f8      	b.n	8004d62 <HAL_RCC_ClockConfig+0x162>
      return HAL_ERROR;
 8004d70:	2001      	movs	r0, #1
 8004d72:	e7f6      	b.n	8004d62 <HAL_RCC_ClockConfig+0x162>
 8004d74:	40022000 	.word	0x40022000
 8004d78:	40021000 	.word	0x40021000
 8004d7c:	08009390 	.word	0x08009390
 8004d80:	20000008 	.word	0x20000008
 8004d84:	20000004 	.word	0x20000004

08004d88 <HAL_RCC_GetHCLKFreq>:
}
 8004d88:	4b01      	ldr	r3, [pc, #4]	@ (8004d90 <HAL_RCC_GetHCLKFreq+0x8>)
 8004d8a:	6818      	ldr	r0, [r3, #0]
 8004d8c:	4770      	bx	lr
 8004d8e:	bf00      	nop
 8004d90:	20000008 	.word	0x20000008

08004d94 <HAL_RCC_GetPCLK1Freq>:
{
 8004d94:	b508      	push	{r3, lr}
  return (HAL_RCC_GetHCLKFreq() >> (APBPrescTable[READ_BIT(RCC->CFGR, RCC_CFGR_PPRE1) >> RCC_CFGR_PPRE1_Pos] & 0x1FU));
 8004d96:	f7ff fff7 	bl	8004d88 <HAL_RCC_GetHCLKFreq>
 8004d9a:	4b05      	ldr	r3, [pc, #20]	@ (8004db0 <HAL_RCC_GetPCLK1Freq+0x1c>)
 8004d9c:	689b      	ldr	r3, [r3, #8]
 8004d9e:	f3c3 2302 	ubfx	r3, r3, #8, #3
 8004da2:	4a04      	ldr	r2, [pc, #16]	@ (8004db4 <HAL_RCC_GetPCLK1Freq+0x20>)
 8004da4:	5cd3      	ldrb	r3, [r2, r3]
 8004da6:	f003 031f 	and.w	r3, r3, #31
}
 8004daa:	40d8      	lsrs	r0, r3
 8004dac:	bd08      	pop	{r3, pc}
 8004dae:	bf00      	nop
 8004db0:	40021000 	.word	0x40021000
 8004db4:	08009388 	.word	0x08009388

08004db8 <HAL_RCC_GetPCLK2Freq>:
{
 8004db8:	b508      	push	{r3, lr}
  return (HAL_RCC_GetHCLKFreq()>> (APBPrescTable[READ_BIT(RCC->CFGR, RCC_CFGR_PPRE2) >> RCC_CFGR_PPRE2_Pos] & 0x1FU));
 8004dba:	f7ff ffe5 	bl	8004d88 <HAL_RCC_GetHCLKFreq>
 8004dbe:	4b05      	ldr	r3, [pc, #20]	@ (8004dd4 <HAL_RCC_GetPCLK2Freq+0x1c>)
 8004dc0:	689b      	ldr	r3, [r3, #8]
 8004dc2:	f3c3 23c2 	ubfx	r3, r3, #11, #3
 8004dc6:	4a04      	ldr	r2, [pc, #16]	@ (8004dd8 <HAL_RCC_GetPCLK2Freq+0x20>)
 8004dc8:	5cd3      	ldrb	r3, [r2, r3]
 8004dca:	f003 031f 	and.w	r3, r3, #31
}
 8004dce:	40d8      	lsrs	r0, r3
 8004dd0:	bd08      	pop	{r3, pc}
 8004dd2:	bf00      	nop
 8004dd4:	40021000 	.word	0x40021000
 8004dd8:	08009388 	.word	0x08009388

08004ddc <RCCEx_GetSAIxPeriphCLKFreq>:
#if defined(RCC_PLLP_SUPPORT)
  uint32_t pllp = 0U;
#endif /* RCC_PLLP_SUPPORT */

  /* Handle SAIs */
  if(PeriphClk == RCC_PERIPHCLK_SAI1)
 8004ddc:	f5b0 6f00 	cmp.w	r0, #2048	@ 0x800
 8004de0:	d02b      	beq.n	8004e3a <RCCEx_GetSAIxPeriphCLKFreq+0x5e>
    /* Else, PLL clock output to check below */
  }
#if defined(SAI2)
  else
  {
    if(PeriphClk == RCC_PERIPHCLK_SAI2)
 8004de2:	f5b0 5f80 	cmp.w	r0, #4096	@ 0x1000
 8004de6:	d032      	beq.n	8004e4e <RCCEx_GetSAIxPeriphCLKFreq+0x72>
  uint32_t srcclk = 0U;
 8004de8:	2300      	movs	r3, #0
  if(frequency == 0U)
  {
    pllvco = InputFrequency;

#if defined(SAI2)
    if((srcclk == RCC_SAI1CLKSOURCE_PLL) || (srcclk == RCC_SAI2CLKSOURCE_PLL))
 8004dea:	f5b3 0f00 	cmp.w	r3, #8388608	@ 0x800000
 8004dee:	d038      	beq.n	8004e62 <RCCEx_GetSAIxPeriphCLKFreq+0x86>
 8004df0:	f1b3 7f00 	cmp.w	r3, #33554432	@ 0x2000000
 8004df4:	d035      	beq.n	8004e62 <RCCEx_GetSAIxPeriphCLKFreq+0x86>
          }
        }
        frequency = (pllvco * plln) / pllp;
      }
    }
    else if(srcclk == 0U)  /* RCC_SAI1CLKSOURCE_PLLSAI1 || RCC_SAI2CLKSOURCE_PLLSAI1 */
 8004df6:	2b00      	cmp	r3, #0
 8004df8:	d154      	bne.n	8004ea4 <RCCEx_GetSAIxPeriphCLKFreq+0xc8>
    {
      if(HAL_IS_BIT_SET(RCC->CR, RCC_CR_PLLSAI1RDY) && (__HAL_RCC_GET_PLLSAI1CLKOUT_CONFIG(RCC_PLLSAI1_SAI1CLK) != 0U))
 8004dfa:	f103 4380 	add.w	r3, r3, #1073741824	@ 0x40000000
 8004dfe:	f503 3304 	add.w	r3, r3, #135168	@ 0x21000
 8004e02:	6818      	ldr	r0, [r3, #0]
 8004e04:	f010 6000 	ands.w	r0, r0, #134217728	@ 0x8000000
 8004e08:	d053      	beq.n	8004eb2 <RCCEx_GetSAIxPeriphCLKFreq+0xd6>
 8004e0a:	6918      	ldr	r0, [r3, #16]
 8004e0c:	f410 3080 	ands.w	r0, r0, #65536	@ 0x10000
 8004e10:	d04f      	beq.n	8004eb2 <RCCEx_GetSAIxPeriphCLKFreq+0xd6>
        /* PLLSAI1M exists: apply PLLSAI1M divider for PLLSAI1 output computation */
        /* f(PLLSAI1 Source) / PLLSAI1M */
        pllvco = (pllvco / ((READ_BIT(RCC->PLLSAI1CFGR, RCC_PLLSAI1CFGR_PLLSAI1M) >> RCC_PLLSAI1CFGR_PLLSAI1M_Pos) + 1U));
#else
        /* f(PLL Source) / PLLM */
        pllvco = (pllvco / ((READ_BIT(RCC->PLLCFGR, RCC_PLLCFGR_PLLM) >> RCC_PLLCFGR_PLLM_Pos) + 1U));
 8004e12:	461a      	mov	r2, r3
 8004e14:	68d8      	ldr	r0, [r3, #12]
 8004e16:	f3c0 1002 	ubfx	r0, r0, #4, #3
 8004e1a:	3001      	adds	r0, #1
 8004e1c:	fbb1 f1f0 	udiv	r1, r1, r0
#endif
        /* f(PLLSAI1CLK) = f(VCOSAI1 input) * PLLSAI1N / PLLSAI1P */
        plln = READ_BIT(RCC->PLLSAI1CFGR, RCC_PLLSAI1CFGR_PLLSAI1N) >> RCC_PLLSAI1CFGR_PLLSAI1N_Pos;
 8004e20:	691b      	ldr	r3, [r3, #16]
 8004e22:	f3c3 2306 	ubfx	r3, r3, #8, #7
#if defined(RCC_PLLSAI1P_DIV_2_31_SUPPORT)
        pllp = READ_BIT(RCC->PLLSAI1CFGR, RCC_PLLSAI1CFGR_PLLSAI1PDIV) >> RCC_PLLSAI1CFGR_PLLSAI1PDIV_Pos;
#endif
        if(pllp == 0U)
        {
          if(READ_BIT(RCC->PLLSAI1CFGR, RCC_PLLSAI1CFGR_PLLSAI1P) != 0U)
 8004e26:	6912      	ldr	r2, [r2, #16]
 8004e28:	f412 3f00 	tst.w	r2, #131072	@ 0x20000
 8004e2c:	d038      	beq.n	8004ea0 <RCCEx_GetSAIxPeriphCLKFreq+0xc4>
          {
            pllp = 17U;
 8004e2e:	2211      	movs	r2, #17
          else
          {
            pllp = 7U;
          }
        }
        frequency = (pllvco * plln) / pllp;
 8004e30:	fb03 f001 	mul.w	r0, r3, r1
 8004e34:	fbb0 f0f2 	udiv	r0, r0, r2
 8004e38:	4770      	bx	lr
    srcclk = __HAL_RCC_GET_SAI1_SOURCE();
 8004e3a:	4b2e      	ldr	r3, [pc, #184]	@ (8004ef4 <RCCEx_GetSAIxPeriphCLKFreq+0x118>)
 8004e3c:	f8d3 3088 	ldr.w	r3, [r3, #136]	@ 0x88
 8004e40:	f403 0340 	and.w	r3, r3, #12582912	@ 0xc00000
    if(srcclk == RCC_SAI1CLKSOURCE_PIN)
 8004e44:	f5b3 0f40 	cmp.w	r3, #12582912	@ 0xc00000
 8004e48:	d1cf      	bne.n	8004dea <RCCEx_GetSAIxPeriphCLKFreq+0xe>
      frequency = EXTERNAL_SAI1_CLOCK_VALUE;
 8004e4a:	482b      	ldr	r0, [pc, #172]	@ (8004ef8 <RCCEx_GetSAIxPeriphCLKFreq+0x11c>)
 8004e4c:	4770      	bx	lr
      srcclk = __HAL_RCC_GET_SAI2_SOURCE();
 8004e4e:	4b29      	ldr	r3, [pc, #164]	@ (8004ef4 <RCCEx_GetSAIxPeriphCLKFreq+0x118>)
 8004e50:	f8d3 3088 	ldr.w	r3, [r3, #136]	@ 0x88
 8004e54:	f003 7340 	and.w	r3, r3, #50331648	@ 0x3000000
      if(srcclk == RCC_SAI2CLKSOURCE_PIN)
 8004e58:	f1b3 7f40 	cmp.w	r3, #50331648	@ 0x3000000
 8004e5c:	d1c5      	bne.n	8004dea <RCCEx_GetSAIxPeriphCLKFreq+0xe>
        frequency = EXTERNAL_SAI2_CLOCK_VALUE;
 8004e5e:	4826      	ldr	r0, [pc, #152]	@ (8004ef8 <RCCEx_GetSAIxPeriphCLKFreq+0x11c>)
 8004e60:	4770      	bx	lr
      if(HAL_IS_BIT_SET(RCC->CR, RCC_CR_PLLRDY) && (__HAL_RCC_GET_PLLCLKOUT_CONFIG(RCC_PLL_SAI3CLK) != 0U))
 8004e62:	4b24      	ldr	r3, [pc, #144]	@ (8004ef4 <RCCEx_GetSAIxPeriphCLKFreq+0x118>)
 8004e64:	6818      	ldr	r0, [r3, #0]
 8004e66:	f010 7000 	ands.w	r0, r0, #33554432	@ 0x2000000
 8004e6a:	d022      	beq.n	8004eb2 <RCCEx_GetSAIxPeriphCLKFreq+0xd6>
 8004e6c:	68d8      	ldr	r0, [r3, #12]
 8004e6e:	f410 3080 	ands.w	r0, r0, #65536	@ 0x10000
 8004e72:	d01e      	beq.n	8004eb2 <RCCEx_GetSAIxPeriphCLKFreq+0xd6>
        pllvco = (pllvco / ((READ_BIT(RCC->PLLCFGR, RCC_PLLCFGR_PLLM) >> RCC_PLLCFGR_PLLM_Pos) + 1U));
 8004e74:	461a      	mov	r2, r3
 8004e76:	68d8      	ldr	r0, [r3, #12]
 8004e78:	f3c0 1002 	ubfx	r0, r0, #4, #3
 8004e7c:	3001      	adds	r0, #1
 8004e7e:	fbb1 f1f0 	udiv	r1, r1, r0
        plln = READ_BIT(RCC->PLLCFGR, RCC_PLLCFGR_PLLN) >> RCC_PLLCFGR_PLLN_Pos;
 8004e82:	68db      	ldr	r3, [r3, #12]
 8004e84:	f3c3 2306 	ubfx	r3, r3, #8, #7
          if(READ_BIT(RCC->PLLCFGR, RCC_PLLCFGR_PLLP) != 0U)
 8004e88:	68d2      	ldr	r2, [r2, #12]
 8004e8a:	f412 3f00 	tst.w	r2, #131072	@ 0x20000
 8004e8e:	d005      	beq.n	8004e9c <RCCEx_GetSAIxPeriphCLKFreq+0xc0>
            pllp = 17U;
 8004e90:	2211      	movs	r2, #17
        frequency = (pllvco * plln) / pllp;
 8004e92:	fb03 f001 	mul.w	r0, r3, r1
 8004e96:	fbb0 f0f2 	udiv	r0, r0, r2
 8004e9a:	4770      	bx	lr
            pllp = 7U;
 8004e9c:	2207      	movs	r2, #7
 8004e9e:	e7f8      	b.n	8004e92 <RCCEx_GetSAIxPeriphCLKFreq+0xb6>
            pllp = 7U;
 8004ea0:	2207      	movs	r2, #7
 8004ea2:	e7c5      	b.n	8004e30 <RCCEx_GetSAIxPeriphCLKFreq+0x54>
    }
#endif /* SAI2 */

#if defined(RCC_PLLSAI2_SUPPORT)

    else if((srcclk == RCC_SAI1CLKSOURCE_PLLSAI2) || (srcclk == RCC_SAI2CLKSOURCE_PLLSAI2))
 8004ea4:	f5b3 0f80 	cmp.w	r3, #4194304	@ 0x400000
 8004ea8:	d004      	beq.n	8004eb4 <RCCEx_GetSAIxPeriphCLKFreq+0xd8>
 8004eaa:	f1b3 7f80 	cmp.w	r3, #16777216	@ 0x1000000
 8004eae:	d001      	beq.n	8004eb4 <RCCEx_GetSAIxPeriphCLKFreq+0xd8>
 8004eb0:	2000      	movs	r0, #0
    }
  }


  return frequency;
}
 8004eb2:	4770      	bx	lr
      if(HAL_IS_BIT_SET(RCC->CR, RCC_CR_PLLSAI2RDY) && (__HAL_RCC_GET_PLLSAI2CLKOUT_CONFIG(RCC_PLLSAI2_SAI2CLK) != 0U))
 8004eb4:	4b0f      	ldr	r3, [pc, #60]	@ (8004ef4 <RCCEx_GetSAIxPeriphCLKFreq+0x118>)
 8004eb6:	6818      	ldr	r0, [r3, #0]
 8004eb8:	f010 5000 	ands.w	r0, r0, #536870912	@ 0x20000000
 8004ebc:	d0f9      	beq.n	8004eb2 <RCCEx_GetSAIxPeriphCLKFreq+0xd6>
 8004ebe:	6958      	ldr	r0, [r3, #20]
 8004ec0:	f410 3080 	ands.w	r0, r0, #65536	@ 0x10000
 8004ec4:	d0f5      	beq.n	8004eb2 <RCCEx_GetSAIxPeriphCLKFreq+0xd6>
        pllvco = (pllvco / ((READ_BIT(RCC->PLLCFGR, RCC_PLLCFGR_PLLM) >> RCC_PLLCFGR_PLLM_Pos) + 1U));
 8004ec6:	461a      	mov	r2, r3
 8004ec8:	68d8      	ldr	r0, [r3, #12]
 8004eca:	f3c0 1002 	ubfx	r0, r0, #4, #3
 8004ece:	3001      	adds	r0, #1
 8004ed0:	fbb1 f1f0 	udiv	r1, r1, r0
        plln = READ_BIT(RCC->PLLSAI2CFGR, RCC_PLLSAI2CFGR_PLLSAI2N) >> RCC_PLLSAI2CFGR_PLLSAI2N_Pos;
 8004ed4:	695b      	ldr	r3, [r3, #20]
 8004ed6:	f3c3 2306 	ubfx	r3, r3, #8, #7
          if(READ_BIT(RCC->PLLSAI2CFGR, RCC_PLLSAI2CFGR_PLLSAI2P) != 0U)
 8004eda:	6952      	ldr	r2, [r2, #20]
 8004edc:	f412 3f00 	tst.w	r2, #131072	@ 0x20000
 8004ee0:	d005      	beq.n	8004eee <RCCEx_GetSAIxPeriphCLKFreq+0x112>
            pllp = 17U;
 8004ee2:	2211      	movs	r2, #17
        frequency = (pllvco * plln) / pllp;
 8004ee4:	fb03 f001 	mul.w	r0, r3, r1
 8004ee8:	fbb0 f0f2 	udiv	r0, r0, r2
 8004eec:	4770      	bx	lr
            pllp = 7U;
 8004eee:	2207      	movs	r2, #7
 8004ef0:	e7f8      	b.n	8004ee4 <RCCEx_GetSAIxPeriphCLKFreq+0x108>
 8004ef2:	bf00      	nop
 8004ef4:	40021000 	.word	0x40021000
 8004ef8:	001fff68 	.word	0x001fff68

08004efc <RCCEx_PLLSAI1_Config>:
{
 8004efc:	b5f8      	push	{r3, r4, r5, r6, r7, lr}
 8004efe:	4604      	mov	r4, r0
 8004f00:	460f      	mov	r7, r1
  if(__HAL_RCC_GET_PLL_OSCSOURCE() != RCC_PLLSOURCE_NONE)
 8004f02:	4b5f      	ldr	r3, [pc, #380]	@ (8005080 <RCCEx_PLLSAI1_Config+0x184>)
 8004f04:	68db      	ldr	r3, [r3, #12]
 8004f06:	f013 0f03 	tst.w	r3, #3
 8004f0a:	d01b      	beq.n	8004f44 <RCCEx_PLLSAI1_Config+0x48>
    if((__HAL_RCC_GET_PLL_OSCSOURCE() != PllSai1->PLLSAI1Source)
 8004f0c:	4b5c      	ldr	r3, [pc, #368]	@ (8005080 <RCCEx_PLLSAI1_Config+0x184>)
 8004f0e:	68db      	ldr	r3, [r3, #12]
 8004f10:	f003 0303 	and.w	r3, r3, #3
 8004f14:	6802      	ldr	r2, [r0, #0]
 8004f16:	4293      	cmp	r3, r2
 8004f18:	d003      	beq.n	8004f22 <RCCEx_PLLSAI1_Config+0x26>
      status = HAL_ERROR;
 8004f1a:	2301      	movs	r3, #1
 8004f1c:	461d      	mov	r5, r3
}
 8004f1e:	4628      	mov	r0, r5
 8004f20:	bdf8      	pop	{r3, r4, r5, r6, r7, pc}
       ||
 8004f22:	2a00      	cmp	r2, #0
 8004f24:	f000 80a5 	beq.w	8005072 <RCCEx_PLLSAI1_Config+0x176>
       (((READ_BIT(RCC->PLLCFGR, RCC_PLLCFGR_PLLM) >> RCC_PLLCFGR_PLLM_Pos) + 1U) != PllSai1->PLLSAI1M)
 8004f28:	4b55      	ldr	r3, [pc, #340]	@ (8005080 <RCCEx_PLLSAI1_Config+0x184>)
 8004f2a:	68db      	ldr	r3, [r3, #12]
 8004f2c:	f3c3 1302 	ubfx	r3, r3, #4, #3
 8004f30:	3301      	adds	r3, #1
 8004f32:	6842      	ldr	r2, [r0, #4]
       ||
 8004f34:	4293      	cmp	r3, r2
 8004f36:	d002      	beq.n	8004f3e <RCCEx_PLLSAI1_Config+0x42>
      status = HAL_ERROR;
 8004f38:	2301      	movs	r3, #1
 8004f3a:	461d      	mov	r5, r3
 8004f3c:	e7ef      	b.n	8004f1e <RCCEx_PLLSAI1_Config+0x22>
  HAL_StatusTypeDef status = HAL_OK;
 8004f3e:	2300      	movs	r3, #0
 8004f40:	461d      	mov	r5, r3
 8004f42:	e01a      	b.n	8004f7a <RCCEx_PLLSAI1_Config+0x7e>
    switch(PllSai1->PLLSAI1Source)
 8004f44:	6803      	ldr	r3, [r0, #0]
 8004f46:	2b02      	cmp	r3, #2
 8004f48:	d059      	beq.n	8004ffe <RCCEx_PLLSAI1_Config+0x102>
 8004f4a:	2b03      	cmp	r3, #3
 8004f4c:	d05f      	beq.n	800500e <RCCEx_PLLSAI1_Config+0x112>
 8004f4e:	2b01      	cmp	r3, #1
 8004f50:	f040 8092 	bne.w	8005078 <RCCEx_PLLSAI1_Config+0x17c>
      if(HAL_IS_BIT_CLR(RCC->CR, RCC_CR_MSIRDY))
 8004f54:	4a4a      	ldr	r2, [pc, #296]	@ (8005080 <RCCEx_PLLSAI1_Config+0x184>)
 8004f56:	6812      	ldr	r2, [r2, #0]
 8004f58:	f012 0f02 	tst.w	r2, #2
 8004f5c:	d064      	beq.n	8005028 <RCCEx_PLLSAI1_Config+0x12c>
      MODIFY_REG(RCC->PLLCFGR, RCC_PLLCFGR_PLLSRC | RCC_PLLCFGR_PLLM, PllSai1->PLLSAI1Source | (PllSai1->PLLSAI1M - 1U) << RCC_PLLCFGR_PLLM_Pos);
 8004f5e:	4848      	ldr	r0, [pc, #288]	@ (8005080 <RCCEx_PLLSAI1_Config+0x184>)
 8004f60:	68c2      	ldr	r2, [r0, #12]
 8004f62:	f022 0273 	bic.w	r2, r2, #115	@ 0x73
 8004f66:	6861      	ldr	r1, [r4, #4]
 8004f68:	3901      	subs	r1, #1
 8004f6a:	ea43 1301 	orr.w	r3, r3, r1, lsl #4
 8004f6e:	4313      	orrs	r3, r2
 8004f70:	60c3      	str	r3, [r0, #12]
 8004f72:	2300      	movs	r3, #0
 8004f74:	461d      	mov	r5, r3
  if(status == HAL_OK)
 8004f76:	2d00      	cmp	r5, #0
 8004f78:	d1d1      	bne.n	8004f1e <RCCEx_PLLSAI1_Config+0x22>
    __HAL_RCC_PLLSAI1_DISABLE();
 8004f7a:	4a41      	ldr	r2, [pc, #260]	@ (8005080 <RCCEx_PLLSAI1_Config+0x184>)
 8004f7c:	6813      	ldr	r3, [r2, #0]
 8004f7e:	f023 6380 	bic.w	r3, r3, #67108864	@ 0x4000000
 8004f82:	6013      	str	r3, [r2, #0]
    tickstart = HAL_GetTick();
 8004f84:	f7fe fc44 	bl	8003810 <HAL_GetTick>
 8004f88:	4606      	mov	r6, r0
    while(READ_BIT(RCC->CR, RCC_CR_PLLSAI1RDY) != 0U)
 8004f8a:	4b3d      	ldr	r3, [pc, #244]	@ (8005080 <RCCEx_PLLSAI1_Config+0x184>)
 8004f8c:	681b      	ldr	r3, [r3, #0]
 8004f8e:	f013 6f00 	tst.w	r3, #134217728	@ 0x8000000
 8004f92:	d006      	beq.n	8004fa2 <RCCEx_PLLSAI1_Config+0xa6>
      if((HAL_GetTick() - tickstart) > PLLSAI1_TIMEOUT_VALUE)
 8004f94:	f7fe fc3c 	bl	8003810 <HAL_GetTick>
 8004f98:	1b83      	subs	r3, r0, r6
 8004f9a:	2b02      	cmp	r3, #2
 8004f9c:	d9f5      	bls.n	8004f8a <RCCEx_PLLSAI1_Config+0x8e>
        status = HAL_TIMEOUT;
 8004f9e:	2303      	movs	r3, #3
 8004fa0:	461d      	mov	r5, r3
    if(status == HAL_OK)
 8004fa2:	2d00      	cmp	r5, #0
 8004fa4:	d1bb      	bne.n	8004f1e <RCCEx_PLLSAI1_Config+0x22>
      if(Divider == DIVIDER_P_UPDATE)
 8004fa6:	2f00      	cmp	r7, #0
 8004fa8:	d141      	bne.n	800502e <RCCEx_PLLSAI1_Config+0x132>
        MODIFY_REG(RCC->PLLSAI1CFGR,
 8004faa:	4935      	ldr	r1, [pc, #212]	@ (8005080 <RCCEx_PLLSAI1_Config+0x184>)
 8004fac:	690b      	ldr	r3, [r1, #16]
 8004fae:	f423 331f 	bic.w	r3, r3, #162816	@ 0x27c00
 8004fb2:	f423 7340 	bic.w	r3, r3, #768	@ 0x300
 8004fb6:	68a0      	ldr	r0, [r4, #8]
 8004fb8:	68e2      	ldr	r2, [r4, #12]
 8004fba:	0912      	lsrs	r2, r2, #4
 8004fbc:	0452      	lsls	r2, r2, #17
 8004fbe:	ea42 2200 	orr.w	r2, r2, r0, lsl #8
 8004fc2:	4313      	orrs	r3, r2
 8004fc4:	610b      	str	r3, [r1, #16]
      __HAL_RCC_PLLSAI1_ENABLE();
 8004fc6:	4a2e      	ldr	r2, [pc, #184]	@ (8005080 <RCCEx_PLLSAI1_Config+0x184>)
 8004fc8:	6813      	ldr	r3, [r2, #0]
 8004fca:	f043 6380 	orr.w	r3, r3, #67108864	@ 0x4000000
 8004fce:	6013      	str	r3, [r2, #0]
      tickstart = HAL_GetTick();
 8004fd0:	f7fe fc1e 	bl	8003810 <HAL_GetTick>
 8004fd4:	4606      	mov	r6, r0
      while(READ_BIT(RCC->CR, RCC_CR_PLLSAI1RDY) == 0U)
 8004fd6:	4b2a      	ldr	r3, [pc, #168]	@ (8005080 <RCCEx_PLLSAI1_Config+0x184>)
 8004fd8:	681b      	ldr	r3, [r3, #0]
 8004fda:	f013 6f00 	tst.w	r3, #134217728	@ 0x8000000
 8004fde:	d106      	bne.n	8004fee <RCCEx_PLLSAI1_Config+0xf2>
        if((HAL_GetTick() - tickstart) > PLLSAI1_TIMEOUT_VALUE)
 8004fe0:	f7fe fc16 	bl	8003810 <HAL_GetTick>
 8004fe4:	1b80      	subs	r0, r0, r6
 8004fe6:	2802      	cmp	r0, #2
 8004fe8:	d9f5      	bls.n	8004fd6 <RCCEx_PLLSAI1_Config+0xda>
          status = HAL_TIMEOUT;
 8004fea:	2303      	movs	r3, #3
 8004fec:	461d      	mov	r5, r3
      if(status == HAL_OK)
 8004fee:	2d00      	cmp	r5, #0
 8004ff0:	d195      	bne.n	8004f1e <RCCEx_PLLSAI1_Config+0x22>
        __HAL_RCC_PLLSAI1CLKOUT_ENABLE(PllSai1->PLLSAI1ClockOut);
 8004ff2:	4a23      	ldr	r2, [pc, #140]	@ (8005080 <RCCEx_PLLSAI1_Config+0x184>)
 8004ff4:	6913      	ldr	r3, [r2, #16]
 8004ff6:	69a1      	ldr	r1, [r4, #24]
 8004ff8:	430b      	orrs	r3, r1
 8004ffa:	6113      	str	r3, [r2, #16]
 8004ffc:	e78f      	b.n	8004f1e <RCCEx_PLLSAI1_Config+0x22>
      if(HAL_IS_BIT_CLR(RCC->CR, RCC_CR_HSIRDY))
 8004ffe:	4a20      	ldr	r2, [pc, #128]	@ (8005080 <RCCEx_PLLSAI1_Config+0x184>)
 8005000:	6812      	ldr	r2, [r2, #0]
 8005002:	f412 6f80 	tst.w	r2, #1024	@ 0x400
 8005006:	d1aa      	bne.n	8004f5e <RCCEx_PLLSAI1_Config+0x62>
 8005008:	2301      	movs	r3, #1
 800500a:	461d      	mov	r5, r3
 800500c:	e787      	b.n	8004f1e <RCCEx_PLLSAI1_Config+0x22>
      if(HAL_IS_BIT_CLR(RCC->CR, RCC_CR_HSERDY))
 800500e:	4a1c      	ldr	r2, [pc, #112]	@ (8005080 <RCCEx_PLLSAI1_Config+0x184>)
 8005010:	6812      	ldr	r2, [r2, #0]
 8005012:	f412 3f00 	tst.w	r2, #131072	@ 0x20000
 8005016:	d1a2      	bne.n	8004f5e <RCCEx_PLLSAI1_Config+0x62>
        if(HAL_IS_BIT_CLR(RCC->CR, RCC_CR_HSEBYP))
 8005018:	4a19      	ldr	r2, [pc, #100]	@ (8005080 <RCCEx_PLLSAI1_Config+0x184>)
 800501a:	6812      	ldr	r2, [r2, #0]
 800501c:	f412 2f80 	tst.w	r2, #262144	@ 0x40000
 8005020:	d19d      	bne.n	8004f5e <RCCEx_PLLSAI1_Config+0x62>
 8005022:	2301      	movs	r3, #1
 8005024:	461d      	mov	r5, r3
 8005026:	e77a      	b.n	8004f1e <RCCEx_PLLSAI1_Config+0x22>
        status = HAL_ERROR;
 8005028:	2301      	movs	r3, #1
 800502a:	461d      	mov	r5, r3
 800502c:	e7a3      	b.n	8004f76 <RCCEx_PLLSAI1_Config+0x7a>
      else if(Divider == DIVIDER_Q_UPDATE)
 800502e:	2f01      	cmp	r7, #1
 8005030:	d00f      	beq.n	8005052 <RCCEx_PLLSAI1_Config+0x156>
        MODIFY_REG(RCC->PLLSAI1CFGR,
 8005032:	4813      	ldr	r0, [pc, #76]	@ (8005080 <RCCEx_PLLSAI1_Config+0x184>)
 8005034:	6902      	ldr	r2, [r0, #16]
 8005036:	f022 62c0 	bic.w	r2, r2, #100663296	@ 0x6000000
 800503a:	f422 42fe 	bic.w	r2, r2, #32512	@ 0x7f00
 800503e:	68a1      	ldr	r1, [r4, #8]
 8005040:	6963      	ldr	r3, [r4, #20]
 8005042:	085b      	lsrs	r3, r3, #1
 8005044:	3b01      	subs	r3, #1
 8005046:	065b      	lsls	r3, r3, #25
 8005048:	ea43 2301 	orr.w	r3, r3, r1, lsl #8
 800504c:	431a      	orrs	r2, r3
 800504e:	6102      	str	r2, [r0, #16]
 8005050:	e7b9      	b.n	8004fc6 <RCCEx_PLLSAI1_Config+0xca>
        MODIFY_REG(RCC->PLLSAI1CFGR,
 8005052:	480b      	ldr	r0, [pc, #44]	@ (8005080 <RCCEx_PLLSAI1_Config+0x184>)
 8005054:	6902      	ldr	r2, [r0, #16]
 8005056:	f422 02c0 	bic.w	r2, r2, #6291456	@ 0x600000
 800505a:	f422 42fe 	bic.w	r2, r2, #32512	@ 0x7f00
 800505e:	68a1      	ldr	r1, [r4, #8]
 8005060:	6923      	ldr	r3, [r4, #16]
 8005062:	085b      	lsrs	r3, r3, #1
 8005064:	3b01      	subs	r3, #1
 8005066:	055b      	lsls	r3, r3, #21
 8005068:	ea43 2301 	orr.w	r3, r3, r1, lsl #8
 800506c:	431a      	orrs	r2, r3
 800506e:	6102      	str	r2, [r0, #16]
 8005070:	e7a9      	b.n	8004fc6 <RCCEx_PLLSAI1_Config+0xca>
      status = HAL_ERROR;
 8005072:	2301      	movs	r3, #1
 8005074:	461d      	mov	r5, r3
 8005076:	e752      	b.n	8004f1e <RCCEx_PLLSAI1_Config+0x22>
    switch(PllSai1->PLLSAI1Source)
 8005078:	2301      	movs	r3, #1
 800507a:	461d      	mov	r5, r3
 800507c:	e74f      	b.n	8004f1e <RCCEx_PLLSAI1_Config+0x22>
 800507e:	bf00      	nop
 8005080:	40021000 	.word	0x40021000

08005084 <RCCEx_PLLSAI2_Config>:
{
 8005084:	b5f8      	push	{r3, r4, r5, r6, r7, lr}
 8005086:	4604      	mov	r4, r0
 8005088:	460f      	mov	r7, r1
  if(__HAL_RCC_GET_PLL_OSCSOURCE() != RCC_PLLSOURCE_NONE)
 800508a:	4b55      	ldr	r3, [pc, #340]	@ (80051e0 <RCCEx_PLLSAI2_Config+0x15c>)
 800508c:	68db      	ldr	r3, [r3, #12]
 800508e:	f013 0f03 	tst.w	r3, #3
 8005092:	d01b      	beq.n	80050cc <RCCEx_PLLSAI2_Config+0x48>
    if((__HAL_RCC_GET_PLL_OSCSOURCE() != PllSai2->PLLSAI2Source)
 8005094:	4b52      	ldr	r3, [pc, #328]	@ (80051e0 <RCCEx_PLLSAI2_Config+0x15c>)
 8005096:	68db      	ldr	r3, [r3, #12]
 8005098:	f003 0303 	and.w	r3, r3, #3
 800509c:	6802      	ldr	r2, [r0, #0]
 800509e:	4293      	cmp	r3, r2
 80050a0:	d003      	beq.n	80050aa <RCCEx_PLLSAI2_Config+0x26>
      status = HAL_ERROR;
 80050a2:	2301      	movs	r3, #1
 80050a4:	461d      	mov	r5, r3
}
 80050a6:	4628      	mov	r0, r5
 80050a8:	bdf8      	pop	{r3, r4, r5, r6, r7, pc}
       ||
 80050aa:	2a00      	cmp	r2, #0
 80050ac:	f000 8092 	beq.w	80051d4 <RCCEx_PLLSAI2_Config+0x150>
       (((READ_BIT(RCC->PLLCFGR, RCC_PLLCFGR_PLLM) >> RCC_PLLCFGR_PLLM_Pos) + 1U) != PllSai2->PLLSAI2M)
 80050b0:	4b4b      	ldr	r3, [pc, #300]	@ (80051e0 <RCCEx_PLLSAI2_Config+0x15c>)
 80050b2:	68db      	ldr	r3, [r3, #12]
 80050b4:	f3c3 1302 	ubfx	r3, r3, #4, #3
 80050b8:	3301      	adds	r3, #1
 80050ba:	6842      	ldr	r2, [r0, #4]
       ||
 80050bc:	4293      	cmp	r3, r2
 80050be:	d002      	beq.n	80050c6 <RCCEx_PLLSAI2_Config+0x42>
      status = HAL_ERROR;
 80050c0:	2301      	movs	r3, #1
 80050c2:	461d      	mov	r5, r3
 80050c4:	e7ef      	b.n	80050a6 <RCCEx_PLLSAI2_Config+0x22>
  HAL_StatusTypeDef status = HAL_OK;
 80050c6:	2300      	movs	r3, #0
 80050c8:	461d      	mov	r5, r3
 80050ca:	e019      	b.n	8005100 <RCCEx_PLLSAI2_Config+0x7c>
    switch(PllSai2->PLLSAI2Source)
 80050cc:	6803      	ldr	r3, [r0, #0]
 80050ce:	2b02      	cmp	r3, #2
 80050d0:	d058      	beq.n	8005184 <RCCEx_PLLSAI2_Config+0x100>
 80050d2:	2b03      	cmp	r3, #3
 80050d4:	d05e      	beq.n	8005194 <RCCEx_PLLSAI2_Config+0x110>
 80050d6:	2b01      	cmp	r3, #1
 80050d8:	d17f      	bne.n	80051da <RCCEx_PLLSAI2_Config+0x156>
      if(HAL_IS_BIT_CLR(RCC->CR, RCC_CR_MSIRDY))
 80050da:	4a41      	ldr	r2, [pc, #260]	@ (80051e0 <RCCEx_PLLSAI2_Config+0x15c>)
 80050dc:	6812      	ldr	r2, [r2, #0]
 80050de:	f012 0f02 	tst.w	r2, #2
 80050e2:	d064      	beq.n	80051ae <RCCEx_PLLSAI2_Config+0x12a>
      MODIFY_REG(RCC->PLLCFGR, RCC_PLLCFGR_PLLSRC | RCC_PLLCFGR_PLLM, PllSai2->PLLSAI2Source | (PllSai2->PLLSAI2M - 1U) << RCC_PLLCFGR_PLLM_Pos);
 80050e4:	483e      	ldr	r0, [pc, #248]	@ (80051e0 <RCCEx_PLLSAI2_Config+0x15c>)
 80050e6:	68c2      	ldr	r2, [r0, #12]
 80050e8:	f022 0273 	bic.w	r2, r2, #115	@ 0x73
 80050ec:	6861      	ldr	r1, [r4, #4]
 80050ee:	3901      	subs	r1, #1
 80050f0:	ea43 1301 	orr.w	r3, r3, r1, lsl #4
 80050f4:	4313      	orrs	r3, r2
 80050f6:	60c3      	str	r3, [r0, #12]
 80050f8:	2300      	movs	r3, #0
 80050fa:	461d      	mov	r5, r3
  if(status == HAL_OK)
 80050fc:	2d00      	cmp	r5, #0
 80050fe:	d1d2      	bne.n	80050a6 <RCCEx_PLLSAI2_Config+0x22>
    __HAL_RCC_PLLSAI2_DISABLE();
 8005100:	4a37      	ldr	r2, [pc, #220]	@ (80051e0 <RCCEx_PLLSAI2_Config+0x15c>)
 8005102:	6813      	ldr	r3, [r2, #0]
 8005104:	f023 5380 	bic.w	r3, r3, #268435456	@ 0x10000000
 8005108:	6013      	str	r3, [r2, #0]
    tickstart = HAL_GetTick();
 800510a:	f7fe fb81 	bl	8003810 <HAL_GetTick>
 800510e:	4606      	mov	r6, r0
    while(READ_BIT(RCC->CR, RCC_CR_PLLSAI2RDY) != 0U)
 8005110:	4b33      	ldr	r3, [pc, #204]	@ (80051e0 <RCCEx_PLLSAI2_Config+0x15c>)
 8005112:	681b      	ldr	r3, [r3, #0]
 8005114:	f013 5f00 	tst.w	r3, #536870912	@ 0x20000000
 8005118:	d006      	beq.n	8005128 <RCCEx_PLLSAI2_Config+0xa4>
      if((HAL_GetTick() - tickstart) > PLLSAI2_TIMEOUT_VALUE)
 800511a:	f7fe fb79 	bl	8003810 <HAL_GetTick>
 800511e:	1b83      	subs	r3, r0, r6
 8005120:	2b02      	cmp	r3, #2
 8005122:	d9f5      	bls.n	8005110 <RCCEx_PLLSAI2_Config+0x8c>
        status = HAL_TIMEOUT;
 8005124:	2303      	movs	r3, #3
 8005126:	461d      	mov	r5, r3
    if(status == HAL_OK)
 8005128:	2d00      	cmp	r5, #0
 800512a:	d1bc      	bne.n	80050a6 <RCCEx_PLLSAI2_Config+0x22>
      if(Divider == DIVIDER_P_UPDATE)
 800512c:	2f00      	cmp	r7, #0
 800512e:	d141      	bne.n	80051b4 <RCCEx_PLLSAI2_Config+0x130>
        MODIFY_REG(RCC->PLLSAI2CFGR,
 8005130:	492b      	ldr	r1, [pc, #172]	@ (80051e0 <RCCEx_PLLSAI2_Config+0x15c>)
 8005132:	694b      	ldr	r3, [r1, #20]
 8005134:	f423 331f 	bic.w	r3, r3, #162816	@ 0x27c00
 8005138:	f423 7340 	bic.w	r3, r3, #768	@ 0x300
 800513c:	68a0      	ldr	r0, [r4, #8]
 800513e:	68e2      	ldr	r2, [r4, #12]
 8005140:	0912      	lsrs	r2, r2, #4
 8005142:	0452      	lsls	r2, r2, #17
 8005144:	ea42 2200 	orr.w	r2, r2, r0, lsl #8
 8005148:	4313      	orrs	r3, r2
 800514a:	614b      	str	r3, [r1, #20]
      __HAL_RCC_PLLSAI2_ENABLE();
 800514c:	4a24      	ldr	r2, [pc, #144]	@ (80051e0 <RCCEx_PLLSAI2_Config+0x15c>)
 800514e:	6813      	ldr	r3, [r2, #0]
 8005150:	f043 5380 	orr.w	r3, r3, #268435456	@ 0x10000000
 8005154:	6013      	str	r3, [r2, #0]
      tickstart = HAL_GetTick();
 8005156:	f7fe fb5b 	bl	8003810 <HAL_GetTick>
 800515a:	4606      	mov	r6, r0
      while(READ_BIT(RCC->CR, RCC_CR_PLLSAI2RDY) == 0U)
 800515c:	4b20      	ldr	r3, [pc, #128]	@ (80051e0 <RCCEx_PLLSAI2_Config+0x15c>)
 800515e:	681b      	ldr	r3, [r3, #0]
 8005160:	f013 5f00 	tst.w	r3, #536870912	@ 0x20000000
 8005164:	d106      	bne.n	8005174 <RCCEx_PLLSAI2_Config+0xf0>
        if((HAL_GetTick() - tickstart) > PLLSAI2_TIMEOUT_VALUE)
 8005166:	f7fe fb53 	bl	8003810 <HAL_GetTick>
 800516a:	1b80      	subs	r0, r0, r6
 800516c:	2802      	cmp	r0, #2
 800516e:	d9f5      	bls.n	800515c <RCCEx_PLLSAI2_Config+0xd8>
          status = HAL_TIMEOUT;
 8005170:	2303      	movs	r3, #3
 8005172:	461d      	mov	r5, r3
      if(status == HAL_OK)
 8005174:	2d00      	cmp	r5, #0
 8005176:	d196      	bne.n	80050a6 <RCCEx_PLLSAI2_Config+0x22>
        __HAL_RCC_PLLSAI2CLKOUT_ENABLE(PllSai2->PLLSAI2ClockOut);
 8005178:	4a19      	ldr	r2, [pc, #100]	@ (80051e0 <RCCEx_PLLSAI2_Config+0x15c>)
 800517a:	6953      	ldr	r3, [r2, #20]
 800517c:	6961      	ldr	r1, [r4, #20]
 800517e:	430b      	orrs	r3, r1
 8005180:	6153      	str	r3, [r2, #20]
 8005182:	e790      	b.n	80050a6 <RCCEx_PLLSAI2_Config+0x22>
      if(HAL_IS_BIT_CLR(RCC->CR, RCC_CR_HSIRDY))
 8005184:	4a16      	ldr	r2, [pc, #88]	@ (80051e0 <RCCEx_PLLSAI2_Config+0x15c>)
 8005186:	6812      	ldr	r2, [r2, #0]
 8005188:	f412 6f80 	tst.w	r2, #1024	@ 0x400
 800518c:	d1aa      	bne.n	80050e4 <RCCEx_PLLSAI2_Config+0x60>
 800518e:	2301      	movs	r3, #1
 8005190:	461d      	mov	r5, r3
 8005192:	e788      	b.n	80050a6 <RCCEx_PLLSAI2_Config+0x22>
      if(HAL_IS_BIT_CLR(RCC->CR, RCC_CR_HSERDY))
 8005194:	4a12      	ldr	r2, [pc, #72]	@ (80051e0 <RCCEx_PLLSAI2_Config+0x15c>)
 8005196:	6812      	ldr	r2, [r2, #0]
 8005198:	f412 3f00 	tst.w	r2, #131072	@ 0x20000
 800519c:	d1a2      	bne.n	80050e4 <RCCEx_PLLSAI2_Config+0x60>
        if(HAL_IS_BIT_CLR(RCC->CR, RCC_CR_HSEBYP))
 800519e:	4a10      	ldr	r2, [pc, #64]	@ (80051e0 <RCCEx_PLLSAI2_Config+0x15c>)
 80051a0:	6812      	ldr	r2, [r2, #0]
 80051a2:	f412 2f80 	tst.w	r2, #262144	@ 0x40000
 80051a6:	d19d      	bne.n	80050e4 <RCCEx_PLLSAI2_Config+0x60>
 80051a8:	2301      	movs	r3, #1
 80051aa:	461d      	mov	r5, r3
 80051ac:	e77b      	b.n	80050a6 <RCCEx_PLLSAI2_Config+0x22>
        status = HAL_ERROR;
 80051ae:	2301      	movs	r3, #1
 80051b0:	461d      	mov	r5, r3
 80051b2:	e7a3      	b.n	80050fc <RCCEx_PLLSAI2_Config+0x78>
        MODIFY_REG(RCC->PLLSAI2CFGR,
 80051b4:	480a      	ldr	r0, [pc, #40]	@ (80051e0 <RCCEx_PLLSAI2_Config+0x15c>)
 80051b6:	6942      	ldr	r2, [r0, #20]
 80051b8:	f022 62c0 	bic.w	r2, r2, #100663296	@ 0x6000000
 80051bc:	f422 42fe 	bic.w	r2, r2, #32512	@ 0x7f00
 80051c0:	68a1      	ldr	r1, [r4, #8]
 80051c2:	6923      	ldr	r3, [r4, #16]
 80051c4:	085b      	lsrs	r3, r3, #1
 80051c6:	3b01      	subs	r3, #1
 80051c8:	065b      	lsls	r3, r3, #25
 80051ca:	ea43 2301 	orr.w	r3, r3, r1, lsl #8
 80051ce:	431a      	orrs	r2, r3
 80051d0:	6142      	str	r2, [r0, #20]
 80051d2:	e7bb      	b.n	800514c <RCCEx_PLLSAI2_Config+0xc8>
      status = HAL_ERROR;
 80051d4:	2301      	movs	r3, #1
 80051d6:	461d      	mov	r5, r3
 80051d8:	e765      	b.n	80050a6 <RCCEx_PLLSAI2_Config+0x22>
    switch(PllSai2->PLLSAI2Source)
 80051da:	2301      	movs	r3, #1
 80051dc:	461d      	mov	r5, r3
 80051de:	e762      	b.n	80050a6 <RCCEx_PLLSAI2_Config+0x22>
 80051e0:	40021000 	.word	0x40021000

080051e4 <HAL_RCCEx_PeriphCLKConfig>:
{
 80051e4:	e92d 41f0 	stmdb	sp!, {r4, r5, r6, r7, r8, lr}
 80051e8:	b082      	sub	sp, #8
 80051ea:	4604      	mov	r4, r0
  if((((PeriphClkInit->PeriphClockSelection) & RCC_PERIPHCLK_SAI1) == RCC_PERIPHCLK_SAI1))
 80051ec:	6803      	ldr	r3, [r0, #0]
 80051ee:	f413 6f00 	tst.w	r3, #2048	@ 0x800
 80051f2:	d038      	beq.n	8005266 <HAL_RCCEx_PeriphCLKConfig+0x82>
    switch(PeriphClkInit->Sai1ClockSelection)
 80051f4:	6e43      	ldr	r3, [r0, #100]	@ 0x64
 80051f6:	f5b3 0f00 	cmp.w	r3, #8388608	@ 0x800000
 80051fa:	d018      	beq.n	800522e <HAL_RCCEx_PeriphCLKConfig+0x4a>
 80051fc:	d80d      	bhi.n	800521a <HAL_RCCEx_PeriphCLKConfig+0x36>
 80051fe:	b34b      	cbz	r3, 8005254 <HAL_RCCEx_PeriphCLKConfig+0x70>
 8005200:	f5b3 0f80 	cmp.w	r3, #4194304	@ 0x400000
 8005204:	d105      	bne.n	8005212 <HAL_RCCEx_PeriphCLKConfig+0x2e>
      ret = RCCEx_PLLSAI2_Config(&(PeriphClkInit->PLLSAI2), DIVIDER_P_UPDATE);
 8005206:	2100      	movs	r1, #0
 8005208:	3020      	adds	r0, #32
 800520a:	f7ff ff3b 	bl	8005084 <RCCEx_PLLSAI2_Config>
 800520e:	4606      	mov	r6, r0
      break;
 8005210:	e025      	b.n	800525e <HAL_RCCEx_PeriphCLKConfig+0x7a>
    switch(PeriphClkInit->Sai1ClockSelection)
 8005212:	2301      	movs	r3, #1
 8005214:	461f      	mov	r7, r3
 8005216:	461e      	mov	r6, r3
 8005218:	e028      	b.n	800526c <HAL_RCCEx_PeriphCLKConfig+0x88>
 800521a:	f5b3 0f40 	cmp.w	r3, #12582912	@ 0xc00000
 800521e:	d102      	bne.n	8005226 <HAL_RCCEx_PeriphCLKConfig+0x42>
 8005220:	2300      	movs	r3, #0
 8005222:	461e      	mov	r6, r3
 8005224:	e00a      	b.n	800523c <HAL_RCCEx_PeriphCLKConfig+0x58>
 8005226:	2301      	movs	r3, #1
 8005228:	461f      	mov	r7, r3
 800522a:	461e      	mov	r6, r3
 800522c:	e01e      	b.n	800526c <HAL_RCCEx_PeriphCLKConfig+0x88>
      __HAL_RCC_PLLCLKOUT_ENABLE(RCC_PLL_SAI3CLK);
 800522e:	4a64      	ldr	r2, [pc, #400]	@ (80053c0 <HAL_RCCEx_PeriphCLKConfig+0x1dc>)
 8005230:	68d3      	ldr	r3, [r2, #12]
 8005232:	f443 3380 	orr.w	r3, r3, #65536	@ 0x10000
 8005236:	60d3      	str	r3, [r2, #12]
  HAL_StatusTypeDef ret = HAL_OK;      /* Intermediate status */
 8005238:	2300      	movs	r3, #0
 800523a:	461e      	mov	r6, r3
      __HAL_RCC_SAI1_CONFIG(PeriphClkInit->Sai1ClockSelection);
 800523c:	4a60      	ldr	r2, [pc, #384]	@ (80053c0 <HAL_RCCEx_PeriphCLKConfig+0x1dc>)
 800523e:	f8d2 3088 	ldr.w	r3, [r2, #136]	@ 0x88
 8005242:	f423 0340 	bic.w	r3, r3, #12582912	@ 0xc00000
 8005246:	6e61      	ldr	r1, [r4, #100]	@ 0x64
 8005248:	430b      	orrs	r3, r1
 800524a:	f8c2 3088 	str.w	r3, [r2, #136]	@ 0x88
  HAL_StatusTypeDef status = HAL_OK;   /* Final status */
 800524e:	2300      	movs	r3, #0
 8005250:	461f      	mov	r7, r3
 8005252:	e00b      	b.n	800526c <HAL_RCCEx_PeriphCLKConfig+0x88>
      ret = RCCEx_PLLSAI1_Config(&(PeriphClkInit->PLLSAI1), DIVIDER_P_UPDATE);
 8005254:	4619      	mov	r1, r3
 8005256:	3004      	adds	r0, #4
 8005258:	f7ff fe50 	bl	8004efc <RCCEx_PLLSAI1_Config>
 800525c:	4606      	mov	r6, r0
    if(ret == HAL_OK)
 800525e:	2e00      	cmp	r6, #0
 8005260:	d0ec      	beq.n	800523c <HAL_RCCEx_PeriphCLKConfig+0x58>
      status = ret;
 8005262:	4637      	mov	r7, r6
 8005264:	e002      	b.n	800526c <HAL_RCCEx_PeriphCLKConfig+0x88>
  HAL_StatusTypeDef status = HAL_OK;   /* Final status */
 8005266:	2300      	movs	r3, #0
 8005268:	461f      	mov	r7, r3
  HAL_StatusTypeDef ret = HAL_OK;      /* Intermediate status */
 800526a:	461e      	mov	r6, r3
  if((((PeriphClkInit->PeriphClockSelection) & RCC_PERIPHCLK_SAI2) == RCC_PERIPHCLK_SAI2))
 800526c:	6823      	ldr	r3, [r4, #0]
 800526e:	f413 5f80 	tst.w	r3, #4096	@ 0x1000
 8005272:	d032      	beq.n	80052da <HAL_RCCEx_PeriphCLKConfig+0xf6>
    switch(PeriphClkInit->Sai2ClockSelection)
 8005274:	6ea3      	ldr	r3, [r4, #104]	@ 0x68
 8005276:	f1b3 7f00 	cmp.w	r3, #33554432	@ 0x2000000
 800527a:	d021      	beq.n	80052c0 <HAL_RCCEx_PeriphCLKConfig+0xdc>
 800527c:	d80e      	bhi.n	800529c <HAL_RCCEx_PeriphCLKConfig+0xb8>
 800527e:	b32b      	cbz	r3, 80052cc <HAL_RCCEx_PeriphCLKConfig+0xe8>
 8005280:	f1b3 7f80 	cmp.w	r3, #16777216	@ 0x1000000
 8005284:	d106      	bne.n	8005294 <HAL_RCCEx_PeriphCLKConfig+0xb0>
      ret = RCCEx_PLLSAI2_Config(&(PeriphClkInit->PLLSAI2), DIVIDER_P_UPDATE);
 8005286:	2100      	movs	r1, #0
 8005288:	f104 0020 	add.w	r0, r4, #32
 800528c:	f7ff fefa 	bl	8005084 <RCCEx_PLLSAI2_Config>
 8005290:	4606      	mov	r6, r0
      break;
 8005292:	e006      	b.n	80052a2 <HAL_RCCEx_PeriphCLKConfig+0xbe>
    switch(PeriphClkInit->Sai2ClockSelection)
 8005294:	2301      	movs	r3, #1
 8005296:	461f      	mov	r7, r3
 8005298:	461e      	mov	r6, r3
 800529a:	e01e      	b.n	80052da <HAL_RCCEx_PeriphCLKConfig+0xf6>
 800529c:	f1b3 7f40 	cmp.w	r3, #50331648	@ 0x3000000
 80052a0:	d10a      	bne.n	80052b8 <HAL_RCCEx_PeriphCLKConfig+0xd4>
    if(ret == HAL_OK)
 80052a2:	b9ce      	cbnz	r6, 80052d8 <HAL_RCCEx_PeriphCLKConfig+0xf4>
      __HAL_RCC_SAI2_CONFIG(PeriphClkInit->Sai2ClockSelection);
 80052a4:	4a46      	ldr	r2, [pc, #280]	@ (80053c0 <HAL_RCCEx_PeriphCLKConfig+0x1dc>)
 80052a6:	f8d2 3088 	ldr.w	r3, [r2, #136]	@ 0x88
 80052aa:	f023 7340 	bic.w	r3, r3, #50331648	@ 0x3000000
 80052ae:	6ea1      	ldr	r1, [r4, #104]	@ 0x68
 80052b0:	430b      	orrs	r3, r1
 80052b2:	f8c2 3088 	str.w	r3, [r2, #136]	@ 0x88
 80052b6:	e010      	b.n	80052da <HAL_RCCEx_PeriphCLKConfig+0xf6>
    switch(PeriphClkInit->Sai2ClockSelection)
 80052b8:	2301      	movs	r3, #1
 80052ba:	461f      	mov	r7, r3
 80052bc:	461e      	mov	r6, r3
 80052be:	e00c      	b.n	80052da <HAL_RCCEx_PeriphCLKConfig+0xf6>
      __HAL_RCC_PLLCLKOUT_ENABLE(RCC_PLL_SAI3CLK);
 80052c0:	4a3f      	ldr	r2, [pc, #252]	@ (80053c0 <HAL_RCCEx_PeriphCLKConfig+0x1dc>)
 80052c2:	68d3      	ldr	r3, [r2, #12]
 80052c4:	f443 3380 	orr.w	r3, r3, #65536	@ 0x10000
 80052c8:	60d3      	str	r3, [r2, #12]
      break;
 80052ca:	e7ea      	b.n	80052a2 <HAL_RCCEx_PeriphCLKConfig+0xbe>
      ret = RCCEx_PLLSAI1_Config(&(PeriphClkInit->PLLSAI1), DIVIDER_P_UPDATE);
 80052cc:	4619      	mov	r1, r3
 80052ce:	1d20      	adds	r0, r4, #4
 80052d0:	f7ff fe14 	bl	8004efc <RCCEx_PLLSAI1_Config>
 80052d4:	4606      	mov	r6, r0
      break;
 80052d6:	e7e4      	b.n	80052a2 <HAL_RCCEx_PeriphCLKConfig+0xbe>
      status = ret;
 80052d8:	4637      	mov	r7, r6
  if((PeriphClkInit->PeriphClockSelection & RCC_PERIPHCLK_RTC) == RCC_PERIPHCLK_RTC)
 80052da:	6823      	ldr	r3, [r4, #0]
 80052dc:	f413 3f00 	tst.w	r3, #131072	@ 0x20000
 80052e0:	d077      	beq.n	80053d2 <HAL_RCCEx_PeriphCLKConfig+0x1ee>
    if(__HAL_RCC_PWR_IS_CLK_DISABLED() != 0U)
 80052e2:	4b37      	ldr	r3, [pc, #220]	@ (80053c0 <HAL_RCCEx_PeriphCLKConfig+0x1dc>)
 80052e4:	6d9b      	ldr	r3, [r3, #88]	@ 0x58
 80052e6:	f013 5f80 	tst.w	r3, #268435456	@ 0x10000000
 80052ea:	d152      	bne.n	8005392 <HAL_RCCEx_PeriphCLKConfig+0x1ae>
      __HAL_RCC_PWR_CLK_ENABLE();
 80052ec:	4b34      	ldr	r3, [pc, #208]	@ (80053c0 <HAL_RCCEx_PeriphCLKConfig+0x1dc>)
 80052ee:	6d9a      	ldr	r2, [r3, #88]	@ 0x58
 80052f0:	f042 5280 	orr.w	r2, r2, #268435456	@ 0x10000000
 80052f4:	659a      	str	r2, [r3, #88]	@ 0x58
 80052f6:	6d9b      	ldr	r3, [r3, #88]	@ 0x58
 80052f8:	f003 5380 	and.w	r3, r3, #268435456	@ 0x10000000
 80052fc:	9301      	str	r3, [sp, #4]
 80052fe:	9b01      	ldr	r3, [sp, #4]
      pwrclkchanged = SET;
 8005300:	2301      	movs	r3, #1
 8005302:	4698      	mov	r8, r3
    SET_BIT(PWR->CR1, PWR_CR1_DBP);
 8005304:	4a2f      	ldr	r2, [pc, #188]	@ (80053c4 <HAL_RCCEx_PeriphCLKConfig+0x1e0>)
 8005306:	6813      	ldr	r3, [r2, #0]
 8005308:	f443 7380 	orr.w	r3, r3, #256	@ 0x100
 800530c:	6013      	str	r3, [r2, #0]
    tickstart = HAL_GetTick();
 800530e:	f7fe fa7f 	bl	8003810 <HAL_GetTick>
 8005312:	4605      	mov	r5, r0
    while(READ_BIT(PWR->CR1, PWR_CR1_DBP) == 0U)
 8005314:	4b2b      	ldr	r3, [pc, #172]	@ (80053c4 <HAL_RCCEx_PeriphCLKConfig+0x1e0>)
 8005316:	681b      	ldr	r3, [r3, #0]
 8005318:	f413 7f80 	tst.w	r3, #256	@ 0x100
 800531c:	d106      	bne.n	800532c <HAL_RCCEx_PeriphCLKConfig+0x148>
      if((HAL_GetTick() - tickstart) > RCC_DBP_TIMEOUT_VALUE)
 800531e:	f7fe fa77 	bl	8003810 <HAL_GetTick>
 8005322:	1b40      	subs	r0, r0, r5
 8005324:	2802      	cmp	r0, #2
 8005326:	d9f5      	bls.n	8005314 <HAL_RCCEx_PeriphCLKConfig+0x130>
        ret = HAL_TIMEOUT;
 8005328:	2303      	movs	r3, #3
 800532a:	461e      	mov	r6, r3
    if(ret == HAL_OK)
 800532c:	2e00      	cmp	r6, #0
 800532e:	d14b      	bne.n	80053c8 <HAL_RCCEx_PeriphCLKConfig+0x1e4>
      tmpregister = READ_BIT(RCC->BDCR, RCC_BDCR_RTCSEL);
 8005330:	f106 4380 	add.w	r3, r6, #1073741824	@ 0x40000000
 8005334:	f503 3304 	add.w	r3, r3, #135168	@ 0x21000
 8005338:	f8d3 3090 	ldr.w	r3, [r3, #144]	@ 0x90
      if((tmpregister != RCC_RTCCLKSOURCE_NONE) && (tmpregister != PeriphClkInit->RTCClockSelection))
 800533c:	f413 7340 	ands.w	r3, r3, #768	@ 0x300
 8005340:	d019      	beq.n	8005376 <HAL_RCCEx_PeriphCLKConfig+0x192>
 8005342:	f8d4 2084 	ldr.w	r2, [r4, #132]	@ 0x84
 8005346:	429a      	cmp	r2, r3
 8005348:	d012      	beq.n	8005370 <HAL_RCCEx_PeriphCLKConfig+0x18c>
        tmpregister = READ_BIT(RCC->BDCR, ~(RCC_BDCR_RTCSEL));
 800534a:	4a1d      	ldr	r2, [pc, #116]	@ (80053c0 <HAL_RCCEx_PeriphCLKConfig+0x1dc>)
 800534c:	f8d2 3090 	ldr.w	r3, [r2, #144]	@ 0x90
 8005350:	f423 7340 	bic.w	r3, r3, #768	@ 0x300
        __HAL_RCC_BACKUPRESET_FORCE();
 8005354:	f8d2 1090 	ldr.w	r1, [r2, #144]	@ 0x90
 8005358:	f441 3180 	orr.w	r1, r1, #65536	@ 0x10000
 800535c:	f8c2 1090 	str.w	r1, [r2, #144]	@ 0x90
        __HAL_RCC_BACKUPRESET_RELEASE();
 8005360:	f8d2 1090 	ldr.w	r1, [r2, #144]	@ 0x90
 8005364:	f421 3180 	bic.w	r1, r1, #65536	@ 0x10000
 8005368:	f8c2 1090 	str.w	r1, [r2, #144]	@ 0x90
        RCC->BDCR = tmpregister;
 800536c:	f8c2 3090 	str.w	r3, [r2, #144]	@ 0x90
      if (HAL_IS_BIT_SET(tmpregister, RCC_BDCR_LSEON))
 8005370:	f013 0f01 	tst.w	r3, #1
 8005374:	d110      	bne.n	8005398 <HAL_RCCEx_PeriphCLKConfig+0x1b4>
      if(ret == HAL_OK)
 8005376:	2e00      	cmp	r6, #0
 8005378:	f040 8129 	bne.w	80055ce <HAL_RCCEx_PeriphCLKConfig+0x3ea>
        __HAL_RCC_RTC_CONFIG(PeriphClkInit->RTCClockSelection);
 800537c:	4a10      	ldr	r2, [pc, #64]	@ (80053c0 <HAL_RCCEx_PeriphCLKConfig+0x1dc>)
 800537e:	f8d2 3090 	ldr.w	r3, [r2, #144]	@ 0x90
 8005382:	f423 7340 	bic.w	r3, r3, #768	@ 0x300
 8005386:	f8d4 1084 	ldr.w	r1, [r4, #132]	@ 0x84
 800538a:	430b      	orrs	r3, r1
 800538c:	f8c2 3090 	str.w	r3, [r2, #144]	@ 0x90
 8005390:	e01b      	b.n	80053ca <HAL_RCCEx_PeriphCLKConfig+0x1e6>
    FlagStatus       pwrclkchanged = RESET;
 8005392:	2300      	movs	r3, #0
 8005394:	4698      	mov	r8, r3
 8005396:	e7b5      	b.n	8005304 <HAL_RCCEx_PeriphCLKConfig+0x120>
        tickstart = HAL_GetTick();
 8005398:	f7fe fa3a 	bl	8003810 <HAL_GetTick>
 800539c:	4605      	mov	r5, r0
        while(READ_BIT(RCC->BDCR, RCC_BDCR_LSERDY) == 0U)
 800539e:	4b08      	ldr	r3, [pc, #32]	@ (80053c0 <HAL_RCCEx_PeriphCLKConfig+0x1dc>)
 80053a0:	f8d3 3090 	ldr.w	r3, [r3, #144]	@ 0x90
 80053a4:	f013 0f02 	tst.w	r3, #2
 80053a8:	d1e5      	bne.n	8005376 <HAL_RCCEx_PeriphCLKConfig+0x192>
          if((HAL_GetTick() - tickstart) > RCC_LSE_TIMEOUT_VALUE)
 80053aa:	f7fe fa31 	bl	8003810 <HAL_GetTick>
 80053ae:	1b40      	subs	r0, r0, r5
 80053b0:	f241 3388 	movw	r3, #5000	@ 0x1388
 80053b4:	4298      	cmp	r0, r3
 80053b6:	d9f2      	bls.n	800539e <HAL_RCCEx_PeriphCLKConfig+0x1ba>
            ret = HAL_TIMEOUT;
 80053b8:	2303      	movs	r3, #3
 80053ba:	461e      	mov	r6, r3
 80053bc:	e7db      	b.n	8005376 <HAL_RCCEx_PeriphCLKConfig+0x192>
 80053be:	bf00      	nop
 80053c0:	40021000 	.word	0x40021000
 80053c4:	40007000 	.word	0x40007000
      status = ret;
 80053c8:	4637      	mov	r7, r6
    if(pwrclkchanged == SET)
 80053ca:	4643      	mov	r3, r8
 80053cc:	2b00      	cmp	r3, #0
 80053ce:	f040 8100 	bne.w	80055d2 <HAL_RCCEx_PeriphCLKConfig+0x3ee>
  if(((PeriphClkInit->PeriphClockSelection) & RCC_PERIPHCLK_USART1) == RCC_PERIPHCLK_USART1)
 80053d2:	6823      	ldr	r3, [r4, #0]
 80053d4:	f013 0f01 	tst.w	r3, #1
 80053d8:	d008      	beq.n	80053ec <HAL_RCCEx_PeriphCLKConfig+0x208>
    __HAL_RCC_USART1_CONFIG(PeriphClkInit->Usart1ClockSelection);
 80053da:	4a9d      	ldr	r2, [pc, #628]	@ (8005650 <HAL_RCCEx_PeriphCLKConfig+0x46c>)
 80053dc:	f8d2 3088 	ldr.w	r3, [r2, #136]	@ 0x88
 80053e0:	f023 0303 	bic.w	r3, r3, #3
 80053e4:	6ba1      	ldr	r1, [r4, #56]	@ 0x38
 80053e6:	430b      	orrs	r3, r1
 80053e8:	f8c2 3088 	str.w	r3, [r2, #136]	@ 0x88
  if(((PeriphClkInit->PeriphClockSelection) & RCC_PERIPHCLK_USART2) == RCC_PERIPHCLK_USART2)
 80053ec:	6823      	ldr	r3, [r4, #0]
 80053ee:	f013 0f02 	tst.w	r3, #2
 80053f2:	d008      	beq.n	8005406 <HAL_RCCEx_PeriphCLKConfig+0x222>
    __HAL_RCC_USART2_CONFIG(PeriphClkInit->Usart2ClockSelection);
 80053f4:	4a96      	ldr	r2, [pc, #600]	@ (8005650 <HAL_RCCEx_PeriphCLKConfig+0x46c>)
 80053f6:	f8d2 3088 	ldr.w	r3, [r2, #136]	@ 0x88
 80053fa:	f023 030c 	bic.w	r3, r3, #12
 80053fe:	6be1      	ldr	r1, [r4, #60]	@ 0x3c
 8005400:	430b      	orrs	r3, r1
 8005402:	f8c2 3088 	str.w	r3, [r2, #136]	@ 0x88
  if(((PeriphClkInit->PeriphClockSelection) & RCC_PERIPHCLK_USART3) == RCC_PERIPHCLK_USART3)
 8005406:	6823      	ldr	r3, [r4, #0]
 8005408:	f013 0f04 	tst.w	r3, #4
 800540c:	d008      	beq.n	8005420 <HAL_RCCEx_PeriphCLKConfig+0x23c>
    __HAL_RCC_USART3_CONFIG(PeriphClkInit->Usart3ClockSelection);
 800540e:	4a90      	ldr	r2, [pc, #576]	@ (8005650 <HAL_RCCEx_PeriphCLKConfig+0x46c>)
 8005410:	f8d2 3088 	ldr.w	r3, [r2, #136]	@ 0x88
 8005414:	f023 0330 	bic.w	r3, r3, #48	@ 0x30
 8005418:	6c21      	ldr	r1, [r4, #64]	@ 0x40
 800541a:	430b      	orrs	r3, r1
 800541c:	f8c2 3088 	str.w	r3, [r2, #136]	@ 0x88
  if(((PeriphClkInit->PeriphClockSelection) & RCC_PERIPHCLK_UART4) == RCC_PERIPHCLK_UART4)
 8005420:	6823      	ldr	r3, [r4, #0]
 8005422:	f013 0f08 	tst.w	r3, #8
 8005426:	d008      	beq.n	800543a <HAL_RCCEx_PeriphCLKConfig+0x256>
    __HAL_RCC_UART4_CONFIG(PeriphClkInit->Uart4ClockSelection);
 8005428:	4a89      	ldr	r2, [pc, #548]	@ (8005650 <HAL_RCCEx_PeriphCLKConfig+0x46c>)
 800542a:	f8d2 3088 	ldr.w	r3, [r2, #136]	@ 0x88
 800542e:	f023 03c0 	bic.w	r3, r3, #192	@ 0xc0
 8005432:	6c61      	ldr	r1, [r4, #68]	@ 0x44
 8005434:	430b      	orrs	r3, r1
 8005436:	f8c2 3088 	str.w	r3, [r2, #136]	@ 0x88
  if(((PeriphClkInit->PeriphClockSelection) & RCC_PERIPHCLK_UART5) == RCC_PERIPHCLK_UART5)
 800543a:	6823      	ldr	r3, [r4, #0]
 800543c:	f013 0f10 	tst.w	r3, #16
 8005440:	d008      	beq.n	8005454 <HAL_RCCEx_PeriphCLKConfig+0x270>
    __HAL_RCC_UART5_CONFIG(PeriphClkInit->Uart5ClockSelection);
 8005442:	4a83      	ldr	r2, [pc, #524]	@ (8005650 <HAL_RCCEx_PeriphCLKConfig+0x46c>)
 8005444:	f8d2 3088 	ldr.w	r3, [r2, #136]	@ 0x88
 8005448:	f423 7340 	bic.w	r3, r3, #768	@ 0x300
 800544c:	6ca1      	ldr	r1, [r4, #72]	@ 0x48
 800544e:	430b      	orrs	r3, r1
 8005450:	f8c2 3088 	str.w	r3, [r2, #136]	@ 0x88
  if(((PeriphClkInit->PeriphClockSelection) & RCC_PERIPHCLK_LPUART1) == RCC_PERIPHCLK_LPUART1)
 8005454:	6823      	ldr	r3, [r4, #0]
 8005456:	f013 0f20 	tst.w	r3, #32
 800545a:	d008      	beq.n	800546e <HAL_RCCEx_PeriphCLKConfig+0x28a>
    __HAL_RCC_LPUART1_CONFIG(PeriphClkInit->Lpuart1ClockSelection);
 800545c:	4a7c      	ldr	r2, [pc, #496]	@ (8005650 <HAL_RCCEx_PeriphCLKConfig+0x46c>)
 800545e:	f8d2 3088 	ldr.w	r3, [r2, #136]	@ 0x88
 8005462:	f423 6340 	bic.w	r3, r3, #3072	@ 0xc00
 8005466:	6ce1      	ldr	r1, [r4, #76]	@ 0x4c
 8005468:	430b      	orrs	r3, r1
 800546a:	f8c2 3088 	str.w	r3, [r2, #136]	@ 0x88
  if(((PeriphClkInit->PeriphClockSelection) & RCC_PERIPHCLK_LPTIM1) == (RCC_PERIPHCLK_LPTIM1))
 800546e:	6823      	ldr	r3, [r4, #0]
 8005470:	f413 7f00 	tst.w	r3, #512	@ 0x200
 8005474:	d008      	beq.n	8005488 <HAL_RCCEx_PeriphCLKConfig+0x2a4>
    __HAL_RCC_LPTIM1_CONFIG(PeriphClkInit->Lptim1ClockSelection);
 8005476:	4a76      	ldr	r2, [pc, #472]	@ (8005650 <HAL_RCCEx_PeriphCLKConfig+0x46c>)
 8005478:	f8d2 3088 	ldr.w	r3, [r2, #136]	@ 0x88
 800547c:	f423 2340 	bic.w	r3, r3, #786432	@ 0xc0000
 8005480:	6de1      	ldr	r1, [r4, #92]	@ 0x5c
 8005482:	430b      	orrs	r3, r1
 8005484:	f8c2 3088 	str.w	r3, [r2, #136]	@ 0x88
  if(((PeriphClkInit->PeriphClockSelection) & RCC_PERIPHCLK_LPTIM2) == (RCC_PERIPHCLK_LPTIM2))
 8005488:	6823      	ldr	r3, [r4, #0]
 800548a:	f413 6f80 	tst.w	r3, #1024	@ 0x400
 800548e:	d008      	beq.n	80054a2 <HAL_RCCEx_PeriphCLKConfig+0x2be>
    __HAL_RCC_LPTIM2_CONFIG(PeriphClkInit->Lptim2ClockSelection);
 8005490:	4a6f      	ldr	r2, [pc, #444]	@ (8005650 <HAL_RCCEx_PeriphCLKConfig+0x46c>)
 8005492:	f8d2 3088 	ldr.w	r3, [r2, #136]	@ 0x88
 8005496:	f423 1340 	bic.w	r3, r3, #3145728	@ 0x300000
 800549a:	6e21      	ldr	r1, [r4, #96]	@ 0x60
 800549c:	430b      	orrs	r3, r1
 800549e:	f8c2 3088 	str.w	r3, [r2, #136]	@ 0x88
  if(((PeriphClkInit->PeriphClockSelection) & RCC_PERIPHCLK_I2C1) == RCC_PERIPHCLK_I2C1)
 80054a2:	6823      	ldr	r3, [r4, #0]
 80054a4:	f013 0f40 	tst.w	r3, #64	@ 0x40
 80054a8:	d008      	beq.n	80054bc <HAL_RCCEx_PeriphCLKConfig+0x2d8>
    __HAL_RCC_I2C1_CONFIG(PeriphClkInit->I2c1ClockSelection);
 80054aa:	4a69      	ldr	r2, [pc, #420]	@ (8005650 <HAL_RCCEx_PeriphCLKConfig+0x46c>)
 80054ac:	f8d2 3088 	ldr.w	r3, [r2, #136]	@ 0x88
 80054b0:	f423 5340 	bic.w	r3, r3, #12288	@ 0x3000
 80054b4:	6d21      	ldr	r1, [r4, #80]	@ 0x50
 80054b6:	430b      	orrs	r3, r1
 80054b8:	f8c2 3088 	str.w	r3, [r2, #136]	@ 0x88
  if(((PeriphClkInit->PeriphClockSelection) & RCC_PERIPHCLK_I2C2) == RCC_PERIPHCLK_I2C2)
 80054bc:	6823      	ldr	r3, [r4, #0]
 80054be:	f013 0f80 	tst.w	r3, #128	@ 0x80
 80054c2:	d008      	beq.n	80054d6 <HAL_RCCEx_PeriphCLKConfig+0x2f2>
    __HAL_RCC_I2C2_CONFIG(PeriphClkInit->I2c2ClockSelection);
 80054c4:	4a62      	ldr	r2, [pc, #392]	@ (8005650 <HAL_RCCEx_PeriphCLKConfig+0x46c>)
 80054c6:	f8d2 3088 	ldr.w	r3, [r2, #136]	@ 0x88
 80054ca:	f423 4340 	bic.w	r3, r3, #49152	@ 0xc000
 80054ce:	6d61      	ldr	r1, [r4, #84]	@ 0x54
 80054d0:	430b      	orrs	r3, r1
 80054d2:	f8c2 3088 	str.w	r3, [r2, #136]	@ 0x88
  if(((PeriphClkInit->PeriphClockSelection) & RCC_PERIPHCLK_I2C3) == RCC_PERIPHCLK_I2C3)
 80054d6:	6823      	ldr	r3, [r4, #0]
 80054d8:	f413 7f80 	tst.w	r3, #256	@ 0x100
 80054dc:	d008      	beq.n	80054f0 <HAL_RCCEx_PeriphCLKConfig+0x30c>
    __HAL_RCC_I2C3_CONFIG(PeriphClkInit->I2c3ClockSelection);
 80054de:	4a5c      	ldr	r2, [pc, #368]	@ (8005650 <HAL_RCCEx_PeriphCLKConfig+0x46c>)
 80054e0:	f8d2 3088 	ldr.w	r3, [r2, #136]	@ 0x88
 80054e4:	f423 3340 	bic.w	r3, r3, #196608	@ 0x30000
 80054e8:	6da1      	ldr	r1, [r4, #88]	@ 0x58
 80054ea:	430b      	orrs	r3, r1
 80054ec:	f8c2 3088 	str.w	r3, [r2, #136]	@ 0x88
  if(((PeriphClkInit->PeriphClockSelection) & RCC_PERIPHCLK_USB) == (RCC_PERIPHCLK_USB))
 80054f0:	6823      	ldr	r3, [r4, #0]
 80054f2:	f413 5f00 	tst.w	r3, #8192	@ 0x2000
 80054f6:	d00f      	beq.n	8005518 <HAL_RCCEx_PeriphCLKConfig+0x334>
    __HAL_RCC_USB_CONFIG(PeriphClkInit->UsbClockSelection);
 80054f8:	4a55      	ldr	r2, [pc, #340]	@ (8005650 <HAL_RCCEx_PeriphCLKConfig+0x46c>)
 80054fa:	f8d2 3088 	ldr.w	r3, [r2, #136]	@ 0x88
 80054fe:	f023 6340 	bic.w	r3, r3, #201326592	@ 0xc000000
 8005502:	6ee1      	ldr	r1, [r4, #108]	@ 0x6c
 8005504:	430b      	orrs	r3, r1
 8005506:	f8c2 3088 	str.w	r3, [r2, #136]	@ 0x88
    if(PeriphClkInit->UsbClockSelection == RCC_USBCLKSOURCE_PLL)
 800550a:	6ee3      	ldr	r3, [r4, #108]	@ 0x6c
 800550c:	f1b3 6f00 	cmp.w	r3, #134217728	@ 0x8000000
 8005510:	d065      	beq.n	80055de <HAL_RCCEx_PeriphCLKConfig+0x3fa>
      if(PeriphClkInit->UsbClockSelection == RCC_USBCLKSOURCE_PLLSAI1)
 8005512:	f1b3 6f80 	cmp.w	r3, #67108864	@ 0x4000000
 8005516:	d067      	beq.n	80055e8 <HAL_RCCEx_PeriphCLKConfig+0x404>
  if(((PeriphClkInit->PeriphClockSelection) & RCC_PERIPHCLK_SDMMC1) == (RCC_PERIPHCLK_SDMMC1))
 8005518:	6823      	ldr	r3, [r4, #0]
 800551a:	f413 2f00 	tst.w	r3, #524288	@ 0x80000
 800551e:	d00f      	beq.n	8005540 <HAL_RCCEx_PeriphCLKConfig+0x35c>
    __HAL_RCC_SDMMC1_CONFIG(PeriphClkInit->Sdmmc1ClockSelection);
 8005520:	4a4b      	ldr	r2, [pc, #300]	@ (8005650 <HAL_RCCEx_PeriphCLKConfig+0x46c>)
 8005522:	f8d2 3088 	ldr.w	r3, [r2, #136]	@ 0x88
 8005526:	f023 6340 	bic.w	r3, r3, #201326592	@ 0xc000000
 800552a:	6f21      	ldr	r1, [r4, #112]	@ 0x70
 800552c:	430b      	orrs	r3, r1
 800552e:	f8c2 3088 	str.w	r3, [r2, #136]	@ 0x88
    if(PeriphClkInit->Sdmmc1ClockSelection == RCC_SDMMC1CLKSOURCE_PLL)   /* PLL "Q" ? */
 8005532:	6f23      	ldr	r3, [r4, #112]	@ 0x70
 8005534:	f1b3 6f00 	cmp.w	r3, #134217728	@ 0x8000000
 8005538:	d05e      	beq.n	80055f8 <HAL_RCCEx_PeriphCLKConfig+0x414>
    else if(PeriphClkInit->Sdmmc1ClockSelection == RCC_SDMMC1CLKSOURCE_PLLSAI1)
 800553a:	f1b3 6f80 	cmp.w	r3, #67108864	@ 0x4000000
 800553e:	d060      	beq.n	8005602 <HAL_RCCEx_PeriphCLKConfig+0x41e>
  if(((PeriphClkInit->PeriphClockSelection) & RCC_PERIPHCLK_RNG) == (RCC_PERIPHCLK_RNG))
 8005540:	6823      	ldr	r3, [r4, #0]
 8005542:	f413 2f80 	tst.w	r3, #262144	@ 0x40000
 8005546:	d00f      	beq.n	8005568 <HAL_RCCEx_PeriphCLKConfig+0x384>
    __HAL_RCC_RNG_CONFIG(PeriphClkInit->RngClockSelection);
 8005548:	4a41      	ldr	r2, [pc, #260]	@ (8005650 <HAL_RCCEx_PeriphCLKConfig+0x46c>)
 800554a:	f8d2 3088 	ldr.w	r3, [r2, #136]	@ 0x88
 800554e:	f023 6340 	bic.w	r3, r3, #201326592	@ 0xc000000
 8005552:	6f61      	ldr	r1, [r4, #116]	@ 0x74
 8005554:	430b      	orrs	r3, r1
 8005556:	f8c2 3088 	str.w	r3, [r2, #136]	@ 0x88
    if(PeriphClkInit->RngClockSelection == RCC_RNGCLKSOURCE_PLL)
 800555a:	6f63      	ldr	r3, [r4, #116]	@ 0x74
 800555c:	f1b3 6f00 	cmp.w	r3, #134217728	@ 0x8000000
 8005560:	d057      	beq.n	8005612 <HAL_RCCEx_PeriphCLKConfig+0x42e>
    else if(PeriphClkInit->RngClockSelection == RCC_RNGCLKSOURCE_PLLSAI1)
 8005562:	f1b3 6f80 	cmp.w	r3, #67108864	@ 0x4000000
 8005566:	d059      	beq.n	800561c <HAL_RCCEx_PeriphCLKConfig+0x438>
  if(((PeriphClkInit->PeriphClockSelection) & RCC_PERIPHCLK_ADC) == RCC_PERIPHCLK_ADC)
 8005568:	6823      	ldr	r3, [r4, #0]
 800556a:	f413 4f80 	tst.w	r3, #16384	@ 0x4000
 800556e:	d00f      	beq.n	8005590 <HAL_RCCEx_PeriphCLKConfig+0x3ac>
    __HAL_RCC_ADC_CONFIG(PeriphClkInit->AdcClockSelection);
 8005570:	4a37      	ldr	r2, [pc, #220]	@ (8005650 <HAL_RCCEx_PeriphCLKConfig+0x46c>)
 8005572:	f8d2 3088 	ldr.w	r3, [r2, #136]	@ 0x88
 8005576:	f023 5340 	bic.w	r3, r3, #805306368	@ 0x30000000
 800557a:	6fa1      	ldr	r1, [r4, #120]	@ 0x78
 800557c:	430b      	orrs	r3, r1
 800557e:	f8c2 3088 	str.w	r3, [r2, #136]	@ 0x88
    if(PeriphClkInit->AdcClockSelection == RCC_ADCCLKSOURCE_PLLSAI1)
 8005582:	6fa3      	ldr	r3, [r4, #120]	@ 0x78
 8005584:	f1b3 5f80 	cmp.w	r3, #268435456	@ 0x10000000
 8005588:	d050      	beq.n	800562c <HAL_RCCEx_PeriphCLKConfig+0x448>
    else if(PeriphClkInit->AdcClockSelection == RCC_ADCCLKSOURCE_PLLSAI2)
 800558a:	f1b3 5f00 	cmp.w	r3, #536870912	@ 0x20000000
 800558e:	d055      	beq.n	800563c <HAL_RCCEx_PeriphCLKConfig+0x458>
  if(((PeriphClkInit->PeriphClockSelection) & RCC_PERIPHCLK_SWPMI1) == RCC_PERIPHCLK_SWPMI1)
 8005590:	6823      	ldr	r3, [r4, #0]
 8005592:	f413 4f00 	tst.w	r3, #32768	@ 0x8000
 8005596:	d008      	beq.n	80055aa <HAL_RCCEx_PeriphCLKConfig+0x3c6>
    __HAL_RCC_SWPMI1_CONFIG(PeriphClkInit->Swpmi1ClockSelection);
 8005598:	4a2d      	ldr	r2, [pc, #180]	@ (8005650 <HAL_RCCEx_PeriphCLKConfig+0x46c>)
 800559a:	f8d2 3088 	ldr.w	r3, [r2, #136]	@ 0x88
 800559e:	f023 4380 	bic.w	r3, r3, #1073741824	@ 0x40000000
 80055a2:	6fe1      	ldr	r1, [r4, #124]	@ 0x7c
 80055a4:	430b      	orrs	r3, r1
 80055a6:	f8c2 3088 	str.w	r3, [r2, #136]	@ 0x88
  if(((PeriphClkInit->PeriphClockSelection) & RCC_PERIPHCLK_DFSDM1) == RCC_PERIPHCLK_DFSDM1)
 80055aa:	6823      	ldr	r3, [r4, #0]
 80055ac:	f413 3f80 	tst.w	r3, #65536	@ 0x10000
 80055b0:	d009      	beq.n	80055c6 <HAL_RCCEx_PeriphCLKConfig+0x3e2>
    __HAL_RCC_DFSDM1_CONFIG(PeriphClkInit->Dfsdm1ClockSelection);
 80055b2:	4a27      	ldr	r2, [pc, #156]	@ (8005650 <HAL_RCCEx_PeriphCLKConfig+0x46c>)
 80055b4:	f8d2 3088 	ldr.w	r3, [r2, #136]	@ 0x88
 80055b8:	f023 4300 	bic.w	r3, r3, #2147483648	@ 0x80000000
 80055bc:	f8d4 1080 	ldr.w	r1, [r4, #128]	@ 0x80
 80055c0:	430b      	orrs	r3, r1
 80055c2:	f8c2 3088 	str.w	r3, [r2, #136]	@ 0x88
}
 80055c6:	4638      	mov	r0, r7
 80055c8:	b002      	add	sp, #8
 80055ca:	e8bd 81f0 	ldmia.w	sp!, {r4, r5, r6, r7, r8, pc}
        status = ret;
 80055ce:	4637      	mov	r7, r6
 80055d0:	e6fb      	b.n	80053ca <HAL_RCCEx_PeriphCLKConfig+0x1e6>
      __HAL_RCC_PWR_CLK_DISABLE();
 80055d2:	4a1f      	ldr	r2, [pc, #124]	@ (8005650 <HAL_RCCEx_PeriphCLKConfig+0x46c>)
 80055d4:	6d93      	ldr	r3, [r2, #88]	@ 0x58
 80055d6:	f023 5380 	bic.w	r3, r3, #268435456	@ 0x10000000
 80055da:	6593      	str	r3, [r2, #88]	@ 0x58
 80055dc:	e6f9      	b.n	80053d2 <HAL_RCCEx_PeriphCLKConfig+0x1ee>
      __HAL_RCC_PLLCLKOUT_ENABLE(RCC_PLL_48M1CLK);
 80055de:	68d3      	ldr	r3, [r2, #12]
 80055e0:	f443 1380 	orr.w	r3, r3, #1048576	@ 0x100000
 80055e4:	60d3      	str	r3, [r2, #12]
 80055e6:	e797      	b.n	8005518 <HAL_RCCEx_PeriphCLKConfig+0x334>
        ret = RCCEx_PLLSAI1_Config(&(PeriphClkInit->PLLSAI1), DIVIDER_Q_UPDATE);
 80055e8:	2101      	movs	r1, #1
 80055ea:	1d20      	adds	r0, r4, #4
 80055ec:	f7ff fc86 	bl	8004efc <RCCEx_PLLSAI1_Config>
        if(ret != HAL_OK)
 80055f0:	2800      	cmp	r0, #0
 80055f2:	d091      	beq.n	8005518 <HAL_RCCEx_PeriphCLKConfig+0x334>
          status = ret;
 80055f4:	4607      	mov	r7, r0
 80055f6:	e78f      	b.n	8005518 <HAL_RCCEx_PeriphCLKConfig+0x334>
      __HAL_RCC_PLLCLKOUT_ENABLE(RCC_PLL_48M1CLK);
 80055f8:	68d3      	ldr	r3, [r2, #12]
 80055fa:	f443 1380 	orr.w	r3, r3, #1048576	@ 0x100000
 80055fe:	60d3      	str	r3, [r2, #12]
 8005600:	e79e      	b.n	8005540 <HAL_RCCEx_PeriphCLKConfig+0x35c>
      ret = RCCEx_PLLSAI1_Config(&(PeriphClkInit->PLLSAI1), DIVIDER_Q_UPDATE);
 8005602:	2101      	movs	r1, #1
 8005604:	1d20      	adds	r0, r4, #4
 8005606:	f7ff fc79 	bl	8004efc <RCCEx_PLLSAI1_Config>
      if(ret != HAL_OK)
 800560a:	2800      	cmp	r0, #0
 800560c:	d098      	beq.n	8005540 <HAL_RCCEx_PeriphCLKConfig+0x35c>
        status = ret;
 800560e:	4607      	mov	r7, r0
 8005610:	e796      	b.n	8005540 <HAL_RCCEx_PeriphCLKConfig+0x35c>
      __HAL_RCC_PLLCLKOUT_ENABLE(RCC_PLL_48M1CLK);
 8005612:	68d3      	ldr	r3, [r2, #12]
 8005614:	f443 1380 	orr.w	r3, r3, #1048576	@ 0x100000
 8005618:	60d3      	str	r3, [r2, #12]
 800561a:	e7a5      	b.n	8005568 <HAL_RCCEx_PeriphCLKConfig+0x384>
      ret = RCCEx_PLLSAI1_Config(&(PeriphClkInit->PLLSAI1), DIVIDER_Q_UPDATE);
 800561c:	2101      	movs	r1, #1
 800561e:	1d20      	adds	r0, r4, #4
 8005620:	f7ff fc6c 	bl	8004efc <RCCEx_PLLSAI1_Config>
      if(ret != HAL_OK)
 8005624:	2800      	cmp	r0, #0
 8005626:	d09f      	beq.n	8005568 <HAL_RCCEx_PeriphCLKConfig+0x384>
        status = ret;
 8005628:	4607      	mov	r7, r0
 800562a:	e79d      	b.n	8005568 <HAL_RCCEx_PeriphCLKConfig+0x384>
      ret = RCCEx_PLLSAI1_Config(&(PeriphClkInit->PLLSAI1), DIVIDER_R_UPDATE);
 800562c:	2102      	movs	r1, #2
 800562e:	1d20      	adds	r0, r4, #4
 8005630:	f7ff fc64 	bl	8004efc <RCCEx_PLLSAI1_Config>
      if(ret != HAL_OK)
 8005634:	2800      	cmp	r0, #0
 8005636:	d0ab      	beq.n	8005590 <HAL_RCCEx_PeriphCLKConfig+0x3ac>
        status = ret;
 8005638:	4607      	mov	r7, r0
 800563a:	e7a9      	b.n	8005590 <HAL_RCCEx_PeriphCLKConfig+0x3ac>
      ret = RCCEx_PLLSAI2_Config(&(PeriphClkInit->PLLSAI2), DIVIDER_R_UPDATE);
 800563c:	2102      	movs	r1, #2
 800563e:	f104 0020 	add.w	r0, r4, #32
 8005642:	f7ff fd1f 	bl	8005084 <RCCEx_PLLSAI2_Config>
      if(ret != HAL_OK)
 8005646:	2800      	cmp	r0, #0
 8005648:	d0a2      	beq.n	8005590 <HAL_RCCEx_PeriphCLKConfig+0x3ac>
        status = ret;
 800564a:	4607      	mov	r7, r0
 800564c:	e7a0      	b.n	8005590 <HAL_RCCEx_PeriphCLKConfig+0x3ac>
 800564e:	bf00      	nop
 8005650:	40021000 	.word	0x40021000

08005654 <HAL_RCCEx_GetPeriphCLKFreq>:
{
 8005654:	b508      	push	{r3, lr}
  if(PeriphClk == RCC_PERIPHCLK_RTC)
 8005656:	f5b0 3f00 	cmp.w	r0, #131072	@ 0x20000
 800565a:	d01a      	beq.n	8005692 <HAL_RCCEx_GetPeriphCLKFreq+0x3e>
    pll_oscsource = __HAL_RCC_GET_PLL_OSCSOURCE();
 800565c:	4ba5      	ldr	r3, [pc, #660]	@ (80058f4 <HAL_RCCEx_GetPeriphCLKFreq+0x2a0>)
 800565e:	68db      	ldr	r3, [r3, #12]
 8005660:	f003 0303 	and.w	r3, r3, #3
    switch(pll_oscsource)
 8005664:	2b02      	cmp	r3, #2
 8005666:	d045      	beq.n	80056f4 <HAL_RCCEx_GetPeriphCLKFreq+0xa0>
 8005668:	2b03      	cmp	r3, #3
 800566a:	d04a      	beq.n	8005702 <HAL_RCCEx_GetPeriphCLKFreq+0xae>
 800566c:	2b01      	cmp	r3, #1
 800566e:	d14f      	bne.n	8005710 <HAL_RCCEx_GetPeriphCLKFreq+0xbc>
      if(HAL_IS_BIT_SET(RCC->CR, RCC_CR_MSIRDY))
 8005670:	4ba0      	ldr	r3, [pc, #640]	@ (80058f4 <HAL_RCCEx_GetPeriphCLKFreq+0x2a0>)
 8005672:	6819      	ldr	r1, [r3, #0]
 8005674:	f011 0102 	ands.w	r1, r1, #2
 8005678:	d04b      	beq.n	8005712 <HAL_RCCEx_GetPeriphCLKFreq+0xbe>
        pllvco = MSIRangeTable[(__HAL_RCC_GET_MSI_RANGE() >> 4U)];
 800567a:	681b      	ldr	r3, [r3, #0]
 800567c:	f013 0f08 	tst.w	r3, #8
 8005680:	d032      	beq.n	80056e8 <HAL_RCCEx_GetPeriphCLKFreq+0x94>
 8005682:	4b9c      	ldr	r3, [pc, #624]	@ (80058f4 <HAL_RCCEx_GetPeriphCLKFreq+0x2a0>)
 8005684:	681b      	ldr	r3, [r3, #0]
 8005686:	f3c3 1303 	ubfx	r3, r3, #4, #4
 800568a:	4a9b      	ldr	r2, [pc, #620]	@ (80058f8 <HAL_RCCEx_GetPeriphCLKFreq+0x2a4>)
 800568c:	f852 1023 	ldr.w	r1, [r2, r3, lsl #2]
 8005690:	e03f      	b.n	8005712 <HAL_RCCEx_GetPeriphCLKFreq+0xbe>
    srcclk = __HAL_RCC_GET_RTC_SOURCE();
 8005692:	4b98      	ldr	r3, [pc, #608]	@ (80058f4 <HAL_RCCEx_GetPeriphCLKFreq+0x2a0>)
 8005694:	f8d3 3090 	ldr.w	r3, [r3, #144]	@ 0x90
 8005698:	f403 7340 	and.w	r3, r3, #768	@ 0x300
    switch(srcclk)
 800569c:	f5b3 7f00 	cmp.w	r3, #512	@ 0x200
 80056a0:	d010      	beq.n	80056c4 <HAL_RCCEx_GetPeriphCLKFreq+0x70>
 80056a2:	f5b3 7f40 	cmp.w	r3, #768	@ 0x300
 80056a6:	d017      	beq.n	80056d8 <HAL_RCCEx_GetPeriphCLKFreq+0x84>
 80056a8:	f5b3 7f80 	cmp.w	r3, #256	@ 0x100
 80056ac:	f040 8330 	bne.w	8005d10 <HAL_RCCEx_GetPeriphCLKFreq+0x6bc>
      if(HAL_IS_BIT_SET(RCC->BDCR, RCC_BDCR_LSERDY))
 80056b0:	4b90      	ldr	r3, [pc, #576]	@ (80058f4 <HAL_RCCEx_GetPeriphCLKFreq+0x2a0>)
 80056b2:	f8d3 0090 	ldr.w	r0, [r3, #144]	@ 0x90
 80056b6:	f010 0002 	ands.w	r0, r0, #2
 80056ba:	f000 832a 	beq.w	8005d12 <HAL_RCCEx_GetPeriphCLKFreq+0x6be>
        frequency = LSE_VALUE;
 80056be:	f44f 4000 	mov.w	r0, #32768	@ 0x8000
 80056c2:	e326      	b.n	8005d12 <HAL_RCCEx_GetPeriphCLKFreq+0x6be>
      if(HAL_IS_BIT_SET(RCC->CSR, RCC_CSR_LSIRDY))
 80056c4:	4b8b      	ldr	r3, [pc, #556]	@ (80058f4 <HAL_RCCEx_GetPeriphCLKFreq+0x2a0>)
 80056c6:	f8d3 0094 	ldr.w	r0, [r3, #148]	@ 0x94
 80056ca:	f010 0002 	ands.w	r0, r0, #2
 80056ce:	f000 8320 	beq.w	8005d12 <HAL_RCCEx_GetPeriphCLKFreq+0x6be>
          frequency = LSI_VALUE;
 80056d2:	f44f 40fa 	mov.w	r0, #32000	@ 0x7d00
 80056d6:	e31c      	b.n	8005d12 <HAL_RCCEx_GetPeriphCLKFreq+0x6be>
      if(HAL_IS_BIT_SET(RCC->CR, RCC_CR_HSERDY))
 80056d8:	4b86      	ldr	r3, [pc, #536]	@ (80058f4 <HAL_RCCEx_GetPeriphCLKFreq+0x2a0>)
 80056da:	6818      	ldr	r0, [r3, #0]
 80056dc:	f410 3000 	ands.w	r0, r0, #131072	@ 0x20000
 80056e0:	f000 8317 	beq.w	8005d12 <HAL_RCCEx_GetPeriphCLKFreq+0x6be>
        frequency = HSE_VALUE / 32U;
 80056e4:	4885      	ldr	r0, [pc, #532]	@ (80058fc <HAL_RCCEx_GetPeriphCLKFreq+0x2a8>)
 80056e6:	e314      	b.n	8005d12 <HAL_RCCEx_GetPeriphCLKFreq+0x6be>
        pllvco = MSIRangeTable[(__HAL_RCC_GET_MSI_RANGE() >> 4U)];
 80056e8:	4b82      	ldr	r3, [pc, #520]	@ (80058f4 <HAL_RCCEx_GetPeriphCLKFreq+0x2a0>)
 80056ea:	f8d3 3094 	ldr.w	r3, [r3, #148]	@ 0x94
 80056ee:	f3c3 2303 	ubfx	r3, r3, #8, #4
 80056f2:	e7ca      	b.n	800568a <HAL_RCCEx_GetPeriphCLKFreq+0x36>
      if(HAL_IS_BIT_SET(RCC->CR, RCC_CR_HSIRDY))
 80056f4:	4b7f      	ldr	r3, [pc, #508]	@ (80058f4 <HAL_RCCEx_GetPeriphCLKFreq+0x2a0>)
 80056f6:	6819      	ldr	r1, [r3, #0]
 80056f8:	f411 6180 	ands.w	r1, r1, #1024	@ 0x400
 80056fc:	d009      	beq.n	8005712 <HAL_RCCEx_GetPeriphCLKFreq+0xbe>
        pllvco = HSI_VALUE;
 80056fe:	4980      	ldr	r1, [pc, #512]	@ (8005900 <HAL_RCCEx_GetPeriphCLKFreq+0x2ac>)
 8005700:	e007      	b.n	8005712 <HAL_RCCEx_GetPeriphCLKFreq+0xbe>
      if(HAL_IS_BIT_SET(RCC->CR, RCC_CR_HSERDY))
 8005702:	4b7c      	ldr	r3, [pc, #496]	@ (80058f4 <HAL_RCCEx_GetPeriphCLKFreq+0x2a0>)
 8005704:	6819      	ldr	r1, [r3, #0]
 8005706:	f411 3100 	ands.w	r1, r1, #131072	@ 0x20000
 800570a:	d002      	beq.n	8005712 <HAL_RCCEx_GetPeriphCLKFreq+0xbe>
        pllvco = HSE_VALUE;
 800570c:	497d      	ldr	r1, [pc, #500]	@ (8005904 <HAL_RCCEx_GetPeriphCLKFreq+0x2b0>)
 800570e:	e000      	b.n	8005712 <HAL_RCCEx_GetPeriphCLKFreq+0xbe>
    switch(pll_oscsource)
 8005710:	2100      	movs	r1, #0
    switch(PeriphClk)
 8005712:	f5b0 7f80 	cmp.w	r0, #256	@ 0x100
 8005716:	f000 8284 	beq.w	8005c22 <HAL_RCCEx_GetPeriphCLKFreq+0x5ce>
 800571a:	d857      	bhi.n	80057cc <HAL_RCCEx_GetPeriphCLKFreq+0x178>
 800571c:	2810      	cmp	r0, #16
 800571e:	f000 81b9 	beq.w	8005a94 <HAL_RCCEx_GetPeriphCLKFreq+0x440>
 8005722:	d834      	bhi.n	800578e <HAL_RCCEx_GetPeriphCLKFreq+0x13a>
 8005724:	2804      	cmp	r0, #4
 8005726:	f000 8171 	beq.w	8005a0c <HAL_RCCEx_GetPeriphCLKFreq+0x3b8>
 800572a:	d819      	bhi.n	8005760 <HAL_RCCEx_GetPeriphCLKFreq+0x10c>
 800572c:	2801      	cmp	r0, #1
 800572e:	f000 8129 	beq.w	8005984 <HAL_RCCEx_GetPeriphCLKFreq+0x330>
 8005732:	2802      	cmp	r0, #2
 8005734:	d112      	bne.n	800575c <HAL_RCCEx_GetPeriphCLKFreq+0x108>
        srcclk = __HAL_RCC_GET_USART2_SOURCE();
 8005736:	4b6f      	ldr	r3, [pc, #444]	@ (80058f4 <HAL_RCCEx_GetPeriphCLKFreq+0x2a0>)
 8005738:	f8d3 3088 	ldr.w	r3, [r3, #136]	@ 0x88
 800573c:	f003 030c 	and.w	r3, r3, #12
        switch(srcclk)
 8005740:	2b08      	cmp	r3, #8
 8005742:	f000 815b 	beq.w	80059fc <HAL_RCCEx_GetPeriphCLKFreq+0x3a8>
 8005746:	f200 8148 	bhi.w	80059da <HAL_RCCEx_GetPeriphCLKFreq+0x386>
 800574a:	2b00      	cmp	r3, #0
 800574c:	f000 8153 	beq.w	80059f6 <HAL_RCCEx_GetPeriphCLKFreq+0x3a2>
 8005750:	2b04      	cmp	r3, #4
 8005752:	f040 8140 	bne.w	80059d6 <HAL_RCCEx_GetPeriphCLKFreq+0x382>
          frequency = HAL_RCC_GetSysClockFreq();
 8005756:	f7fe feef 	bl	8004538 <HAL_RCC_GetSysClockFreq>
          break;
 800575a:	e2da      	b.n	8005d12 <HAL_RCCEx_GetPeriphCLKFreq+0x6be>
    switch(PeriphClk)
 800575c:	2000      	movs	r0, #0
 800575e:	e2d8      	b.n	8005d12 <HAL_RCCEx_GetPeriphCLKFreq+0x6be>
 8005760:	2808      	cmp	r0, #8
 8005762:	d112      	bne.n	800578a <HAL_RCCEx_GetPeriphCLKFreq+0x136>
        srcclk = __HAL_RCC_GET_UART4_SOURCE();
 8005764:	4b63      	ldr	r3, [pc, #396]	@ (80058f4 <HAL_RCCEx_GetPeriphCLKFreq+0x2a0>)
 8005766:	f8d3 3088 	ldr.w	r3, [r3, #136]	@ 0x88
 800576a:	f003 03c0 	and.w	r3, r3, #192	@ 0xc0
        switch(srcclk)
 800576e:	2b80      	cmp	r3, #128	@ 0x80
 8005770:	f000 8188 	beq.w	8005a84 <HAL_RCCEx_GetPeriphCLKFreq+0x430>
 8005774:	f200 8175 	bhi.w	8005a62 <HAL_RCCEx_GetPeriphCLKFreq+0x40e>
 8005778:	2b00      	cmp	r3, #0
 800577a:	f000 8180 	beq.w	8005a7e <HAL_RCCEx_GetPeriphCLKFreq+0x42a>
 800577e:	2b40      	cmp	r3, #64	@ 0x40
 8005780:	f040 816d 	bne.w	8005a5e <HAL_RCCEx_GetPeriphCLKFreq+0x40a>
          frequency = HAL_RCC_GetSysClockFreq();
 8005784:	f7fe fed8 	bl	8004538 <HAL_RCC_GetSysClockFreq>
          break;
 8005788:	e2c3      	b.n	8005d12 <HAL_RCCEx_GetPeriphCLKFreq+0x6be>
    switch(PeriphClk)
 800578a:	2000      	movs	r0, #0
 800578c:	e2c1      	b.n	8005d12 <HAL_RCCEx_GetPeriphCLKFreq+0x6be>
 800578e:	2840      	cmp	r0, #64	@ 0x40
 8005790:	f000 8210 	beq.w	8005bb4 <HAL_RCCEx_GetPeriphCLKFreq+0x560>
 8005794:	2880      	cmp	r0, #128	@ 0x80
 8005796:	f000 8229 	beq.w	8005bec <HAL_RCCEx_GetPeriphCLKFreq+0x598>
 800579a:	2820      	cmp	r0, #32
 800579c:	d114      	bne.n	80057c8 <HAL_RCCEx_GetPeriphCLKFreq+0x174>
        srcclk = __HAL_RCC_GET_LPUART1_SOURCE();
 800579e:	4b55      	ldr	r3, [pc, #340]	@ (80058f4 <HAL_RCCEx_GetPeriphCLKFreq+0x2a0>)
 80057a0:	f8d3 3088 	ldr.w	r3, [r3, #136]	@ 0x88
 80057a4:	f403 6340 	and.w	r3, r3, #3072	@ 0xc00
        switch(srcclk)
 80057a8:	f5b3 6f00 	cmp.w	r3, #2048	@ 0x800
 80057ac:	f000 81b2 	beq.w	8005b14 <HAL_RCCEx_GetPeriphCLKFreq+0x4c0>
 80057b0:	f200 819e 	bhi.w	8005af0 <HAL_RCCEx_GetPeriphCLKFreq+0x49c>
 80057b4:	2b00      	cmp	r3, #0
 80057b6:	f000 81aa 	beq.w	8005b0e <HAL_RCCEx_GetPeriphCLKFreq+0x4ba>
 80057ba:	f5b3 6f80 	cmp.w	r3, #1024	@ 0x400
 80057be:	f040 8195 	bne.w	8005aec <HAL_RCCEx_GetPeriphCLKFreq+0x498>
          frequency = HAL_RCC_GetSysClockFreq();
 80057c2:	f7fe feb9 	bl	8004538 <HAL_RCC_GetSysClockFreq>
          break;
 80057c6:	e2a4      	b.n	8005d12 <HAL_RCCEx_GetPeriphCLKFreq+0x6be>
    switch(PeriphClk)
 80057c8:	2000      	movs	r0, #0
 80057ca:	e2a2      	b.n	8005d12 <HAL_RCCEx_GetPeriphCLKFreq+0x6be>
 80057cc:	f5b0 5f80 	cmp.w	r0, #4096	@ 0x1000
 80057d0:	d073      	beq.n	80058ba <HAL_RCCEx_GetPeriphCLKFreq+0x266>
 80057d2:	d910      	bls.n	80057f6 <HAL_RCCEx_GetPeriphCLKFreq+0x1a2>
 80057d4:	f5b0 4f00 	cmp.w	r0, #32768	@ 0x8000
 80057d8:	f000 8287 	beq.w	8005cea <HAL_RCCEx_GetPeriphCLKFreq+0x696>
 80057dc:	d933      	bls.n	8005846 <HAL_RCCEx_GetPeriphCLKFreq+0x1f2>
 80057de:	f5b0 3f80 	cmp.w	r0, #65536	@ 0x10000
 80057e2:	d14b      	bne.n	800587c <HAL_RCCEx_GetPeriphCLKFreq+0x228>
        srcclk = __HAL_RCC_GET_DFSDM1_SOURCE();
 80057e4:	4b43      	ldr	r3, [pc, #268]	@ (80058f4 <HAL_RCCEx_GetPeriphCLKFreq+0x2a0>)
 80057e6:	f8d3 3088 	ldr.w	r3, [r3, #136]	@ 0x88
        if(srcclk == RCC_DFSDM1CLKSOURCE_PCLK2)
 80057ea:	2b00      	cmp	r3, #0
 80057ec:	f2c0 81db 	blt.w	8005ba6 <HAL_RCCEx_GetPeriphCLKFreq+0x552>
          frequency = HAL_RCC_GetPCLK2Freq();
 80057f0:	f7ff fae2 	bl	8004db8 <HAL_RCC_GetPCLK2Freq>
 80057f4:	e28d      	b.n	8005d12 <HAL_RCCEx_GetPeriphCLKFreq+0x6be>
    switch(PeriphClk)
 80057f6:	f5b0 6f80 	cmp.w	r0, #1024	@ 0x400
 80057fa:	f000 8246 	beq.w	8005c8a <HAL_RCCEx_GetPeriphCLKFreq+0x636>
 80057fe:	f5b0 6f00 	cmp.w	r0, #2048	@ 0x800
 8005802:	d055      	beq.n	80058b0 <HAL_RCCEx_GetPeriphCLKFreq+0x25c>
 8005804:	f5b0 7f00 	cmp.w	r0, #512	@ 0x200
 8005808:	d11b      	bne.n	8005842 <HAL_RCCEx_GetPeriphCLKFreq+0x1ee>
        srcclk = __HAL_RCC_GET_LPTIM1_SOURCE();
 800580a:	4b3a      	ldr	r3, [pc, #232]	@ (80058f4 <HAL_RCCEx_GetPeriphCLKFreq+0x2a0>)
 800580c:	f8d3 3088 	ldr.w	r3, [r3, #136]	@ 0x88
 8005810:	f403 2340 	and.w	r3, r3, #786432	@ 0xc0000
        switch(srcclk)
 8005814:	f5b3 2f00 	cmp.w	r3, #524288	@ 0x80000
 8005818:	f000 8230 	beq.w	8005c7c <HAL_RCCEx_GetPeriphCLKFreq+0x628>
 800581c:	f200 821d 	bhi.w	8005c5a <HAL_RCCEx_GetPeriphCLKFreq+0x606>
 8005820:	2b00      	cmp	r3, #0
 8005822:	f000 8228 	beq.w	8005c76 <HAL_RCCEx_GetPeriphCLKFreq+0x622>
 8005826:	f5b3 2f80 	cmp.w	r3, #262144	@ 0x40000
 800582a:	f040 8214 	bne.w	8005c56 <HAL_RCCEx_GetPeriphCLKFreq+0x602>
          if(HAL_IS_BIT_SET(RCC->CSR, RCC_CSR_LSIRDY))
 800582e:	4b31      	ldr	r3, [pc, #196]	@ (80058f4 <HAL_RCCEx_GetPeriphCLKFreq+0x2a0>)
 8005830:	f8d3 0094 	ldr.w	r0, [r3, #148]	@ 0x94
 8005834:	f010 0002 	ands.w	r0, r0, #2
 8005838:	f000 826b 	beq.w	8005d12 <HAL_RCCEx_GetPeriphCLKFreq+0x6be>
              frequency = LSI_VALUE;
 800583c:	f44f 40fa 	mov.w	r0, #32000	@ 0x7d00
 8005840:	e267      	b.n	8005d12 <HAL_RCCEx_GetPeriphCLKFreq+0x6be>
    switch(PeriphClk)
 8005842:	2000      	movs	r0, #0
 8005844:	e265      	b.n	8005d12 <HAL_RCCEx_GetPeriphCLKFreq+0x6be>
 8005846:	f5b0 5f00 	cmp.w	r0, #8192	@ 0x2000
 800584a:	d01f      	beq.n	800588c <HAL_RCCEx_GetPeriphCLKFreq+0x238>
 800584c:	f5b0 4f80 	cmp.w	r0, #16384	@ 0x4000
 8005850:	d112      	bne.n	8005878 <HAL_RCCEx_GetPeriphCLKFreq+0x224>
        srcclk = __HAL_RCC_GET_ADC_SOURCE();
 8005852:	4b28      	ldr	r3, [pc, #160]	@ (80058f4 <HAL_RCCEx_GetPeriphCLKFreq+0x2a0>)
 8005854:	f8d3 3088 	ldr.w	r3, [r3, #136]	@ 0x88
 8005858:	f003 5340 	and.w	r3, r3, #805306368	@ 0x30000000
        switch(srcclk)
 800585c:	f1b3 5f00 	cmp.w	r3, #536870912	@ 0x20000000
 8005860:	f000 8182 	beq.w	8005b68 <HAL_RCCEx_GetPeriphCLKFreq+0x514>
 8005864:	f1b3 5f40 	cmp.w	r3, #805306368	@ 0x30000000
 8005868:	f000 815c 	beq.w	8005b24 <HAL_RCCEx_GetPeriphCLKFreq+0x4d0>
 800586c:	f1b3 5f80 	cmp.w	r3, #268435456	@ 0x10000000
 8005870:	f000 815b 	beq.w	8005b2a <HAL_RCCEx_GetPeriphCLKFreq+0x4d6>
 8005874:	2000      	movs	r0, #0
 8005876:	e24c      	b.n	8005d12 <HAL_RCCEx_GetPeriphCLKFreq+0x6be>
    switch(PeriphClk)
 8005878:	2000      	movs	r0, #0
 800587a:	e24a      	b.n	8005d12 <HAL_RCCEx_GetPeriphCLKFreq+0x6be>
 800587c:	f0c0 824a 	bcc.w	8005d14 <HAL_RCCEx_GetPeriphCLKFreq+0x6c0>
 8005880:	f5b0 2f80 	cmp.w	r0, #262144	@ 0x40000
 8005884:	d002      	beq.n	800588c <HAL_RCCEx_GetPeriphCLKFreq+0x238>
 8005886:	f5b0 2f00 	cmp.w	r0, #524288	@ 0x80000
 800588a:	d10f      	bne.n	80058ac <HAL_RCCEx_GetPeriphCLKFreq+0x258>
        srcclk = READ_BIT(RCC->CCIPR, RCC_CCIPR_CLK48SEL);
 800588c:	4b19      	ldr	r3, [pc, #100]	@ (80058f4 <HAL_RCCEx_GetPeriphCLKFreq+0x2a0>)
 800588e:	f8d3 3088 	ldr.w	r3, [r3, #136]	@ 0x88
 8005892:	f003 6340 	and.w	r3, r3, #201326592	@ 0xc000000
        switch(srcclk)
 8005896:	f1b3 6f00 	cmp.w	r3, #134217728	@ 0x8000000
 800589a:	d035      	beq.n	8005908 <HAL_RCCEx_GetPeriphCLKFreq+0x2b4>
 800589c:	f1b3 6f40 	cmp.w	r3, #201326592	@ 0xc000000
 80058a0:	d010      	beq.n	80058c4 <HAL_RCCEx_GetPeriphCLKFreq+0x270>
 80058a2:	f1b3 6f80 	cmp.w	r3, #67108864	@ 0x4000000
 80058a6:	d04e      	beq.n	8005946 <HAL_RCCEx_GetPeriphCLKFreq+0x2f2>
 80058a8:	2000      	movs	r0, #0
 80058aa:	e232      	b.n	8005d12 <HAL_RCCEx_GetPeriphCLKFreq+0x6be>
    switch(PeriphClk)
 80058ac:	2000      	movs	r0, #0
 80058ae:	e230      	b.n	8005d12 <HAL_RCCEx_GetPeriphCLKFreq+0x6be>
      frequency = RCCEx_GetSAIxPeriphCLKFreq(RCC_PERIPHCLK_SAI1, pllvco);
 80058b0:	f44f 6000 	mov.w	r0, #2048	@ 0x800
 80058b4:	f7ff fa92 	bl	8004ddc <RCCEx_GetSAIxPeriphCLKFreq>
      break;
 80058b8:	e22b      	b.n	8005d12 <HAL_RCCEx_GetPeriphCLKFreq+0x6be>
      frequency = RCCEx_GetSAIxPeriphCLKFreq(RCC_PERIPHCLK_SAI2, pllvco);
 80058ba:	f44f 5080 	mov.w	r0, #4096	@ 0x1000
 80058be:	f7ff fa8d 	bl	8004ddc <RCCEx_GetSAIxPeriphCLKFreq>
      break;
 80058c2:	e226      	b.n	8005d12 <HAL_RCCEx_GetPeriphCLKFreq+0x6be>
          if(HAL_IS_BIT_SET(RCC->CR, RCC_CR_MSIRDY))
 80058c4:	4b0b      	ldr	r3, [pc, #44]	@ (80058f4 <HAL_RCCEx_GetPeriphCLKFreq+0x2a0>)
 80058c6:	6818      	ldr	r0, [r3, #0]
 80058c8:	f010 0002 	ands.w	r0, r0, #2
 80058cc:	f000 8221 	beq.w	8005d12 <HAL_RCCEx_GetPeriphCLKFreq+0x6be>
            frequency = MSIRangeTable[(__HAL_RCC_GET_MSI_RANGE() >> 4U)];
 80058d0:	681b      	ldr	r3, [r3, #0]
 80058d2:	f013 0f08 	tst.w	r3, #8
 80058d6:	d007      	beq.n	80058e8 <HAL_RCCEx_GetPeriphCLKFreq+0x294>
 80058d8:	4b06      	ldr	r3, [pc, #24]	@ (80058f4 <HAL_RCCEx_GetPeriphCLKFreq+0x2a0>)
 80058da:	681b      	ldr	r3, [r3, #0]
 80058dc:	f3c3 1303 	ubfx	r3, r3, #4, #4
 80058e0:	4a05      	ldr	r2, [pc, #20]	@ (80058f8 <HAL_RCCEx_GetPeriphCLKFreq+0x2a4>)
 80058e2:	f852 0023 	ldr.w	r0, [r2, r3, lsl #2]
 80058e6:	e214      	b.n	8005d12 <HAL_RCCEx_GetPeriphCLKFreq+0x6be>
 80058e8:	4b02      	ldr	r3, [pc, #8]	@ (80058f4 <HAL_RCCEx_GetPeriphCLKFreq+0x2a0>)
 80058ea:	f8d3 3094 	ldr.w	r3, [r3, #148]	@ 0x94
 80058ee:	f3c3 2303 	ubfx	r3, r3, #8, #4
 80058f2:	e7f5      	b.n	80058e0 <HAL_RCCEx_GetPeriphCLKFreq+0x28c>
 80058f4:	40021000 	.word	0x40021000
 80058f8:	08009358 	.word	0x08009358
 80058fc:	0005b8d8 	.word	0x0005b8d8
 8005900:	00f42400 	.word	0x00f42400
 8005904:	00b71b00 	.word	0x00b71b00
          if(HAL_IS_BIT_SET(RCC->CR, RCC_CR_PLLRDY))
 8005908:	4ba8      	ldr	r3, [pc, #672]	@ (8005bac <HAL_RCCEx_GetPeriphCLKFreq+0x558>)
 800590a:	6818      	ldr	r0, [r3, #0]
 800590c:	f010 7000 	ands.w	r0, r0, #33554432	@ 0x2000000
 8005910:	f000 81ff 	beq.w	8005d12 <HAL_RCCEx_GetPeriphCLKFreq+0x6be>
            if(HAL_IS_BIT_SET(RCC->PLLCFGR, RCC_PLLCFGR_PLLQEN))
 8005914:	68d8      	ldr	r0, [r3, #12]
 8005916:	f410 1080 	ands.w	r0, r0, #1048576	@ 0x100000
 800591a:	f000 81fa 	beq.w	8005d12 <HAL_RCCEx_GetPeriphCLKFreq+0x6be>
              plln = READ_BIT(RCC->PLLCFGR, RCC_PLLCFGR_PLLN) >> RCC_PLLCFGR_PLLN_Pos;
 800591e:	461a      	mov	r2, r3
 8005920:	68db      	ldr	r3, [r3, #12]
 8005922:	f3c3 2306 	ubfx	r3, r3, #8, #7
              pllvco = ((pllvco * plln) / ((READ_BIT(RCC->PLLCFGR, RCC_PLLCFGR_PLLM) >> RCC_PLLCFGR_PLLM_Pos) + 1U));
 8005926:	fb03 f001 	mul.w	r0, r3, r1
 800592a:	68d3      	ldr	r3, [r2, #12]
 800592c:	f3c3 1302 	ubfx	r3, r3, #4, #3
 8005930:	3301      	adds	r3, #1
 8005932:	fbb0 f0f3 	udiv	r0, r0, r3
              frequency = (pllvco / (((READ_BIT(RCC->PLLCFGR, RCC_PLLCFGR_PLLQ) >> RCC_PLLCFGR_PLLQ_Pos) + 1U) << 1U));
 8005936:	68d3      	ldr	r3, [r2, #12]
 8005938:	f3c3 5341 	ubfx	r3, r3, #21, #2
 800593c:	3301      	adds	r3, #1
 800593e:	005b      	lsls	r3, r3, #1
 8005940:	fbb0 f0f3 	udiv	r0, r0, r3
 8005944:	e1e5      	b.n	8005d12 <HAL_RCCEx_GetPeriphCLKFreq+0x6be>
          if(HAL_IS_BIT_SET(RCC->CR, RCC_CR_PLLSAI1RDY))
 8005946:	4b99      	ldr	r3, [pc, #612]	@ (8005bac <HAL_RCCEx_GetPeriphCLKFreq+0x558>)
 8005948:	6818      	ldr	r0, [r3, #0]
 800594a:	f010 6000 	ands.w	r0, r0, #134217728	@ 0x8000000
 800594e:	f000 81e0 	beq.w	8005d12 <HAL_RCCEx_GetPeriphCLKFreq+0x6be>
            if(HAL_IS_BIT_SET(RCC->PLLSAI1CFGR, RCC_PLLSAI1CFGR_PLLSAI1QEN))
 8005952:	6918      	ldr	r0, [r3, #16]
 8005954:	f410 1080 	ands.w	r0, r0, #1048576	@ 0x100000
 8005958:	f000 81db 	beq.w	8005d12 <HAL_RCCEx_GetPeriphCLKFreq+0x6be>
              plln = READ_BIT(RCC->PLLSAI1CFGR, RCC_PLLSAI1CFGR_PLLSAI1N) >> RCC_PLLSAI1CFGR_PLLSAI1N_Pos;
 800595c:	461a      	mov	r2, r3
 800595e:	691b      	ldr	r3, [r3, #16]
 8005960:	f3c3 2306 	ubfx	r3, r3, #8, #7
              pllvco = ((pllvco * plln) / ((READ_BIT(RCC->PLLCFGR, RCC_PLLCFGR_PLLM) >> RCC_PLLCFGR_PLLM_Pos) + 1U));
 8005964:	fb03 f001 	mul.w	r0, r3, r1
 8005968:	68d3      	ldr	r3, [r2, #12]
 800596a:	f3c3 1302 	ubfx	r3, r3, #4, #3
 800596e:	3301      	adds	r3, #1
 8005970:	fbb0 f0f3 	udiv	r0, r0, r3
              frequency = (pllvco / (((READ_BIT(RCC->PLLSAI1CFGR, RCC_PLLSAI1CFGR_PLLSAI1Q) >> RCC_PLLSAI1CFGR_PLLSAI1Q_Pos) + 1U) << 1U));
 8005974:	6913      	ldr	r3, [r2, #16]
 8005976:	f3c3 5341 	ubfx	r3, r3, #21, #2
 800597a:	3301      	adds	r3, #1
 800597c:	005b      	lsls	r3, r3, #1
 800597e:	fbb0 f0f3 	udiv	r0, r0, r3
 8005982:	e1c6      	b.n	8005d12 <HAL_RCCEx_GetPeriphCLKFreq+0x6be>
        srcclk = __HAL_RCC_GET_USART1_SOURCE();
 8005984:	4b89      	ldr	r3, [pc, #548]	@ (8005bac <HAL_RCCEx_GetPeriphCLKFreq+0x558>)
 8005986:	f8d3 3088 	ldr.w	r3, [r3, #136]	@ 0x88
 800598a:	f003 0303 	and.w	r3, r3, #3
        switch(srcclk)
 800598e:	2b02      	cmp	r3, #2
 8005990:	d019      	beq.n	80059c6 <HAL_RCCEx_GetPeriphCLKFreq+0x372>
 8005992:	d807      	bhi.n	80059a4 <HAL_RCCEx_GetPeriphCLKFreq+0x350>
 8005994:	b1a3      	cbz	r3, 80059c0 <HAL_RCCEx_GetPeriphCLKFreq+0x36c>
 8005996:	2b01      	cmp	r3, #1
 8005998:	d102      	bne.n	80059a0 <HAL_RCCEx_GetPeriphCLKFreq+0x34c>
          frequency = HAL_RCC_GetSysClockFreq();
 800599a:	f7fe fdcd 	bl	8004538 <HAL_RCC_GetSysClockFreq>
          break;
 800599e:	e1b8      	b.n	8005d12 <HAL_RCCEx_GetPeriphCLKFreq+0x6be>
        switch(srcclk)
 80059a0:	2000      	movs	r0, #0
 80059a2:	e1b6      	b.n	8005d12 <HAL_RCCEx_GetPeriphCLKFreq+0x6be>
 80059a4:	2b03      	cmp	r3, #3
 80059a6:	d109      	bne.n	80059bc <HAL_RCCEx_GetPeriphCLKFreq+0x368>
          if(HAL_IS_BIT_SET(RCC->BDCR, RCC_BDCR_LSERDY))
 80059a8:	4b80      	ldr	r3, [pc, #512]	@ (8005bac <HAL_RCCEx_GetPeriphCLKFreq+0x558>)
 80059aa:	f8d3 0090 	ldr.w	r0, [r3, #144]	@ 0x90
 80059ae:	f010 0002 	ands.w	r0, r0, #2
 80059b2:	f000 81ae 	beq.w	8005d12 <HAL_RCCEx_GetPeriphCLKFreq+0x6be>
            frequency = LSE_VALUE;
 80059b6:	f44f 4000 	mov.w	r0, #32768	@ 0x8000
 80059ba:	e1aa      	b.n	8005d12 <HAL_RCCEx_GetPeriphCLKFreq+0x6be>
        switch(srcclk)
 80059bc:	2000      	movs	r0, #0
 80059be:	e1a8      	b.n	8005d12 <HAL_RCCEx_GetPeriphCLKFreq+0x6be>
          frequency = HAL_RCC_GetPCLK2Freq();
 80059c0:	f7ff f9fa 	bl	8004db8 <HAL_RCC_GetPCLK2Freq>
          break;
 80059c4:	e1a5      	b.n	8005d12 <HAL_RCCEx_GetPeriphCLKFreq+0x6be>
          if(HAL_IS_BIT_SET(RCC->CR, RCC_CR_HSIRDY))
 80059c6:	4b79      	ldr	r3, [pc, #484]	@ (8005bac <HAL_RCCEx_GetPeriphCLKFreq+0x558>)
 80059c8:	6818      	ldr	r0, [r3, #0]
 80059ca:	f410 6080 	ands.w	r0, r0, #1024	@ 0x400
 80059ce:	f000 81a0 	beq.w	8005d12 <HAL_RCCEx_GetPeriphCLKFreq+0x6be>
            frequency = HSI_VALUE;
 80059d2:	4877      	ldr	r0, [pc, #476]	@ (8005bb0 <HAL_RCCEx_GetPeriphCLKFreq+0x55c>)
 80059d4:	e19d      	b.n	8005d12 <HAL_RCCEx_GetPeriphCLKFreq+0x6be>
        switch(srcclk)
 80059d6:	2000      	movs	r0, #0
 80059d8:	e19b      	b.n	8005d12 <HAL_RCCEx_GetPeriphCLKFreq+0x6be>
 80059da:	2b0c      	cmp	r3, #12
 80059dc:	d109      	bne.n	80059f2 <HAL_RCCEx_GetPeriphCLKFreq+0x39e>
          if(HAL_IS_BIT_SET(RCC->BDCR, RCC_BDCR_LSERDY))
 80059de:	4b73      	ldr	r3, [pc, #460]	@ (8005bac <HAL_RCCEx_GetPeriphCLKFreq+0x558>)
 80059e0:	f8d3 0090 	ldr.w	r0, [r3, #144]	@ 0x90
 80059e4:	f010 0002 	ands.w	r0, r0, #2
 80059e8:	f000 8193 	beq.w	8005d12 <HAL_RCCEx_GetPeriphCLKFreq+0x6be>
            frequency = LSE_VALUE;
 80059ec:	f44f 4000 	mov.w	r0, #32768	@ 0x8000
 80059f0:	e18f      	b.n	8005d12 <HAL_RCCEx_GetPeriphCLKFreq+0x6be>
        switch(srcclk)
 80059f2:	2000      	movs	r0, #0
 80059f4:	e18d      	b.n	8005d12 <HAL_RCCEx_GetPeriphCLKFreq+0x6be>
          frequency = HAL_RCC_GetPCLK1Freq();
 80059f6:	f7ff f9cd 	bl	8004d94 <HAL_RCC_GetPCLK1Freq>
          break;
 80059fa:	e18a      	b.n	8005d12 <HAL_RCCEx_GetPeriphCLKFreq+0x6be>
          if(HAL_IS_BIT_SET(RCC->CR, RCC_CR_HSIRDY))
 80059fc:	4b6b      	ldr	r3, [pc, #428]	@ (8005bac <HAL_RCCEx_GetPeriphCLKFreq+0x558>)
 80059fe:	6818      	ldr	r0, [r3, #0]
 8005a00:	f410 6080 	ands.w	r0, r0, #1024	@ 0x400
 8005a04:	f000 8185 	beq.w	8005d12 <HAL_RCCEx_GetPeriphCLKFreq+0x6be>
            frequency = HSI_VALUE;
 8005a08:	4869      	ldr	r0, [pc, #420]	@ (8005bb0 <HAL_RCCEx_GetPeriphCLKFreq+0x55c>)
 8005a0a:	e182      	b.n	8005d12 <HAL_RCCEx_GetPeriphCLKFreq+0x6be>
        srcclk = __HAL_RCC_GET_USART3_SOURCE();
 8005a0c:	4b67      	ldr	r3, [pc, #412]	@ (8005bac <HAL_RCCEx_GetPeriphCLKFreq+0x558>)
 8005a0e:	f8d3 3088 	ldr.w	r3, [r3, #136]	@ 0x88
 8005a12:	f003 0330 	and.w	r3, r3, #48	@ 0x30
        switch(srcclk)
 8005a16:	2b20      	cmp	r3, #32
 8005a18:	d019      	beq.n	8005a4e <HAL_RCCEx_GetPeriphCLKFreq+0x3fa>
 8005a1a:	d807      	bhi.n	8005a2c <HAL_RCCEx_GetPeriphCLKFreq+0x3d8>
 8005a1c:	b1a3      	cbz	r3, 8005a48 <HAL_RCCEx_GetPeriphCLKFreq+0x3f4>
 8005a1e:	2b10      	cmp	r3, #16
 8005a20:	d102      	bne.n	8005a28 <HAL_RCCEx_GetPeriphCLKFreq+0x3d4>
          frequency = HAL_RCC_GetSysClockFreq();
 8005a22:	f7fe fd89 	bl	8004538 <HAL_RCC_GetSysClockFreq>
          break;
 8005a26:	e174      	b.n	8005d12 <HAL_RCCEx_GetPeriphCLKFreq+0x6be>
        switch(srcclk)
 8005a28:	2000      	movs	r0, #0
 8005a2a:	e172      	b.n	8005d12 <HAL_RCCEx_GetPeriphCLKFreq+0x6be>
 8005a2c:	2b30      	cmp	r3, #48	@ 0x30
 8005a2e:	d109      	bne.n	8005a44 <HAL_RCCEx_GetPeriphCLKFreq+0x3f0>
          if(HAL_IS_BIT_SET(RCC->BDCR, RCC_BDCR_LSERDY))
 8005a30:	4b5e      	ldr	r3, [pc, #376]	@ (8005bac <HAL_RCCEx_GetPeriphCLKFreq+0x558>)
 8005a32:	f8d3 0090 	ldr.w	r0, [r3, #144]	@ 0x90
 8005a36:	f010 0002 	ands.w	r0, r0, #2
 8005a3a:	f000 816a 	beq.w	8005d12 <HAL_RCCEx_GetPeriphCLKFreq+0x6be>
            frequency = LSE_VALUE;
 8005a3e:	f44f 4000 	mov.w	r0, #32768	@ 0x8000
 8005a42:	e166      	b.n	8005d12 <HAL_RCCEx_GetPeriphCLKFreq+0x6be>
        switch(srcclk)
 8005a44:	2000      	movs	r0, #0
 8005a46:	e164      	b.n	8005d12 <HAL_RCCEx_GetPeriphCLKFreq+0x6be>
          frequency = HAL_RCC_GetPCLK1Freq();
 8005a48:	f7ff f9a4 	bl	8004d94 <HAL_RCC_GetPCLK1Freq>
          break;
 8005a4c:	e161      	b.n	8005d12 <HAL_RCCEx_GetPeriphCLKFreq+0x6be>
          if(HAL_IS_BIT_SET(RCC->CR, RCC_CR_HSIRDY))
 8005a4e:	4b57      	ldr	r3, [pc, #348]	@ (8005bac <HAL_RCCEx_GetPeriphCLKFreq+0x558>)
 8005a50:	6818      	ldr	r0, [r3, #0]
 8005a52:	f410 6080 	ands.w	r0, r0, #1024	@ 0x400
 8005a56:	f000 815c 	beq.w	8005d12 <HAL_RCCEx_GetPeriphCLKFreq+0x6be>
            frequency = HSI_VALUE;
 8005a5a:	4855      	ldr	r0, [pc, #340]	@ (8005bb0 <HAL_RCCEx_GetPeriphCLKFreq+0x55c>)
 8005a5c:	e159      	b.n	8005d12 <HAL_RCCEx_GetPeriphCLKFreq+0x6be>
        switch(srcclk)
 8005a5e:	2000      	movs	r0, #0
 8005a60:	e157      	b.n	8005d12 <HAL_RCCEx_GetPeriphCLKFreq+0x6be>
 8005a62:	2bc0      	cmp	r3, #192	@ 0xc0
 8005a64:	d109      	bne.n	8005a7a <HAL_RCCEx_GetPeriphCLKFreq+0x426>
          if(HAL_IS_BIT_SET(RCC->BDCR, RCC_BDCR_LSERDY))
 8005a66:	4b51      	ldr	r3, [pc, #324]	@ (8005bac <HAL_RCCEx_GetPeriphCLKFreq+0x558>)
 8005a68:	f8d3 0090 	ldr.w	r0, [r3, #144]	@ 0x90
 8005a6c:	f010 0002 	ands.w	r0, r0, #2
 8005a70:	f000 814f 	beq.w	8005d12 <HAL_RCCEx_GetPeriphCLKFreq+0x6be>
            frequency = LSE_VALUE;
 8005a74:	f44f 4000 	mov.w	r0, #32768	@ 0x8000
 8005a78:	e14b      	b.n	8005d12 <HAL_RCCEx_GetPeriphCLKFreq+0x6be>
        switch(srcclk)
 8005a7a:	2000      	movs	r0, #0
 8005a7c:	e149      	b.n	8005d12 <HAL_RCCEx_GetPeriphCLKFreq+0x6be>
          frequency = HAL_RCC_GetPCLK1Freq();
 8005a7e:	f7ff f989 	bl	8004d94 <HAL_RCC_GetPCLK1Freq>
          break;
 8005a82:	e146      	b.n	8005d12 <HAL_RCCEx_GetPeriphCLKFreq+0x6be>
          if(HAL_IS_BIT_SET(RCC->CR, RCC_CR_HSIRDY))
 8005a84:	4b49      	ldr	r3, [pc, #292]	@ (8005bac <HAL_RCCEx_GetPeriphCLKFreq+0x558>)
 8005a86:	6818      	ldr	r0, [r3, #0]
 8005a88:	f410 6080 	ands.w	r0, r0, #1024	@ 0x400
 8005a8c:	f000 8141 	beq.w	8005d12 <HAL_RCCEx_GetPeriphCLKFreq+0x6be>
            frequency = HSI_VALUE;
 8005a90:	4847      	ldr	r0, [pc, #284]	@ (8005bb0 <HAL_RCCEx_GetPeriphCLKFreq+0x55c>)
 8005a92:	e13e      	b.n	8005d12 <HAL_RCCEx_GetPeriphCLKFreq+0x6be>
        srcclk = __HAL_RCC_GET_UART5_SOURCE();
 8005a94:	4b45      	ldr	r3, [pc, #276]	@ (8005bac <HAL_RCCEx_GetPeriphCLKFreq+0x558>)
 8005a96:	f8d3 3088 	ldr.w	r3, [r3, #136]	@ 0x88
 8005a9a:	f403 7340 	and.w	r3, r3, #768	@ 0x300
        switch(srcclk)
 8005a9e:	f5b3 7f00 	cmp.w	r3, #512	@ 0x200
 8005aa2:	d01b      	beq.n	8005adc <HAL_RCCEx_GetPeriphCLKFreq+0x488>
 8005aa4:	d808      	bhi.n	8005ab8 <HAL_RCCEx_GetPeriphCLKFreq+0x464>
 8005aa6:	b1b3      	cbz	r3, 8005ad6 <HAL_RCCEx_GetPeriphCLKFreq+0x482>
 8005aa8:	f5b3 7f80 	cmp.w	r3, #256	@ 0x100
 8005aac:	d102      	bne.n	8005ab4 <HAL_RCCEx_GetPeriphCLKFreq+0x460>
          frequency = HAL_RCC_GetSysClockFreq();
 8005aae:	f7fe fd43 	bl	8004538 <HAL_RCC_GetSysClockFreq>
          break;
 8005ab2:	e12e      	b.n	8005d12 <HAL_RCCEx_GetPeriphCLKFreq+0x6be>
        switch(srcclk)
 8005ab4:	2000      	movs	r0, #0
 8005ab6:	e12c      	b.n	8005d12 <HAL_RCCEx_GetPeriphCLKFreq+0x6be>
 8005ab8:	f5b3 7f40 	cmp.w	r3, #768	@ 0x300
 8005abc:	d109      	bne.n	8005ad2 <HAL_RCCEx_GetPeriphCLKFreq+0x47e>
          if(HAL_IS_BIT_SET(RCC->BDCR, RCC_BDCR_LSERDY))
 8005abe:	4b3b      	ldr	r3, [pc, #236]	@ (8005bac <HAL_RCCEx_GetPeriphCLKFreq+0x558>)
 8005ac0:	f8d3 0090 	ldr.w	r0, [r3, #144]	@ 0x90
 8005ac4:	f010 0002 	ands.w	r0, r0, #2
 8005ac8:	f000 8123 	beq.w	8005d12 <HAL_RCCEx_GetPeriphCLKFreq+0x6be>
            frequency = LSE_VALUE;
 8005acc:	f44f 4000 	mov.w	r0, #32768	@ 0x8000
 8005ad0:	e11f      	b.n	8005d12 <HAL_RCCEx_GetPeriphCLKFreq+0x6be>
        switch(srcclk)
 8005ad2:	2000      	movs	r0, #0
 8005ad4:	e11d      	b.n	8005d12 <HAL_RCCEx_GetPeriphCLKFreq+0x6be>
          frequency = HAL_RCC_GetPCLK1Freq();
 8005ad6:	f7ff f95d 	bl	8004d94 <HAL_RCC_GetPCLK1Freq>
          break;
 8005ada:	e11a      	b.n	8005d12 <HAL_RCCEx_GetPeriphCLKFreq+0x6be>
          if(HAL_IS_BIT_SET(RCC->CR, RCC_CR_HSIRDY))
 8005adc:	4b33      	ldr	r3, [pc, #204]	@ (8005bac <HAL_RCCEx_GetPeriphCLKFreq+0x558>)
 8005ade:	6818      	ldr	r0, [r3, #0]
 8005ae0:	f410 6080 	ands.w	r0, r0, #1024	@ 0x400
 8005ae4:	f000 8115 	beq.w	8005d12 <HAL_RCCEx_GetPeriphCLKFreq+0x6be>
            frequency = HSI_VALUE;
 8005ae8:	4831      	ldr	r0, [pc, #196]	@ (8005bb0 <HAL_RCCEx_GetPeriphCLKFreq+0x55c>)
 8005aea:	e112      	b.n	8005d12 <HAL_RCCEx_GetPeriphCLKFreq+0x6be>
        switch(srcclk)
 8005aec:	2000      	movs	r0, #0
 8005aee:	e110      	b.n	8005d12 <HAL_RCCEx_GetPeriphCLKFreq+0x6be>
 8005af0:	f5b3 6f40 	cmp.w	r3, #3072	@ 0xc00
 8005af4:	d109      	bne.n	8005b0a <HAL_RCCEx_GetPeriphCLKFreq+0x4b6>
          if(HAL_IS_BIT_SET(RCC->BDCR, RCC_BDCR_LSERDY))
 8005af6:	4b2d      	ldr	r3, [pc, #180]	@ (8005bac <HAL_RCCEx_GetPeriphCLKFreq+0x558>)
 8005af8:	f8d3 0090 	ldr.w	r0, [r3, #144]	@ 0x90
 8005afc:	f010 0002 	ands.w	r0, r0, #2
 8005b00:	f000 8107 	beq.w	8005d12 <HAL_RCCEx_GetPeriphCLKFreq+0x6be>
            frequency = LSE_VALUE;
 8005b04:	f44f 4000 	mov.w	r0, #32768	@ 0x8000
 8005b08:	e103      	b.n	8005d12 <HAL_RCCEx_GetPeriphCLKFreq+0x6be>
        switch(srcclk)
 8005b0a:	2000      	movs	r0, #0
 8005b0c:	e101      	b.n	8005d12 <HAL_RCCEx_GetPeriphCLKFreq+0x6be>
          frequency = HAL_RCC_GetPCLK1Freq();
 8005b0e:	f7ff f941 	bl	8004d94 <HAL_RCC_GetPCLK1Freq>
          break;
 8005b12:	e0fe      	b.n	8005d12 <HAL_RCCEx_GetPeriphCLKFreq+0x6be>
          if(HAL_IS_BIT_SET(RCC->CR, RCC_CR_HSIRDY))
 8005b14:	4b25      	ldr	r3, [pc, #148]	@ (8005bac <HAL_RCCEx_GetPeriphCLKFreq+0x558>)
 8005b16:	6818      	ldr	r0, [r3, #0]
 8005b18:	f410 6080 	ands.w	r0, r0, #1024	@ 0x400
 8005b1c:	f000 80f9 	beq.w	8005d12 <HAL_RCCEx_GetPeriphCLKFreq+0x6be>
            frequency = HSI_VALUE;
 8005b20:	4823      	ldr	r0, [pc, #140]	@ (8005bb0 <HAL_RCCEx_GetPeriphCLKFreq+0x55c>)
 8005b22:	e0f6      	b.n	8005d12 <HAL_RCCEx_GetPeriphCLKFreq+0x6be>
          frequency = HAL_RCC_GetSysClockFreq();
 8005b24:	f7fe fd08 	bl	8004538 <HAL_RCC_GetSysClockFreq>
          break;
 8005b28:	e0f3      	b.n	8005d12 <HAL_RCCEx_GetPeriphCLKFreq+0x6be>
          if(HAL_IS_BIT_SET(RCC->CR, RCC_CR_PLLSAI1RDY) && (__HAL_RCC_GET_PLLSAI1CLKOUT_CONFIG(RCC_PLLSAI1_ADC1CLK) != 0U))
 8005b2a:	4b20      	ldr	r3, [pc, #128]	@ (8005bac <HAL_RCCEx_GetPeriphCLKFreq+0x558>)
 8005b2c:	6818      	ldr	r0, [r3, #0]
 8005b2e:	f010 6000 	ands.w	r0, r0, #134217728	@ 0x8000000
 8005b32:	f000 80ee 	beq.w	8005d12 <HAL_RCCEx_GetPeriphCLKFreq+0x6be>
 8005b36:	6918      	ldr	r0, [r3, #16]
 8005b38:	f010 7080 	ands.w	r0, r0, #16777216	@ 0x1000000
 8005b3c:	f000 80e9 	beq.w	8005d12 <HAL_RCCEx_GetPeriphCLKFreq+0x6be>
            plln = READ_BIT(RCC->PLLSAI1CFGR, RCC_PLLSAI1CFGR_PLLSAI1N) >> RCC_PLLSAI1CFGR_PLLSAI1N_Pos;
 8005b40:	461a      	mov	r2, r3
 8005b42:	691b      	ldr	r3, [r3, #16]
 8005b44:	f3c3 2306 	ubfx	r3, r3, #8, #7
            pllvco = ((pllvco * plln) / ((READ_BIT(RCC->PLLCFGR, RCC_PLLCFGR_PLLM) >> RCC_PLLCFGR_PLLM_Pos) + 1U));
 8005b48:	fb03 f001 	mul.w	r0, r3, r1
 8005b4c:	68d3      	ldr	r3, [r2, #12]
 8005b4e:	f3c3 1302 	ubfx	r3, r3, #4, #3
 8005b52:	3301      	adds	r3, #1
 8005b54:	fbb0 f0f3 	udiv	r0, r0, r3
            frequency = (pllvco / (((READ_BIT(RCC->PLLSAI1CFGR, RCC_PLLSAI1CFGR_PLLSAI1R) >> RCC_PLLSAI1CFGR_PLLSAI1R_Pos) + 1U) << 1U));
 8005b58:	6913      	ldr	r3, [r2, #16]
 8005b5a:	f3c3 6341 	ubfx	r3, r3, #25, #2
 8005b5e:	3301      	adds	r3, #1
 8005b60:	005b      	lsls	r3, r3, #1
 8005b62:	fbb0 f0f3 	udiv	r0, r0, r3
 8005b66:	e0d4      	b.n	8005d12 <HAL_RCCEx_GetPeriphCLKFreq+0x6be>
          if(HAL_IS_BIT_SET(RCC->CR, RCC_CR_PLLSAI2RDY) && (__HAL_RCC_GET_PLLSAI2CLKOUT_CONFIG(RCC_PLLSAI2_ADC2CLK) != 0U))
 8005b68:	4b10      	ldr	r3, [pc, #64]	@ (8005bac <HAL_RCCEx_GetPeriphCLKFreq+0x558>)
 8005b6a:	6818      	ldr	r0, [r3, #0]
 8005b6c:	f010 5000 	ands.w	r0, r0, #536870912	@ 0x20000000
 8005b70:	f000 80cf 	beq.w	8005d12 <HAL_RCCEx_GetPeriphCLKFreq+0x6be>
 8005b74:	6958      	ldr	r0, [r3, #20]
 8005b76:	f010 7080 	ands.w	r0, r0, #16777216	@ 0x1000000
 8005b7a:	f000 80ca 	beq.w	8005d12 <HAL_RCCEx_GetPeriphCLKFreq+0x6be>
            plln = READ_BIT(RCC->PLLSAI2CFGR, RCC_PLLSAI2CFGR_PLLSAI2N) >> RCC_PLLSAI2CFGR_PLLSAI2N_Pos;
 8005b7e:	4618      	mov	r0, r3
 8005b80:	695b      	ldr	r3, [r3, #20]
 8005b82:	f3c3 2306 	ubfx	r3, r3, #8, #7
            pllvco = ((pllvco * plln) / ((READ_BIT(RCC->PLLCFGR, RCC_PLLCFGR_PLLM) >> RCC_PLLCFGR_PLLM_Pos) + 1U));
 8005b86:	fb01 f303 	mul.w	r3, r1, r3
 8005b8a:	68c2      	ldr	r2, [r0, #12]
 8005b8c:	f3c2 1202 	ubfx	r2, r2, #4, #3
 8005b90:	3201      	adds	r2, #1
 8005b92:	fbb3 f3f2 	udiv	r3, r3, r2
            frequency = (pllvco / (((READ_BIT(RCC->PLLSAI2CFGR, RCC_PLLSAI2CFGR_PLLSAI2R) >> RCC_PLLSAI2CFGR_PLLSAI2R_Pos) + 1U) << 1U));
 8005b96:	6940      	ldr	r0, [r0, #20]
 8005b98:	f3c0 6041 	ubfx	r0, r0, #25, #2
 8005b9c:	3001      	adds	r0, #1
 8005b9e:	0040      	lsls	r0, r0, #1
 8005ba0:	fbb3 f0f0 	udiv	r0, r3, r0
 8005ba4:	e0b5      	b.n	8005d12 <HAL_RCCEx_GetPeriphCLKFreq+0x6be>
          frequency = HAL_RCC_GetSysClockFreq();
 8005ba6:	f7fe fcc7 	bl	8004538 <HAL_RCC_GetSysClockFreq>
 8005baa:	e0b2      	b.n	8005d12 <HAL_RCCEx_GetPeriphCLKFreq+0x6be>
 8005bac:	40021000 	.word	0x40021000
 8005bb0:	00f42400 	.word	0x00f42400
        srcclk = __HAL_RCC_GET_I2C1_SOURCE();
 8005bb4:	4b5b      	ldr	r3, [pc, #364]	@ (8005d24 <HAL_RCCEx_GetPeriphCLKFreq+0x6d0>)
 8005bb6:	f8d3 3088 	ldr.w	r3, [r3, #136]	@ 0x88
 8005bba:	f403 5340 	and.w	r3, r3, #12288	@ 0x3000
        switch(srcclk)
 8005bbe:	f5b3 5f80 	cmp.w	r3, #4096	@ 0x1000
 8005bc2:	d008      	beq.n	8005bd6 <HAL_RCCEx_GetPeriphCLKFreq+0x582>
 8005bc4:	f5b3 5f00 	cmp.w	r3, #8192	@ 0x2000
 8005bc8:	d008      	beq.n	8005bdc <HAL_RCCEx_GetPeriphCLKFreq+0x588>
 8005bca:	2b00      	cmp	r3, #0
 8005bcc:	f040 80a4 	bne.w	8005d18 <HAL_RCCEx_GetPeriphCLKFreq+0x6c4>
          frequency = HAL_RCC_GetPCLK1Freq();
 8005bd0:	f7ff f8e0 	bl	8004d94 <HAL_RCC_GetPCLK1Freq>
          break;
 8005bd4:	e09d      	b.n	8005d12 <HAL_RCCEx_GetPeriphCLKFreq+0x6be>
          frequency = HAL_RCC_GetSysClockFreq();
 8005bd6:	f7fe fcaf 	bl	8004538 <HAL_RCC_GetSysClockFreq>
          break;
 8005bda:	e09a      	b.n	8005d12 <HAL_RCCEx_GetPeriphCLKFreq+0x6be>
          if(HAL_IS_BIT_SET(RCC->CR, RCC_CR_HSIRDY))
 8005bdc:	4b51      	ldr	r3, [pc, #324]	@ (8005d24 <HAL_RCCEx_GetPeriphCLKFreq+0x6d0>)
 8005bde:	6818      	ldr	r0, [r3, #0]
 8005be0:	f410 6080 	ands.w	r0, r0, #1024	@ 0x400
 8005be4:	f000 8095 	beq.w	8005d12 <HAL_RCCEx_GetPeriphCLKFreq+0x6be>
            frequency = HSI_VALUE;
 8005be8:	484f      	ldr	r0, [pc, #316]	@ (8005d28 <HAL_RCCEx_GetPeriphCLKFreq+0x6d4>)
 8005bea:	e092      	b.n	8005d12 <HAL_RCCEx_GetPeriphCLKFreq+0x6be>
        srcclk = __HAL_RCC_GET_I2C2_SOURCE();
 8005bec:	4b4d      	ldr	r3, [pc, #308]	@ (8005d24 <HAL_RCCEx_GetPeriphCLKFreq+0x6d0>)
 8005bee:	f8d3 3088 	ldr.w	r3, [r3, #136]	@ 0x88
 8005bf2:	f403 4340 	and.w	r3, r3, #49152	@ 0xc000
        switch(srcclk)
 8005bf6:	f5b3 4f80 	cmp.w	r3, #16384	@ 0x4000
 8005bfa:	d008      	beq.n	8005c0e <HAL_RCCEx_GetPeriphCLKFreq+0x5ba>
 8005bfc:	f5b3 4f00 	cmp.w	r3, #32768	@ 0x8000
 8005c00:	d008      	beq.n	8005c14 <HAL_RCCEx_GetPeriphCLKFreq+0x5c0>
 8005c02:	2b00      	cmp	r3, #0
 8005c04:	f040 808a 	bne.w	8005d1c <HAL_RCCEx_GetPeriphCLKFreq+0x6c8>
          frequency = HAL_RCC_GetPCLK1Freq();
 8005c08:	f7ff f8c4 	bl	8004d94 <HAL_RCC_GetPCLK1Freq>
          break;
 8005c0c:	e081      	b.n	8005d12 <HAL_RCCEx_GetPeriphCLKFreq+0x6be>
          frequency = HAL_RCC_GetSysClockFreq();
 8005c0e:	f7fe fc93 	bl	8004538 <HAL_RCC_GetSysClockFreq>
          break;
 8005c12:	e07e      	b.n	8005d12 <HAL_RCCEx_GetPeriphCLKFreq+0x6be>
          if(HAL_IS_BIT_SET(RCC->CR, RCC_CR_HSIRDY))
 8005c14:	4b43      	ldr	r3, [pc, #268]	@ (8005d24 <HAL_RCCEx_GetPeriphCLKFreq+0x6d0>)
 8005c16:	6818      	ldr	r0, [r3, #0]
 8005c18:	f410 6080 	ands.w	r0, r0, #1024	@ 0x400
 8005c1c:	d079      	beq.n	8005d12 <HAL_RCCEx_GetPeriphCLKFreq+0x6be>
            frequency = HSI_VALUE;
 8005c1e:	4842      	ldr	r0, [pc, #264]	@ (8005d28 <HAL_RCCEx_GetPeriphCLKFreq+0x6d4>)
 8005c20:	e077      	b.n	8005d12 <HAL_RCCEx_GetPeriphCLKFreq+0x6be>
        srcclk = __HAL_RCC_GET_I2C3_SOURCE();
 8005c22:	4b40      	ldr	r3, [pc, #256]	@ (8005d24 <HAL_RCCEx_GetPeriphCLKFreq+0x6d0>)
 8005c24:	f8d3 3088 	ldr.w	r3, [r3, #136]	@ 0x88
 8005c28:	f403 3340 	and.w	r3, r3, #196608	@ 0x30000
        switch(srcclk)
 8005c2c:	f5b3 3f80 	cmp.w	r3, #65536	@ 0x10000
 8005c30:	d007      	beq.n	8005c42 <HAL_RCCEx_GetPeriphCLKFreq+0x5ee>
 8005c32:	f5b3 3f00 	cmp.w	r3, #131072	@ 0x20000
 8005c36:	d007      	beq.n	8005c48 <HAL_RCCEx_GetPeriphCLKFreq+0x5f4>
 8005c38:	2b00      	cmp	r3, #0
 8005c3a:	d171      	bne.n	8005d20 <HAL_RCCEx_GetPeriphCLKFreq+0x6cc>
          frequency = HAL_RCC_GetPCLK1Freq();
 8005c3c:	f7ff f8aa 	bl	8004d94 <HAL_RCC_GetPCLK1Freq>
          break;
 8005c40:	e067      	b.n	8005d12 <HAL_RCCEx_GetPeriphCLKFreq+0x6be>
          frequency = HAL_RCC_GetSysClockFreq();
 8005c42:	f7fe fc79 	bl	8004538 <HAL_RCC_GetSysClockFreq>
          break;
 8005c46:	e064      	b.n	8005d12 <HAL_RCCEx_GetPeriphCLKFreq+0x6be>
          if(HAL_IS_BIT_SET(RCC->CR, RCC_CR_HSIRDY))
 8005c48:	4b36      	ldr	r3, [pc, #216]	@ (8005d24 <HAL_RCCEx_GetPeriphCLKFreq+0x6d0>)
 8005c4a:	6818      	ldr	r0, [r3, #0]
 8005c4c:	f410 6080 	ands.w	r0, r0, #1024	@ 0x400
 8005c50:	d05f      	beq.n	8005d12 <HAL_RCCEx_GetPeriphCLKFreq+0x6be>
            frequency = HSI_VALUE;
 8005c52:	4835      	ldr	r0, [pc, #212]	@ (8005d28 <HAL_RCCEx_GetPeriphCLKFreq+0x6d4>)
 8005c54:	e05d      	b.n	8005d12 <HAL_RCCEx_GetPeriphCLKFreq+0x6be>
        switch(srcclk)
 8005c56:	2000      	movs	r0, #0
 8005c58:	e05b      	b.n	8005d12 <HAL_RCCEx_GetPeriphCLKFreq+0x6be>
 8005c5a:	f5b3 2f40 	cmp.w	r3, #786432	@ 0xc0000
 8005c5e:	d108      	bne.n	8005c72 <HAL_RCCEx_GetPeriphCLKFreq+0x61e>
          if(HAL_IS_BIT_SET(RCC->BDCR, RCC_BDCR_LSERDY))
 8005c60:	4b30      	ldr	r3, [pc, #192]	@ (8005d24 <HAL_RCCEx_GetPeriphCLKFreq+0x6d0>)
 8005c62:	f8d3 0090 	ldr.w	r0, [r3, #144]	@ 0x90
 8005c66:	f010 0002 	ands.w	r0, r0, #2
 8005c6a:	d052      	beq.n	8005d12 <HAL_RCCEx_GetPeriphCLKFreq+0x6be>
            frequency = LSE_VALUE;
 8005c6c:	f44f 4000 	mov.w	r0, #32768	@ 0x8000
 8005c70:	e04f      	b.n	8005d12 <HAL_RCCEx_GetPeriphCLKFreq+0x6be>
        switch(srcclk)
 8005c72:	2000      	movs	r0, #0
 8005c74:	e04d      	b.n	8005d12 <HAL_RCCEx_GetPeriphCLKFreq+0x6be>
          frequency = HAL_RCC_GetPCLK1Freq();
 8005c76:	f7ff f88d 	bl	8004d94 <HAL_RCC_GetPCLK1Freq>
          break;
 8005c7a:	e04a      	b.n	8005d12 <HAL_RCCEx_GetPeriphCLKFreq+0x6be>
          if(HAL_IS_BIT_SET(RCC->CR, RCC_CR_HSIRDY))
 8005c7c:	4b29      	ldr	r3, [pc, #164]	@ (8005d24 <HAL_RCCEx_GetPeriphCLKFreq+0x6d0>)
 8005c7e:	6818      	ldr	r0, [r3, #0]
 8005c80:	f410 6080 	ands.w	r0, r0, #1024	@ 0x400
 8005c84:	d045      	beq.n	8005d12 <HAL_RCCEx_GetPeriphCLKFreq+0x6be>
            frequency = HSI_VALUE;
 8005c86:	4828      	ldr	r0, [pc, #160]	@ (8005d28 <HAL_RCCEx_GetPeriphCLKFreq+0x6d4>)
 8005c88:	e043      	b.n	8005d12 <HAL_RCCEx_GetPeriphCLKFreq+0x6be>
       srcclk = __HAL_RCC_GET_LPTIM2_SOURCE();
 8005c8a:	4b26      	ldr	r3, [pc, #152]	@ (8005d24 <HAL_RCCEx_GetPeriphCLKFreq+0x6d0>)
 8005c8c:	f8d3 3088 	ldr.w	r3, [r3, #136]	@ 0x88
 8005c90:	f403 1340 	and.w	r3, r3, #3145728	@ 0x300000
        switch(srcclk)
 8005c94:	f5b3 1f00 	cmp.w	r3, #2097152	@ 0x200000
 8005c98:	d020      	beq.n	8005cdc <HAL_RCCEx_GetPeriphCLKFreq+0x688>
 8005c9a:	d80e      	bhi.n	8005cba <HAL_RCCEx_GetPeriphCLKFreq+0x666>
 8005c9c:	b1db      	cbz	r3, 8005cd6 <HAL_RCCEx_GetPeriphCLKFreq+0x682>
 8005c9e:	f5b3 1f80 	cmp.w	r3, #1048576	@ 0x100000
 8005ca2:	d108      	bne.n	8005cb6 <HAL_RCCEx_GetPeriphCLKFreq+0x662>
          if(HAL_IS_BIT_SET(RCC->CSR, RCC_CSR_LSIRDY))
 8005ca4:	4b1f      	ldr	r3, [pc, #124]	@ (8005d24 <HAL_RCCEx_GetPeriphCLKFreq+0x6d0>)
 8005ca6:	f8d3 0094 	ldr.w	r0, [r3, #148]	@ 0x94
 8005caa:	f010 0002 	ands.w	r0, r0, #2
 8005cae:	d030      	beq.n	8005d12 <HAL_RCCEx_GetPeriphCLKFreq+0x6be>
              frequency = LSI_VALUE;
 8005cb0:	f44f 40fa 	mov.w	r0, #32000	@ 0x7d00
 8005cb4:	e02d      	b.n	8005d12 <HAL_RCCEx_GetPeriphCLKFreq+0x6be>
        switch(srcclk)
 8005cb6:	2000      	movs	r0, #0
 8005cb8:	e02b      	b.n	8005d12 <HAL_RCCEx_GetPeriphCLKFreq+0x6be>
 8005cba:	f5b3 1f40 	cmp.w	r3, #3145728	@ 0x300000
 8005cbe:	d108      	bne.n	8005cd2 <HAL_RCCEx_GetPeriphCLKFreq+0x67e>
          if(HAL_IS_BIT_SET(RCC->BDCR, RCC_BDCR_LSERDY))
 8005cc0:	4b18      	ldr	r3, [pc, #96]	@ (8005d24 <HAL_RCCEx_GetPeriphCLKFreq+0x6d0>)
 8005cc2:	f8d3 0090 	ldr.w	r0, [r3, #144]	@ 0x90
 8005cc6:	f010 0002 	ands.w	r0, r0, #2
 8005cca:	d022      	beq.n	8005d12 <HAL_RCCEx_GetPeriphCLKFreq+0x6be>
            frequency = LSE_VALUE;
 8005ccc:	f44f 4000 	mov.w	r0, #32768	@ 0x8000
 8005cd0:	e01f      	b.n	8005d12 <HAL_RCCEx_GetPeriphCLKFreq+0x6be>
        switch(srcclk)
 8005cd2:	2000      	movs	r0, #0
 8005cd4:	e01d      	b.n	8005d12 <HAL_RCCEx_GetPeriphCLKFreq+0x6be>
          frequency = HAL_RCC_GetPCLK1Freq();
 8005cd6:	f7ff f85d 	bl	8004d94 <HAL_RCC_GetPCLK1Freq>
          break;
 8005cda:	e01a      	b.n	8005d12 <HAL_RCCEx_GetPeriphCLKFreq+0x6be>
          if(HAL_IS_BIT_SET(RCC->CR, RCC_CR_HSIRDY))
 8005cdc:	4b11      	ldr	r3, [pc, #68]	@ (8005d24 <HAL_RCCEx_GetPeriphCLKFreq+0x6d0>)
 8005cde:	6818      	ldr	r0, [r3, #0]
 8005ce0:	f410 6080 	ands.w	r0, r0, #1024	@ 0x400
 8005ce4:	d015      	beq.n	8005d12 <HAL_RCCEx_GetPeriphCLKFreq+0x6be>
            frequency = HSI_VALUE;
 8005ce6:	4810      	ldr	r0, [pc, #64]	@ (8005d28 <HAL_RCCEx_GetPeriphCLKFreq+0x6d4>)
 8005ce8:	e013      	b.n	8005d12 <HAL_RCCEx_GetPeriphCLKFreq+0x6be>
        srcclk = __HAL_RCC_GET_SWPMI1_SOURCE();
 8005cea:	4b0e      	ldr	r3, [pc, #56]	@ (8005d24 <HAL_RCCEx_GetPeriphCLKFreq+0x6d0>)
 8005cec:	f8d3 3088 	ldr.w	r3, [r3, #136]	@ 0x88
        switch(srcclk)
 8005cf0:	f013 4380 	ands.w	r3, r3, #1073741824	@ 0x40000000
 8005cf4:	d002      	beq.n	8005cfc <HAL_RCCEx_GetPeriphCLKFreq+0x6a8>
 8005cf6:	b923      	cbnz	r3, 8005d02 <HAL_RCCEx_GetPeriphCLKFreq+0x6ae>
 8005cf8:	4618      	mov	r0, r3
 8005cfa:	e00a      	b.n	8005d12 <HAL_RCCEx_GetPeriphCLKFreq+0x6be>
          frequency = HAL_RCC_GetPCLK1Freq();
 8005cfc:	f7ff f84a 	bl	8004d94 <HAL_RCC_GetPCLK1Freq>
          break;
 8005d00:	e007      	b.n	8005d12 <HAL_RCCEx_GetPeriphCLKFreq+0x6be>
          if(HAL_IS_BIT_SET(RCC->CR, RCC_CR_HSIRDY))
 8005d02:	4b08      	ldr	r3, [pc, #32]	@ (8005d24 <HAL_RCCEx_GetPeriphCLKFreq+0x6d0>)
 8005d04:	6818      	ldr	r0, [r3, #0]
 8005d06:	f410 6080 	ands.w	r0, r0, #1024	@ 0x400
 8005d0a:	d002      	beq.n	8005d12 <HAL_RCCEx_GetPeriphCLKFreq+0x6be>
            frequency = HSI_VALUE;
 8005d0c:	4806      	ldr	r0, [pc, #24]	@ (8005d28 <HAL_RCCEx_GetPeriphCLKFreq+0x6d4>)
  return(frequency);
 8005d0e:	e000      	b.n	8005d12 <HAL_RCCEx_GetPeriphCLKFreq+0x6be>
    switch(srcclk)
 8005d10:	2000      	movs	r0, #0
}
 8005d12:	bd08      	pop	{r3, pc}
    switch(PeriphClk)
 8005d14:	2000      	movs	r0, #0
 8005d16:	e7fc      	b.n	8005d12 <HAL_RCCEx_GetPeriphCLKFreq+0x6be>
        switch(srcclk)
 8005d18:	2000      	movs	r0, #0
 8005d1a:	e7fa      	b.n	8005d12 <HAL_RCCEx_GetPeriphCLKFreq+0x6be>
        switch(srcclk)
 8005d1c:	2000      	movs	r0, #0
 8005d1e:	e7f8      	b.n	8005d12 <HAL_RCCEx_GetPeriphCLKFreq+0x6be>
        switch(srcclk)
 8005d20:	2000      	movs	r0, #0
 8005d22:	e7f6      	b.n	8005d12 <HAL_RCCEx_GetPeriphCLKFreq+0x6be>
 8005d24:	40021000 	.word	0x40021000
 8005d28:	00f42400 	.word	0x00f42400

08005d2c <HAL_RTC_WaitForSynchro>:
  *         correctly copied into the RTC_TR and RTC_DR shadow registers.
  * @param  hrtc RTC handle
  * @retval HAL status
  */
HAL_StatusTypeDef HAL_RTC_WaitForSynchro(RTC_HandleTypeDef *hrtc)
{
 8005d2c:	b538      	push	{r3, r4, r5, lr}
 8005d2e:	4604      	mov	r4, r0
#elif defined (STM32L4P5xx) || defined (STM32L4Q5xx)
  /* Clear RSF flag (use a read-modify-write sequence to preserve the other read-write bits) */
  hrtc->Instance->ICSR &= (uint32_t)RTC_RSF_MASK;
#else
  /* Clear RSF flag, keep reserved bits at reset values (setting other flags has no effect) */
  hrtc->Instance->ISR = ((uint32_t)(RTC_RSF_MASK & RTC_ISR_RESERVED_MASK));
 8005d30:	6803      	ldr	r3, [r0, #0]
 8005d32:	4a0a      	ldr	r2, [pc, #40]	@ (8005d5c <HAL_RTC_WaitForSynchro+0x30>)
 8005d34:	60da      	str	r2, [r3, #12]
#endif

  tickstart = HAL_GetTick();
 8005d36:	f7fd fd6b 	bl	8003810 <HAL_GetTick>
 8005d3a:	4605      	mov	r5, r0

  /* Wait the registers to be synchronised */
#if defined(STM32L412xx) || defined(STM32L422xx) || defined (STM32L4P5xx) || defined (STM32L4Q5xx)
  while ((hrtc->Instance->ICSR & RTC_ICSR_RSF) == 0U)
#else
  while ((hrtc->Instance->ISR & RTC_ISR_RSF) == 0U)
 8005d3c:	6823      	ldr	r3, [r4, #0]
 8005d3e:	68db      	ldr	r3, [r3, #12]
 8005d40:	f013 0f20 	tst.w	r3, #32
 8005d44:	d107      	bne.n	8005d56 <HAL_RTC_WaitForSynchro+0x2a>
#endif
  {
    if ((HAL_GetTick() - tickstart) > RTC_TIMEOUT_VALUE)
 8005d46:	f7fd fd63 	bl	8003810 <HAL_GetTick>
 8005d4a:	1b40      	subs	r0, r0, r5
 8005d4c:	f5b0 7f7a 	cmp.w	r0, #1000	@ 0x3e8
 8005d50:	d9f4      	bls.n	8005d3c <HAL_RTC_WaitForSynchro+0x10>
    {
      return HAL_TIMEOUT;
 8005d52:	2003      	movs	r0, #3
 8005d54:	e000      	b.n	8005d58 <HAL_RTC_WaitForSynchro+0x2c>
    }
  }

  return HAL_OK;
 8005d56:	2000      	movs	r0, #0
}
 8005d58:	bd38      	pop	{r3, r4, r5, pc}
 8005d5a:	bf00      	nop
 8005d5c:	0003ff5f 	.word	0x0003ff5f

08005d60 <RTC_EnterInitMode>:
  *         __HAL_RTC_WRITEPROTECTION_DISABLE() before calling this function.
  * @param  hrtc RTC handle
  * @retval HAL status
  */
HAL_StatusTypeDef RTC_EnterInitMode(RTC_HandleTypeDef *hrtc)
{
 8005d60:	b570      	push	{r4, r5, r6, lr}
        hrtc->State = HAL_RTC_STATE_TIMEOUT;
      }
    }
  }
#else /* #if defined(STM32L412xx) || defined(STM32L422xx) || defined (STM32L4P5xx) || defined (STM32L4Q5xx) */
  if ((hrtc->Instance->ISR & RTC_ISR_INITF) == 0U)
 8005d62:	6803      	ldr	r3, [r0, #0]
 8005d64:	68da      	ldr	r2, [r3, #12]
 8005d66:	f012 0f40 	tst.w	r2, #64	@ 0x40
 8005d6a:	d002      	beq.n	8005d72 <RTC_EnterInitMode+0x12>
  HAL_StatusTypeDef status = HAL_OK;
 8005d6c:	2500      	movs	r5, #0
    }
  }
#endif /* #if defined(STM32L412xx) || defined(STM32L422xx) || defined (STM32L4P5xx) || defined (STM32L4Q5xx) */

  return status;
}
 8005d6e:	4628      	mov	r0, r5
 8005d70:	bd70      	pop	{r4, r5, r6, pc}
 8005d72:	4604      	mov	r4, r0
    hrtc->Instance->ISR = (uint32_t)RTC_INIT_MASK;
 8005d74:	f04f 32ff 	mov.w	r2, #4294967295	@ 0xffffffff
 8005d78:	60da      	str	r2, [r3, #12]
    tickstart = HAL_GetTick();
 8005d7a:	f7fd fd49 	bl	8003810 <HAL_GetTick>
 8005d7e:	4606      	mov	r6, r0
  HAL_StatusTypeDef status = HAL_OK;
 8005d80:	2500      	movs	r5, #0
    while ((READ_BIT(hrtc->Instance->ISR, RTC_ISR_INITF) == 0U) && (status != HAL_TIMEOUT))
 8005d82:	6823      	ldr	r3, [r4, #0]
 8005d84:	68db      	ldr	r3, [r3, #12]
 8005d86:	f013 0f40 	tst.w	r3, #64	@ 0x40
 8005d8a:	d1f0      	bne.n	8005d6e <RTC_EnterInitMode+0xe>
 8005d8c:	2d03      	cmp	r5, #3
 8005d8e:	d0ee      	beq.n	8005d6e <RTC_EnterInitMode+0xe>
      if ((HAL_GetTick()  - tickstart) > RTC_TIMEOUT_VALUE)
 8005d90:	f7fd fd3e 	bl	8003810 <HAL_GetTick>
 8005d94:	1b83      	subs	r3, r0, r6
 8005d96:	f5b3 7f7a 	cmp.w	r3, #1000	@ 0x3e8
 8005d9a:	d9f2      	bls.n	8005d82 <RTC_EnterInitMode+0x22>
        hrtc->State = HAL_RTC_STATE_TIMEOUT;
 8005d9c:	2503      	movs	r5, #3
 8005d9e:	f884 5021 	strb.w	r5, [r4, #33]	@ 0x21
 8005da2:	e7ee      	b.n	8005d82 <RTC_EnterInitMode+0x22>

08005da4 <RTC_ExitInitMode>:
  * @brief  Exit the RTC Initialization mode.
  * @param  hrtc RTC handle
  * @retval HAL status
  */
HAL_StatusTypeDef RTC_ExitInitMode(RTC_HandleTypeDef *hrtc)
{
 8005da4:	b510      	push	{r4, lr}
 8005da6:	4604      	mov	r4, r0
  /* Exit Initialization mode */
#if defined(STM32L412xx) || defined(STM32L422xx) || defined(STM32L4P5xx) || defined(STM32L4Q5xx)
  CLEAR_BIT(RTC->ICSR, RTC_ICSR_INIT);
#else
  /* Exit Initialization mode */
  CLEAR_BIT(RTC->ISR, RTC_ISR_INIT);
 8005da8:	4b10      	ldr	r3, [pc, #64]	@ (8005dec <RTC_ExitInitMode+0x48>)
 8005daa:	68da      	ldr	r2, [r3, #12]
 8005dac:	f022 0280 	bic.w	r2, r2, #128	@ 0x80
 8005db0:	60da      	str	r2, [r3, #12]
#endif

  /* If CR_BYPSHAD bit = 0, wait for synchro */
  if (READ_BIT(RTC->CR, RTC_CR_BYPSHAD) == 0U)
 8005db2:	689b      	ldr	r3, [r3, #8]
 8005db4:	f013 0f20 	tst.w	r3, #32
 8005db8:	d106      	bne.n	8005dc8 <RTC_ExitInitMode+0x24>
  {
    if (HAL_RTC_WaitForSynchro(hrtc) != HAL_OK)
 8005dba:	f7ff ffb7 	bl	8005d2c <HAL_RTC_WaitForSynchro>
 8005dbe:	b198      	cbz	r0, 8005de8 <RTC_ExitInitMode+0x44>
    {
      hrtc->State = HAL_RTC_STATE_TIMEOUT;
 8005dc0:	2003      	movs	r0, #3
 8005dc2:	f884 0021 	strb.w	r0, [r4, #33]	@ 0x21
      status = HAL_TIMEOUT;
 8005dc6:	e00f      	b.n	8005de8 <RTC_ExitInitMode+0x44>
    }
  }
  else /* WA 2.9.6 Calendar initialization may fail in case of consecutive INIT mode entry */
  {
    /* Clear BYPSHAD bit */
    CLEAR_BIT(RTC->CR, RTC_CR_BYPSHAD);
 8005dc8:	4a08      	ldr	r2, [pc, #32]	@ (8005dec <RTC_ExitInitMode+0x48>)
 8005dca:	6893      	ldr	r3, [r2, #8]
 8005dcc:	f023 0320 	bic.w	r3, r3, #32
 8005dd0:	6093      	str	r3, [r2, #8]
    if (HAL_RTC_WaitForSynchro(hrtc) != HAL_OK)
 8005dd2:	f7ff ffab 	bl	8005d2c <HAL_RTC_WaitForSynchro>
 8005dd6:	b110      	cbz	r0, 8005dde <RTC_ExitInitMode+0x3a>
    {
      hrtc->State = HAL_RTC_STATE_TIMEOUT;
 8005dd8:	2003      	movs	r0, #3
 8005dda:	f884 0021 	strb.w	r0, [r4, #33]	@ 0x21
      status = HAL_TIMEOUT;
    }
    /* Restore BYPSHAD bit */
    SET_BIT(RTC->CR, RTC_CR_BYPSHAD);
 8005dde:	4a03      	ldr	r2, [pc, #12]	@ (8005dec <RTC_ExitInitMode+0x48>)
 8005de0:	6893      	ldr	r3, [r2, #8]
 8005de2:	f043 0320 	orr.w	r3, r3, #32
 8005de6:	6093      	str	r3, [r2, #8]
  }

  return status;
}
 8005de8:	bd10      	pop	{r4, pc}
 8005dea:	bf00      	nop
 8005dec:	40002800 	.word	0x40002800

08005df0 <HAL_RTC_Init>:
  if (hrtc != NULL)
 8005df0:	2800      	cmp	r0, #0
 8005df2:	d04e      	beq.n	8005e92 <HAL_RTC_Init+0xa2>
{
 8005df4:	b538      	push	{r3, r4, r5, lr}
 8005df6:	4604      	mov	r4, r0
    if (hrtc->State == HAL_RTC_STATE_RESET)
 8005df8:	f890 3021 	ldrb.w	r3, [r0, #33]	@ 0x21
 8005dfc:	b163      	cbz	r3, 8005e18 <HAL_RTC_Init+0x28>
    hrtc->State = HAL_RTC_STATE_BUSY;
 8005dfe:	2302      	movs	r3, #2
 8005e00:	f884 3021 	strb.w	r3, [r4, #33]	@ 0x21
    if (__HAL_RTC_IS_CALENDAR_INITIALIZED(hrtc) == 0U)
 8005e04:	6823      	ldr	r3, [r4, #0]
 8005e06:	68da      	ldr	r2, [r3, #12]
 8005e08:	f012 0f10 	tst.w	r2, #16
 8005e0c:	d009      	beq.n	8005e22 <HAL_RTC_Init+0x32>
      status = HAL_OK;
 8005e0e:	2000      	movs	r0, #0
        hrtc->State = HAL_RTC_STATE_READY;
 8005e10:	2301      	movs	r3, #1
 8005e12:	f884 3021 	strb.w	r3, [r4, #33]	@ 0x21
}
 8005e16:	bd38      	pop	{r3, r4, r5, pc}
      hrtc->Lock = HAL_UNLOCKED;
 8005e18:	f880 3020 	strb.w	r3, [r0, #32]
      HAL_RTC_MspInit(hrtc);
 8005e1c:	f7fe fa2e 	bl	800427c <HAL_RTC_MspInit>
 8005e20:	e7ed      	b.n	8005dfe <HAL_RTC_Init+0xe>
      __HAL_RTC_WRITEPROTECTION_DISABLE(hrtc);
 8005e22:	22ca      	movs	r2, #202	@ 0xca
 8005e24:	625a      	str	r2, [r3, #36]	@ 0x24
 8005e26:	6823      	ldr	r3, [r4, #0]
 8005e28:	2253      	movs	r2, #83	@ 0x53
 8005e2a:	625a      	str	r2, [r3, #36]	@ 0x24
      status = RTC_EnterInitMode(hrtc);
 8005e2c:	4620      	mov	r0, r4
 8005e2e:	f7ff ff97 	bl	8005d60 <RTC_EnterInitMode>
      if (status == HAL_OK)
 8005e32:	b9c0      	cbnz	r0, 8005e66 <HAL_RTC_Init+0x76>
        hrtc->Instance->CR &= ~(RTC_CR_FMT | RTC_CR_OSEL | RTC_CR_POL);
 8005e34:	6822      	ldr	r2, [r4, #0]
 8005e36:	6893      	ldr	r3, [r2, #8]
 8005e38:	f423 03e0 	bic.w	r3, r3, #7340032	@ 0x700000
 8005e3c:	f023 0340 	bic.w	r3, r3, #64	@ 0x40
 8005e40:	6093      	str	r3, [r2, #8]
        hrtc->Instance->CR |= (hrtc->Init.HourFormat | hrtc->Init.OutPut | hrtc->Init.OutPutPolarity);
 8005e42:	6821      	ldr	r1, [r4, #0]
 8005e44:	688a      	ldr	r2, [r1, #8]
 8005e46:	6863      	ldr	r3, [r4, #4]
 8005e48:	6920      	ldr	r0, [r4, #16]
 8005e4a:	4303      	orrs	r3, r0
 8005e4c:	69a0      	ldr	r0, [r4, #24]
 8005e4e:	4303      	orrs	r3, r0
 8005e50:	4313      	orrs	r3, r2
 8005e52:	608b      	str	r3, [r1, #8]
        hrtc->Instance->PRER = (hrtc->Init.SynchPrediv);
 8005e54:	6823      	ldr	r3, [r4, #0]
 8005e56:	68e2      	ldr	r2, [r4, #12]
 8005e58:	611a      	str	r2, [r3, #16]
        hrtc->Instance->PRER |= (hrtc->Init.AsynchPrediv << RTC_PRER_PREDIV_A_Pos);
 8005e5a:	6822      	ldr	r2, [r4, #0]
 8005e5c:	6913      	ldr	r3, [r2, #16]
 8005e5e:	68a1      	ldr	r1, [r4, #8]
 8005e60:	ea43 4301 	orr.w	r3, r3, r1, lsl #16
 8005e64:	6113      	str	r3, [r2, #16]
      status = RTC_ExitInitMode(hrtc);
 8005e66:	4620      	mov	r0, r4
 8005e68:	f7ff ff9c 	bl	8005da4 <RTC_ExitInitMode>
      if (status == HAL_OK)
 8005e6c:	b958      	cbnz	r0, 8005e86 <HAL_RTC_Init+0x96>
        hrtc->Instance->OR &= ~(RTC_OR_ALARMOUTTYPE | RTC_OR_OUT_RMP);
 8005e6e:	6822      	ldr	r2, [r4, #0]
 8005e70:	6cd3      	ldr	r3, [r2, #76]	@ 0x4c
 8005e72:	f023 0303 	bic.w	r3, r3, #3
 8005e76:	64d3      	str	r3, [r2, #76]	@ 0x4c
        hrtc->Instance->OR |= (hrtc->Init.OutPutType | hrtc->Init.OutPutRemap);
 8005e78:	6821      	ldr	r1, [r4, #0]
 8005e7a:	6ccb      	ldr	r3, [r1, #76]	@ 0x4c
 8005e7c:	69e2      	ldr	r2, [r4, #28]
 8005e7e:	6965      	ldr	r5, [r4, #20]
 8005e80:	432a      	orrs	r2, r5
 8005e82:	4313      	orrs	r3, r2
 8005e84:	64cb      	str	r3, [r1, #76]	@ 0x4c
      __HAL_RTC_WRITEPROTECTION_ENABLE(hrtc);
 8005e86:	6823      	ldr	r3, [r4, #0]
 8005e88:	22ff      	movs	r2, #255	@ 0xff
 8005e8a:	625a      	str	r2, [r3, #36]	@ 0x24
    if (status == HAL_OK)
 8005e8c:	2800      	cmp	r0, #0
 8005e8e:	d1c2      	bne.n	8005e16 <HAL_RTC_Init+0x26>
 8005e90:	e7be      	b.n	8005e10 <HAL_RTC_Init+0x20>
  HAL_StatusTypeDef status = HAL_ERROR;
 8005e92:	2001      	movs	r0, #1
}
 8005e94:	4770      	bx	lr

08005e96 <RTC_ByteToBcd2>:
  * @param  Value Byte to be converted
  * @retval Converted byte
  */
uint8_t RTC_ByteToBcd2(uint8_t Value)
{
  uint32_t bcdhigh = 0U;
 8005e96:	2300      	movs	r3, #0
  uint8_t temp = Value;

  while (temp >= 10U)
 8005e98:	e002      	b.n	8005ea0 <RTC_ByteToBcd2+0xa>
  {
    bcdhigh++;
 8005e9a:	3301      	adds	r3, #1
    temp -= 10U;
 8005e9c:	380a      	subs	r0, #10
 8005e9e:	b2c0      	uxtb	r0, r0
  while (temp >= 10U)
 8005ea0:	2809      	cmp	r0, #9
 8005ea2:	d8fa      	bhi.n	8005e9a <RTC_ByteToBcd2+0x4>
  }

  return ((uint8_t)(bcdhigh << 4U) | temp);
 8005ea4:	011b      	lsls	r3, r3, #4
 8005ea6:	b2db      	uxtb	r3, r3
}
 8005ea8:	4318      	orrs	r0, r3
 8005eaa:	4770      	bx	lr

08005eac <HAL_RTC_SetTime>:
  __HAL_LOCK(hrtc);
 8005eac:	f890 3020 	ldrb.w	r3, [r0, #32]
 8005eb0:	2b01      	cmp	r3, #1
 8005eb2:	d061      	beq.n	8005f78 <HAL_RTC_SetTime+0xcc>
{
 8005eb4:	b570      	push	{r4, r5, r6, lr}
 8005eb6:	4604      	mov	r4, r0
 8005eb8:	460d      	mov	r5, r1
 8005eba:	4616      	mov	r6, r2
  __HAL_LOCK(hrtc);
 8005ebc:	2301      	movs	r3, #1
 8005ebe:	f880 3020 	strb.w	r3, [r0, #32]
  hrtc->State = HAL_RTC_STATE_BUSY;
 8005ec2:	2302      	movs	r3, #2
 8005ec4:	f880 3021 	strb.w	r3, [r0, #33]	@ 0x21
  __HAL_RTC_WRITEPROTECTION_DISABLE(hrtc);
 8005ec8:	6803      	ldr	r3, [r0, #0]
 8005eca:	22ca      	movs	r2, #202	@ 0xca
 8005ecc:	625a      	str	r2, [r3, #36]	@ 0x24
 8005ece:	6803      	ldr	r3, [r0, #0]
 8005ed0:	2253      	movs	r2, #83	@ 0x53
 8005ed2:	625a      	str	r2, [r3, #36]	@ 0x24
  status = RTC_EnterInitMode(hrtc);
 8005ed4:	f7ff ff44 	bl	8005d60 <RTC_EnterInitMode>
  if (status == HAL_OK)
 8005ed8:	2800      	cmp	r0, #0
 8005eda:	d130      	bne.n	8005f3e <HAL_RTC_SetTime+0x92>
    if (Format == RTC_FORMAT_BIN)
 8005edc:	2e00      	cmp	r6, #0
 8005ede:	d139      	bne.n	8005f54 <HAL_RTC_SetTime+0xa8>
      if ((hrtc->Instance->CR & RTC_CR_FMT) != 0U)
 8005ee0:	6823      	ldr	r3, [r4, #0]
 8005ee2:	689b      	ldr	r3, [r3, #8]
 8005ee4:	f013 0f40 	tst.w	r3, #64	@ 0x40
 8005ee8:	d101      	bne.n	8005eee <HAL_RTC_SetTime+0x42>
        sTime->TimeFormat = 0x00U;
 8005eea:	2300      	movs	r3, #0
 8005eec:	70eb      	strb	r3, [r5, #3]
      tmpreg = (uint32_t)(((uint32_t)RTC_ByteToBcd2(sTime->Hours) << RTC_TR_HU_Pos) | \
 8005eee:	7828      	ldrb	r0, [r5, #0]
 8005ef0:	f7ff ffd1 	bl	8005e96 <RTC_ByteToBcd2>
 8005ef4:	0403      	lsls	r3, r0, #16
 8005ef6:	461e      	mov	r6, r3
                          ((uint32_t)RTC_ByteToBcd2(sTime->Minutes) << RTC_TR_MNU_Pos) | \
 8005ef8:	7868      	ldrb	r0, [r5, #1]
 8005efa:	f7ff ffcc 	bl	8005e96 <RTC_ByteToBcd2>
      tmpreg = (uint32_t)(((uint32_t)RTC_ByteToBcd2(sTime->Hours) << RTC_TR_HU_Pos) | \
 8005efe:	ea46 2300 	orr.w	r3, r6, r0, lsl #8
 8005f02:	461e      	mov	r6, r3
                          ((uint32_t)RTC_ByteToBcd2(sTime->Seconds) << RTC_TR_SU_Pos) | \
 8005f04:	78a8      	ldrb	r0, [r5, #2]
 8005f06:	f7ff ffc6 	bl	8005e96 <RTC_ByteToBcd2>
                          ((uint32_t)RTC_ByteToBcd2(sTime->Minutes) << RTC_TR_MNU_Pos) | \
 8005f0a:	4633      	mov	r3, r6
 8005f0c:	4303      	orrs	r3, r0
                          (((uint32_t)sTime->TimeFormat) << RTC_TR_PM_Pos));
 8005f0e:	78ea      	ldrb	r2, [r5, #3]
      tmpreg = (uint32_t)(((uint32_t)RTC_ByteToBcd2(sTime->Hours) << RTC_TR_HU_Pos) | \
 8005f10:	ea43 5382 	orr.w	r3, r3, r2, lsl #22
    hrtc->Instance->TR = (uint32_t)(tmpreg & RTC_TR_RESERVED_MASK);
 8005f14:	6822      	ldr	r2, [r4, #0]
 8005f16:	f003 337f 	and.w	r3, r3, #2139062143	@ 0x7f7f7f7f
 8005f1a:	f023 43fe 	bic.w	r3, r3, #2130706432	@ 0x7f000000
 8005f1e:	6013      	str	r3, [r2, #0]
    hrtc->Instance->CR &= ((uint32_t)~RTC_CR_BKP);
 8005f20:	6822      	ldr	r2, [r4, #0]
 8005f22:	6893      	ldr	r3, [r2, #8]
 8005f24:	f423 2380 	bic.w	r3, r3, #262144	@ 0x40000
 8005f28:	6093      	str	r3, [r2, #8]
    hrtc->Instance->CR |= (uint32_t)(sTime->DayLightSaving | sTime->StoreOperation);
 8005f2a:	6821      	ldr	r1, [r4, #0]
 8005f2c:	688b      	ldr	r3, [r1, #8]
 8005f2e:	68ea      	ldr	r2, [r5, #12]
 8005f30:	6928      	ldr	r0, [r5, #16]
 8005f32:	4302      	orrs	r2, r0
 8005f34:	4313      	orrs	r3, r2
 8005f36:	608b      	str	r3, [r1, #8]
    status = RTC_ExitInitMode(hrtc);
 8005f38:	4620      	mov	r0, r4
 8005f3a:	f7ff ff33 	bl	8005da4 <RTC_ExitInitMode>
  __HAL_RTC_WRITEPROTECTION_ENABLE(hrtc);
 8005f3e:	6823      	ldr	r3, [r4, #0]
 8005f40:	22ff      	movs	r2, #255	@ 0xff
 8005f42:	625a      	str	r2, [r3, #36]	@ 0x24
  if (status == HAL_OK)
 8005f44:	b910      	cbnz	r0, 8005f4c <HAL_RTC_SetTime+0xa0>
    hrtc->State = HAL_RTC_STATE_READY;
 8005f46:	2301      	movs	r3, #1
 8005f48:	f884 3021 	strb.w	r3, [r4, #33]	@ 0x21
  __HAL_UNLOCK(hrtc);
 8005f4c:	2300      	movs	r3, #0
 8005f4e:	f884 3020 	strb.w	r3, [r4, #32]
}
 8005f52:	bd70      	pop	{r4, r5, r6, pc}
      if ((hrtc->Instance->CR & RTC_CR_FMT) != 0U)
 8005f54:	6823      	ldr	r3, [r4, #0]
 8005f56:	689b      	ldr	r3, [r3, #8]
 8005f58:	f013 0f40 	tst.w	r3, #64	@ 0x40
 8005f5c:	d101      	bne.n	8005f62 <HAL_RTC_SetTime+0xb6>
        sTime->TimeFormat = 0x00U;
 8005f5e:	2300      	movs	r3, #0
 8005f60:	70eb      	strb	r3, [r5, #3]
      tmpreg = (((uint32_t)(sTime->Hours) << RTC_TR_HU_Pos) | \
 8005f62:	782a      	ldrb	r2, [r5, #0]
                ((uint32_t)(sTime->Minutes) << RTC_TR_MNU_Pos) | \
 8005f64:	786b      	ldrb	r3, [r5, #1]
 8005f66:	021b      	lsls	r3, r3, #8
      tmpreg = (((uint32_t)(sTime->Hours) << RTC_TR_HU_Pos) | \
 8005f68:	ea43 4302 	orr.w	r3, r3, r2, lsl #16
                ((uint32_t)(sTime->Seconds) << RTC_TR_SU_Pos) | \
 8005f6c:	78aa      	ldrb	r2, [r5, #2]
                ((uint32_t)(sTime->Minutes) << RTC_TR_MNU_Pos) | \
 8005f6e:	4313      	orrs	r3, r2
                ((uint32_t)(sTime->TimeFormat) << RTC_TR_PM_Pos));
 8005f70:	78ea      	ldrb	r2, [r5, #3]
      tmpreg = (((uint32_t)(sTime->Hours) << RTC_TR_HU_Pos) | \
 8005f72:	ea43 5382 	orr.w	r3, r3, r2, lsl #22
 8005f76:	e7cd      	b.n	8005f14 <HAL_RTC_SetTime+0x68>
  __HAL_LOCK(hrtc);
 8005f78:	2002      	movs	r0, #2
}
 8005f7a:	4770      	bx	lr

08005f7c <HAL_RTC_SetDate>:
  __HAL_LOCK(hrtc);
 8005f7c:	f890 3020 	ldrb.w	r3, [r0, #32]
 8005f80:	2b01      	cmp	r3, #1
 8005f82:	d04d      	beq.n	8006020 <HAL_RTC_SetDate+0xa4>
{
 8005f84:	b570      	push	{r4, r5, r6, lr}
 8005f86:	4604      	mov	r4, r0
 8005f88:	460d      	mov	r5, r1
  __HAL_LOCK(hrtc);
 8005f8a:	2301      	movs	r3, #1
 8005f8c:	f880 3020 	strb.w	r3, [r0, #32]
  hrtc->State = HAL_RTC_STATE_BUSY;
 8005f90:	2302      	movs	r3, #2
 8005f92:	f880 3021 	strb.w	r3, [r0, #33]	@ 0x21
  if ((Format == RTC_FORMAT_BIN) && ((sDate->Month & 0x10U) == 0x10U))
 8005f96:	b1f2      	cbz	r2, 8005fd6 <HAL_RTC_SetDate+0x5a>
    datetmpreg = ((((uint32_t)sDate->Year) << RTC_DR_YU_Pos) | \
 8005f98:	78ca      	ldrb	r2, [r1, #3]
                  (((uint32_t)sDate->Month) << RTC_DR_MU_Pos) | \
 8005f9a:	784b      	ldrb	r3, [r1, #1]
 8005f9c:	021b      	lsls	r3, r3, #8
    datetmpreg = ((((uint32_t)sDate->Year) << RTC_DR_YU_Pos) | \
 8005f9e:	ea43 4302 	orr.w	r3, r3, r2, lsl #16
                  (((uint32_t)sDate->Date) << RTC_DR_DU_Pos) | \
 8005fa2:	788a      	ldrb	r2, [r1, #2]
                  (((uint32_t)sDate->Month) << RTC_DR_MU_Pos) | \
 8005fa4:	4313      	orrs	r3, r2
                  (((uint32_t)sDate->WeekDay) << RTC_DR_WDU_Pos));
 8005fa6:	780a      	ldrb	r2, [r1, #0]
    datetmpreg = ((((uint32_t)sDate->Year) << RTC_DR_YU_Pos) | \
 8005fa8:	ea43 3542 	orr.w	r5, r3, r2, lsl #13
  __HAL_RTC_WRITEPROTECTION_DISABLE(hrtc);
 8005fac:	6823      	ldr	r3, [r4, #0]
 8005fae:	22ca      	movs	r2, #202	@ 0xca
 8005fb0:	625a      	str	r2, [r3, #36]	@ 0x24
 8005fb2:	6823      	ldr	r3, [r4, #0]
 8005fb4:	2253      	movs	r2, #83	@ 0x53
 8005fb6:	625a      	str	r2, [r3, #36]	@ 0x24
  status = RTC_EnterInitMode(hrtc);
 8005fb8:	4620      	mov	r0, r4
 8005fba:	f7ff fed1 	bl	8005d60 <RTC_EnterInitMode>
  if (status == HAL_OK)
 8005fbe:	b328      	cbz	r0, 800600c <HAL_RTC_SetDate+0x90>
  __HAL_RTC_WRITEPROTECTION_ENABLE(hrtc);
 8005fc0:	6823      	ldr	r3, [r4, #0]
 8005fc2:	22ff      	movs	r2, #255	@ 0xff
 8005fc4:	625a      	str	r2, [r3, #36]	@ 0x24
  if (status == HAL_OK)
 8005fc6:	b910      	cbnz	r0, 8005fce <HAL_RTC_SetDate+0x52>
    hrtc->State = HAL_RTC_STATE_READY ;
 8005fc8:	2301      	movs	r3, #1
 8005fca:	f884 3021 	strb.w	r3, [r4, #33]	@ 0x21
  __HAL_UNLOCK(hrtc);
 8005fce:	2300      	movs	r3, #0
 8005fd0:	f884 3020 	strb.w	r3, [r4, #32]
}
 8005fd4:	bd70      	pop	{r4, r5, r6, pc}
  if ((Format == RTC_FORMAT_BIN) && ((sDate->Month & 0x10U) == 0x10U))
 8005fd6:	784b      	ldrb	r3, [r1, #1]
 8005fd8:	f013 0f10 	tst.w	r3, #16
 8005fdc:	d003      	beq.n	8005fe6 <HAL_RTC_SetDate+0x6a>
    sDate->Month = (uint8_t)((sDate->Month & (uint8_t)~(0x10U)) + (uint8_t)0x0AU);
 8005fde:	f003 03ef 	and.w	r3, r3, #239	@ 0xef
 8005fe2:	330a      	adds	r3, #10
 8005fe4:	704b      	strb	r3, [r1, #1]
    datetmpreg = (((uint32_t)RTC_ByteToBcd2(sDate->Year) << RTC_DR_YU_Pos) | \
 8005fe6:	78e8      	ldrb	r0, [r5, #3]
 8005fe8:	f7ff ff55 	bl	8005e96 <RTC_ByteToBcd2>
 8005fec:	0403      	lsls	r3, r0, #16
 8005fee:	461e      	mov	r6, r3
                  ((uint32_t)RTC_ByteToBcd2(sDate->Month) << RTC_DR_MU_Pos) | \
 8005ff0:	7868      	ldrb	r0, [r5, #1]
 8005ff2:	f7ff ff50 	bl	8005e96 <RTC_ByteToBcd2>
    datetmpreg = (((uint32_t)RTC_ByteToBcd2(sDate->Year) << RTC_DR_YU_Pos) | \
 8005ff6:	ea46 2300 	orr.w	r3, r6, r0, lsl #8
 8005ffa:	461e      	mov	r6, r3
                  ((uint32_t)RTC_ByteToBcd2(sDate->Date) << RTC_DR_DU_Pos) | \
 8005ffc:	78a8      	ldrb	r0, [r5, #2]
 8005ffe:	f7ff ff4a 	bl	8005e96 <RTC_ByteToBcd2>
                  ((uint32_t)RTC_ByteToBcd2(sDate->Month) << RTC_DR_MU_Pos) | \
 8006002:	4330      	orrs	r0, r6
                  ((uint32_t)sDate->WeekDay << RTC_DR_WDU_Pos));
 8006004:	782b      	ldrb	r3, [r5, #0]
    datetmpreg = (((uint32_t)RTC_ByteToBcd2(sDate->Year) << RTC_DR_YU_Pos) | \
 8006006:	ea40 3543 	orr.w	r5, r0, r3, lsl #13
 800600a:	e7cf      	b.n	8005fac <HAL_RTC_SetDate+0x30>
    hrtc->Instance->DR = (uint32_t)(datetmpreg & RTC_DR_RESERVED_MASK);
 800600c:	6822      	ldr	r2, [r4, #0]
 800600e:	f025 437f 	bic.w	r3, r5, #4278190080	@ 0xff000000
 8006012:	f023 03c0 	bic.w	r3, r3, #192	@ 0xc0
 8006016:	6053      	str	r3, [r2, #4]
    status = RTC_ExitInitMode(hrtc);
 8006018:	4620      	mov	r0, r4
 800601a:	f7ff fec3 	bl	8005da4 <RTC_ExitInitMode>
 800601e:	e7cf      	b.n	8005fc0 <HAL_RTC_SetDate+0x44>
  __HAL_LOCK(hrtc);
 8006020:	2002      	movs	r0, #2
}
 8006022:	4770      	bx	lr

08006024 <SD_DMATransmitCplt>:
  * @param  hdma: DMA handle
  * @retval None
  */
static void SD_DMATransmitCplt(DMA_HandleTypeDef *hdma)
{
  SD_HandleTypeDef *hsd = (SD_HandleTypeDef *)(hdma->Parent);
 8006024:	6a83      	ldr	r3, [r0, #40]	@ 0x28

  /* Enable DATAEND Interrupt */
  __HAL_SD_ENABLE_IT(hsd, (SDMMC_IT_DATAEND));
 8006026:	681a      	ldr	r2, [r3, #0]
 8006028:	6bd3      	ldr	r3, [r2, #60]	@ 0x3c
 800602a:	f443 7380 	orr.w	r3, r3, #256	@ 0x100
 800602e:	63d3      	str	r3, [r2, #60]	@ 0x3c
}
 8006030:	4770      	bx	lr
	...

08006034 <SD_PowerON>:
  *         in the SD handle.
  * @param  hsd: Pointer to SD handle
  * @retval error state
  */
static uint32_t SD_PowerON(SD_HandleTypeDef *hsd)
{
 8006034:	b570      	push	{r4, r5, r6, lr}
 8006036:	b082      	sub	sp, #8
 8006038:	4604      	mov	r4, r0
  __IO uint32_t count = 0U;
 800603a:	2300      	movs	r3, #0
 800603c:	9301      	str	r3, [sp, #4]
#if defined(STM32L4P5xx) || defined(STM32L4Q5xx) || defined(STM32L4R5xx) || defined(STM32L4R7xx) || defined(STM32L4R9xx) || defined(STM32L4S5xx) || defined(STM32L4S7xx) || defined(STM32L4S9xx)
  uint32_t tickstart = HAL_GetTick();
#endif /* STM32L4P5xx || STM32L4Q5xx || STM32L4R5xx || STM32L4R7xx || STM32L4R9xx || STM32L4S5xx || STM32L4S7xx || STM32L4S9xx */

  /* CMD0: GO_IDLE_STATE */
  errorstate = SDMMC_CmdGoIdleState(hsd->Instance);
 800603e:	6800      	ldr	r0, [r0, #0]
 8006040:	f001 fbc4 	bl	80077cc <SDMMC_CmdGoIdleState>
  if (errorstate != HAL_SD_ERROR_NONE)
 8006044:	4606      	mov	r6, r0
 8006046:	b110      	cbz	r0, 800604e <SD_PowerON+0x1a>
    hsd->SdCard.CardType = CARD_SDSC;
  }


  return HAL_SD_ERROR_NONE;
}
 8006048:	4630      	mov	r0, r6
 800604a:	b002      	add	sp, #8
 800604c:	bd70      	pop	{r4, r5, r6, pc}
  errorstate = SDMMC_CmdOperCond(hsd->Instance);
 800604e:	6820      	ldr	r0, [r4, #0]
 8006050:	f001 febc 	bl	8007dcc <SDMMC_CmdOperCond>
  if (errorstate != HAL_SD_ERROR_NONE)
 8006054:	b938      	cbnz	r0, 8006066 <SD_PowerON+0x32>
    hsd->SdCard.CardVersion = CARD_V2_X;
 8006056:	2301      	movs	r3, #1
 8006058:	64a3      	str	r3, [r4, #72]	@ 0x48
  if (hsd->SdCard.CardVersion == CARD_V2_X)
 800605a:	6ca3      	ldr	r3, [r4, #72]	@ 0x48
 800605c:	2b01      	cmp	r3, #1
 800605e:	d00b      	beq.n	8006078 <SD_PowerON+0x44>
    validvoltage = (((response >> 31U) == 1U) ? 1U : 0U);
 8006060:	4630      	mov	r0, r6
 8006062:	4635      	mov	r5, r6
 8006064:	e015      	b.n	8006092 <SD_PowerON+0x5e>
    hsd->SdCard.CardVersion = CARD_V1_X;
 8006066:	2300      	movs	r3, #0
 8006068:	64a3      	str	r3, [r4, #72]	@ 0x48
    errorstate = SDMMC_CmdGoIdleState(hsd->Instance);
 800606a:	6820      	ldr	r0, [r4, #0]
 800606c:	f001 fbae 	bl	80077cc <SDMMC_CmdGoIdleState>
    if (errorstate != HAL_SD_ERROR_NONE)
 8006070:	2800      	cmp	r0, #0
 8006072:	d0f2      	beq.n	800605a <SD_PowerON+0x26>
      return errorstate;
 8006074:	4606      	mov	r6, r0
 8006076:	e7e7      	b.n	8006048 <SD_PowerON+0x14>
    errorstate = SDMMC_CmdAppCommand(hsd->Instance, 0);
 8006078:	2100      	movs	r1, #0
 800607a:	6820      	ldr	r0, [r4, #0]
 800607c:	f001 fd0e 	bl	8007a9c <SDMMC_CmdAppCommand>
    if (errorstate != HAL_SD_ERROR_NONE)
 8006080:	2800      	cmp	r0, #0
 8006082:	d0ed      	beq.n	8006060 <SD_PowerON+0x2c>
      return HAL_SD_ERROR_UNSUPPORTED_FEATURE;
 8006084:	f04f 5380 	mov.w	r3, #268435456	@ 0x10000000
 8006088:	461e      	mov	r6, r3
 800608a:	e7dd      	b.n	8006048 <SD_PowerON+0x14>
    count++;
 800608c:	9b01      	ldr	r3, [sp, #4]
 800608e:	3301      	adds	r3, #1
 8006090:	9301      	str	r3, [sp, #4]
  while ((count < SDMMC_MAX_VOLT_TRIAL) && (validvoltage == 0U))
 8006092:	9a01      	ldr	r2, [sp, #4]
 8006094:	f64f 73fe 	movw	r3, #65534	@ 0xfffe
 8006098:	429a      	cmp	r2, r3
 800609a:	d813      	bhi.n	80060c4 <SD_PowerON+0x90>
 800609c:	b995      	cbnz	r5, 80060c4 <SD_PowerON+0x90>
    errorstate = SDMMC_CmdAppCommand(hsd->Instance, 0);
 800609e:	4629      	mov	r1, r5
 80060a0:	6820      	ldr	r0, [r4, #0]
 80060a2:	f001 fcfb 	bl	8007a9c <SDMMC_CmdAppCommand>
    if (errorstate != HAL_SD_ERROR_NONE)
 80060a6:	b9e0      	cbnz	r0, 80060e2 <SD_PowerON+0xae>
    errorstate = SDMMC_CmdAppOperCommand(hsd->Instance, SDMMC_VOLTAGE_WINDOW_SD | SDMMC_HIGH_CAPACITY | SD_SWITCH_1_8V_CAPACITY);
 80060a8:	4913      	ldr	r1, [pc, #76]	@ (80060f8 <SD_PowerON+0xc4>)
 80060aa:	6820      	ldr	r0, [r4, #0]
 80060ac:	f001 fdd6 	bl	8007c5c <SDMMC_CmdAppOperCommand>
    if (errorstate != HAL_SD_ERROR_NONE)
 80060b0:	4605      	mov	r5, r0
 80060b2:	b9c0      	cbnz	r0, 80060e6 <SD_PowerON+0xb2>
    response = SDMMC_GetResponse(hsd->Instance, SDMMC_RESP1);
 80060b4:	4601      	mov	r1, r0
 80060b6:	6820      	ldr	r0, [r4, #0]
 80060b8:	f001 fb73 	bl	80077a2 <SDMMC_GetResponse>
    validvoltage = (((response >> 31U) == 1U) ? 1U : 0U);
 80060bc:	0fc3      	lsrs	r3, r0, #31
 80060be:	d0e5      	beq.n	800608c <SD_PowerON+0x58>
 80060c0:	461d      	mov	r5, r3
 80060c2:	e7e3      	b.n	800608c <SD_PowerON+0x58>
  if (count >= SDMMC_MAX_VOLT_TRIAL)
 80060c4:	9a01      	ldr	r2, [sp, #4]
 80060c6:	f64f 73fe 	movw	r3, #65534	@ 0xfffe
 80060ca:	429a      	cmp	r2, r3
 80060cc:	d80f      	bhi.n	80060ee <SD_PowerON+0xba>
  if ((response & SDMMC_HIGH_CAPACITY) == SDMMC_HIGH_CAPACITY) /* (response &= SD_HIGH_CAPACITY) */
 80060ce:	f010 4380 	ands.w	r3, r0, #1073741824	@ 0x40000000
 80060d2:	d002      	beq.n	80060da <SD_PowerON+0xa6>
    hsd->SdCard.CardType = CARD_SDHC_SDXC;
 80060d4:	2301      	movs	r3, #1
 80060d6:	6463      	str	r3, [r4, #68]	@ 0x44
 80060d8:	e7b6      	b.n	8006048 <SD_PowerON+0x14>
    hsd->SdCard.CardType = CARD_SDSC;
 80060da:	2200      	movs	r2, #0
 80060dc:	6462      	str	r2, [r4, #68]	@ 0x44
  return HAL_SD_ERROR_NONE;
 80060de:	461e      	mov	r6, r3
 80060e0:	e7b2      	b.n	8006048 <SD_PowerON+0x14>
      return errorstate;
 80060e2:	4606      	mov	r6, r0
 80060e4:	e7b0      	b.n	8006048 <SD_PowerON+0x14>
      return HAL_SD_ERROR_UNSUPPORTED_FEATURE;
 80060e6:	f04f 5380 	mov.w	r3, #268435456	@ 0x10000000
 80060ea:	461e      	mov	r6, r3
 80060ec:	e7ac      	b.n	8006048 <SD_PowerON+0x14>
    return HAL_SD_ERROR_INVALID_VOLTRANGE;
 80060ee:	f04f 7380 	mov.w	r3, #16777216	@ 0x1000000
 80060f2:	461e      	mov	r6, r3
 80060f4:	e7a8      	b.n	8006048 <SD_PowerON+0x14>
 80060f6:	bf00      	nop
 80060f8:	c1100000 	.word	0xc1100000

080060fc <SD_FindSCR>:
  * @param  hsd: Pointer to SD handle
  * @param  pSCR: pointer to the buffer that will contain the SCR value
  * @retval error state
  */
static uint32_t SD_FindSCR(SD_HandleTypeDef *hsd, uint32_t *pSCR)
{
 80060fc:	b5f0      	push	{r4, r5, r6, r7, lr}
 80060fe:	b089      	sub	sp, #36	@ 0x24
 8006100:	4604      	mov	r4, r0
 8006102:	460f      	mov	r7, r1
  SDMMC_DataInitTypeDef config;
  uint32_t errorstate;
  uint32_t tickstart = HAL_GetTick();
 8006104:	f7fd fb84 	bl	8003810 <HAL_GetTick>
 8006108:	4606      	mov	r6, r0
  uint32_t index = 0U;
  uint32_t tempscr[2U] = {0U, 0U};
 800610a:	2300      	movs	r3, #0
 800610c:	9300      	str	r3, [sp, #0]
 800610e:	9301      	str	r3, [sp, #4]
  uint32_t *scr = pSCR;

  /* Set Block Size To 8 Bytes */
  errorstate = SDMMC_CmdBlockLength(hsd->Instance, 8U);
 8006110:	2108      	movs	r1, #8
 8006112:	6820      	ldr	r0, [r4, #0]
 8006114:	f001 fc18 	bl	8007948 <SDMMC_CmdBlockLength>
  if (errorstate != HAL_SD_ERROR_NONE)
 8006118:	4605      	mov	r5, r0
 800611a:	b110      	cbz	r0, 8006122 <SD_FindSCR+0x26>
            ((tempscr[0] & SDMMC_16TO23BITS) >> 8) | ((tempscr[0] & SDMMC_24TO31BITS) >> 24));

  }

  return HAL_SD_ERROR_NONE;
}
 800611c:	4628      	mov	r0, r5
 800611e:	b009      	add	sp, #36	@ 0x24
 8006120:	bdf0      	pop	{r4, r5, r6, r7, pc}
  errorstate = SDMMC_CmdAppCommand(hsd->Instance, (uint32_t)((hsd->SdCard.RelCardAdd) << 16U));
 8006122:	6d21      	ldr	r1, [r4, #80]	@ 0x50
 8006124:	0409      	lsls	r1, r1, #16
 8006126:	6820      	ldr	r0, [r4, #0]
 8006128:	f001 fcb8 	bl	8007a9c <SDMMC_CmdAppCommand>
  if (errorstate != HAL_SD_ERROR_NONE)
 800612c:	4605      	mov	r5, r0
 800612e:	2800      	cmp	r0, #0
 8006130:	d1f4      	bne.n	800611c <SD_FindSCR+0x20>
  config.DataTimeOut   = SDMMC_DATATIMEOUT;
 8006132:	f04f 33ff 	mov.w	r3, #4294967295	@ 0xffffffff
 8006136:	9302      	str	r3, [sp, #8]
  config.DataLength    = 8U;
 8006138:	2308      	movs	r3, #8
 800613a:	9303      	str	r3, [sp, #12]
  config.DataBlockSize = SDMMC_DATABLOCK_SIZE_8B;
 800613c:	2330      	movs	r3, #48	@ 0x30
 800613e:	9304      	str	r3, [sp, #16]
  config.TransferDir   = SDMMC_TRANSFER_DIR_TO_SDMMC;
 8006140:	2302      	movs	r3, #2
 8006142:	9305      	str	r3, [sp, #20]
  config.TransferMode  = SDMMC_TRANSFER_MODE_BLOCK;
 8006144:	9006      	str	r0, [sp, #24]
  config.DPSM          = SDMMC_DPSM_ENABLE;
 8006146:	2301      	movs	r3, #1
 8006148:	9307      	str	r3, [sp, #28]
  (void)SDMMC_ConfigData(hsd->Instance, &config);
 800614a:	a902      	add	r1, sp, #8
 800614c:	6820      	ldr	r0, [r4, #0]
 800614e:	f001 fb2b 	bl	80077a8 <SDMMC_ConfigData>
  errorstate = SDMMC_CmdSendSCR(hsd->Instance);
 8006152:	6820      	ldr	r0, [r4, #0]
 8006154:	f001 fcd2 	bl	8007afc <SDMMC_CmdSendSCR>
  if (errorstate != HAL_SD_ERROR_NONE)
 8006158:	4605      	mov	r5, r0
 800615a:	b158      	cbz	r0, 8006174 <SD_FindSCR+0x78>
 800615c:	e7de      	b.n	800611c <SD_FindSCR+0x20>
      *(tempscr + index) = SDMMC_ReadFIFO(hsd->Instance);
 800615e:	f001 faf9 	bl	8007754 <SDMMC_ReadFIFO>
 8006162:	f84d 0025 	str.w	r0, [sp, r5, lsl #2]
      index++;
 8006166:	3501      	adds	r5, #1
    if ((HAL_GetTick() - tickstart) >=  SDMMC_DATATIMEOUT)
 8006168:	f7fd fb52 	bl	8003810 <HAL_GetTick>
 800616c:	1b83      	subs	r3, r0, r6
 800616e:	f1b3 3fff 	cmp.w	r3, #4294967295	@ 0xffffffff
 8006172:	d03f      	beq.n	80061f4 <SD_FindSCR+0xf8>
  while (!__HAL_SD_GET_FLAG(hsd, SDMMC_FLAG_RXOVERR | SDMMC_FLAG_DCRCFAIL | SDMMC_FLAG_DTIMEOUT))
 8006174:	6820      	ldr	r0, [r4, #0]
 8006176:	6b43      	ldr	r3, [r0, #52]	@ 0x34
 8006178:	f013 0f2a 	tst.w	r3, #42	@ 0x2a
 800617c:	d107      	bne.n	800618e <SD_FindSCR+0x92>
    if (__HAL_SD_GET_FLAG(hsd, SDMMC_FLAG_RXDAVL))
 800617e:	6b43      	ldr	r3, [r0, #52]	@ 0x34
 8006180:	f413 1f00 	tst.w	r3, #2097152	@ 0x200000
 8006184:	d1eb      	bne.n	800615e <SD_FindSCR+0x62>
    else if (!__HAL_SD_GET_FLAG(hsd, SDMMC_FLAG_RXACT))
 8006186:	6b43      	ldr	r3, [r0, #52]	@ 0x34
 8006188:	f413 5f00 	tst.w	r3, #8192	@ 0x2000
 800618c:	d1ec      	bne.n	8006168 <SD_FindSCR+0x6c>
  if (__HAL_SD_GET_FLAG(hsd, SDMMC_FLAG_DTIMEOUT))
 800618e:	6b43      	ldr	r3, [r0, #52]	@ 0x34
 8006190:	f013 0f08 	tst.w	r3, #8
 8006194:	d125      	bne.n	80061e2 <SD_FindSCR+0xe6>
  else if (__HAL_SD_GET_FLAG(hsd, SDMMC_FLAG_DCRCFAIL))
 8006196:	6b43      	ldr	r3, [r0, #52]	@ 0x34
 8006198:	f013 0f02 	tst.w	r3, #2
 800619c:	d124      	bne.n	80061e8 <SD_FindSCR+0xec>
  else if (__HAL_SD_GET_FLAG(hsd, SDMMC_FLAG_RXOVERR))
 800619e:	6b45      	ldr	r5, [r0, #52]	@ 0x34
 80061a0:	f015 0520 	ands.w	r5, r5, #32
 80061a4:	d123      	bne.n	80061ee <SD_FindSCR+0xf2>
    __HAL_SD_CLEAR_FLAG(hsd, SDMMC_STATIC_DATA_FLAGS);
 80061a6:	f240 533a 	movw	r3, #1338	@ 0x53a
 80061aa:	6383      	str	r3, [r0, #56]	@ 0x38
    *scr = (((tempscr[1] & SDMMC_0TO7BITS) << 24)  | ((tempscr[1] & SDMMC_8TO15BITS) << 8) | \
 80061ac:	9a01      	ldr	r2, [sp, #4]
 80061ae:	0213      	lsls	r3, r2, #8
 80061b0:	f403 037f 	and.w	r3, r3, #16711680	@ 0xff0000
 80061b4:	ea43 6302 	orr.w	r3, r3, r2, lsl #24
            ((tempscr[1] & SDMMC_16TO23BITS) >> 8) | ((tempscr[1] & SDMMC_24TO31BITS) >> 24));
 80061b8:	0a11      	lsrs	r1, r2, #8
 80061ba:	f401 417f 	and.w	r1, r1, #65280	@ 0xff00
    *scr = (((tempscr[1] & SDMMC_0TO7BITS) << 24)  | ((tempscr[1] & SDMMC_8TO15BITS) << 8) | \
 80061be:	430b      	orrs	r3, r1
            ((tempscr[1] & SDMMC_16TO23BITS) >> 8) | ((tempscr[1] & SDMMC_24TO31BITS) >> 24));
 80061c0:	ea43 6312 	orr.w	r3, r3, r2, lsr #24
    *scr = (((tempscr[1] & SDMMC_0TO7BITS) << 24)  | ((tempscr[1] & SDMMC_8TO15BITS) << 8) | \
 80061c4:	603b      	str	r3, [r7, #0]
    *scr = (((tempscr[0] & SDMMC_0TO7BITS) << 24)  | ((tempscr[0] & SDMMC_8TO15BITS) << 8) | \
 80061c6:	9a00      	ldr	r2, [sp, #0]
 80061c8:	0213      	lsls	r3, r2, #8
 80061ca:	f403 037f 	and.w	r3, r3, #16711680	@ 0xff0000
 80061ce:	ea43 6302 	orr.w	r3, r3, r2, lsl #24
            ((tempscr[0] & SDMMC_16TO23BITS) >> 8) | ((tempscr[0] & SDMMC_24TO31BITS) >> 24));
 80061d2:	0a11      	lsrs	r1, r2, #8
 80061d4:	f401 417f 	and.w	r1, r1, #65280	@ 0xff00
    *scr = (((tempscr[0] & SDMMC_0TO7BITS) << 24)  | ((tempscr[0] & SDMMC_8TO15BITS) << 8) | \
 80061d8:	430b      	orrs	r3, r1
            ((tempscr[0] & SDMMC_16TO23BITS) >> 8) | ((tempscr[0] & SDMMC_24TO31BITS) >> 24));
 80061da:	ea43 6312 	orr.w	r3, r3, r2, lsr #24
    *scr = (((tempscr[0] & SDMMC_0TO7BITS) << 24)  | ((tempscr[0] & SDMMC_8TO15BITS) << 8) | \
 80061de:	607b      	str	r3, [r7, #4]
  return HAL_SD_ERROR_NONE;
 80061e0:	e79c      	b.n	800611c <SD_FindSCR+0x20>
    __HAL_SD_CLEAR_FLAG(hsd, SDMMC_FLAG_DTIMEOUT);
 80061e2:	2508      	movs	r5, #8
 80061e4:	6385      	str	r5, [r0, #56]	@ 0x38
    return HAL_SD_ERROR_DATA_TIMEOUT;
 80061e6:	e799      	b.n	800611c <SD_FindSCR+0x20>
    __HAL_SD_CLEAR_FLAG(hsd, SDMMC_FLAG_DCRCFAIL);
 80061e8:	2502      	movs	r5, #2
 80061ea:	6385      	str	r5, [r0, #56]	@ 0x38
    return HAL_SD_ERROR_DATA_CRC_FAIL;
 80061ec:	e796      	b.n	800611c <SD_FindSCR+0x20>
    __HAL_SD_CLEAR_FLAG(hsd, SDMMC_FLAG_RXOVERR);
 80061ee:	2520      	movs	r5, #32
 80061f0:	6385      	str	r5, [r0, #56]	@ 0x38
    return HAL_SD_ERROR_RX_OVERRUN;
 80061f2:	e793      	b.n	800611c <SD_FindSCR+0x20>
      return HAL_SD_ERROR_TIMEOUT;
 80061f4:	f04f 4500 	mov.w	r5, #2147483648	@ 0x80000000
 80061f8:	e790      	b.n	800611c <SD_FindSCR+0x20>

080061fa <SD_WideBus_Enable>:
{
 80061fa:	b510      	push	{r4, lr}
 80061fc:	b082      	sub	sp, #8
 80061fe:	4604      	mov	r4, r0
  uint32_t scr[2U] = {0U, 0U};
 8006200:	2100      	movs	r1, #0
 8006202:	9100      	str	r1, [sp, #0]
 8006204:	9101      	str	r1, [sp, #4]
  if ((SDMMC_GetResponse(hsd->Instance, SDMMC_RESP1) & SDMMC_CARD_LOCKED) == SDMMC_CARD_LOCKED)
 8006206:	6800      	ldr	r0, [r0, #0]
 8006208:	f001 facb 	bl	80077a2 <SDMMC_GetResponse>
 800620c:	f010 7f00 	tst.w	r0, #33554432	@ 0x2000000
 8006210:	d113      	bne.n	800623a <SD_WideBus_Enable+0x40>
  errorstate = SD_FindSCR(hsd, scr);
 8006212:	4669      	mov	r1, sp
 8006214:	4620      	mov	r0, r4
 8006216:	f7ff ff71 	bl	80060fc <SD_FindSCR>
  if (errorstate != HAL_SD_ERROR_NONE)
 800621a:	b980      	cbnz	r0, 800623e <SD_WideBus_Enable+0x44>
  if ((scr[1U] & SDMMC_WIDE_BUS_SUPPORT) != SDMMC_ALLZERO)
 800621c:	9b01      	ldr	r3, [sp, #4]
 800621e:	f413 2f80 	tst.w	r3, #262144	@ 0x40000
 8006222:	d00e      	beq.n	8006242 <SD_WideBus_Enable+0x48>
    errorstate = SDMMC_CmdAppCommand(hsd->Instance, (uint32_t)(hsd->SdCard.RelCardAdd << 16U));
 8006224:	6d21      	ldr	r1, [r4, #80]	@ 0x50
 8006226:	0409      	lsls	r1, r1, #16
 8006228:	6820      	ldr	r0, [r4, #0]
 800622a:	f001 fc37 	bl	8007a9c <SDMMC_CmdAppCommand>
    if (errorstate != HAL_SD_ERROR_NONE)
 800622e:	b930      	cbnz	r0, 800623e <SD_WideBus_Enable+0x44>
    errorstate = SDMMC_CmdBusWidth(hsd->Instance, 2U);
 8006230:	2102      	movs	r1, #2
 8006232:	6820      	ldr	r0, [r4, #0]
 8006234:	f001 fc4a 	bl	8007acc <SDMMC_CmdBusWidth>
    if (errorstate != HAL_SD_ERROR_NONE)
 8006238:	e001      	b.n	800623e <SD_WideBus_Enable+0x44>
    return HAL_SD_ERROR_LOCK_UNLOCK_FAILED;
 800623a:	f44f 6000 	mov.w	r0, #2048	@ 0x800
}
 800623e:	b002      	add	sp, #8
 8006240:	bd10      	pop	{r4, pc}
    return HAL_SD_ERROR_REQUEST_NOT_APPLICABLE;
 8006242:	f04f 6080 	mov.w	r0, #67108864	@ 0x4000000
 8006246:	e7fa      	b.n	800623e <SD_WideBus_Enable+0x44>

08006248 <SD_WideBus_Disable>:
{
 8006248:	b510      	push	{r4, lr}
 800624a:	b082      	sub	sp, #8
 800624c:	4604      	mov	r4, r0
  uint32_t scr[2U] = {0U, 0U};
 800624e:	2100      	movs	r1, #0
 8006250:	9100      	str	r1, [sp, #0]
 8006252:	9101      	str	r1, [sp, #4]
  if ((SDMMC_GetResponse(hsd->Instance, SDMMC_RESP1) & SDMMC_CARD_LOCKED) == SDMMC_CARD_LOCKED)
 8006254:	6800      	ldr	r0, [r0, #0]
 8006256:	f001 faa4 	bl	80077a2 <SDMMC_GetResponse>
 800625a:	f010 7f00 	tst.w	r0, #33554432	@ 0x2000000
 800625e:	d113      	bne.n	8006288 <SD_WideBus_Disable+0x40>
  errorstate = SD_FindSCR(hsd, scr);
 8006260:	4669      	mov	r1, sp
 8006262:	4620      	mov	r0, r4
 8006264:	f7ff ff4a 	bl	80060fc <SD_FindSCR>
  if (errorstate != HAL_SD_ERROR_NONE)
 8006268:	b980      	cbnz	r0, 800628c <SD_WideBus_Disable+0x44>
  if ((scr[1U] & SDMMC_SINGLE_BUS_SUPPORT) != SDMMC_ALLZERO)
 800626a:	9b01      	ldr	r3, [sp, #4]
 800626c:	f413 3f80 	tst.w	r3, #65536	@ 0x10000
 8006270:	d00e      	beq.n	8006290 <SD_WideBus_Disable+0x48>
    errorstate = SDMMC_CmdAppCommand(hsd->Instance, (uint32_t)(hsd->SdCard.RelCardAdd << 16U));
 8006272:	6d21      	ldr	r1, [r4, #80]	@ 0x50
 8006274:	0409      	lsls	r1, r1, #16
 8006276:	6820      	ldr	r0, [r4, #0]
 8006278:	f001 fc10 	bl	8007a9c <SDMMC_CmdAppCommand>
    if (errorstate != HAL_SD_ERROR_NONE)
 800627c:	b930      	cbnz	r0, 800628c <SD_WideBus_Disable+0x44>
    errorstate = SDMMC_CmdBusWidth(hsd->Instance, 0U);
 800627e:	4601      	mov	r1, r0
 8006280:	6820      	ldr	r0, [r4, #0]
 8006282:	f001 fc23 	bl	8007acc <SDMMC_CmdBusWidth>
    if (errorstate != HAL_SD_ERROR_NONE)
 8006286:	e001      	b.n	800628c <SD_WideBus_Disable+0x44>
    return HAL_SD_ERROR_LOCK_UNLOCK_FAILED;
 8006288:	f44f 6000 	mov.w	r0, #2048	@ 0x800
}
 800628c:	b002      	add	sp, #8
 800628e:	bd10      	pop	{r4, pc}
    return HAL_SD_ERROR_REQUEST_NOT_APPLICABLE;
 8006290:	f04f 6080 	mov.w	r0, #67108864	@ 0x4000000
 8006294:	e7fa      	b.n	800628c <SD_WideBus_Disable+0x44>

08006296 <SD_SendStatus>:
{
 8006296:	b570      	push	{r4, r5, r6, lr}
  if (pCardStatus == NULL)
 8006298:	b181      	cbz	r1, 80062bc <SD_SendStatus+0x26>
 800629a:	4604      	mov	r4, r0
 800629c:	460d      	mov	r5, r1
  errorstate = SDMMC_CmdSendStatus(hsd->Instance, (uint32_t)(hsd->SdCard.RelCardAdd << 16U));
 800629e:	6d01      	ldr	r1, [r0, #80]	@ 0x50
 80062a0:	0409      	lsls	r1, r1, #16
 80062a2:	6800      	ldr	r0, [r0, #0]
 80062a4:	f001 fc42 	bl	8007b2c <SDMMC_CmdSendStatus>
  if (errorstate != HAL_SD_ERROR_NONE)
 80062a8:	4606      	mov	r6, r0
 80062aa:	b108      	cbz	r0, 80062b0 <SD_SendStatus+0x1a>
}
 80062ac:	4630      	mov	r0, r6
 80062ae:	bd70      	pop	{r4, r5, r6, pc}
  *pCardStatus = SDMMC_GetResponse(hsd->Instance, SDMMC_RESP1);
 80062b0:	4601      	mov	r1, r0
 80062b2:	6820      	ldr	r0, [r4, #0]
 80062b4:	f001 fa75 	bl	80077a2 <SDMMC_GetResponse>
 80062b8:	6028      	str	r0, [r5, #0]
  return HAL_SD_ERROR_NONE;
 80062ba:	e7f7      	b.n	80062ac <SD_SendStatus+0x16>
    return HAL_SD_ERROR_PARAM;
 80062bc:	f04f 6300 	mov.w	r3, #134217728	@ 0x8000000
 80062c0:	461e      	mov	r6, r3
 80062c2:	e7f3      	b.n	80062ac <SD_SendStatus+0x16>

080062c4 <HAL_SD_ReadBlocks>:
{
 80062c4:	e92d 4ff0 	stmdb	sp!, {r4, r5, r6, r7, r8, r9, sl, fp, lr}
 80062c8:	b087      	sub	sp, #28
 80062ca:	4605      	mov	r5, r0
 80062cc:	460c      	mov	r4, r1
 80062ce:	4616      	mov	r6, r2
 80062d0:	469b      	mov	fp, r3
 80062d2:	f8dd 8040 	ldr.w	r8, [sp, #64]	@ 0x40
  uint32_t tickstart = HAL_GetTick();
 80062d6:	f7fd fa9b 	bl	8003810 <HAL_GetTick>
  if (NULL == pData)
 80062da:	2c00      	cmp	r4, #0
 80062dc:	d035      	beq.n	800634a <HAL_SD_ReadBlocks+0x86>
 80062de:	4682      	mov	sl, r0
  if (hsd->State == HAL_SD_STATE_READY)
 80062e0:	f895 3034 	ldrb.w	r3, [r5, #52]	@ 0x34
 80062e4:	fa5f f983 	uxtb.w	r9, r3
 80062e8:	2b01      	cmp	r3, #1
 80062ea:	f040 8101 	bne.w	80064f0 <HAL_SD_ReadBlocks+0x22c>
    hsd->ErrorCode = HAL_SD_ERROR_NONE;
 80062ee:	2300      	movs	r3, #0
 80062f0:	63ab      	str	r3, [r5, #56]	@ 0x38
    if ((add + NumberOfBlocks) > (hsd->SdCard.LogBlockNbr))
 80062f2:	465b      	mov	r3, fp
 80062f4:	18f3      	adds	r3, r6, r3
 80062f6:	6dea      	ldr	r2, [r5, #92]	@ 0x5c
 80062f8:	4293      	cmp	r3, r2
 80062fa:	d82d      	bhi.n	8006358 <HAL_SD_ReadBlocks+0x94>
    hsd->State = HAL_SD_STATE_BUSY;
 80062fc:	2303      	movs	r3, #3
 80062fe:	f885 3034 	strb.w	r3, [r5, #52]	@ 0x34
    hsd->Instance->DCTRL = 0U;
 8006302:	682b      	ldr	r3, [r5, #0]
 8006304:	2200      	movs	r2, #0
 8006306:	62da      	str	r2, [r3, #44]	@ 0x2c
    if (hsd->SdCard.CardType != CARD_SDHC_SDXC)
 8006308:	6c6b      	ldr	r3, [r5, #68]	@ 0x44
 800630a:	2b01      	cmp	r3, #1
 800630c:	d000      	beq.n	8006310 <HAL_SD_ReadBlocks+0x4c>
      add *= 512U;
 800630e:	0276      	lsls	r6, r6, #9
    config.DataTimeOut   = SDMMC_DATATIMEOUT;
 8006310:	f04f 33ff 	mov.w	r3, #4294967295	@ 0xffffffff
 8006314:	9300      	str	r3, [sp, #0]
    config.DataLength    = NumberOfBlocks * BLOCKSIZE;
 8006316:	465f      	mov	r7, fp
 8006318:	027b      	lsls	r3, r7, #9
 800631a:	9301      	str	r3, [sp, #4]
    config.DataBlockSize = SDMMC_DATABLOCK_SIZE_512B;
 800631c:	2390      	movs	r3, #144	@ 0x90
 800631e:	9302      	str	r3, [sp, #8]
    config.TransferDir   = SDMMC_TRANSFER_DIR_TO_SDMMC;
 8006320:	2302      	movs	r3, #2
 8006322:	9303      	str	r3, [sp, #12]
    config.TransferMode  = SDMMC_TRANSFER_MODE_BLOCK;
 8006324:	2300      	movs	r3, #0
 8006326:	9304      	str	r3, [sp, #16]
    config.DPSM          = SDMMC_DPSM_ENABLE;
 8006328:	2301      	movs	r3, #1
 800632a:	9305      	str	r3, [sp, #20]
    (void)SDMMC_ConfigData(hsd->Instance, &config);
 800632c:	4669      	mov	r1, sp
 800632e:	6828      	ldr	r0, [r5, #0]
 8006330:	f001 fa3a 	bl	80077a8 <SDMMC_ConfigData>
    if (NumberOfBlocks > 1U)
 8006334:	2f01      	cmp	r7, #1
 8006336:	d914      	bls.n	8006362 <HAL_SD_ReadBlocks+0x9e>
      hsd->Context = SD_CONTEXT_READ_MULTIPLE_BLOCK;
 8006338:	2302      	movs	r3, #2
 800633a:	632b      	str	r3, [r5, #48]	@ 0x30
      errorstate = SDMMC_CmdReadMultiBlock(hsd->Instance, add);
 800633c:	4631      	mov	r1, r6
 800633e:	6828      	ldr	r0, [r5, #0]
 8006340:	f001 fb32 	bl	80079a8 <SDMMC_CmdReadMultiBlock>
    if (errorstate != HAL_SD_ERROR_NONE)
 8006344:	b9a0      	cbnz	r0, 8006370 <HAL_SD_ReadBlocks+0xac>
    dataremaining = config.DataLength;
 8006346:	9f01      	ldr	r7, [sp, #4]
    while (!__HAL_SD_GET_FLAG(hsd,
 8006348:	e027      	b.n	800639a <HAL_SD_ReadBlocks+0xd6>
    hsd->ErrorCode |= HAL_SD_ERROR_PARAM;
 800634a:	6bab      	ldr	r3, [r5, #56]	@ 0x38
 800634c:	f043 6300 	orr.w	r3, r3, #134217728	@ 0x8000000
 8006350:	63ab      	str	r3, [r5, #56]	@ 0x38
    return HAL_ERROR;
 8006352:	f04f 0901 	mov.w	r9, #1
 8006356:	e0d1      	b.n	80064fc <HAL_SD_ReadBlocks+0x238>
      hsd->ErrorCode |= HAL_SD_ERROR_ADDR_OUT_OF_RANGE;
 8006358:	6bab      	ldr	r3, [r5, #56]	@ 0x38
 800635a:	f043 7300 	orr.w	r3, r3, #33554432	@ 0x2000000
 800635e:	63ab      	str	r3, [r5, #56]	@ 0x38
      return HAL_ERROR;
 8006360:	e0cc      	b.n	80064fc <HAL_SD_ReadBlocks+0x238>
      hsd->Context = SD_CONTEXT_READ_SINGLE_BLOCK;
 8006362:	2301      	movs	r3, #1
 8006364:	632b      	str	r3, [r5, #48]	@ 0x30
      errorstate = SDMMC_CmdReadSingleBlock(hsd->Instance, add);
 8006366:	4631      	mov	r1, r6
 8006368:	6828      	ldr	r0, [r5, #0]
 800636a:	f001 fb05 	bl	8007978 <SDMMC_CmdReadSingleBlock>
 800636e:	e7e9      	b.n	8006344 <HAL_SD_ReadBlocks+0x80>
      __HAL_SD_CLEAR_FLAG(hsd, SDMMC_STATIC_FLAGS);
 8006370:	682b      	ldr	r3, [r5, #0]
 8006372:	4a64      	ldr	r2, [pc, #400]	@ (8006504 <HAL_SD_ReadBlocks+0x240>)
 8006374:	639a      	str	r2, [r3, #56]	@ 0x38
      hsd->ErrorCode |= errorstate;
 8006376:	6bab      	ldr	r3, [r5, #56]	@ 0x38
 8006378:	4303      	orrs	r3, r0
 800637a:	63ab      	str	r3, [r5, #56]	@ 0x38
      hsd->State = HAL_SD_STATE_READY;
 800637c:	2301      	movs	r3, #1
 800637e:	f885 3034 	strb.w	r3, [r5, #52]	@ 0x34
      hsd->Context = SD_CONTEXT_NONE;
 8006382:	2300      	movs	r3, #0
 8006384:	632b      	str	r3, [r5, #48]	@ 0x30
      return HAL_ERROR;
 8006386:	e0b9      	b.n	80064fc <HAL_SD_ReadBlocks+0x238>
      if (((HAL_GetTick() - tickstart) >=  Timeout) || (Timeout == 0U))
 8006388:	f7fd fa42 	bl	8003810 <HAL_GetTick>
 800638c:	4653      	mov	r3, sl
 800638e:	1ac0      	subs	r0, r0, r3
 8006390:	4540      	cmp	r0, r8
 8006392:	d21f      	bcs.n	80063d4 <HAL_SD_ReadBlocks+0x110>
 8006394:	f1b8 0f00 	cmp.w	r8, #0
 8006398:	d01c      	beq.n	80063d4 <HAL_SD_ReadBlocks+0x110>
    while (!__HAL_SD_GET_FLAG(hsd,
 800639a:	6828      	ldr	r0, [r5, #0]
 800639c:	6b46      	ldr	r6, [r0, #52]	@ 0x34
 800639e:	f416 7695 	ands.w	r6, r6, #298	@ 0x12a
 80063a2:	d126      	bne.n	80063f2 <HAL_SD_ReadBlocks+0x12e>
      if (__HAL_SD_GET_FLAG(hsd, SDMMC_FLAG_RXFIFOHF) && (dataremaining > 0U))
 80063a4:	6b43      	ldr	r3, [r0, #52]	@ 0x34
 80063a6:	f413 4f00 	tst.w	r3, #32768	@ 0x8000
 80063aa:	d0ed      	beq.n	8006388 <HAL_SD_ReadBlocks+0xc4>
 80063ac:	2f00      	cmp	r7, #0
 80063ae:	d0eb      	beq.n	8006388 <HAL_SD_ReadBlocks+0xc4>
        for (count = 0U; count < 8U; count++)
 80063b0:	2e07      	cmp	r6, #7
 80063b2:	d8e9      	bhi.n	8006388 <HAL_SD_ReadBlocks+0xc4>
          data = SDMMC_ReadFIFO(hsd->Instance);
 80063b4:	6828      	ldr	r0, [r5, #0]
 80063b6:	f001 f9cd 	bl	8007754 <SDMMC_ReadFIFO>
          *tempbuff = (uint8_t)(data & 0xFFU);
 80063ba:	7020      	strb	r0, [r4, #0]
          *tempbuff = (uint8_t)((data >> 8U) & 0xFFU);
 80063bc:	f3c0 2307 	ubfx	r3, r0, #8, #8
 80063c0:	7063      	strb	r3, [r4, #1]
          *tempbuff = (uint8_t)((data >> 16U) & 0xFFU);
 80063c2:	f3c0 4307 	ubfx	r3, r0, #16, #8
 80063c6:	70a3      	strb	r3, [r4, #2]
          *tempbuff = (uint8_t)((data >> 24U) & 0xFFU);
 80063c8:	0e00      	lsrs	r0, r0, #24
 80063ca:	70e0      	strb	r0, [r4, #3]
          tempbuff++;
 80063cc:	3404      	adds	r4, #4
          dataremaining--;
 80063ce:	3f04      	subs	r7, #4
        for (count = 0U; count < 8U; count++)
 80063d0:	3601      	adds	r6, #1
 80063d2:	e7ed      	b.n	80063b0 <HAL_SD_ReadBlocks+0xec>
        __HAL_SD_CLEAR_FLAG(hsd, SDMMC_STATIC_FLAGS);
 80063d4:	682b      	ldr	r3, [r5, #0]
 80063d6:	4a4b      	ldr	r2, [pc, #300]	@ (8006504 <HAL_SD_ReadBlocks+0x240>)
 80063d8:	639a      	str	r2, [r3, #56]	@ 0x38
        hsd->ErrorCode |= HAL_SD_ERROR_TIMEOUT;
 80063da:	6bab      	ldr	r3, [r5, #56]	@ 0x38
 80063dc:	f043 4300 	orr.w	r3, r3, #2147483648	@ 0x80000000
 80063e0:	63ab      	str	r3, [r5, #56]	@ 0x38
        hsd->State = HAL_SD_STATE_READY;
 80063e2:	2301      	movs	r3, #1
 80063e4:	f885 3034 	strb.w	r3, [r5, #52]	@ 0x34
        hsd->Context = SD_CONTEXT_NONE;
 80063e8:	2300      	movs	r3, #0
 80063ea:	632b      	str	r3, [r5, #48]	@ 0x30
        return HAL_TIMEOUT;
 80063ec:	f04f 0903 	mov.w	r9, #3
 80063f0:	e084      	b.n	80064fc <HAL_SD_ReadBlocks+0x238>
    if (__HAL_SD_GET_FLAG(hsd, SDMMC_FLAG_DATAEND) && (NumberOfBlocks > 1U))
 80063f2:	6b43      	ldr	r3, [r0, #52]	@ 0x34
 80063f4:	f413 7f80 	tst.w	r3, #256	@ 0x100
 80063f8:	d005      	beq.n	8006406 <HAL_SD_ReadBlocks+0x142>
 80063fa:	465b      	mov	r3, fp
 80063fc:	2b01      	cmp	r3, #1
 80063fe:	d902      	bls.n	8006406 <HAL_SD_ReadBlocks+0x142>
      if (hsd->SdCard.CardType != CARD_SECURED)
 8006400:	6c6b      	ldr	r3, [r5, #68]	@ 0x44
 8006402:	2b03      	cmp	r3, #3
 8006404:	d136      	bne.n	8006474 <HAL_SD_ReadBlocks+0x1b0>
    if (__HAL_SD_GET_FLAG(hsd, SDMMC_FLAG_DTIMEOUT))
 8006406:	682b      	ldr	r3, [r5, #0]
 8006408:	6b5a      	ldr	r2, [r3, #52]	@ 0x34
 800640a:	f012 0f08 	tst.w	r2, #8
 800640e:	d142      	bne.n	8006496 <HAL_SD_ReadBlocks+0x1d2>
    else if (__HAL_SD_GET_FLAG(hsd, SDMMC_FLAG_DCRCFAIL))
 8006410:	6b5a      	ldr	r2, [r3, #52]	@ 0x34
 8006412:	f012 0f02 	tst.w	r2, #2
 8006416:	d14a      	bne.n	80064ae <HAL_SD_ReadBlocks+0x1ea>
    else if (__HAL_SD_GET_FLAG(hsd, SDMMC_FLAG_RXOVERR))
 8006418:	6b5a      	ldr	r2, [r3, #52]	@ 0x34
 800641a:	f012 0f20 	tst.w	r2, #32
 800641e:	d152      	bne.n	80064c6 <HAL_SD_ReadBlocks+0x202>
    while ((__HAL_SD_GET_FLAG(hsd, SDMMC_FLAG_RXDAVL)) && (dataremaining > 0U))
 8006420:	6828      	ldr	r0, [r5, #0]
 8006422:	6b43      	ldr	r3, [r0, #52]	@ 0x34
 8006424:	f413 1f00 	tst.w	r3, #2097152	@ 0x200000
 8006428:	d059      	beq.n	80064de <HAL_SD_ReadBlocks+0x21a>
 800642a:	2f00      	cmp	r7, #0
 800642c:	d057      	beq.n	80064de <HAL_SD_ReadBlocks+0x21a>
      data = SDMMC_ReadFIFO(hsd->Instance);
 800642e:	f001 f991 	bl	8007754 <SDMMC_ReadFIFO>
      *tempbuff = (uint8_t)(data & 0xFFU);
 8006432:	7020      	strb	r0, [r4, #0]
      *tempbuff = (uint8_t)((data >> 8U) & 0xFFU);
 8006434:	f3c0 2307 	ubfx	r3, r0, #8, #8
 8006438:	7063      	strb	r3, [r4, #1]
      *tempbuff = (uint8_t)((data >> 16U) & 0xFFU);
 800643a:	f3c0 4307 	ubfx	r3, r0, #16, #8
 800643e:	70a3      	strb	r3, [r4, #2]
      *tempbuff = (uint8_t)((data >> 24U) & 0xFFU);
 8006440:	0e00      	lsrs	r0, r0, #24
 8006442:	70e0      	strb	r0, [r4, #3]
      tempbuff++;
 8006444:	3404      	adds	r4, #4
      dataremaining--;
 8006446:	3f04      	subs	r7, #4
      if (((HAL_GetTick() - tickstart) >=  Timeout) || (Timeout == 0U))
 8006448:	f7fd f9e2 	bl	8003810 <HAL_GetTick>
 800644c:	4653      	mov	r3, sl
 800644e:	1ac0      	subs	r0, r0, r3
 8006450:	4540      	cmp	r0, r8
 8006452:	d202      	bcs.n	800645a <HAL_SD_ReadBlocks+0x196>
 8006454:	f1b8 0f00 	cmp.w	r8, #0
 8006458:	d1e2      	bne.n	8006420 <HAL_SD_ReadBlocks+0x15c>
        __HAL_SD_CLEAR_FLAG(hsd, SDMMC_STATIC_FLAGS);
 800645a:	682b      	ldr	r3, [r5, #0]
 800645c:	4a29      	ldr	r2, [pc, #164]	@ (8006504 <HAL_SD_ReadBlocks+0x240>)
 800645e:	639a      	str	r2, [r3, #56]	@ 0x38
        hsd->ErrorCode |= HAL_SD_ERROR_TIMEOUT;
 8006460:	6bab      	ldr	r3, [r5, #56]	@ 0x38
 8006462:	f043 4300 	orr.w	r3, r3, #2147483648	@ 0x80000000
 8006466:	63ab      	str	r3, [r5, #56]	@ 0x38
        hsd->State = HAL_SD_STATE_READY;
 8006468:	2301      	movs	r3, #1
 800646a:	f885 3034 	strb.w	r3, [r5, #52]	@ 0x34
        hsd->Context = SD_CONTEXT_NONE;
 800646e:	2300      	movs	r3, #0
 8006470:	632b      	str	r3, [r5, #48]	@ 0x30
        return HAL_ERROR;
 8006472:	e043      	b.n	80064fc <HAL_SD_ReadBlocks+0x238>
        errorstate = SDMMC_CmdStopTransfer(hsd->Instance);
 8006474:	f001 fae0 	bl	8007a38 <SDMMC_CmdStopTransfer>
        if (errorstate != HAL_SD_ERROR_NONE)
 8006478:	4603      	mov	r3, r0
 800647a:	2800      	cmp	r0, #0
 800647c:	d0c3      	beq.n	8006406 <HAL_SD_ReadBlocks+0x142>
          __HAL_SD_CLEAR_FLAG(hsd, SDMMC_STATIC_FLAGS);
 800647e:	682a      	ldr	r2, [r5, #0]
 8006480:	4920      	ldr	r1, [pc, #128]	@ (8006504 <HAL_SD_ReadBlocks+0x240>)
 8006482:	6391      	str	r1, [r2, #56]	@ 0x38
          hsd->ErrorCode |= errorstate;
 8006484:	6baa      	ldr	r2, [r5, #56]	@ 0x38
 8006486:	4313      	orrs	r3, r2
 8006488:	63ab      	str	r3, [r5, #56]	@ 0x38
          hsd->State = HAL_SD_STATE_READY;
 800648a:	2301      	movs	r3, #1
 800648c:	f885 3034 	strb.w	r3, [r5, #52]	@ 0x34
          hsd->Context = SD_CONTEXT_NONE;
 8006490:	2300      	movs	r3, #0
 8006492:	632b      	str	r3, [r5, #48]	@ 0x30
          return HAL_ERROR;
 8006494:	e032      	b.n	80064fc <HAL_SD_ReadBlocks+0x238>
      __HAL_SD_CLEAR_FLAG(hsd, SDMMC_STATIC_FLAGS);
 8006496:	4a1b      	ldr	r2, [pc, #108]	@ (8006504 <HAL_SD_ReadBlocks+0x240>)
 8006498:	639a      	str	r2, [r3, #56]	@ 0x38
      hsd->ErrorCode |= HAL_SD_ERROR_DATA_TIMEOUT;
 800649a:	6bab      	ldr	r3, [r5, #56]	@ 0x38
 800649c:	f043 0308 	orr.w	r3, r3, #8
 80064a0:	63ab      	str	r3, [r5, #56]	@ 0x38
      hsd->State = HAL_SD_STATE_READY;
 80064a2:	2301      	movs	r3, #1
 80064a4:	f885 3034 	strb.w	r3, [r5, #52]	@ 0x34
      hsd->Context = SD_CONTEXT_NONE;
 80064a8:	2300      	movs	r3, #0
 80064aa:	632b      	str	r3, [r5, #48]	@ 0x30
      return HAL_ERROR;
 80064ac:	e026      	b.n	80064fc <HAL_SD_ReadBlocks+0x238>
      __HAL_SD_CLEAR_FLAG(hsd, SDMMC_STATIC_FLAGS);
 80064ae:	4a15      	ldr	r2, [pc, #84]	@ (8006504 <HAL_SD_ReadBlocks+0x240>)
 80064b0:	639a      	str	r2, [r3, #56]	@ 0x38
      hsd->ErrorCode |= HAL_SD_ERROR_DATA_CRC_FAIL;
 80064b2:	6bab      	ldr	r3, [r5, #56]	@ 0x38
 80064b4:	f043 0302 	orr.w	r3, r3, #2
 80064b8:	63ab      	str	r3, [r5, #56]	@ 0x38
      hsd->State = HAL_SD_STATE_READY;
 80064ba:	2301      	movs	r3, #1
 80064bc:	f885 3034 	strb.w	r3, [r5, #52]	@ 0x34
      hsd->Context = SD_CONTEXT_NONE;
 80064c0:	2300      	movs	r3, #0
 80064c2:	632b      	str	r3, [r5, #48]	@ 0x30
      return HAL_ERROR;
 80064c4:	e01a      	b.n	80064fc <HAL_SD_ReadBlocks+0x238>
      __HAL_SD_CLEAR_FLAG(hsd, SDMMC_STATIC_FLAGS);
 80064c6:	4a0f      	ldr	r2, [pc, #60]	@ (8006504 <HAL_SD_ReadBlocks+0x240>)
 80064c8:	639a      	str	r2, [r3, #56]	@ 0x38
      hsd->ErrorCode |= HAL_SD_ERROR_RX_OVERRUN;
 80064ca:	6bab      	ldr	r3, [r5, #56]	@ 0x38
 80064cc:	f043 0320 	orr.w	r3, r3, #32
 80064d0:	63ab      	str	r3, [r5, #56]	@ 0x38
      hsd->State = HAL_SD_STATE_READY;
 80064d2:	2301      	movs	r3, #1
 80064d4:	f885 3034 	strb.w	r3, [r5, #52]	@ 0x34
      hsd->Context = SD_CONTEXT_NONE;
 80064d8:	2300      	movs	r3, #0
 80064da:	632b      	str	r3, [r5, #48]	@ 0x30
      return HAL_ERROR;
 80064dc:	e00e      	b.n	80064fc <HAL_SD_ReadBlocks+0x238>
    __HAL_SD_CLEAR_FLAG(hsd, SDMMC_STATIC_DATA_FLAGS);
 80064de:	f240 533a 	movw	r3, #1338	@ 0x53a
 80064e2:	6383      	str	r3, [r0, #56]	@ 0x38
    hsd->State = HAL_SD_STATE_READY;
 80064e4:	2301      	movs	r3, #1
 80064e6:	f885 3034 	strb.w	r3, [r5, #52]	@ 0x34
    return HAL_OK;
 80064ea:	f04f 0900 	mov.w	r9, #0
 80064ee:	e005      	b.n	80064fc <HAL_SD_ReadBlocks+0x238>
    hsd->ErrorCode |= HAL_SD_ERROR_BUSY;
 80064f0:	6bab      	ldr	r3, [r5, #56]	@ 0x38
 80064f2:	f043 5300 	orr.w	r3, r3, #536870912	@ 0x20000000
 80064f6:	63ab      	str	r3, [r5, #56]	@ 0x38
    return HAL_ERROR;
 80064f8:	f04f 0901 	mov.w	r9, #1
}
 80064fc:	4648      	mov	r0, r9
 80064fe:	b007      	add	sp, #28
 8006500:	e8bd 8ff0 	ldmia.w	sp!, {r4, r5, r6, r7, r8, r9, sl, fp, pc}
 8006504:	004005ff 	.word	0x004005ff

08006508 <HAL_SD_WriteBlocks>:
{
 8006508:	e92d 4ff0 	stmdb	sp!, {r4, r5, r6, r7, r8, r9, sl, fp, lr}
 800650c:	b089      	sub	sp, #36	@ 0x24
 800650e:	4605      	mov	r5, r0
 8006510:	460c      	mov	r4, r1
 8006512:	4616      	mov	r6, r2
 8006514:	469a      	mov	sl, r3
  uint32_t tickstart = HAL_GetTick();
 8006516:	f7fd f97b 	bl	8003810 <HAL_GetTick>
  if (NULL == pData)
 800651a:	2c00      	cmp	r4, #0
 800651c:	d036      	beq.n	800658c <HAL_SD_WriteBlocks+0x84>
 800651e:	4681      	mov	r9, r0
  if (hsd->State == HAL_SD_STATE_READY)
 8006520:	f895 3034 	ldrb.w	r3, [r5, #52]	@ 0x34
 8006524:	fa5f f883 	uxtb.w	r8, r3
 8006528:	2b01      	cmp	r3, #1
 800652a:	f040 80df 	bne.w	80066ec <HAL_SD_WriteBlocks+0x1e4>
    hsd->ErrorCode = HAL_SD_ERROR_NONE;
 800652e:	2300      	movs	r3, #0
 8006530:	63ab      	str	r3, [r5, #56]	@ 0x38
    if ((add + NumberOfBlocks) > (hsd->SdCard.LogBlockNbr))
 8006532:	4653      	mov	r3, sl
 8006534:	18f3      	adds	r3, r6, r3
 8006536:	6dea      	ldr	r2, [r5, #92]	@ 0x5c
 8006538:	4293      	cmp	r3, r2
 800653a:	d82e      	bhi.n	800659a <HAL_SD_WriteBlocks+0x92>
    hsd->State = HAL_SD_STATE_BUSY;
 800653c:	2303      	movs	r3, #3
 800653e:	f885 3034 	strb.w	r3, [r5, #52]	@ 0x34
    hsd->Instance->DCTRL = 0U;
 8006542:	682b      	ldr	r3, [r5, #0]
 8006544:	2200      	movs	r2, #0
 8006546:	62da      	str	r2, [r3, #44]	@ 0x2c
    if (hsd->SdCard.CardType != CARD_SDHC_SDXC)
 8006548:	6c6b      	ldr	r3, [r5, #68]	@ 0x44
 800654a:	2b01      	cmp	r3, #1
 800654c:	d000      	beq.n	8006550 <HAL_SD_WriteBlocks+0x48>
      add *= 512U;
 800654e:	0276      	lsls	r6, r6, #9
    config.DataTimeOut   = SDMMC_DATATIMEOUT;
 8006550:	f04f 33ff 	mov.w	r3, #4294967295	@ 0xffffffff
 8006554:	9302      	str	r3, [sp, #8]
    config.DataLength    = NumberOfBlocks * BLOCKSIZE;
 8006556:	4657      	mov	r7, sl
 8006558:	027b      	lsls	r3, r7, #9
 800655a:	9303      	str	r3, [sp, #12]
    config.DataBlockSize = SDMMC_DATABLOCK_SIZE_512B;
 800655c:	2390      	movs	r3, #144	@ 0x90
 800655e:	9304      	str	r3, [sp, #16]
    config.TransferDir   = SDMMC_TRANSFER_DIR_TO_CARD;
 8006560:	2300      	movs	r3, #0
 8006562:	9305      	str	r3, [sp, #20]
    config.TransferMode  = SDMMC_TRANSFER_MODE_BLOCK;
 8006564:	9306      	str	r3, [sp, #24]
    config.DPSM          = SDMMC_DPSM_ENABLE;
 8006566:	2301      	movs	r3, #1
 8006568:	9307      	str	r3, [sp, #28]
    (void)SDMMC_ConfigData(hsd->Instance, &config);
 800656a:	a902      	add	r1, sp, #8
 800656c:	6828      	ldr	r0, [r5, #0]
 800656e:	f001 f91b 	bl	80077a8 <SDMMC_ConfigData>
    if (NumberOfBlocks > 1U)
 8006572:	2f01      	cmp	r7, #1
 8006574:	d916      	bls.n	80065a4 <HAL_SD_WriteBlocks+0x9c>
      hsd->Context = SD_CONTEXT_WRITE_MULTIPLE_BLOCK;
 8006576:	2320      	movs	r3, #32
 8006578:	632b      	str	r3, [r5, #48]	@ 0x30
      errorstate = SDMMC_CmdWriteMultiBlock(hsd->Instance, add);
 800657a:	4631      	mov	r1, r6
 800657c:	6828      	ldr	r0, [r5, #0]
 800657e:	f001 fa43 	bl	8007a08 <SDMMC_CmdWriteMultiBlock>
 8006582:	4683      	mov	fp, r0
    if (errorstate != HAL_SD_ERROR_NONE)
 8006584:	465b      	mov	r3, fp
 8006586:	b9ab      	cbnz	r3, 80065b4 <HAL_SD_WriteBlocks+0xac>
    dataremaining = config.DataLength;
 8006588:	9f03      	ldr	r7, [sp, #12]
    while (!__HAL_SD_GET_FLAG(hsd,
 800658a:	e028      	b.n	80065de <HAL_SD_WriteBlocks+0xd6>
    hsd->ErrorCode |= HAL_SD_ERROR_PARAM;
 800658c:	6bab      	ldr	r3, [r5, #56]	@ 0x38
 800658e:	f043 6300 	orr.w	r3, r3, #134217728	@ 0x8000000
 8006592:	63ab      	str	r3, [r5, #56]	@ 0x38
    return HAL_ERROR;
 8006594:	f04f 0801 	mov.w	r8, #1
 8006598:	e0ae      	b.n	80066f8 <HAL_SD_WriteBlocks+0x1f0>
      hsd->ErrorCode |= HAL_SD_ERROR_ADDR_OUT_OF_RANGE;
 800659a:	6bab      	ldr	r3, [r5, #56]	@ 0x38
 800659c:	f043 7300 	orr.w	r3, r3, #33554432	@ 0x2000000
 80065a0:	63ab      	str	r3, [r5, #56]	@ 0x38
      return HAL_ERROR;
 80065a2:	e0a9      	b.n	80066f8 <HAL_SD_WriteBlocks+0x1f0>
      hsd->Context = SD_CONTEXT_WRITE_SINGLE_BLOCK;
 80065a4:	2310      	movs	r3, #16
 80065a6:	632b      	str	r3, [r5, #48]	@ 0x30
      errorstate = SDMMC_CmdWriteSingleBlock(hsd->Instance, add);
 80065a8:	4631      	mov	r1, r6
 80065aa:	6828      	ldr	r0, [r5, #0]
 80065ac:	f001 fa14 	bl	80079d8 <SDMMC_CmdWriteSingleBlock>
 80065b0:	4683      	mov	fp, r0
 80065b2:	e7e7      	b.n	8006584 <HAL_SD_WriteBlocks+0x7c>
      __HAL_SD_CLEAR_FLAG(hsd, SDMMC_STATIC_FLAGS);
 80065b4:	682b      	ldr	r3, [r5, #0]
 80065b6:	4a52      	ldr	r2, [pc, #328]	@ (8006700 <HAL_SD_WriteBlocks+0x1f8>)
 80065b8:	639a      	str	r2, [r3, #56]	@ 0x38
      hsd->ErrorCode |= errorstate;
 80065ba:	6bab      	ldr	r3, [r5, #56]	@ 0x38
 80065bc:	465a      	mov	r2, fp
 80065be:	4313      	orrs	r3, r2
 80065c0:	63ab      	str	r3, [r5, #56]	@ 0x38
      hsd->State = HAL_SD_STATE_READY;
 80065c2:	2301      	movs	r3, #1
 80065c4:	f885 3034 	strb.w	r3, [r5, #52]	@ 0x34
      hsd->Context = SD_CONTEXT_NONE;
 80065c8:	2300      	movs	r3, #0
 80065ca:	632b      	str	r3, [r5, #48]	@ 0x30
      return HAL_ERROR;
 80065cc:	e094      	b.n	80066f8 <HAL_SD_WriteBlocks+0x1f0>
      if (((HAL_GetTick() - tickstart) >=  Timeout) || (Timeout == 0U))
 80065ce:	f7fd f91f 	bl	8003810 <HAL_GetTick>
 80065d2:	464b      	mov	r3, r9
 80065d4:	1ac0      	subs	r0, r0, r3
 80065d6:	9b12      	ldr	r3, [sp, #72]	@ 0x48
 80065d8:	4298      	cmp	r0, r3
 80065da:	d223      	bcs.n	8006624 <HAL_SD_WriteBlocks+0x11c>
 80065dc:	b313      	cbz	r3, 8006624 <HAL_SD_WriteBlocks+0x11c>
    while (!__HAL_SD_GET_FLAG(hsd,
 80065de:	6828      	ldr	r0, [r5, #0]
 80065e0:	6b46      	ldr	r6, [r0, #52]	@ 0x34
 80065e2:	f416 768d 	ands.w	r6, r6, #282	@ 0x11a
 80065e6:	d12c      	bne.n	8006642 <HAL_SD_WriteBlocks+0x13a>
      if (__HAL_SD_GET_FLAG(hsd, SDMMC_FLAG_TXFIFOHE) && (dataremaining > 0U))
 80065e8:	6b43      	ldr	r3, [r0, #52]	@ 0x34
 80065ea:	f413 4f80 	tst.w	r3, #16384	@ 0x4000
 80065ee:	d0ee      	beq.n	80065ce <HAL_SD_WriteBlocks+0xc6>
 80065f0:	2f00      	cmp	r7, #0
 80065f2:	d0ec      	beq.n	80065ce <HAL_SD_WriteBlocks+0xc6>
        for (count = 0U; count < 8U; count++)
 80065f4:	2e07      	cmp	r6, #7
 80065f6:	d8ea      	bhi.n	80065ce <HAL_SD_WriteBlocks+0xc6>
          data = (uint32_t)(*tempbuff);
 80065f8:	7823      	ldrb	r3, [r4, #0]
 80065fa:	9301      	str	r3, [sp, #4]
          data |= ((uint32_t)(*tempbuff) << 8U);
 80065fc:	7862      	ldrb	r2, [r4, #1]
 80065fe:	ea43 2302 	orr.w	r3, r3, r2, lsl #8
 8006602:	9301      	str	r3, [sp, #4]
          data |= ((uint32_t)(*tempbuff) << 16U);
 8006604:	78a2      	ldrb	r2, [r4, #2]
 8006606:	ea43 4302 	orr.w	r3, r3, r2, lsl #16
 800660a:	9301      	str	r3, [sp, #4]
          data |= ((uint32_t)(*tempbuff) << 24U);
 800660c:	78e2      	ldrb	r2, [r4, #3]
 800660e:	ea43 6302 	orr.w	r3, r3, r2, lsl #24
 8006612:	9301      	str	r3, [sp, #4]
          tempbuff++;
 8006614:	3404      	adds	r4, #4
          dataremaining--;
 8006616:	3f04      	subs	r7, #4
          (void)SDMMC_WriteFIFO(hsd->Instance, &data);
 8006618:	a901      	add	r1, sp, #4
 800661a:	6828      	ldr	r0, [r5, #0]
 800661c:	f001 f89d 	bl	800775a <SDMMC_WriteFIFO>
        for (count = 0U; count < 8U; count++)
 8006620:	3601      	adds	r6, #1
 8006622:	e7e7      	b.n	80065f4 <HAL_SD_WriteBlocks+0xec>
        __HAL_SD_CLEAR_FLAG(hsd, SDMMC_STATIC_FLAGS);
 8006624:	682b      	ldr	r3, [r5, #0]
 8006626:	4a36      	ldr	r2, [pc, #216]	@ (8006700 <HAL_SD_WriteBlocks+0x1f8>)
 8006628:	639a      	str	r2, [r3, #56]	@ 0x38
        hsd->ErrorCode |= errorstate;
 800662a:	6bab      	ldr	r3, [r5, #56]	@ 0x38
 800662c:	465a      	mov	r2, fp
 800662e:	4313      	orrs	r3, r2
 8006630:	63ab      	str	r3, [r5, #56]	@ 0x38
        hsd->State = HAL_SD_STATE_READY;
 8006632:	2301      	movs	r3, #1
 8006634:	f885 3034 	strb.w	r3, [r5, #52]	@ 0x34
        hsd->Context = SD_CONTEXT_NONE;
 8006638:	2300      	movs	r3, #0
 800663a:	632b      	str	r3, [r5, #48]	@ 0x30
        return HAL_TIMEOUT;
 800663c:	f04f 0803 	mov.w	r8, #3
 8006640:	e05a      	b.n	80066f8 <HAL_SD_WriteBlocks+0x1f0>
    if (__HAL_SD_GET_FLAG(hsd, SDMMC_FLAG_DATAEND) && (NumberOfBlocks > 1U))
 8006642:	6b43      	ldr	r3, [r0, #52]	@ 0x34
 8006644:	f413 7f80 	tst.w	r3, #256	@ 0x100
 8006648:	d005      	beq.n	8006656 <HAL_SD_WriteBlocks+0x14e>
 800664a:	4653      	mov	r3, sl
 800664c:	2b01      	cmp	r3, #1
 800664e:	d902      	bls.n	8006656 <HAL_SD_WriteBlocks+0x14e>
      if (hsd->SdCard.CardType != CARD_SECURED)
 8006650:	6c6b      	ldr	r3, [r5, #68]	@ 0x44
 8006652:	2b03      	cmp	r3, #3
 8006654:	d118      	bne.n	8006688 <HAL_SD_WriteBlocks+0x180>
    if (__HAL_SD_GET_FLAG(hsd, SDMMC_FLAG_DTIMEOUT))
 8006656:	682b      	ldr	r3, [r5, #0]
 8006658:	6b5a      	ldr	r2, [r3, #52]	@ 0x34
 800665a:	f012 0f08 	tst.w	r2, #8
 800665e:	d124      	bne.n	80066aa <HAL_SD_WriteBlocks+0x1a2>
    else if (__HAL_SD_GET_FLAG(hsd, SDMMC_FLAG_DCRCFAIL))
 8006660:	6b5a      	ldr	r2, [r3, #52]	@ 0x34
 8006662:	f012 0f02 	tst.w	r2, #2
 8006666:	d12c      	bne.n	80066c2 <HAL_SD_WriteBlocks+0x1ba>
    else if (__HAL_SD_GET_FLAG(hsd, SDMMC_FLAG_TXUNDERR))
 8006668:	6b5a      	ldr	r2, [r3, #52]	@ 0x34
 800666a:	f012 0f10 	tst.w	r2, #16
 800666e:	d034      	beq.n	80066da <HAL_SD_WriteBlocks+0x1d2>
      __HAL_SD_CLEAR_FLAG(hsd, SDMMC_STATIC_FLAGS);
 8006670:	4a23      	ldr	r2, [pc, #140]	@ (8006700 <HAL_SD_WriteBlocks+0x1f8>)
 8006672:	639a      	str	r2, [r3, #56]	@ 0x38
      hsd->ErrorCode |= HAL_SD_ERROR_TX_UNDERRUN;
 8006674:	6bab      	ldr	r3, [r5, #56]	@ 0x38
 8006676:	f043 0310 	orr.w	r3, r3, #16
 800667a:	63ab      	str	r3, [r5, #56]	@ 0x38
      hsd->State = HAL_SD_STATE_READY;
 800667c:	2301      	movs	r3, #1
 800667e:	f885 3034 	strb.w	r3, [r5, #52]	@ 0x34
      hsd->Context = SD_CONTEXT_NONE;
 8006682:	2300      	movs	r3, #0
 8006684:	632b      	str	r3, [r5, #48]	@ 0x30
      return HAL_ERROR;
 8006686:	e037      	b.n	80066f8 <HAL_SD_WriteBlocks+0x1f0>
        errorstate = SDMMC_CmdStopTransfer(hsd->Instance);
 8006688:	f001 f9d6 	bl	8007a38 <SDMMC_CmdStopTransfer>
        if (errorstate != HAL_SD_ERROR_NONE)
 800668c:	4603      	mov	r3, r0
 800668e:	2800      	cmp	r0, #0
 8006690:	d0e1      	beq.n	8006656 <HAL_SD_WriteBlocks+0x14e>
          __HAL_SD_CLEAR_FLAG(hsd, SDMMC_STATIC_FLAGS);
 8006692:	682a      	ldr	r2, [r5, #0]
 8006694:	491a      	ldr	r1, [pc, #104]	@ (8006700 <HAL_SD_WriteBlocks+0x1f8>)
 8006696:	6391      	str	r1, [r2, #56]	@ 0x38
          hsd->ErrorCode |= errorstate;
 8006698:	6baa      	ldr	r2, [r5, #56]	@ 0x38
 800669a:	4313      	orrs	r3, r2
 800669c:	63ab      	str	r3, [r5, #56]	@ 0x38
          hsd->State = HAL_SD_STATE_READY;
 800669e:	2301      	movs	r3, #1
 80066a0:	f885 3034 	strb.w	r3, [r5, #52]	@ 0x34
          hsd->Context = SD_CONTEXT_NONE;
 80066a4:	2300      	movs	r3, #0
 80066a6:	632b      	str	r3, [r5, #48]	@ 0x30
          return HAL_ERROR;
 80066a8:	e026      	b.n	80066f8 <HAL_SD_WriteBlocks+0x1f0>
      __HAL_SD_CLEAR_FLAG(hsd, SDMMC_STATIC_FLAGS);
 80066aa:	4a15      	ldr	r2, [pc, #84]	@ (8006700 <HAL_SD_WriteBlocks+0x1f8>)
 80066ac:	639a      	str	r2, [r3, #56]	@ 0x38
      hsd->ErrorCode |= HAL_SD_ERROR_DATA_TIMEOUT;
 80066ae:	6bab      	ldr	r3, [r5, #56]	@ 0x38
 80066b0:	f043 0308 	orr.w	r3, r3, #8
 80066b4:	63ab      	str	r3, [r5, #56]	@ 0x38
      hsd->State = HAL_SD_STATE_READY;
 80066b6:	2301      	movs	r3, #1
 80066b8:	f885 3034 	strb.w	r3, [r5, #52]	@ 0x34
      hsd->Context = SD_CONTEXT_NONE;
 80066bc:	2300      	movs	r3, #0
 80066be:	632b      	str	r3, [r5, #48]	@ 0x30
      return HAL_ERROR;
 80066c0:	e01a      	b.n	80066f8 <HAL_SD_WriteBlocks+0x1f0>
      __HAL_SD_CLEAR_FLAG(hsd, SDMMC_STATIC_FLAGS);
 80066c2:	4a0f      	ldr	r2, [pc, #60]	@ (8006700 <HAL_SD_WriteBlocks+0x1f8>)
 80066c4:	639a      	str	r2, [r3, #56]	@ 0x38
      hsd->ErrorCode |= HAL_SD_ERROR_DATA_CRC_FAIL;
 80066c6:	6bab      	ldr	r3, [r5, #56]	@ 0x38
 80066c8:	f043 0302 	orr.w	r3, r3, #2
 80066cc:	63ab      	str	r3, [r5, #56]	@ 0x38
      hsd->State = HAL_SD_STATE_READY;
 80066ce:	2301      	movs	r3, #1
 80066d0:	f885 3034 	strb.w	r3, [r5, #52]	@ 0x34
      hsd->Context = SD_CONTEXT_NONE;
 80066d4:	2300      	movs	r3, #0
 80066d6:	632b      	str	r3, [r5, #48]	@ 0x30
      return HAL_ERROR;
 80066d8:	e00e      	b.n	80066f8 <HAL_SD_WriteBlocks+0x1f0>
    __HAL_SD_CLEAR_FLAG(hsd, SDMMC_STATIC_DATA_FLAGS);
 80066da:	f240 523a 	movw	r2, #1338	@ 0x53a
 80066de:	639a      	str	r2, [r3, #56]	@ 0x38
    hsd->State = HAL_SD_STATE_READY;
 80066e0:	2301      	movs	r3, #1
 80066e2:	f885 3034 	strb.w	r3, [r5, #52]	@ 0x34
    return HAL_OK;
 80066e6:	f04f 0800 	mov.w	r8, #0
 80066ea:	e005      	b.n	80066f8 <HAL_SD_WriteBlocks+0x1f0>
    hsd->ErrorCode |= HAL_SD_ERROR_BUSY;
 80066ec:	6bab      	ldr	r3, [r5, #56]	@ 0x38
 80066ee:	f043 5300 	orr.w	r3, r3, #536870912	@ 0x20000000
 80066f2:	63ab      	str	r3, [r5, #56]	@ 0x38
    return HAL_ERROR;
 80066f4:	f04f 0801 	mov.w	r8, #1
}
 80066f8:	4640      	mov	r0, r8
 80066fa:	b009      	add	sp, #36	@ 0x24
 80066fc:	e8bd 8ff0 	ldmia.w	sp!, {r4, r5, r6, r7, r8, r9, sl, fp, pc}
 8006700:	004005ff 	.word	0x004005ff

08006704 <HAL_SD_ReadBlocks_DMA>:
{
 8006704:	e92d 43f0 	stmdb	sp!, {r4, r5, r6, r7, r8, r9, lr}
 8006708:	b087      	sub	sp, #28
 800670a:	4604      	mov	r4, r0
  if (NULL == pData)
 800670c:	b199      	cbz	r1, 8006736 <HAL_SD_ReadBlocks_DMA+0x32>
 800670e:	4617      	mov	r7, r2
 8006710:	461e      	mov	r6, r3
 8006712:	460a      	mov	r2, r1
  if (hsd->State == HAL_SD_STATE_READY)
 8006714:	f890 0034 	ldrb.w	r0, [r0, #52]	@ 0x34
 8006718:	b2c3      	uxtb	r3, r0
 800671a:	461d      	mov	r5, r3
 800671c:	2801      	cmp	r0, #1
 800671e:	d17d      	bne.n	800681c <HAL_SD_ReadBlocks_DMA+0x118>
    hsd->ErrorCode = HAL_SD_ERROR_NONE;
 8006720:	2300      	movs	r3, #0
 8006722:	63a3      	str	r3, [r4, #56]	@ 0x38
    if ((add + NumberOfBlocks) > (hsd->SdCard.LogBlockNbr))
 8006724:	19b8      	adds	r0, r7, r6
 8006726:	6de3      	ldr	r3, [r4, #92]	@ 0x5c
 8006728:	4298      	cmp	r0, r3
 800672a:	d90b      	bls.n	8006744 <HAL_SD_ReadBlocks_DMA+0x40>
      hsd->ErrorCode |= HAL_SD_ERROR_ADDR_OUT_OF_RANGE;
 800672c:	6ba3      	ldr	r3, [r4, #56]	@ 0x38
 800672e:	f043 7300 	orr.w	r3, r3, #33554432	@ 0x2000000
 8006732:	63a3      	str	r3, [r4, #56]	@ 0x38
      return HAL_ERROR;
 8006734:	e074      	b.n	8006820 <HAL_SD_ReadBlocks_DMA+0x11c>
    hsd->ErrorCode |= HAL_SD_ERROR_PARAM;
 8006736:	6b83      	ldr	r3, [r0, #56]	@ 0x38
 8006738:	f043 6300 	orr.w	r3, r3, #134217728	@ 0x8000000
 800673c:	6383      	str	r3, [r0, #56]	@ 0x38
    return HAL_ERROR;
 800673e:	2301      	movs	r3, #1
 8006740:	461d      	mov	r5, r3
 8006742:	e06d      	b.n	8006820 <HAL_SD_ReadBlocks_DMA+0x11c>
    hsd->State = HAL_SD_STATE_BUSY;
 8006744:	2303      	movs	r3, #3
 8006746:	f884 3034 	strb.w	r3, [r4, #52]	@ 0x34
    hsd->Instance->DCTRL = 0U;
 800674a:	6821      	ldr	r1, [r4, #0]
 800674c:	2300      	movs	r3, #0
 800674e:	62cb      	str	r3, [r1, #44]	@ 0x2c
    hsd->hdmarx->XferCpltCallback = SD_DMAReceiveCplt;
 8006750:	6c21      	ldr	r1, [r4, #64]	@ 0x40
 8006752:	4835      	ldr	r0, [pc, #212]	@ (8006828 <HAL_SD_ReadBlocks_DMA+0x124>)
 8006754:	62c8      	str	r0, [r1, #44]	@ 0x2c
    hsd->hdmarx->XferErrorCallback = SD_DMAError;
 8006756:	6c21      	ldr	r1, [r4, #64]	@ 0x40
 8006758:	4834      	ldr	r0, [pc, #208]	@ (800682c <HAL_SD_ReadBlocks_DMA+0x128>)
 800675a:	6348      	str	r0, [r1, #52]	@ 0x34
    hsd->hdmarx->XferAbortCallback = NULL;
 800675c:	6c21      	ldr	r1, [r4, #64]	@ 0x40
 800675e:	638b      	str	r3, [r1, #56]	@ 0x38
    hsd->hdmarx->Init.Direction = DMA_PERIPH_TO_MEMORY;
 8006760:	6c21      	ldr	r1, [r4, #64]	@ 0x40
 8006762:	608b      	str	r3, [r1, #8]
    MODIFY_REG(hsd->hdmarx->Instance->CCR, DMA_CCR_DIR, hsd->hdmarx->Init.Direction);
 8006764:	6c20      	ldr	r0, [r4, #64]	@ 0x40
 8006766:	6801      	ldr	r1, [r0, #0]
 8006768:	680b      	ldr	r3, [r1, #0]
 800676a:	f023 0310 	bic.w	r3, r3, #16
 800676e:	6880      	ldr	r0, [r0, #8]
 8006770:	4303      	orrs	r3, r0
 8006772:	600b      	str	r3, [r1, #0]
    if (HAL_DMA_Start_IT(hsd->hdmarx, (uint32_t)&hsd->Instance->FIFO, (uint32_t)pData,
 8006774:	6821      	ldr	r1, [r4, #0]
                         (uint32_t)(BLOCKSIZE * NumberOfBlocks) / 4U) != HAL_OK)
 8006776:	0273      	lsls	r3, r6, #9
 8006778:	4698      	mov	r8, r3
    if (HAL_DMA_Start_IT(hsd->hdmarx, (uint32_t)&hsd->Instance->FIFO, (uint32_t)pData,
 800677a:	089b      	lsrs	r3, r3, #2
 800677c:	3180      	adds	r1, #128	@ 0x80
 800677e:	6c20      	ldr	r0, [r4, #64]	@ 0x40
 8006780:	f7fd f97e 	bl	8003a80 <HAL_DMA_Start_IT>
 8006784:	4681      	mov	r9, r0
 8006786:	2800      	cmp	r0, #0
 8006788:	d12f      	bne.n	80067ea <HAL_SD_ReadBlocks_DMA+0xe6>
      __HAL_SD_DMA_ENABLE(hsd);
 800678a:	6822      	ldr	r2, [r4, #0]
 800678c:	6ad3      	ldr	r3, [r2, #44]	@ 0x2c
 800678e:	f043 0308 	orr.w	r3, r3, #8
 8006792:	62d3      	str	r3, [r2, #44]	@ 0x2c
      if (hsd->SdCard.CardType != CARD_SDHC_SDXC)
 8006794:	6c63      	ldr	r3, [r4, #68]	@ 0x44
 8006796:	2b01      	cmp	r3, #1
 8006798:	d001      	beq.n	800679e <HAL_SD_ReadBlocks_DMA+0x9a>
        add *= 512U;
 800679a:	027b      	lsls	r3, r7, #9
 800679c:	461f      	mov	r7, r3
      config.DataTimeOut   = SDMMC_DATATIMEOUT;
 800679e:	f04f 33ff 	mov.w	r3, #4294967295	@ 0xffffffff
 80067a2:	9300      	str	r3, [sp, #0]
      config.DataLength    = BLOCKSIZE * NumberOfBlocks;
 80067a4:	f8cd 8004 	str.w	r8, [sp, #4]
      config.DataBlockSize = SDMMC_DATABLOCK_SIZE_512B;
 80067a8:	2390      	movs	r3, #144	@ 0x90
 80067aa:	9302      	str	r3, [sp, #8]
      config.TransferDir   = SDMMC_TRANSFER_DIR_TO_SDMMC;
 80067ac:	2302      	movs	r3, #2
 80067ae:	9303      	str	r3, [sp, #12]
      config.TransferMode  = SDMMC_TRANSFER_MODE_BLOCK;
 80067b0:	2300      	movs	r3, #0
 80067b2:	9304      	str	r3, [sp, #16]
      config.DPSM          = SDMMC_DPSM_ENABLE;
 80067b4:	2301      	movs	r3, #1
 80067b6:	9305      	str	r3, [sp, #20]
      (void)SDMMC_ConfigData(hsd->Instance, &config);
 80067b8:	4669      	mov	r1, sp
 80067ba:	6820      	ldr	r0, [r4, #0]
 80067bc:	f000 fff4 	bl	80077a8 <SDMMC_ConfigData>
      if (NumberOfBlocks > 1U)
 80067c0:	2e01      	cmp	r6, #1
 80067c2:	d91d      	bls.n	8006800 <HAL_SD_ReadBlocks_DMA+0xfc>
        hsd->Context = (SD_CONTEXT_READ_MULTIPLE_BLOCK | SD_CONTEXT_DMA);
 80067c4:	2382      	movs	r3, #130	@ 0x82
 80067c6:	6323      	str	r3, [r4, #48]	@ 0x30
        errorstate = SDMMC_CmdReadMultiBlock(hsd->Instance, add);
 80067c8:	4639      	mov	r1, r7
 80067ca:	6820      	ldr	r0, [r4, #0]
 80067cc:	f001 f8ec 	bl	80079a8 <SDMMC_CmdReadMultiBlock>
      if (errorstate != HAL_SD_ERROR_NONE)
 80067d0:	b1e8      	cbz	r0, 800680e <HAL_SD_ReadBlocks_DMA+0x10a>
        __HAL_SD_CLEAR_FLAG(hsd, SDMMC_STATIC_FLAGS);
 80067d2:	6823      	ldr	r3, [r4, #0]
 80067d4:	4a16      	ldr	r2, [pc, #88]	@ (8006830 <HAL_SD_ReadBlocks_DMA+0x12c>)
 80067d6:	639a      	str	r2, [r3, #56]	@ 0x38
        hsd->ErrorCode |= errorstate;
 80067d8:	6ba3      	ldr	r3, [r4, #56]	@ 0x38
 80067da:	4303      	orrs	r3, r0
 80067dc:	63a3      	str	r3, [r4, #56]	@ 0x38
        hsd->State = HAL_SD_STATE_READY;
 80067de:	2301      	movs	r3, #1
 80067e0:	f884 3034 	strb.w	r3, [r4, #52]	@ 0x34
        hsd->Context = SD_CONTEXT_NONE;
 80067e4:	2300      	movs	r3, #0
 80067e6:	6323      	str	r3, [r4, #48]	@ 0x30
        return HAL_ERROR;
 80067e8:	e01a      	b.n	8006820 <HAL_SD_ReadBlocks_DMA+0x11c>
      __HAL_SD_CLEAR_FLAG(hsd, SDMMC_STATIC_FLAGS);
 80067ea:	6823      	ldr	r3, [r4, #0]
 80067ec:	4a10      	ldr	r2, [pc, #64]	@ (8006830 <HAL_SD_ReadBlocks_DMA+0x12c>)
 80067ee:	639a      	str	r2, [r3, #56]	@ 0x38
      hsd->ErrorCode |= HAL_SD_ERROR_DMA;
 80067f0:	6ba3      	ldr	r3, [r4, #56]	@ 0x38
 80067f2:	f043 4380 	orr.w	r3, r3, #1073741824	@ 0x40000000
 80067f6:	63a3      	str	r3, [r4, #56]	@ 0x38
      hsd->State = HAL_SD_STATE_READY;
 80067f8:	2301      	movs	r3, #1
 80067fa:	f884 3034 	strb.w	r3, [r4, #52]	@ 0x34
      return HAL_ERROR;
 80067fe:	e00f      	b.n	8006820 <HAL_SD_ReadBlocks_DMA+0x11c>
        hsd->Context = (SD_CONTEXT_READ_SINGLE_BLOCK | SD_CONTEXT_DMA);
 8006800:	2381      	movs	r3, #129	@ 0x81
 8006802:	6323      	str	r3, [r4, #48]	@ 0x30
        errorstate = SDMMC_CmdReadSingleBlock(hsd->Instance, add);
 8006804:	4639      	mov	r1, r7
 8006806:	6820      	ldr	r0, [r4, #0]
 8006808:	f001 f8b6 	bl	8007978 <SDMMC_CmdReadSingleBlock>
 800680c:	e7e0      	b.n	80067d0 <HAL_SD_ReadBlocks_DMA+0xcc>
      __HAL_SD_ENABLE_IT(hsd, (SDMMC_IT_DCRCFAIL | SDMMC_IT_DTIMEOUT | SDMMC_IT_RXOVERR |
 800680e:	6822      	ldr	r2, [r4, #0]
 8006810:	6bd3      	ldr	r3, [r2, #60]	@ 0x3c
 8006812:	f443 7395 	orr.w	r3, r3, #298	@ 0x12a
 8006816:	63d3      	str	r3, [r2, #60]	@ 0x3c
      return HAL_OK;
 8006818:	464d      	mov	r5, r9
 800681a:	e001      	b.n	8006820 <HAL_SD_ReadBlocks_DMA+0x11c>
    return HAL_BUSY;
 800681c:	2302      	movs	r3, #2
 800681e:	461d      	mov	r5, r3
}
 8006820:	4628      	mov	r0, r5
 8006822:	b007      	add	sp, #28
 8006824:	e8bd 83f0 	ldmia.w	sp!, {r4, r5, r6, r7, r8, r9, pc}
 8006828:	0800694b 	.word	0x0800694b
 800682c:	08006e99 	.word	0x08006e99
 8006830:	004005ff 	.word	0x004005ff

08006834 <HAL_SD_WriteBlocks_DMA>:
{
 8006834:	b5f0      	push	{r4, r5, r6, r7, lr}
 8006836:	b087      	sub	sp, #28
 8006838:	4604      	mov	r4, r0
  if (NULL == pData)
 800683a:	2900      	cmp	r1, #0
 800683c:	d034      	beq.n	80068a8 <HAL_SD_WriteBlocks_DMA+0x74>
 800683e:	461e      	mov	r6, r3
 8006840:	460f      	mov	r7, r1
  if (hsd->State == HAL_SD_STATE_READY)
 8006842:	f890 3034 	ldrb.w	r3, [r0, #52]	@ 0x34
 8006846:	b2d9      	uxtb	r1, r3
 8006848:	460d      	mov	r5, r1
 800684a:	2b01      	cmp	r3, #1
 800684c:	d171      	bne.n	8006932 <HAL_SD_WriteBlocks_DMA+0xfe>
    hsd->ErrorCode = HAL_SD_ERROR_NONE;
 800684e:	2300      	movs	r3, #0
 8006850:	6383      	str	r3, [r0, #56]	@ 0x38
    if ((add + NumberOfBlocks) > (hsd->SdCard.LogBlockNbr))
 8006852:	1993      	adds	r3, r2, r6
 8006854:	6dc1      	ldr	r1, [r0, #92]	@ 0x5c
 8006856:	428b      	cmp	r3, r1
 8006858:	d82d      	bhi.n	80068b6 <HAL_SD_WriteBlocks_DMA+0x82>
    hsd->State = HAL_SD_STATE_BUSY;
 800685a:	2303      	movs	r3, #3
 800685c:	f880 3034 	strb.w	r3, [r0, #52]	@ 0x34
    hsd->Instance->DCTRL = 0U;
 8006860:	6801      	ldr	r1, [r0, #0]
 8006862:	2300      	movs	r3, #0
 8006864:	62cb      	str	r3, [r1, #44]	@ 0x2c
    hsd->hdmatx->XferCpltCallback = SD_DMATransmitCplt;
 8006866:	6bc1      	ldr	r1, [r0, #60]	@ 0x3c
 8006868:	4834      	ldr	r0, [pc, #208]	@ (800693c <HAL_SD_WriteBlocks_DMA+0x108>)
 800686a:	62c8      	str	r0, [r1, #44]	@ 0x2c
    hsd->hdmatx->XferErrorCallback = SD_DMAError;
 800686c:	6be1      	ldr	r1, [r4, #60]	@ 0x3c
 800686e:	4834      	ldr	r0, [pc, #208]	@ (8006940 <HAL_SD_WriteBlocks_DMA+0x10c>)
 8006870:	6348      	str	r0, [r1, #52]	@ 0x34
    hsd->hdmatx->XferAbortCallback = NULL;
 8006872:	6be1      	ldr	r1, [r4, #60]	@ 0x3c
 8006874:	638b      	str	r3, [r1, #56]	@ 0x38
    if (hsd->SdCard.CardType != CARD_SDHC_SDXC)
 8006876:	6c63      	ldr	r3, [r4, #68]	@ 0x44
 8006878:	2b01      	cmp	r3, #1
 800687a:	d000      	beq.n	800687e <HAL_SD_WriteBlocks_DMA+0x4a>
      add *= 512U;
 800687c:	0252      	lsls	r2, r2, #9
    if (NumberOfBlocks > 1U)
 800687e:	2e01      	cmp	r6, #1
 8006880:	d91e      	bls.n	80068c0 <HAL_SD_WriteBlocks_DMA+0x8c>
      hsd->Context = (SD_CONTEXT_WRITE_MULTIPLE_BLOCK | SD_CONTEXT_DMA);
 8006882:	23a0      	movs	r3, #160	@ 0xa0
 8006884:	6323      	str	r3, [r4, #48]	@ 0x30
      errorstate = SDMMC_CmdWriteMultiBlock(hsd->Instance, add);
 8006886:	4611      	mov	r1, r2
 8006888:	6820      	ldr	r0, [r4, #0]
 800688a:	f001 f8bd 	bl	8007a08 <SDMMC_CmdWriteMultiBlock>
    if (errorstate != HAL_SD_ERROR_NONE)
 800688e:	b1f0      	cbz	r0, 80068ce <HAL_SD_WriteBlocks_DMA+0x9a>
      __HAL_SD_CLEAR_FLAG(hsd, SDMMC_STATIC_FLAGS);
 8006890:	6823      	ldr	r3, [r4, #0]
 8006892:	4a2c      	ldr	r2, [pc, #176]	@ (8006944 <HAL_SD_WriteBlocks_DMA+0x110>)
 8006894:	639a      	str	r2, [r3, #56]	@ 0x38
      hsd->ErrorCode |= errorstate;
 8006896:	6ba3      	ldr	r3, [r4, #56]	@ 0x38
 8006898:	4303      	orrs	r3, r0
 800689a:	63a3      	str	r3, [r4, #56]	@ 0x38
      hsd->State = HAL_SD_STATE_READY;
 800689c:	2301      	movs	r3, #1
 800689e:	f884 3034 	strb.w	r3, [r4, #52]	@ 0x34
      hsd->Context = SD_CONTEXT_NONE;
 80068a2:	2300      	movs	r3, #0
 80068a4:	6323      	str	r3, [r4, #48]	@ 0x30
      return HAL_ERROR;
 80068a6:	e046      	b.n	8006936 <HAL_SD_WriteBlocks_DMA+0x102>
    hsd->ErrorCode |= HAL_SD_ERROR_PARAM;
 80068a8:	6b83      	ldr	r3, [r0, #56]	@ 0x38
 80068aa:	f043 6300 	orr.w	r3, r3, #134217728	@ 0x8000000
 80068ae:	6383      	str	r3, [r0, #56]	@ 0x38
    return HAL_ERROR;
 80068b0:	2301      	movs	r3, #1
 80068b2:	461d      	mov	r5, r3
 80068b4:	e03f      	b.n	8006936 <HAL_SD_WriteBlocks_DMA+0x102>
      hsd->ErrorCode |= HAL_SD_ERROR_ADDR_OUT_OF_RANGE;
 80068b6:	6b83      	ldr	r3, [r0, #56]	@ 0x38
 80068b8:	f043 7300 	orr.w	r3, r3, #33554432	@ 0x2000000
 80068bc:	6383      	str	r3, [r0, #56]	@ 0x38
      return HAL_ERROR;
 80068be:	e03a      	b.n	8006936 <HAL_SD_WriteBlocks_DMA+0x102>
      hsd->Context = (SD_CONTEXT_WRITE_SINGLE_BLOCK | SD_CONTEXT_DMA);
 80068c0:	2390      	movs	r3, #144	@ 0x90
 80068c2:	6323      	str	r3, [r4, #48]	@ 0x30
      errorstate = SDMMC_CmdWriteSingleBlock(hsd->Instance, add);
 80068c4:	4611      	mov	r1, r2
 80068c6:	6820      	ldr	r0, [r4, #0]
 80068c8:	f001 f886 	bl	80079d8 <SDMMC_CmdWriteSingleBlock>
 80068cc:	e7df      	b.n	800688e <HAL_SD_WriteBlocks_DMA+0x5a>
    __HAL_SD_DMA_ENABLE(hsd);
 80068ce:	6822      	ldr	r2, [r4, #0]
 80068d0:	6ad3      	ldr	r3, [r2, #44]	@ 0x2c
 80068d2:	f043 0308 	orr.w	r3, r3, #8
 80068d6:	62d3      	str	r3, [r2, #44]	@ 0x2c
    if (HAL_DMA_Start_IT(hsd->hdmatx, (uint32_t)pData, (uint32_t)&hsd->Instance->FIFO,
 80068d8:	6822      	ldr	r2, [r4, #0]
                         (uint32_t)(BLOCKSIZE * NumberOfBlocks) / 4U) != HAL_OK)
 80068da:	0273      	lsls	r3, r6, #9
 80068dc:	461e      	mov	r6, r3
    if (HAL_DMA_Start_IT(hsd->hdmatx, (uint32_t)pData, (uint32_t)&hsd->Instance->FIFO,
 80068de:	089b      	lsrs	r3, r3, #2
 80068e0:	3280      	adds	r2, #128	@ 0x80
 80068e2:	4639      	mov	r1, r7
 80068e4:	6be0      	ldr	r0, [r4, #60]	@ 0x3c
 80068e6:	f7fd f8cb 	bl	8003a80 <HAL_DMA_Start_IT>
 80068ea:	4607      	mov	r7, r0
 80068ec:	b160      	cbz	r0, 8006908 <HAL_SD_WriteBlocks_DMA+0xd4>
      __HAL_SD_CLEAR_FLAG(hsd, SDMMC_STATIC_FLAGS);
 80068ee:	6823      	ldr	r3, [r4, #0]
 80068f0:	4a14      	ldr	r2, [pc, #80]	@ (8006944 <HAL_SD_WriteBlocks_DMA+0x110>)
 80068f2:	639a      	str	r2, [r3, #56]	@ 0x38
      hsd->ErrorCode |= HAL_SD_ERROR_DMA;
 80068f4:	6ba3      	ldr	r3, [r4, #56]	@ 0x38
 80068f6:	f043 4380 	orr.w	r3, r3, #1073741824	@ 0x40000000
 80068fa:	63a3      	str	r3, [r4, #56]	@ 0x38
      hsd->State = HAL_SD_STATE_READY;
 80068fc:	2301      	movs	r3, #1
 80068fe:	f884 3034 	strb.w	r3, [r4, #52]	@ 0x34
      hsd->Context = SD_CONTEXT_NONE;
 8006902:	2300      	movs	r3, #0
 8006904:	6323      	str	r3, [r4, #48]	@ 0x30
      return HAL_ERROR;
 8006906:	e016      	b.n	8006936 <HAL_SD_WriteBlocks_DMA+0x102>
      config.DataTimeOut   = SDMMC_DATATIMEOUT;
 8006908:	f04f 33ff 	mov.w	r3, #4294967295	@ 0xffffffff
 800690c:	9300      	str	r3, [sp, #0]
      config.DataLength    = BLOCKSIZE * NumberOfBlocks;
 800690e:	9601      	str	r6, [sp, #4]
      config.DataBlockSize = SDMMC_DATABLOCK_SIZE_512B;
 8006910:	2390      	movs	r3, #144	@ 0x90
 8006912:	9302      	str	r3, [sp, #8]
      config.TransferDir   = SDMMC_TRANSFER_DIR_TO_CARD;
 8006914:	9003      	str	r0, [sp, #12]
      config.TransferMode  = SDMMC_TRANSFER_MODE_BLOCK;
 8006916:	9004      	str	r0, [sp, #16]
      config.DPSM          = SDMMC_DPSM_ENABLE;
 8006918:	2301      	movs	r3, #1
 800691a:	9305      	str	r3, [sp, #20]
      (void)SDMMC_ConfigData(hsd->Instance, &config);
 800691c:	4669      	mov	r1, sp
 800691e:	6820      	ldr	r0, [r4, #0]
 8006920:	f000 ff42 	bl	80077a8 <SDMMC_ConfigData>
      __HAL_SD_ENABLE_IT(hsd, (SDMMC_IT_DCRCFAIL | SDMMC_IT_DTIMEOUT | SDMMC_IT_TXUNDERR));
 8006924:	6822      	ldr	r2, [r4, #0]
 8006926:	6bd3      	ldr	r3, [r2, #60]	@ 0x3c
 8006928:	f043 031a 	orr.w	r3, r3, #26
 800692c:	63d3      	str	r3, [r2, #60]	@ 0x3c
      return HAL_OK;
 800692e:	463d      	mov	r5, r7
 8006930:	e001      	b.n	8006936 <HAL_SD_WriteBlocks_DMA+0x102>
    return HAL_BUSY;
 8006932:	2302      	movs	r3, #2
 8006934:	461d      	mov	r5, r3
}
 8006936:	4628      	mov	r0, r5
 8006938:	b007      	add	sp, #28
 800693a:	bdf0      	pop	{r4, r5, r6, r7, pc}
 800693c:	08006025 	.word	0x08006025
 8006940:	08006e99 	.word	0x08006e99
 8006944:	004005ff 	.word	0x004005ff

08006948 <HAL_SD_ErrorCallback>:
}
 8006948:	4770      	bx	lr

0800694a <SD_DMAReceiveCplt>:
{
 800694a:	b510      	push	{r4, lr}
  SD_HandleTypeDef *hsd = (SD_HandleTypeDef *)(hdma->Parent);
 800694c:	6a84      	ldr	r4, [r0, #40]	@ 0x28
  if (hsd->Context == (SD_CONTEXT_READ_MULTIPLE_BLOCK | SD_CONTEXT_DMA))
 800694e:	6b23      	ldr	r3, [r4, #48]	@ 0x30
 8006950:	2b82      	cmp	r3, #130	@ 0x82
 8006952:	d011      	beq.n	8006978 <SD_DMAReceiveCplt+0x2e>
  hsd->Instance->DCTRL &= (uint32_t)~((uint32_t)SDMMC_DCTRL_DMAEN);
 8006954:	6822      	ldr	r2, [r4, #0]
 8006956:	6ad3      	ldr	r3, [r2, #44]	@ 0x2c
 8006958:	f023 0308 	bic.w	r3, r3, #8
 800695c:	62d3      	str	r3, [r2, #44]	@ 0x2c
  __HAL_SD_CLEAR_FLAG(hsd, SDMMC_STATIC_DATA_FLAGS);
 800695e:	6823      	ldr	r3, [r4, #0]
 8006960:	f240 523a 	movw	r2, #1338	@ 0x53a
 8006964:	639a      	str	r2, [r3, #56]	@ 0x38
  hsd->State = HAL_SD_STATE_READY;
 8006966:	2301      	movs	r3, #1
 8006968:	f884 3034 	strb.w	r3, [r4, #52]	@ 0x34
  hsd->Context = SD_CONTEXT_NONE;
 800696c:	2300      	movs	r3, #0
 800696e:	6323      	str	r3, [r4, #48]	@ 0x30
  HAL_SD_RxCpltCallback(hsd);
 8006970:	4620      	mov	r0, r4
 8006972:	f7f9 fccb 	bl	800030c <HAL_SD_RxCpltCallback>
}
 8006976:	bd10      	pop	{r4, pc}
    errorstate = SDMMC_CmdStopTransfer(hsd->Instance);
 8006978:	6820      	ldr	r0, [r4, #0]
 800697a:	f001 f85d 	bl	8007a38 <SDMMC_CmdStopTransfer>
    if (errorstate != HAL_SD_ERROR_NONE)
 800697e:	4603      	mov	r3, r0
 8006980:	2800      	cmp	r0, #0
 8006982:	d0e7      	beq.n	8006954 <SD_DMAReceiveCplt+0xa>
      hsd->ErrorCode |= errorstate;
 8006984:	6ba2      	ldr	r2, [r4, #56]	@ 0x38
 8006986:	4313      	orrs	r3, r2
 8006988:	63a3      	str	r3, [r4, #56]	@ 0x38
      HAL_SD_ErrorCallback(hsd);
 800698a:	4620      	mov	r0, r4
 800698c:	f7ff ffdc 	bl	8006948 <HAL_SD_ErrorCallback>
 8006990:	e7e0      	b.n	8006954 <SD_DMAReceiveCplt+0xa>
	...

08006994 <HAL_SD_GetCardCSD>:
{
 8006994:	4603      	mov	r3, r0
  pCSD->CSDStruct = (uint8_t)((hsd->CSD[0] & 0xC0000000U) >> 30U);
 8006996:	6e42      	ldr	r2, [r0, #100]	@ 0x64
 8006998:	0f92      	lsrs	r2, r2, #30
 800699a:	700a      	strb	r2, [r1, #0]
  pCSD->SysSpecVersion = (uint8_t)((hsd->CSD[0] & 0x3C000000U) >> 26U);
 800699c:	6e42      	ldr	r2, [r0, #100]	@ 0x64
 800699e:	f3c2 6283 	ubfx	r2, r2, #26, #4
 80069a2:	704a      	strb	r2, [r1, #1]
  pCSD->Reserved1 = (uint8_t)((hsd->CSD[0] & 0x03000000U) >> 24U);
 80069a4:	f890 2067 	ldrb.w	r2, [r0, #103]	@ 0x67
 80069a8:	f002 0203 	and.w	r2, r2, #3
 80069ac:	708a      	strb	r2, [r1, #2]
  pCSD->TAAC = (uint8_t)((hsd->CSD[0] & 0x00FF0000U) >> 16U);
 80069ae:	f890 2066 	ldrb.w	r2, [r0, #102]	@ 0x66
 80069b2:	70ca      	strb	r2, [r1, #3]
  pCSD->NSAC = (uint8_t)((hsd->CSD[0] & 0x0000FF00U) >> 8U);
 80069b4:	f890 2065 	ldrb.w	r2, [r0, #101]	@ 0x65
 80069b8:	710a      	strb	r2, [r1, #4]
  pCSD->MaxBusClkFrec = (uint8_t)(hsd->CSD[0] & 0x000000FFU);
 80069ba:	f890 2064 	ldrb.w	r2, [r0, #100]	@ 0x64
 80069be:	714a      	strb	r2, [r1, #5]
  pCSD->CardComdClasses = (uint16_t)((hsd->CSD[1] & 0xFFF00000U) >> 20U);
 80069c0:	6e82      	ldr	r2, [r0, #104]	@ 0x68
 80069c2:	0d12      	lsrs	r2, r2, #20
 80069c4:	80ca      	strh	r2, [r1, #6]
  pCSD->RdBlockLen = (uint8_t)((hsd->CSD[1] & 0x000F0000U) >> 16U);
 80069c6:	f8b0 206a 	ldrh.w	r2, [r0, #106]	@ 0x6a
 80069ca:	f002 020f 	and.w	r2, r2, #15
 80069ce:	720a      	strb	r2, [r1, #8]
  pCSD->PartBlockRead   = (uint8_t)((hsd->CSD[1] & 0x00008000U) >> 15U);
 80069d0:	6e82      	ldr	r2, [r0, #104]	@ 0x68
 80069d2:	f3c2 32c0 	ubfx	r2, r2, #15, #1
 80069d6:	724a      	strb	r2, [r1, #9]
  pCSD->WrBlockMisalign = (uint8_t)((hsd->CSD[1] & 0x00004000U) >> 14U);
 80069d8:	6e82      	ldr	r2, [r0, #104]	@ 0x68
 80069da:	f3c2 3280 	ubfx	r2, r2, #14, #1
 80069de:	728a      	strb	r2, [r1, #10]
  pCSD->RdBlockMisalign = (uint8_t)((hsd->CSD[1] & 0x00002000U) >> 13U);
 80069e0:	6e82      	ldr	r2, [r0, #104]	@ 0x68
 80069e2:	f3c2 3240 	ubfx	r2, r2, #13, #1
 80069e6:	72ca      	strb	r2, [r1, #11]
  pCSD->DSRImpl = (uint8_t)((hsd->CSD[1] & 0x00001000U) >> 12U);
 80069e8:	6e82      	ldr	r2, [r0, #104]	@ 0x68
 80069ea:	f3c2 3200 	ubfx	r2, r2, #12, #1
 80069ee:	730a      	strb	r2, [r1, #12]
  pCSD->Reserved2 = 0U; /*!< Reserved */
 80069f0:	2200      	movs	r2, #0
 80069f2:	734a      	strb	r2, [r1, #13]
  if (hsd->SdCard.CardType == CARD_SDSC)
 80069f4:	6c42      	ldr	r2, [r0, #68]	@ 0x44
 80069f6:	2a00      	cmp	r2, #0
 80069f8:	f040 8086 	bne.w	8006b08 <HAL_SD_GetCardCSD+0x174>
    pCSD->DeviceSize = (((hsd->CSD[1] & 0x000003FFU) << 2U) | ((hsd->CSD[2] & 0xC0000000U) >> 30U));
 80069fc:	6e80      	ldr	r0, [r0, #104]	@ 0x68
 80069fe:	f640 72fc 	movw	r2, #4092	@ 0xffc
 8006a02:	ea02 0280 	and.w	r2, r2, r0, lsl #2
 8006a06:	6ed8      	ldr	r0, [r3, #108]	@ 0x6c
 8006a08:	ea42 7290 	orr.w	r2, r2, r0, lsr #30
 8006a0c:	610a      	str	r2, [r1, #16]
    pCSD->MaxRdCurrentVDDMin = (uint8_t)((hsd->CSD[2] & 0x38000000U) >> 27U);
 8006a0e:	6eda      	ldr	r2, [r3, #108]	@ 0x6c
 8006a10:	f3c2 62c2 	ubfx	r2, r2, #27, #3
 8006a14:	750a      	strb	r2, [r1, #20]
    pCSD->MaxRdCurrentVDDMax = (uint8_t)((hsd->CSD[2] & 0x07000000U) >> 24U);
 8006a16:	f893 206f 	ldrb.w	r2, [r3, #111]	@ 0x6f
 8006a1a:	f002 0207 	and.w	r2, r2, #7
 8006a1e:	754a      	strb	r2, [r1, #21]
    pCSD->MaxWrCurrentVDDMin = (uint8_t)((hsd->CSD[2] & 0x00E00000U) >> 21U);
 8006a20:	6eda      	ldr	r2, [r3, #108]	@ 0x6c
 8006a22:	f3c2 5242 	ubfx	r2, r2, #21, #3
 8006a26:	758a      	strb	r2, [r1, #22]
    pCSD->MaxWrCurrentVDDMax = (uint8_t)((hsd->CSD[2] & 0x001C0000U) >> 18U);
 8006a28:	6eda      	ldr	r2, [r3, #108]	@ 0x6c
 8006a2a:	f3c2 4282 	ubfx	r2, r2, #18, #3
 8006a2e:	75ca      	strb	r2, [r1, #23]
    pCSD->DeviceSizeMul = (uint8_t)((hsd->CSD[2] & 0x00038000U) >> 15U);
 8006a30:	6eda      	ldr	r2, [r3, #108]	@ 0x6c
 8006a32:	f3c2 32c2 	ubfx	r2, r2, #15, #3
 8006a36:	760a      	strb	r2, [r1, #24]
    hsd->SdCard.BlockNbr  = (pCSD->DeviceSize + 1U) ;
 8006a38:	690a      	ldr	r2, [r1, #16]
 8006a3a:	3201      	adds	r2, #1
 8006a3c:	655a      	str	r2, [r3, #84]	@ 0x54
    hsd->SdCard.BlockNbr *= (1UL << ((pCSD->DeviceSizeMul & 0x07U) + 2U));
 8006a3e:	7e08      	ldrb	r0, [r1, #24]
 8006a40:	f000 0007 	and.w	r0, r0, #7
 8006a44:	3002      	adds	r0, #2
 8006a46:	4082      	lsls	r2, r0
 8006a48:	655a      	str	r2, [r3, #84]	@ 0x54
    hsd->SdCard.BlockSize = (1UL << (pCSD->RdBlockLen & 0x0FU));
 8006a4a:	f891 c008 	ldrb.w	ip, [r1, #8]
 8006a4e:	f00c 0c0f 	and.w	ip, ip, #15
 8006a52:	2001      	movs	r0, #1
 8006a54:	fa00 f00c 	lsl.w	r0, r0, ip
 8006a58:	6598      	str	r0, [r3, #88]	@ 0x58
    hsd->SdCard.LogBlockNbr = (hsd->SdCard.BlockNbr) * ((hsd->SdCard.BlockSize) / 512U);
 8006a5a:	0a40      	lsrs	r0, r0, #9
 8006a5c:	fb00 f202 	mul.w	r2, r0, r2
 8006a60:	65da      	str	r2, [r3, #92]	@ 0x5c
    hsd->SdCard.LogBlockSize = 512U;
 8006a62:	f44f 7200 	mov.w	r2, #512	@ 0x200
 8006a66:	661a      	str	r2, [r3, #96]	@ 0x60
  pCSD->EraseGrSize = (uint8_t)((hsd->CSD[2] & 0x00004000U) >> 14U);
 8006a68:	6eda      	ldr	r2, [r3, #108]	@ 0x6c
 8006a6a:	f3c2 3280 	ubfx	r2, r2, #14, #1
 8006a6e:	764a      	strb	r2, [r1, #25]
  pCSD->EraseGrMul = (uint8_t)((hsd->CSD[2] & 0x00003F80U) >> 7U);
 8006a70:	6eda      	ldr	r2, [r3, #108]	@ 0x6c
 8006a72:	f3c2 12c6 	ubfx	r2, r2, #7, #7
 8006a76:	768a      	strb	r2, [r1, #26]
  pCSD->WrProtectGrSize = (uint8_t)(hsd->CSD[2] & 0x0000007FU);
 8006a78:	6eda      	ldr	r2, [r3, #108]	@ 0x6c
 8006a7a:	f002 027f 	and.w	r2, r2, #127	@ 0x7f
 8006a7e:	76ca      	strb	r2, [r1, #27]
  pCSD->WrProtectGrEnable = (uint8_t)((hsd->CSD[3] & 0x80000000U) >> 31U);
 8006a80:	6f1a      	ldr	r2, [r3, #112]	@ 0x70
 8006a82:	0fd2      	lsrs	r2, r2, #31
 8006a84:	770a      	strb	r2, [r1, #28]
  pCSD->ManDeflECC = (uint8_t)((hsd->CSD[3] & 0x60000000U) >> 29U);
 8006a86:	6f1a      	ldr	r2, [r3, #112]	@ 0x70
 8006a88:	f3c2 7241 	ubfx	r2, r2, #29, #2
 8006a8c:	774a      	strb	r2, [r1, #29]
  pCSD->WrSpeedFact = (uint8_t)((hsd->CSD[3] & 0x1C000000U) >> 26U);
 8006a8e:	6f1a      	ldr	r2, [r3, #112]	@ 0x70
 8006a90:	f3c2 6282 	ubfx	r2, r2, #26, #3
 8006a94:	778a      	strb	r2, [r1, #30]
  pCSD->MaxWrBlockLen = (uint8_t)((hsd->CSD[3] & 0x03C00000U) >> 22U);
 8006a96:	6f1a      	ldr	r2, [r3, #112]	@ 0x70
 8006a98:	f3c2 5283 	ubfx	r2, r2, #22, #4
 8006a9c:	77ca      	strb	r2, [r1, #31]
  pCSD->WriteBlockPaPartial = (uint8_t)((hsd->CSD[3] & 0x00200000U) >> 21U);
 8006a9e:	6f1a      	ldr	r2, [r3, #112]	@ 0x70
 8006aa0:	f3c2 5240 	ubfx	r2, r2, #21, #1
 8006aa4:	f881 2020 	strb.w	r2, [r1, #32]
  pCSD->Reserved3 = 0;
 8006aa8:	2000      	movs	r0, #0
 8006aaa:	f881 0021 	strb.w	r0, [r1, #33]	@ 0x21
  pCSD->ContentProtectAppli = (uint8_t)((hsd->CSD[3] & 0x00010000U) >> 16U);
 8006aae:	f8b3 2072 	ldrh.w	r2, [r3, #114]	@ 0x72
 8006ab2:	f002 0201 	and.w	r2, r2, #1
 8006ab6:	f881 2022 	strb.w	r2, [r1, #34]	@ 0x22
  pCSD->FileFormatGroup = (uint8_t)((hsd->CSD[3] & 0x00008000U) >> 15U);
 8006aba:	6f1a      	ldr	r2, [r3, #112]	@ 0x70
 8006abc:	f3c2 32c0 	ubfx	r2, r2, #15, #1
 8006ac0:	f881 2023 	strb.w	r2, [r1, #35]	@ 0x23
  pCSD->CopyFlag = (uint8_t)((hsd->CSD[3] & 0x00004000U) >> 14U);
 8006ac4:	6f1a      	ldr	r2, [r3, #112]	@ 0x70
 8006ac6:	f3c2 3280 	ubfx	r2, r2, #14, #1
 8006aca:	f881 2024 	strb.w	r2, [r1, #36]	@ 0x24
  pCSD->PermWrProtect = (uint8_t)((hsd->CSD[3] & 0x00002000U) >> 13U);
 8006ace:	6f1a      	ldr	r2, [r3, #112]	@ 0x70
 8006ad0:	f3c2 3240 	ubfx	r2, r2, #13, #1
 8006ad4:	f881 2025 	strb.w	r2, [r1, #37]	@ 0x25
  pCSD->TempWrProtect = (uint8_t)((hsd->CSD[3] & 0x00001000U) >> 12U);
 8006ad8:	6f1a      	ldr	r2, [r3, #112]	@ 0x70
 8006ada:	f3c2 3200 	ubfx	r2, r2, #12, #1
 8006ade:	f881 2026 	strb.w	r2, [r1, #38]	@ 0x26
  pCSD->FileFormat = (uint8_t)((hsd->CSD[3] & 0x00000C00U) >> 10U);
 8006ae2:	6f1a      	ldr	r2, [r3, #112]	@ 0x70
 8006ae4:	f3c2 2281 	ubfx	r2, r2, #10, #2
 8006ae8:	f881 2027 	strb.w	r2, [r1, #39]	@ 0x27
  pCSD->ECC = (uint8_t)((hsd->CSD[3] & 0x00000300U) >> 8U);
 8006aec:	6f1a      	ldr	r2, [r3, #112]	@ 0x70
 8006aee:	f3c2 2201 	ubfx	r2, r2, #8, #2
 8006af2:	f881 2028 	strb.w	r2, [r1, #40]	@ 0x28
  pCSD->CSD_CRC = (uint8_t)((hsd->CSD[3] & 0x000000FEU) >> 1U);
 8006af6:	6f1b      	ldr	r3, [r3, #112]	@ 0x70
 8006af8:	f3c3 0346 	ubfx	r3, r3, #1, #7
 8006afc:	f881 3029 	strb.w	r3, [r1, #41]	@ 0x29
  pCSD->Reserved4 = 1;
 8006b00:	2301      	movs	r3, #1
 8006b02:	f881 302a 	strb.w	r3, [r1, #42]	@ 0x2a
}
 8006b06:	4770      	bx	lr
  else if (hsd->SdCard.CardType == CARD_SDHC_SDXC)
 8006b08:	2a01      	cmp	r2, #1
 8006b0a:	d111      	bne.n	8006b30 <HAL_SD_GetCardCSD+0x19c>
    pCSD->DeviceSize = (((hsd->CSD[1] & 0x0000003FU) << 16U) | ((hsd->CSD[2] & 0xFFFF0000U) >> 16U));
 8006b0c:	6e82      	ldr	r2, [r0, #104]	@ 0x68
 8006b0e:	0412      	lsls	r2, r2, #16
 8006b10:	f402 127c 	and.w	r2, r2, #4128768	@ 0x3f0000
 8006b14:	f8b0 006e 	ldrh.w	r0, [r0, #110]	@ 0x6e
 8006b18:	4302      	orrs	r2, r0
 8006b1a:	610a      	str	r2, [r1, #16]
    hsd->SdCard.BlockNbr = ((pCSD->DeviceSize + 1U) * 1024U);
 8006b1c:	690a      	ldr	r2, [r1, #16]
 8006b1e:	3201      	adds	r2, #1
 8006b20:	0292      	lsls	r2, r2, #10
 8006b22:	655a      	str	r2, [r3, #84]	@ 0x54
    hsd->SdCard.LogBlockNbr = hsd->SdCard.BlockNbr;
 8006b24:	65da      	str	r2, [r3, #92]	@ 0x5c
    hsd->SdCard.BlockSize = 512U;
 8006b26:	f44f 7200 	mov.w	r2, #512	@ 0x200
 8006b2a:	659a      	str	r2, [r3, #88]	@ 0x58
    hsd->SdCard.LogBlockSize = hsd->SdCard.BlockSize;
 8006b2c:	661a      	str	r2, [r3, #96]	@ 0x60
 8006b2e:	e79b      	b.n	8006a68 <HAL_SD_GetCardCSD+0xd4>
    __HAL_SD_CLEAR_FLAG(hsd, SDMMC_STATIC_FLAGS);
 8006b30:	6802      	ldr	r2, [r0, #0]
 8006b32:	4905      	ldr	r1, [pc, #20]	@ (8006b48 <HAL_SD_GetCardCSD+0x1b4>)
 8006b34:	6391      	str	r1, [r2, #56]	@ 0x38
    hsd->ErrorCode |= HAL_SD_ERROR_UNSUPPORTED_FEATURE;
 8006b36:	6b82      	ldr	r2, [r0, #56]	@ 0x38
 8006b38:	f042 5280 	orr.w	r2, r2, #268435456	@ 0x10000000
 8006b3c:	6382      	str	r2, [r0, #56]	@ 0x38
    hsd->State = HAL_SD_STATE_READY;
 8006b3e:	2001      	movs	r0, #1
 8006b40:	f883 0034 	strb.w	r0, [r3, #52]	@ 0x34
    return HAL_ERROR;
 8006b44:	4770      	bx	lr
 8006b46:	bf00      	nop
 8006b48:	004005ff 	.word	0x004005ff

08006b4c <SD_InitCard>:
{
 8006b4c:	b510      	push	{r4, lr}
 8006b4e:	b08c      	sub	sp, #48	@ 0x30
 8006b50:	4604      	mov	r4, r0
  uint16_t sd_rca = 1U;
 8006b52:	2301      	movs	r3, #1
 8006b54:	f8ad 3002 	strh.w	r3, [sp, #2]
  if (SDMMC_GetPowerState(hsd->Instance) == 0U)
 8006b58:	6800      	ldr	r0, [r0, #0]
 8006b5a:	f000 fe0b 	bl	8007774 <SDMMC_GetPowerState>
 8006b5e:	2800      	cmp	r0, #0
 8006b60:	d059      	beq.n	8006c16 <SD_InitCard+0xca>
  if (hsd->SdCard.CardType != CARD_SECURED)
 8006b62:	6c63      	ldr	r3, [r4, #68]	@ 0x44
 8006b64:	2b03      	cmp	r3, #3
 8006b66:	d134      	bne.n	8006bd2 <SD_InitCard+0x86>
  if (hsd->SdCard.CardType != CARD_SECURED)
 8006b68:	6c63      	ldr	r3, [r4, #68]	@ 0x44
 8006b6a:	2b03      	cmp	r3, #3
 8006b6c:	d14b      	bne.n	8006c06 <SD_InitCard+0xba>
  if (hsd->SdCard.CardType != CARD_SECURED)
 8006b6e:	6c63      	ldr	r3, [r4, #68]	@ 0x44
 8006b70:	2b03      	cmp	r3, #3
 8006b72:	d01c      	beq.n	8006bae <SD_InitCard+0x62>
    hsd->SdCard.RelCardAdd = sd_rca;
 8006b74:	f8bd 1002 	ldrh.w	r1, [sp, #2]
 8006b78:	6521      	str	r1, [r4, #80]	@ 0x50
    errorstate = SDMMC_CmdSendCSD(hsd->Instance, (uint32_t)(hsd->SdCard.RelCardAdd << 16U));
 8006b7a:	0409      	lsls	r1, r1, #16
 8006b7c:	6820      	ldr	r0, [r4, #0]
 8006b7e:	f001 f830 	bl	8007be2 <SDMMC_CmdSendCSD>
    if (errorstate != HAL_SD_ERROR_NONE)
 8006b82:	2800      	cmp	r0, #0
 8006b84:	d149      	bne.n	8006c1a <SD_InitCard+0xce>
      hsd->CSD[0U] = SDMMC_GetResponse(hsd->Instance, SDMMC_RESP1);
 8006b86:	4601      	mov	r1, r0
 8006b88:	6820      	ldr	r0, [r4, #0]
 8006b8a:	f000 fe0a 	bl	80077a2 <SDMMC_GetResponse>
 8006b8e:	6660      	str	r0, [r4, #100]	@ 0x64
      hsd->CSD[1U] = SDMMC_GetResponse(hsd->Instance, SDMMC_RESP2);
 8006b90:	2104      	movs	r1, #4
 8006b92:	6820      	ldr	r0, [r4, #0]
 8006b94:	f000 fe05 	bl	80077a2 <SDMMC_GetResponse>
 8006b98:	66a0      	str	r0, [r4, #104]	@ 0x68
      hsd->CSD[2U] = SDMMC_GetResponse(hsd->Instance, SDMMC_RESP3);
 8006b9a:	2108      	movs	r1, #8
 8006b9c:	6820      	ldr	r0, [r4, #0]
 8006b9e:	f000 fe00 	bl	80077a2 <SDMMC_GetResponse>
 8006ba2:	66e0      	str	r0, [r4, #108]	@ 0x6c
      hsd->CSD[3U] = SDMMC_GetResponse(hsd->Instance, SDMMC_RESP4);
 8006ba4:	210c      	movs	r1, #12
 8006ba6:	6820      	ldr	r0, [r4, #0]
 8006ba8:	f000 fdfb 	bl	80077a2 <SDMMC_GetResponse>
 8006bac:	6720      	str	r0, [r4, #112]	@ 0x70
  hsd->SdCard.Class = (SDMMC_GetResponse(hsd->Instance, SDMMC_RESP2) >> 20U);
 8006bae:	2104      	movs	r1, #4
 8006bb0:	6820      	ldr	r0, [r4, #0]
 8006bb2:	f000 fdf6 	bl	80077a2 <SDMMC_GetResponse>
 8006bb6:	0d00      	lsrs	r0, r0, #20
 8006bb8:	64e0      	str	r0, [r4, #76]	@ 0x4c
  if (HAL_SD_GetCardCSD(hsd, &CSD) != HAL_OK)
 8006bba:	a901      	add	r1, sp, #4
 8006bbc:	4620      	mov	r0, r4
 8006bbe:	f7ff fee9 	bl	8006994 <HAL_SD_GetCardCSD>
 8006bc2:	bb60      	cbnz	r0, 8006c1e <SD_InitCard+0xd2>
  errorstate = SDMMC_CmdSelDesel(hsd->Instance, (uint32_t)(((uint32_t)hsd->SdCard.RelCardAdd) << 16U));
 8006bc4:	6d22      	ldr	r2, [r4, #80]	@ 0x50
 8006bc6:	0412      	lsls	r2, r2, #16
 8006bc8:	4603      	mov	r3, r0
 8006bca:	6820      	ldr	r0, [r4, #0]
 8006bcc:	f000 ff4e 	bl	8007a6c <SDMMC_CmdSelDesel>
  if (errorstate != HAL_SD_ERROR_NONE)
 8006bd0:	e023      	b.n	8006c1a <SD_InitCard+0xce>
    errorstate = SDMMC_CmdSendCID(hsd->Instance);
 8006bd2:	6820      	ldr	r0, [r4, #0]
 8006bd4:	f000 fff0 	bl	8007bb8 <SDMMC_CmdSendCID>
    if (errorstate != HAL_SD_ERROR_NONE)
 8006bd8:	b9f8      	cbnz	r0, 8006c1a <SD_InitCard+0xce>
      hsd->CID[0U] = SDMMC_GetResponse(hsd->Instance, SDMMC_RESP1);
 8006bda:	4601      	mov	r1, r0
 8006bdc:	6820      	ldr	r0, [r4, #0]
 8006bde:	f000 fde0 	bl	80077a2 <SDMMC_GetResponse>
 8006be2:	6760      	str	r0, [r4, #116]	@ 0x74
      hsd->CID[1U] = SDMMC_GetResponse(hsd->Instance, SDMMC_RESP2);
 8006be4:	2104      	movs	r1, #4
 8006be6:	6820      	ldr	r0, [r4, #0]
 8006be8:	f000 fddb 	bl	80077a2 <SDMMC_GetResponse>
 8006bec:	67a0      	str	r0, [r4, #120]	@ 0x78
      hsd->CID[2U] = SDMMC_GetResponse(hsd->Instance, SDMMC_RESP3);
 8006bee:	2108      	movs	r1, #8
 8006bf0:	6820      	ldr	r0, [r4, #0]
 8006bf2:	f000 fdd6 	bl	80077a2 <SDMMC_GetResponse>
 8006bf6:	67e0      	str	r0, [r4, #124]	@ 0x7c
      hsd->CID[3U] = SDMMC_GetResponse(hsd->Instance, SDMMC_RESP4);
 8006bf8:	210c      	movs	r1, #12
 8006bfa:	6820      	ldr	r0, [r4, #0]
 8006bfc:	f000 fdd1 	bl	80077a2 <SDMMC_GetResponse>
 8006c00:	f8c4 0080 	str.w	r0, [r4, #128]	@ 0x80
 8006c04:	e7b0      	b.n	8006b68 <SD_InitCard+0x1c>
    errorstate = SDMMC_CmdSetRelAdd(hsd->Instance, &sd_rca);
 8006c06:	f10d 0102 	add.w	r1, sp, #2
 8006c0a:	6820      	ldr	r0, [r4, #0]
 8006c0c:	f001 f892 	bl	8007d34 <SDMMC_CmdSetRelAdd>
    if (errorstate != HAL_SD_ERROR_NONE)
 8006c10:	2800      	cmp	r0, #0
 8006c12:	d0ac      	beq.n	8006b6e <SD_InitCard+0x22>
 8006c14:	e001      	b.n	8006c1a <SD_InitCard+0xce>
    return HAL_SD_ERROR_REQUEST_NOT_APPLICABLE;
 8006c16:	f04f 6080 	mov.w	r0, #67108864	@ 0x4000000
}
 8006c1a:	b00c      	add	sp, #48	@ 0x30
 8006c1c:	bd10      	pop	{r4, pc}
    return HAL_SD_ERROR_UNSUPPORTED_FEATURE;
 8006c1e:	f04f 5080 	mov.w	r0, #268435456	@ 0x10000000
 8006c22:	e7fa      	b.n	8006c1a <SD_InitCard+0xce>

08006c24 <HAL_SD_InitCard>:
{
 8006c24:	b570      	push	{r4, r5, r6, lr}
 8006c26:	b08a      	sub	sp, #40	@ 0x28
 8006c28:	4604      	mov	r4, r0
  Init.ClockEdge           = SDMMC_CLOCK_EDGE_RISING;
 8006c2a:	2300      	movs	r3, #0
 8006c2c:	9304      	str	r3, [sp, #16]
  Init.ClockBypass         = SDMMC_CLOCK_BYPASS_DISABLE;
 8006c2e:	9305      	str	r3, [sp, #20]
  Init.ClockPowerSave      = SDMMC_CLOCK_POWER_SAVE_DISABLE;
 8006c30:	9306      	str	r3, [sp, #24]
  Init.BusWide             = SDMMC_BUS_WIDE_1B;
 8006c32:	9307      	str	r3, [sp, #28]
  Init.HardwareFlowControl = SDMMC_HARDWARE_FLOW_CONTROL_DISABLE;
 8006c34:	9308      	str	r3, [sp, #32]
  sdmmc_clk = HAL_RCCEx_GetPeriphCLKFreq(RCC_PERIPHCLK_SDMMC1);
 8006c36:	f44f 2000 	mov.w	r0, #524288	@ 0x80000
 8006c3a:	f7fe fd0b 	bl	8005654 <HAL_RCCEx_GetPeriphCLKFreq>
  if (sdmmc_clk == 0U)
 8006c3e:	b938      	cbnz	r0, 8006c50 <HAL_SD_InitCard+0x2c>
    hsd->State = HAL_SD_STATE_READY;
 8006c40:	2001      	movs	r0, #1
 8006c42:	f884 0034 	strb.w	r0, [r4, #52]	@ 0x34
    hsd->ErrorCode = SDMMC_ERROR_INVALID_PARAMETER;
 8006c46:	f04f 6300 	mov.w	r3, #134217728	@ 0x8000000
 8006c4a:	63a3      	str	r3, [r4, #56]	@ 0x38
}
 8006c4c:	b00a      	add	sp, #40	@ 0x28
 8006c4e:	bd70      	pop	{r4, r5, r6, pc}
  Init.ClockDiv = ((sdmmc_clk / SD_INIT_FREQ) - 2U);
 8006c50:	4605      	mov	r5, r0
 8006c52:	09c3      	lsrs	r3, r0, #7
 8006c54:	4a27      	ldr	r2, [pc, #156]	@ (8006cf4 <HAL_SD_InitCard+0xd0>)
 8006c56:	fba2 2303 	umull	r2, r3, r2, r3
 8006c5a:	091e      	lsrs	r6, r3, #4
 8006c5c:	1eb3      	subs	r3, r6, #2
 8006c5e:	9309      	str	r3, [sp, #36]	@ 0x24
  status = SDMMC_Init(hsd->Instance, Init);
 8006c60:	ab0a      	add	r3, sp, #40	@ 0x28
 8006c62:	e913 0007 	ldmdb	r3, {r0, r1, r2}
 8006c66:	e88d 0007 	stmia.w	sp, {r0, r1, r2}
 8006c6a:	ab04      	add	r3, sp, #16
 8006c6c:	cb0e      	ldmia	r3, {r1, r2, r3}
 8006c6e:	6820      	ldr	r0, [r4, #0]
 8006c70:	f000 fd56 	bl	8007720 <SDMMC_Init>
  if (status == HAL_ERROR)
 8006c74:	2801      	cmp	r0, #1
 8006c76:	d0e9      	beq.n	8006c4c <HAL_SD_InitCard+0x28>
  __HAL_SD_DISABLE(hsd);
 8006c78:	6822      	ldr	r2, [r4, #0]
 8006c7a:	6853      	ldr	r3, [r2, #4]
 8006c7c:	f423 7380 	bic.w	r3, r3, #256	@ 0x100
 8006c80:	6053      	str	r3, [r2, #4]
  (void)SDMMC_PowerState_ON(hsd->Instance);
 8006c82:	6820      	ldr	r0, [r4, #0]
 8006c84:	f000 fd6e 	bl	8007764 <SDMMC_PowerState_ON>
  __HAL_SD_ENABLE(hsd);
 8006c88:	6822      	ldr	r2, [r4, #0]
 8006c8a:	6853      	ldr	r3, [r2, #4]
 8006c8c:	f443 7380 	orr.w	r3, r3, #256	@ 0x100
 8006c90:	6053      	str	r3, [r2, #4]
  sdmmc_clk = sdmmc_clk / (Init.ClockDiv + 2U);
 8006c92:	fbb5 f3f6 	udiv	r3, r5, r6
  HAL_Delay(1U + (74U * 1000U / (sdmmc_clk)));
 8006c96:	4818      	ldr	r0, [pc, #96]	@ (8006cf8 <HAL_SD_InitCard+0xd4>)
 8006c98:	fbb0 f0f3 	udiv	r0, r0, r3
 8006c9c:	3001      	adds	r0, #1
 8006c9e:	f7fc fdbd 	bl	800381c <HAL_Delay>
  errorstate = SD_PowerON(hsd);
 8006ca2:	4620      	mov	r0, r4
 8006ca4:	f7ff f9c6 	bl	8006034 <SD_PowerON>
  if (errorstate != HAL_SD_ERROR_NONE)
 8006ca8:	4602      	mov	r2, r0
 8006caa:	b130      	cbz	r0, 8006cba <HAL_SD_InitCard+0x96>
    hsd->State = HAL_SD_STATE_READY;
 8006cac:	2001      	movs	r0, #1
 8006cae:	f884 0034 	strb.w	r0, [r4, #52]	@ 0x34
    hsd->ErrorCode |= errorstate;
 8006cb2:	6ba3      	ldr	r3, [r4, #56]	@ 0x38
 8006cb4:	4313      	orrs	r3, r2
 8006cb6:	63a3      	str	r3, [r4, #56]	@ 0x38
    return HAL_ERROR;
 8006cb8:	e7c8      	b.n	8006c4c <HAL_SD_InitCard+0x28>
  errorstate = SD_InitCard(hsd);
 8006cba:	4620      	mov	r0, r4
 8006cbc:	f7ff ff46 	bl	8006b4c <SD_InitCard>
  if (errorstate != HAL_SD_ERROR_NONE)
 8006cc0:	4602      	mov	r2, r0
 8006cc2:	b130      	cbz	r0, 8006cd2 <HAL_SD_InitCard+0xae>
    hsd->State = HAL_SD_STATE_READY;
 8006cc4:	2001      	movs	r0, #1
 8006cc6:	f884 0034 	strb.w	r0, [r4, #52]	@ 0x34
    hsd->ErrorCode |= errorstate;
 8006cca:	6ba3      	ldr	r3, [r4, #56]	@ 0x38
 8006ccc:	4313      	orrs	r3, r2
 8006cce:	63a3      	str	r3, [r4, #56]	@ 0x38
    return HAL_ERROR;
 8006cd0:	e7bc      	b.n	8006c4c <HAL_SD_InitCard+0x28>
  errorstate = SDMMC_CmdBlockLength(hsd->Instance, BLOCKSIZE);
 8006cd2:	f44f 7100 	mov.w	r1, #512	@ 0x200
 8006cd6:	6820      	ldr	r0, [r4, #0]
 8006cd8:	f000 fe36 	bl	8007948 <SDMMC_CmdBlockLength>
  if (errorstate != HAL_SD_ERROR_NONE)
 8006cdc:	2800      	cmp	r0, #0
 8006cde:	d0b5      	beq.n	8006c4c <HAL_SD_InitCard+0x28>
    __HAL_SD_CLEAR_FLAG(hsd, SDMMC_STATIC_FLAGS);
 8006ce0:	6823      	ldr	r3, [r4, #0]
 8006ce2:	4906      	ldr	r1, [pc, #24]	@ (8006cfc <HAL_SD_InitCard+0xd8>)
 8006ce4:	6399      	str	r1, [r3, #56]	@ 0x38
    hsd->ErrorCode |= errorstate;
 8006ce6:	6ba3      	ldr	r3, [r4, #56]	@ 0x38
 8006ce8:	4303      	orrs	r3, r0
 8006cea:	63a3      	str	r3, [r4, #56]	@ 0x38
    hsd->State = HAL_SD_STATE_READY;
 8006cec:	2001      	movs	r0, #1
 8006cee:	f884 0034 	strb.w	r0, [r4, #52]	@ 0x34
    return HAL_ERROR;
 8006cf2:	e7ab      	b.n	8006c4c <HAL_SD_InitCard+0x28>
 8006cf4:	014f8b59 	.word	0x014f8b59
 8006cf8:	00012110 	.word	0x00012110
 8006cfc:	004005ff 	.word	0x004005ff

08006d00 <HAL_SD_GetCardInfo>:
  pCardInfo->CardType     = (uint32_t)(hsd->SdCard.CardType);
 8006d00:	6c43      	ldr	r3, [r0, #68]	@ 0x44
 8006d02:	600b      	str	r3, [r1, #0]
  pCardInfo->CardVersion  = (uint32_t)(hsd->SdCard.CardVersion);
 8006d04:	6c83      	ldr	r3, [r0, #72]	@ 0x48
 8006d06:	604b      	str	r3, [r1, #4]
  pCardInfo->Class        = (uint32_t)(hsd->SdCard.Class);
 8006d08:	6cc3      	ldr	r3, [r0, #76]	@ 0x4c
 8006d0a:	608b      	str	r3, [r1, #8]
  pCardInfo->RelCardAdd   = (uint32_t)(hsd->SdCard.RelCardAdd);
 8006d0c:	6d03      	ldr	r3, [r0, #80]	@ 0x50
 8006d0e:	60cb      	str	r3, [r1, #12]
  pCardInfo->BlockNbr     = (uint32_t)(hsd->SdCard.BlockNbr);
 8006d10:	6d43      	ldr	r3, [r0, #84]	@ 0x54
 8006d12:	610b      	str	r3, [r1, #16]
  pCardInfo->BlockSize    = (uint32_t)(hsd->SdCard.BlockSize);
 8006d14:	6d83      	ldr	r3, [r0, #88]	@ 0x58
 8006d16:	614b      	str	r3, [r1, #20]
  pCardInfo->LogBlockNbr  = (uint32_t)(hsd->SdCard.LogBlockNbr);
 8006d18:	6dc3      	ldr	r3, [r0, #92]	@ 0x5c
 8006d1a:	618b      	str	r3, [r1, #24]
  pCardInfo->LogBlockSize = (uint32_t)(hsd->SdCard.LogBlockSize);
 8006d1c:	6e03      	ldr	r3, [r0, #96]	@ 0x60
 8006d1e:	61cb      	str	r3, [r1, #28]
}
 8006d20:	2000      	movs	r0, #0
 8006d22:	4770      	bx	lr

08006d24 <HAL_SD_ConfigWideBusOperation>:
{
 8006d24:	b530      	push	{r4, r5, lr}
 8006d26:	b08b      	sub	sp, #44	@ 0x2c
 8006d28:	4604      	mov	r4, r0
 8006d2a:	460d      	mov	r5, r1
  hsd->State = HAL_SD_STATE_BUSY;
 8006d2c:	2303      	movs	r3, #3
 8006d2e:	f880 3034 	strb.w	r3, [r0, #52]	@ 0x34
  if (hsd->SdCard.CardType != CARD_SECURED)
 8006d32:	6c43      	ldr	r3, [r0, #68]	@ 0x44
 8006d34:	2b03      	cmp	r3, #3
 8006d36:	d01c      	beq.n	8006d72 <HAL_SD_ConfigWideBusOperation+0x4e>
    if (WideMode == SDMMC_BUS_WIDE_8B)
 8006d38:	f5b1 5f80 	cmp.w	r1, #4096	@ 0x1000
 8006d3c:	d008      	beq.n	8006d50 <HAL_SD_ConfigWideBusOperation+0x2c>
    else if (WideMode == SDMMC_BUS_WIDE_4B)
 8006d3e:	f5b1 6f00 	cmp.w	r1, #2048	@ 0x800
 8006d42:	d00a      	beq.n	8006d5a <HAL_SD_ConfigWideBusOperation+0x36>
    else if (WideMode == SDMMC_BUS_WIDE_1B)
 8006d44:	b179      	cbz	r1, 8006d66 <HAL_SD_ConfigWideBusOperation+0x42>
      hsd->ErrorCode |= HAL_SD_ERROR_PARAM;
 8006d46:	6b83      	ldr	r3, [r0, #56]	@ 0x38
 8006d48:	f043 6300 	orr.w	r3, r3, #134217728	@ 0x8000000
 8006d4c:	6383      	str	r3, [r0, #56]	@ 0x38
 8006d4e:	e014      	b.n	8006d7a <HAL_SD_ConfigWideBusOperation+0x56>
      hsd->ErrorCode |= HAL_SD_ERROR_UNSUPPORTED_FEATURE;
 8006d50:	6b83      	ldr	r3, [r0, #56]	@ 0x38
 8006d52:	f043 5380 	orr.w	r3, r3, #268435456	@ 0x10000000
 8006d56:	6383      	str	r3, [r0, #56]	@ 0x38
 8006d58:	e00f      	b.n	8006d7a <HAL_SD_ConfigWideBusOperation+0x56>
      errorstate = SD_WideBus_Enable(hsd);
 8006d5a:	f7ff fa4e 	bl	80061fa <SD_WideBus_Enable>
      hsd->ErrorCode |= errorstate;
 8006d5e:	6ba3      	ldr	r3, [r4, #56]	@ 0x38
 8006d60:	4303      	orrs	r3, r0
 8006d62:	63a3      	str	r3, [r4, #56]	@ 0x38
 8006d64:	e009      	b.n	8006d7a <HAL_SD_ConfigWideBusOperation+0x56>
      errorstate = SD_WideBus_Disable(hsd);
 8006d66:	f7ff fa6f 	bl	8006248 <SD_WideBus_Disable>
      hsd->ErrorCode |= errorstate;
 8006d6a:	6ba3      	ldr	r3, [r4, #56]	@ 0x38
 8006d6c:	4303      	orrs	r3, r0
 8006d6e:	63a3      	str	r3, [r4, #56]	@ 0x38
 8006d70:	e003      	b.n	8006d7a <HAL_SD_ConfigWideBusOperation+0x56>
    hsd->ErrorCode |= HAL_SD_ERROR_UNSUPPORTED_FEATURE;
 8006d72:	6b83      	ldr	r3, [r0, #56]	@ 0x38
 8006d74:	f043 5380 	orr.w	r3, r3, #268435456	@ 0x10000000
 8006d78:	6383      	str	r3, [r0, #56]	@ 0x38
  if (hsd->ErrorCode != HAL_SD_ERROR_NONE)
 8006d7a:	6ba3      	ldr	r3, [r4, #56]	@ 0x38
 8006d7c:	b1d3      	cbz	r3, 8006db4 <HAL_SD_ConfigWideBusOperation+0x90>
    __HAL_SD_CLEAR_FLAG(hsd, SDMMC_STATIC_FLAGS);
 8006d7e:	6823      	ldr	r3, [r4, #0]
 8006d80:	4a25      	ldr	r2, [pc, #148]	@ (8006e18 <HAL_SD_ConfigWideBusOperation+0xf4>)
 8006d82:	639a      	str	r2, [r3, #56]	@ 0x38
    hsd->State = HAL_SD_STATE_READY;
 8006d84:	2301      	movs	r3, #1
 8006d86:	f884 3034 	strb.w	r3, [r4, #52]	@ 0x34
    status = HAL_ERROR;
 8006d8a:	461d      	mov	r5, r3
  errorstate = SDMMC_CmdBlockLength(hsd->Instance, BLOCKSIZE);
 8006d8c:	f44f 7100 	mov.w	r1, #512	@ 0x200
 8006d90:	6820      	ldr	r0, [r4, #0]
 8006d92:	f000 fdd9 	bl	8007948 <SDMMC_CmdBlockLength>
  if (errorstate != HAL_SD_ERROR_NONE)
 8006d96:	b138      	cbz	r0, 8006da8 <HAL_SD_ConfigWideBusOperation+0x84>
    __HAL_SD_CLEAR_FLAG(hsd, SDMMC_STATIC_FLAGS);
 8006d98:	6823      	ldr	r3, [r4, #0]
 8006d9a:	491f      	ldr	r1, [pc, #124]	@ (8006e18 <HAL_SD_ConfigWideBusOperation+0xf4>)
 8006d9c:	6399      	str	r1, [r3, #56]	@ 0x38
    hsd->ErrorCode |= errorstate;
 8006d9e:	6ba3      	ldr	r3, [r4, #56]	@ 0x38
 8006da0:	4303      	orrs	r3, r0
 8006da2:	63a3      	str	r3, [r4, #56]	@ 0x38
    status = HAL_ERROR;
 8006da4:	2301      	movs	r3, #1
 8006da6:	461d      	mov	r5, r3
  hsd->State = HAL_SD_STATE_READY;
 8006da8:	2301      	movs	r3, #1
 8006daa:	f884 3034 	strb.w	r3, [r4, #52]	@ 0x34
}
 8006dae:	4628      	mov	r0, r5
 8006db0:	b00b      	add	sp, #44	@ 0x2c
 8006db2:	bd30      	pop	{r4, r5, pc}
    sdmmc_clk = HAL_RCCEx_GetPeriphCLKFreq(RCC_PERIPHCLK_SDMMC1);
 8006db4:	f44f 2000 	mov.w	r0, #524288	@ 0x80000
 8006db8:	f7fe fc4c 	bl	8005654 <HAL_RCCEx_GetPeriphCLKFreq>
    if (sdmmc_clk != 0U)
 8006dbc:	4603      	mov	r3, r0
 8006dbe:	b320      	cbz	r0, 8006e0a <HAL_SD_ConfigWideBusOperation+0xe6>
      Init.ClockEdge           = hsd->Init.ClockEdge;
 8006dc0:	6862      	ldr	r2, [r4, #4]
 8006dc2:	9204      	str	r2, [sp, #16]
      Init.ClockBypass         = hsd->Init.ClockBypass;
 8006dc4:	68a2      	ldr	r2, [r4, #8]
 8006dc6:	9205      	str	r2, [sp, #20]
      Init.ClockPowerSave      = hsd->Init.ClockPowerSave;
 8006dc8:	68e2      	ldr	r2, [r4, #12]
 8006dca:	9206      	str	r2, [sp, #24]
      Init.BusWide             = WideMode;
 8006dcc:	9507      	str	r5, [sp, #28]
      Init.HardwareFlowControl = hsd->Init.HardwareFlowControl;
 8006dce:	6962      	ldr	r2, [r4, #20]
 8006dd0:	9208      	str	r2, [sp, #32]
      if ((sdmmc_clk / (hsd->Init.ClockDiv + 2U)) > SD_NORMAL_SPEED_FREQ)
 8006dd2:	69a1      	ldr	r1, [r4, #24]
 8006dd4:	1c8a      	adds	r2, r1, #2
 8006dd6:	fbb0 f2f2 	udiv	r2, r0, r2
 8006dda:	4810      	ldr	r0, [pc, #64]	@ (8006e1c <HAL_SD_ConfigWideBusOperation+0xf8>)
 8006ddc:	4282      	cmp	r2, r0
 8006dde:	d912      	bls.n	8006e06 <HAL_SD_ConfigWideBusOperation+0xe2>
        Init.ClockDiv = ((sdmmc_clk / SD_NORMAL_SPEED_FREQ) - 2U);
 8006de0:	4a0f      	ldr	r2, [pc, #60]	@ (8006e20 <HAL_SD_ConfigWideBusOperation+0xfc>)
 8006de2:	fba2 2303 	umull	r2, r3, r2, r3
 8006de6:	0ddb      	lsrs	r3, r3, #23
 8006de8:	3b02      	subs	r3, #2
 8006dea:	9309      	str	r3, [sp, #36]	@ 0x24
      (void)SDMMC_Init(hsd->Instance, Init);
 8006dec:	ab0a      	add	r3, sp, #40	@ 0x28
 8006dee:	e913 0007 	ldmdb	r3, {r0, r1, r2}
 8006df2:	e88d 0007 	stmia.w	sp, {r0, r1, r2}
 8006df6:	ab04      	add	r3, sp, #16
 8006df8:	cb0e      	ldmia	r3, {r1, r2, r3}
 8006dfa:	6820      	ldr	r0, [r4, #0]
 8006dfc:	f000 fc90 	bl	8007720 <SDMMC_Init>
  HAL_StatusTypeDef status = HAL_OK;
 8006e00:	2300      	movs	r3, #0
 8006e02:	461d      	mov	r5, r3
 8006e04:	e7c2      	b.n	8006d8c <HAL_SD_ConfigWideBusOperation+0x68>
        Init.ClockDiv = hsd->Init.ClockDiv;
 8006e06:	9109      	str	r1, [sp, #36]	@ 0x24
 8006e08:	e7f0      	b.n	8006dec <HAL_SD_ConfigWideBusOperation+0xc8>
      hsd->ErrorCode |= SDMMC_ERROR_INVALID_PARAMETER;
 8006e0a:	6ba3      	ldr	r3, [r4, #56]	@ 0x38
 8006e0c:	f043 6300 	orr.w	r3, r3, #134217728	@ 0x8000000
 8006e10:	63a3      	str	r3, [r4, #56]	@ 0x38
      status = HAL_ERROR;
 8006e12:	2301      	movs	r3, #1
 8006e14:	461d      	mov	r5, r3
 8006e16:	e7b9      	b.n	8006d8c <HAL_SD_ConfigWideBusOperation+0x68>
 8006e18:	004005ff 	.word	0x004005ff
 8006e1c:	017d7840 	.word	0x017d7840
 8006e20:	55e63b89 	.word	0x55e63b89

08006e24 <HAL_SD_Init>:
  if (hsd == NULL)
 8006e24:	b318      	cbz	r0, 8006e6e <HAL_SD_Init+0x4a>
{
 8006e26:	b510      	push	{r4, lr}
 8006e28:	4604      	mov	r4, r0
  if (hsd->State == HAL_SD_STATE_RESET)
 8006e2a:	f890 3034 	ldrb.w	r3, [r0, #52]	@ 0x34
 8006e2e:	b143      	cbz	r3, 8006e42 <HAL_SD_Init+0x1e>
  hsd->State = HAL_SD_STATE_BUSY;
 8006e30:	2303      	movs	r3, #3
 8006e32:	f884 3034 	strb.w	r3, [r4, #52]	@ 0x34
  if (HAL_SD_InitCard(hsd) != HAL_OK)
 8006e36:	4620      	mov	r0, r4
 8006e38:	f7ff fef4 	bl	8006c24 <HAL_SD_InitCard>
 8006e3c:	b128      	cbz	r0, 8006e4a <HAL_SD_Init+0x26>
    return HAL_ERROR;
 8006e3e:	2001      	movs	r0, #1
}
 8006e40:	bd10      	pop	{r4, pc}
    hsd->Lock = HAL_UNLOCKED;
 8006e42:	7703      	strb	r3, [r0, #28]
    HAL_SD_MspInit(hsd);
 8006e44:	f7fd fa42 	bl	80042cc <HAL_SD_MspInit>
 8006e48:	e7f2      	b.n	8006e30 <HAL_SD_Init+0xc>
  if (HAL_SD_ConfigWideBusOperation(hsd, hsd->Init.BusWide) != HAL_OK)
 8006e4a:	6921      	ldr	r1, [r4, #16]
 8006e4c:	4620      	mov	r0, r4
 8006e4e:	f7ff ff69 	bl	8006d24 <HAL_SD_ConfigWideBusOperation>
 8006e52:	b108      	cbz	r0, 8006e58 <HAL_SD_Init+0x34>
    return HAL_ERROR;
 8006e54:	2001      	movs	r0, #1
 8006e56:	e7f3      	b.n	8006e40 <HAL_SD_Init+0x1c>
  if (HAL_SD_ConfigWideBusOperation(hsd, hsd->Init.BusWide) != HAL_OK)
 8006e58:	6921      	ldr	r1, [r4, #16]
 8006e5a:	4620      	mov	r0, r4
 8006e5c:	f7ff ff62 	bl	8006d24 <HAL_SD_ConfigWideBusOperation>
 8006e60:	b938      	cbnz	r0, 8006e72 <HAL_SD_Init+0x4e>
  hsd->ErrorCode = HAL_SD_ERROR_NONE;
 8006e62:	63a0      	str	r0, [r4, #56]	@ 0x38
  hsd->Context = SD_CONTEXT_NONE;
 8006e64:	6320      	str	r0, [r4, #48]	@ 0x30
  hsd->State = HAL_SD_STATE_READY;
 8006e66:	2301      	movs	r3, #1
 8006e68:	f884 3034 	strb.w	r3, [r4, #52]	@ 0x34
  return HAL_OK;
 8006e6c:	e7e8      	b.n	8006e40 <HAL_SD_Init+0x1c>
    return HAL_ERROR;
 8006e6e:	2001      	movs	r0, #1
}
 8006e70:	4770      	bx	lr
    return HAL_ERROR;
 8006e72:	2001      	movs	r0, #1
 8006e74:	e7e4      	b.n	8006e40 <HAL_SD_Init+0x1c>

08006e76 <HAL_SD_GetCardState>:
{
 8006e76:	b510      	push	{r4, lr}
 8006e78:	b082      	sub	sp, #8
 8006e7a:	4604      	mov	r4, r0
  uint32_t resp1 = 0;
 8006e7c:	2300      	movs	r3, #0
 8006e7e:	9301      	str	r3, [sp, #4]
  errorstate = SD_SendStatus(hsd, &resp1);
 8006e80:	a901      	add	r1, sp, #4
 8006e82:	f7ff fa08 	bl	8006296 <SD_SendStatus>
  if (errorstate != HAL_SD_ERROR_NONE)
 8006e86:	b110      	cbz	r0, 8006e8e <HAL_SD_GetCardState+0x18>
    hsd->ErrorCode |= errorstate;
 8006e88:	6ba3      	ldr	r3, [r4, #56]	@ 0x38
 8006e8a:	4303      	orrs	r3, r0
 8006e8c:	63a3      	str	r3, [r4, #56]	@ 0x38
}
 8006e8e:	9801      	ldr	r0, [sp, #4]
 8006e90:	f3c0 2043 	ubfx	r0, r0, #9, #4
 8006e94:	b002      	add	sp, #8
 8006e96:	bd10      	pop	{r4, pc}

08006e98 <SD_DMAError>:
{
 8006e98:	b510      	push	{r4, lr}
  SD_HandleTypeDef *hsd = (SD_HandleTypeDef *)(hdma->Parent);
 8006e9a:	6a84      	ldr	r4, [r0, #40]	@ 0x28
  RxErrorCode = hsd->hdmarx->ErrorCode;
 8006e9c:	6c23      	ldr	r3, [r4, #64]	@ 0x40
 8006e9e:	6bdb      	ldr	r3, [r3, #60]	@ 0x3c
  TxErrorCode = hsd->hdmatx->ErrorCode;
 8006ea0:	6be2      	ldr	r2, [r4, #60]	@ 0x3c
 8006ea2:	6bd2      	ldr	r2, [r2, #60]	@ 0x3c
  if ((RxErrorCode == HAL_DMA_ERROR_TE) || (TxErrorCode == HAL_DMA_ERROR_TE))
 8006ea4:	2b01      	cmp	r3, #1
 8006ea6:	d005      	beq.n	8006eb4 <SD_DMAError+0x1c>
 8006ea8:	2a01      	cmp	r2, #1
 8006eaa:	d003      	beq.n	8006eb4 <SD_DMAError+0x1c>
  HAL_SD_ErrorCallback(hsd);
 8006eac:	4620      	mov	r0, r4
 8006eae:	f7ff fd4b 	bl	8006948 <HAL_SD_ErrorCallback>
}
 8006eb2:	bd10      	pop	{r4, pc}
    __HAL_SD_CLEAR_FLAG(hsd, SDMMC_STATIC_FLAGS);
 8006eb4:	6823      	ldr	r3, [r4, #0]
 8006eb6:	4a0f      	ldr	r2, [pc, #60]	@ (8006ef4 <SD_DMAError+0x5c>)
 8006eb8:	639a      	str	r2, [r3, #56]	@ 0x38
    __HAL_SD_DISABLE_IT(hsd, SDMMC_IT_DATAEND | SDMMC_IT_DCRCFAIL | SDMMC_IT_DTIMEOUT | \
 8006eba:	6822      	ldr	r2, [r4, #0]
 8006ebc:	6bd3      	ldr	r3, [r2, #60]	@ 0x3c
 8006ebe:	f423 739d 	bic.w	r3, r3, #314	@ 0x13a
 8006ec2:	63d3      	str	r3, [r2, #60]	@ 0x3c
    hsd->ErrorCode |= HAL_SD_ERROR_DMA;
 8006ec4:	6ba3      	ldr	r3, [r4, #56]	@ 0x38
 8006ec6:	f043 4380 	orr.w	r3, r3, #1073741824	@ 0x40000000
 8006eca:	63a3      	str	r3, [r4, #56]	@ 0x38
    CardState = HAL_SD_GetCardState(hsd);
 8006ecc:	4620      	mov	r0, r4
 8006ece:	f7ff ffd2 	bl	8006e76 <HAL_SD_GetCardState>
    if ((CardState == HAL_SD_CARD_RECEIVING) || (CardState == HAL_SD_CARD_SENDING))
 8006ed2:	3805      	subs	r0, #5
 8006ed4:	2801      	cmp	r0, #1
 8006ed6:	d905      	bls.n	8006ee4 <SD_DMAError+0x4c>
    hsd->State = HAL_SD_STATE_READY;
 8006ed8:	2301      	movs	r3, #1
 8006eda:	f884 3034 	strb.w	r3, [r4, #52]	@ 0x34
    hsd->Context = SD_CONTEXT_NONE;
 8006ede:	2300      	movs	r3, #0
 8006ee0:	6323      	str	r3, [r4, #48]	@ 0x30
 8006ee2:	e7e3      	b.n	8006eac <SD_DMAError+0x14>
      hsd->ErrorCode |= SDMMC_CmdStopTransfer(hsd->Instance);
 8006ee4:	6820      	ldr	r0, [r4, #0]
 8006ee6:	f000 fda7 	bl	8007a38 <SDMMC_CmdStopTransfer>
 8006eea:	6ba3      	ldr	r3, [r4, #56]	@ 0x38
 8006eec:	4303      	orrs	r3, r0
 8006eee:	63a3      	str	r3, [r4, #56]	@ 0x38
 8006ef0:	e7f2      	b.n	8006ed8 <SD_DMAError+0x40>
 8006ef2:	bf00      	nop
 8006ef4:	004005ff 	.word	0x004005ff

08006ef8 <HAL_SPI_Init>:
HAL_StatusTypeDef HAL_SPI_Init(SPI_HandleTypeDef *hspi)
{
  uint32_t frxth;

  /* Check the SPI handle allocation */
  if (hspi == NULL)
 8006ef8:	2800      	cmp	r0, #0
 8006efa:	d06a      	beq.n	8006fd2 <HAL_SPI_Init+0xda>
{
 8006efc:	b510      	push	{r4, lr}
 8006efe:	4604      	mov	r4, r0
  assert_param(IS_SPI_NSS(hspi->Init.NSS));
  assert_param(IS_SPI_NSSP(hspi->Init.NSSPMode));
  assert_param(IS_SPI_BAUDRATE_PRESCALER(hspi->Init.BaudRatePrescaler));
  assert_param(IS_SPI_FIRST_BIT(hspi->Init.FirstBit));
  assert_param(IS_SPI_TIMODE(hspi->Init.TIMode));
  if (hspi->Init.TIMode == SPI_TIMODE_DISABLE)
 8006f00:	6a43      	ldr	r3, [r0, #36]	@ 0x24
 8006f02:	b933      	cbnz	r3, 8006f12 <HAL_SPI_Init+0x1a>
  {
    assert_param(IS_SPI_CPOL(hspi->Init.CLKPolarity));
    assert_param(IS_SPI_CPHA(hspi->Init.CLKPhase));

    if (hspi->Init.Mode == SPI_MODE_MASTER)
 8006f04:	6843      	ldr	r3, [r0, #4]
 8006f06:	f5b3 7f82 	cmp.w	r3, #260	@ 0x104
 8006f0a:	d005      	beq.n	8006f18 <HAL_SPI_Init+0x20>
      assert_param(IS_SPI_BAUDRATE_PRESCALER(hspi->Init.BaudRatePrescaler));
    }
    else
    {
      /* Baudrate prescaler not use in Motoraola Slave mode. force to default value */
      hspi->Init.BaudRatePrescaler = SPI_BAUDRATEPRESCALER_2;
 8006f0c:	2300      	movs	r3, #0
 8006f0e:	61c3      	str	r3, [r0, #28]
 8006f10:	e002      	b.n	8006f18 <HAL_SPI_Init+0x20>
  else
  {
    assert_param(IS_SPI_BAUDRATE_PRESCALER(hspi->Init.BaudRatePrescaler));

    /* Force polarity and phase to TI protocaol requirements */
    hspi->Init.CLKPolarity = SPI_POLARITY_LOW;
 8006f12:	2300      	movs	r3, #0
 8006f14:	6103      	str	r3, [r0, #16]
    hspi->Init.CLKPhase    = SPI_PHASE_1EDGE;
 8006f16:	6143      	str	r3, [r0, #20]
  {
    assert_param(IS_SPI_CRC_POLYNOMIAL(hspi->Init.CRCPolynomial));
    assert_param(IS_SPI_CRC_LENGTH(hspi->Init.CRCLength));
  }
#else
  hspi->Init.CRCCalculation = SPI_CRCCALCULATION_DISABLE;
 8006f18:	2300      	movs	r3, #0
 8006f1a:	62a3      	str	r3, [r4, #40]	@ 0x28
#endif /* USE_SPI_CRC */

  if (hspi->State == HAL_SPI_STATE_RESET)
 8006f1c:	f894 305d 	ldrb.w	r3, [r4, #93]	@ 0x5d
 8006f20:	2b00      	cmp	r3, #0
 8006f22:	d04d      	beq.n	8006fc0 <HAL_SPI_Init+0xc8>
    /* Init the low level hardware : GPIO, CLOCK, NVIC... */
    HAL_SPI_MspInit(hspi);
#endif /* USE_HAL_SPI_REGISTER_CALLBACKS */
  }

  hspi->State = HAL_SPI_STATE_BUSY;
 8006f24:	2302      	movs	r3, #2
 8006f26:	f884 305d 	strb.w	r3, [r4, #93]	@ 0x5d

  /* Disable the selected SPI peripheral */
  __HAL_SPI_DISABLE(hspi);
 8006f2a:	6822      	ldr	r2, [r4, #0]
 8006f2c:	6813      	ldr	r3, [r2, #0]
 8006f2e:	f023 0340 	bic.w	r3, r3, #64	@ 0x40
 8006f32:	6013      	str	r3, [r2, #0]

  /* Align by default the rs fifo threshold on the data size */
  if (hspi->Init.DataSize > SPI_DATASIZE_8BIT)
 8006f34:	68e3      	ldr	r3, [r4, #12]
 8006f36:	f5b3 6fe0 	cmp.w	r3, #1792	@ 0x700
 8006f3a:	d947      	bls.n	8006fcc <HAL_SPI_Init+0xd4>
  {
    frxth = SPI_RXFIFO_THRESHOLD_HF;
 8006f3c:	2200      	movs	r2, #0
  {
    frxth = SPI_RXFIFO_THRESHOLD_QF;
  }

  /* CRC calculation is valid only for 16Bit and 8 Bit */
  if ((hspi->Init.DataSize != SPI_DATASIZE_16BIT) && (hspi->Init.DataSize != SPI_DATASIZE_8BIT))
 8006f3e:	f5b3 6f70 	cmp.w	r3, #3840	@ 0xf00
 8006f42:	d004      	beq.n	8006f4e <HAL_SPI_Init+0x56>
 8006f44:	f5b3 6fe0 	cmp.w	r3, #1792	@ 0x700
 8006f48:	d001      	beq.n	8006f4e <HAL_SPI_Init+0x56>
  {
    /* CRC must be disabled */
    hspi->Init.CRCCalculation = SPI_CRCCALCULATION_DISABLE;
 8006f4a:	2300      	movs	r3, #0
 8006f4c:	62a3      	str	r3, [r4, #40]	@ 0x28
  }

  /*----------------------- SPIx CR1 & CR2 Configuration ---------------------*/
  /* Configure : SPI Mode, Communication Mode, Clock polarity and phase, NSS management,
  Communication speed, First bit and CRC calculation state */
  WRITE_REG(hspi->Instance->CR1, ((hspi->Init.Mode & (SPI_CR1_MSTR | SPI_CR1_SSI)) |
 8006f4e:	6863      	ldr	r3, [r4, #4]
 8006f50:	f403 7382 	and.w	r3, r3, #260	@ 0x104
 8006f54:	68a1      	ldr	r1, [r4, #8]
 8006f56:	f401 4104 	and.w	r1, r1, #33792	@ 0x8400
 8006f5a:	430b      	orrs	r3, r1
 8006f5c:	6921      	ldr	r1, [r4, #16]
 8006f5e:	f001 0102 	and.w	r1, r1, #2
 8006f62:	430b      	orrs	r3, r1
 8006f64:	6961      	ldr	r1, [r4, #20]
 8006f66:	f001 0101 	and.w	r1, r1, #1
 8006f6a:	430b      	orrs	r3, r1
 8006f6c:	69a1      	ldr	r1, [r4, #24]
 8006f6e:	f401 7100 	and.w	r1, r1, #512	@ 0x200
 8006f72:	430b      	orrs	r3, r1
 8006f74:	69e1      	ldr	r1, [r4, #28]
 8006f76:	f001 0138 	and.w	r1, r1, #56	@ 0x38
 8006f7a:	430b      	orrs	r3, r1
 8006f7c:	6a21      	ldr	r1, [r4, #32]
 8006f7e:	f001 0180 	and.w	r1, r1, #128	@ 0x80
 8006f82:	430b      	orrs	r3, r1
 8006f84:	6aa1      	ldr	r1, [r4, #40]	@ 0x28
 8006f86:	f401 5100 	and.w	r1, r1, #8192	@ 0x2000
 8006f8a:	6820      	ldr	r0, [r4, #0]
 8006f8c:	430b      	orrs	r3, r1
 8006f8e:	6003      	str	r3, [r0, #0]
    }
  }
#endif /* USE_SPI_CRC */

  /* Configure : NSS management, TI Mode, NSS Pulse, Data size and Rx Fifo threshold */
  WRITE_REG(hspi->Instance->CR2, (((hspi->Init.NSS >> 16U) & SPI_CR2_SSOE) |
 8006f90:	8b63      	ldrh	r3, [r4, #26]
 8006f92:	f003 0304 	and.w	r3, r3, #4
 8006f96:	6a61      	ldr	r1, [r4, #36]	@ 0x24
 8006f98:	f001 0110 	and.w	r1, r1, #16
 8006f9c:	430b      	orrs	r3, r1
 8006f9e:	6b61      	ldr	r1, [r4, #52]	@ 0x34
 8006fa0:	f001 0108 	and.w	r1, r1, #8
 8006fa4:	430b      	orrs	r3, r1
 8006fa6:	68e1      	ldr	r1, [r4, #12]
 8006fa8:	f401 6170 	and.w	r1, r1, #3840	@ 0xf00
 8006fac:	430b      	orrs	r3, r1
 8006fae:	6821      	ldr	r1, [r4, #0]
 8006fb0:	4313      	orrs	r3, r2
 8006fb2:	604b      	str	r3, [r1, #4]
#if defined(SPI_I2SCFGR_I2SMOD)
  /* Activate the SPI mode (Make sure that I2SMOD bit in I2SCFGR register is reset) */
  CLEAR_BIT(hspi->Instance->I2SCFGR, SPI_I2SCFGR_I2SMOD);
#endif /* SPI_I2SCFGR_I2SMOD */

  hspi->ErrorCode = HAL_SPI_ERROR_NONE;
 8006fb4:	2000      	movs	r0, #0
 8006fb6:	6620      	str	r0, [r4, #96]	@ 0x60
  hspi->State     = HAL_SPI_STATE_READY;
 8006fb8:	2301      	movs	r3, #1
 8006fba:	f884 305d 	strb.w	r3, [r4, #93]	@ 0x5d

  return HAL_OK;
}
 8006fbe:	bd10      	pop	{r4, pc}
    hspi->Lock = HAL_UNLOCKED;
 8006fc0:	f884 305c 	strb.w	r3, [r4, #92]	@ 0x5c
    HAL_SPI_MspInit(hspi);
 8006fc4:	4620      	mov	r0, r4
 8006fc6:	f7fd f9ed 	bl	80043a4 <HAL_SPI_MspInit>
 8006fca:	e7ab      	b.n	8006f24 <HAL_SPI_Init+0x2c>
    frxth = SPI_RXFIFO_THRESHOLD_QF;
 8006fcc:	f44f 5280 	mov.w	r2, #4096	@ 0x1000
 8006fd0:	e7b5      	b.n	8006f3e <HAL_SPI_Init+0x46>
    return HAL_ERROR;
 8006fd2:	2001      	movs	r0, #1
}
 8006fd4:	4770      	bx	lr

08006fd6 <UART_EndRxTransfer>:
  /* Disable RXNE, PE and ERR (Frame error, noise error, overrun error) interrupts */
#if defined(USART_CR1_FIFOEN)
  ATOMIC_CLEAR_BIT(huart->Instance->CR1, (USART_CR1_RXNEIE_RXFNEIE | USART_CR1_PEIE));
  ATOMIC_CLEAR_BIT(huart->Instance->CR3, (USART_CR3_EIE | USART_CR3_RXFTIE));
#else
  ATOMIC_CLEAR_BIT(huart->Instance->CR1, (USART_CR1_RXNEIE | USART_CR1_PEIE));
 8006fd6:	6802      	ldr	r2, [r0, #0]
 */
__STATIC_FORCEINLINE uint32_t __LDREXW(volatile uint32_t *addr)
{
    uint32_t result;

   __ASM volatile ("ldrex %0, %1" : "=r" (result) : "Q" (*addr) );
 8006fd8:	e852 3f00 	ldrex	r3, [r2]
 8006fdc:	f423 7390 	bic.w	r3, r3, #288	@ 0x120
 */
__STATIC_FORCEINLINE uint32_t __STREXW(uint32_t value, volatile uint32_t *addr)
{
   uint32_t result;

   __ASM volatile ("strex %0, %2, %1" : "=&r" (result), "=Q" (*addr) : "r" (value) );
 8006fe0:	e842 3100 	strex	r1, r3, [r2]
 8006fe4:	2900      	cmp	r1, #0
 8006fe6:	d1f6      	bne.n	8006fd6 <UART_EndRxTransfer>
  ATOMIC_CLEAR_BIT(huart->Instance->CR3, USART_CR3_EIE);
 8006fe8:	6802      	ldr	r2, [r0, #0]
   __ASM volatile ("ldrex %0, %1" : "=r" (result) : "Q" (*addr) );
 8006fea:	f102 0308 	add.w	r3, r2, #8
 8006fee:	e853 3f00 	ldrex	r3, [r3]
 8006ff2:	f023 0301 	bic.w	r3, r3, #1
   __ASM volatile ("strex %0, %2, %1" : "=&r" (result), "=Q" (*addr) : "r" (value) );
 8006ff6:	3208      	adds	r2, #8
 8006ff8:	e842 3100 	strex	r1, r3, [r2]
 8006ffc:	2900      	cmp	r1, #0
 8006ffe:	d1f3      	bne.n	8006fe8 <UART_EndRxTransfer+0x12>
#endif /* USART_CR1_FIFOEN */

  /* In case of reception waiting for IDLE event, disable also the IDLE IE interrupt source */
  if (huart->ReceptionType == HAL_UART_RECEPTION_TOIDLE)
 8007000:	6e03      	ldr	r3, [r0, #96]	@ 0x60
 8007002:	2b01      	cmp	r3, #1
 8007004:	d006      	beq.n	8007014 <UART_EndRxTransfer+0x3e>
  {
    ATOMIC_CLEAR_BIT(huart->Instance->CR1, USART_CR1_IDLEIE);
  }

  /* At end of Rx process, restore huart->RxState to Ready */
  huart->RxState = HAL_UART_STATE_READY;
 8007006:	2320      	movs	r3, #32
 8007008:	f8c0 3080 	str.w	r3, [r0, #128]	@ 0x80
  huart->ReceptionType = HAL_UART_RECEPTION_STANDARD;
 800700c:	2300      	movs	r3, #0
 800700e:	6603      	str	r3, [r0, #96]	@ 0x60

  /* Reset RxIsr function pointer */
  huart->RxISR = NULL;
 8007010:	6683      	str	r3, [r0, #104]	@ 0x68
}
 8007012:	4770      	bx	lr
    ATOMIC_CLEAR_BIT(huart->Instance->CR1, USART_CR1_IDLEIE);
 8007014:	6802      	ldr	r2, [r0, #0]
   __ASM volatile ("ldrex %0, %1" : "=r" (result) : "Q" (*addr) );
 8007016:	e852 3f00 	ldrex	r3, [r2]
 800701a:	f023 0310 	bic.w	r3, r3, #16
   __ASM volatile ("strex %0, %2, %1" : "=&r" (result), "=Q" (*addr) : "r" (value) );
 800701e:	e842 3100 	strex	r1, r3, [r2]
 8007022:	2900      	cmp	r1, #0
 8007024:	d1f6      	bne.n	8007014 <UART_EndRxTransfer+0x3e>
 8007026:	e7ee      	b.n	8007006 <UART_EndRxTransfer+0x30>

08007028 <UART_SetConfig>:
{
 8007028:	b510      	push	{r4, lr}
 800702a:	4604      	mov	r4, r0
  tmpreg = (uint32_t)huart->Init.WordLength | huart->Init.Parity | huart->Init.Mode | huart->Init.OverSampling ;
 800702c:	6883      	ldr	r3, [r0, #8]
 800702e:	6902      	ldr	r2, [r0, #16]
 8007030:	4313      	orrs	r3, r2
 8007032:	6942      	ldr	r2, [r0, #20]
 8007034:	4313      	orrs	r3, r2
 8007036:	69c2      	ldr	r2, [r0, #28]
 8007038:	4313      	orrs	r3, r2
  MODIFY_REG(huart->Instance->CR1, USART_CR1_FIELDS, tmpreg);
 800703a:	6801      	ldr	r1, [r0, #0]
 800703c:	6808      	ldr	r0, [r1, #0]
 800703e:	4a91      	ldr	r2, [pc, #580]	@ (8007284 <UART_SetConfig+0x25c>)
 8007040:	4002      	ands	r2, r0
 8007042:	431a      	orrs	r2, r3
 8007044:	600a      	str	r2, [r1, #0]
  MODIFY_REG(huart->Instance->CR2, USART_CR2_STOP, huart->Init.StopBits);
 8007046:	6822      	ldr	r2, [r4, #0]
 8007048:	6853      	ldr	r3, [r2, #4]
 800704a:	f423 5340 	bic.w	r3, r3, #12288	@ 0x3000
 800704e:	68e1      	ldr	r1, [r4, #12]
 8007050:	430b      	orrs	r3, r1
 8007052:	6053      	str	r3, [r2, #4]
  tmpreg = (uint32_t)huart->Init.HwFlowCtl;
 8007054:	69a1      	ldr	r1, [r4, #24]
  if (!(UART_INSTANCE_LOWPOWER(huart)))
 8007056:	6822      	ldr	r2, [r4, #0]
 8007058:	4b8b      	ldr	r3, [pc, #556]	@ (8007288 <UART_SetConfig+0x260>)
 800705a:	429a      	cmp	r2, r3
 800705c:	d001      	beq.n	8007062 <UART_SetConfig+0x3a>
    tmpreg |= huart->Init.OneBitSampling;
 800705e:	6a23      	ldr	r3, [r4, #32]
 8007060:	4319      	orrs	r1, r3
  MODIFY_REG(huart->Instance->CR3, USART_CR3_FIELDS, tmpreg);
 8007062:	6893      	ldr	r3, [r2, #8]
 8007064:	f423 6330 	bic.w	r3, r3, #2816	@ 0xb00
 8007068:	430b      	orrs	r3, r1
 800706a:	6093      	str	r3, [r2, #8]
  UART_GETCLOCKSOURCE(huart, clocksource);
 800706c:	6823      	ldr	r3, [r4, #0]
 800706e:	4a87      	ldr	r2, [pc, #540]	@ (800728c <UART_SetConfig+0x264>)
 8007070:	4293      	cmp	r3, r2
 8007072:	d026      	beq.n	80070c2 <UART_SetConfig+0x9a>
 8007074:	4a86      	ldr	r2, [pc, #536]	@ (8007290 <UART_SetConfig+0x268>)
 8007076:	4293      	cmp	r3, r2
 8007078:	d036      	beq.n	80070e8 <UART_SetConfig+0xc0>
 800707a:	4a86      	ldr	r2, [pc, #536]	@ (8007294 <UART_SetConfig+0x26c>)
 800707c:	4293      	cmp	r3, r2
 800707e:	d046      	beq.n	800710e <UART_SetConfig+0xe6>
 8007080:	4a85      	ldr	r2, [pc, #532]	@ (8007298 <UART_SetConfig+0x270>)
 8007082:	4293      	cmp	r3, r2
 8007084:	d056      	beq.n	8007134 <UART_SetConfig+0x10c>
 8007086:	4a85      	ldr	r2, [pc, #532]	@ (800729c <UART_SetConfig+0x274>)
 8007088:	4293      	cmp	r3, r2
 800708a:	d066      	beq.n	800715a <UART_SetConfig+0x132>
 800708c:	4a7e      	ldr	r2, [pc, #504]	@ (8007288 <UART_SetConfig+0x260>)
 800708e:	4293      	cmp	r3, r2
 8007090:	d079      	beq.n	8007186 <UART_SetConfig+0x15e>
 8007092:	2210      	movs	r2, #16
  if (UART_INSTANCE_LOWPOWER(huart))
 8007094:	497c      	ldr	r1, [pc, #496]	@ (8007288 <UART_SetConfig+0x260>)
 8007096:	428b      	cmp	r3, r1
 8007098:	f000 80b0 	beq.w	80071fc <UART_SetConfig+0x1d4>
  else if (huart->Init.OverSampling == UART_OVERSAMPLING_8)
 800709c:	69e0      	ldr	r0, [r4, #28]
 800709e:	f5b0 4f00 	cmp.w	r0, #32768	@ 0x8000
 80070a2:	f000 80de 	beq.w	8007262 <UART_SetConfig+0x23a>
    switch (clocksource)
 80070a6:	2a02      	cmp	r2, #2
 80070a8:	f000 813f 	beq.w	800732a <UART_SetConfig+0x302>
 80070ac:	f240 811a 	bls.w	80072e4 <UART_SetConfig+0x2bc>
 80070b0:	2a04      	cmp	r2, #4
 80070b2:	f000 8137 	beq.w	8007324 <UART_SetConfig+0x2fc>
 80070b6:	2a08      	cmp	r2, #8
 80070b8:	f040 811c 	bne.w	80072f4 <UART_SetConfig+0x2cc>
        pclk = (uint32_t) LSE_VALUE;
 80070bc:	f44f 4000 	mov.w	r0, #32768	@ 0x8000
 80070c0:	e11d      	b.n	80072fe <UART_SetConfig+0x2d6>
  UART_GETCLOCKSOURCE(huart, clocksource);
 80070c2:	f502 4258 	add.w	r2, r2, #55296	@ 0xd800
 80070c6:	f8d2 2088 	ldr.w	r2, [r2, #136]	@ 0x88
 80070ca:	f002 0203 	and.w	r2, r2, #3
 80070ce:	2a02      	cmp	r2, #2
 80070d0:	d070      	beq.n	80071b4 <UART_SetConfig+0x18c>
 80070d2:	d805      	bhi.n	80070e0 <UART_SetConfig+0xb8>
 80070d4:	2a00      	cmp	r2, #0
 80070d6:	d06f      	beq.n	80071b8 <UART_SetConfig+0x190>
 80070d8:	2a01      	cmp	r2, #1
 80070da:	d16f      	bne.n	80071bc <UART_SetConfig+0x194>
 80070dc:	2204      	movs	r2, #4
 80070de:	e7d9      	b.n	8007094 <UART_SetConfig+0x6c>
 80070e0:	2a03      	cmp	r2, #3
 80070e2:	d16d      	bne.n	80071c0 <UART_SetConfig+0x198>
 80070e4:	2208      	movs	r2, #8
 80070e6:	e7d5      	b.n	8007094 <UART_SetConfig+0x6c>
 80070e8:	f502 32e6 	add.w	r2, r2, #117760	@ 0x1cc00
 80070ec:	f8d2 2088 	ldr.w	r2, [r2, #136]	@ 0x88
 80070f0:	f002 020c 	and.w	r2, r2, #12
 80070f4:	2a08      	cmp	r2, #8
 80070f6:	d065      	beq.n	80071c4 <UART_SetConfig+0x19c>
 80070f8:	d805      	bhi.n	8007106 <UART_SetConfig+0xde>
 80070fa:	2a00      	cmp	r2, #0
 80070fc:	d0ca      	beq.n	8007094 <UART_SetConfig+0x6c>
 80070fe:	2a04      	cmp	r2, #4
 8007100:	d0c8      	beq.n	8007094 <UART_SetConfig+0x6c>
 8007102:	2210      	movs	r2, #16
 8007104:	e7c6      	b.n	8007094 <UART_SetConfig+0x6c>
 8007106:	2a0c      	cmp	r2, #12
 8007108:	d15e      	bne.n	80071c8 <UART_SetConfig+0x1a0>
 800710a:	2208      	movs	r2, #8
 800710c:	e7c2      	b.n	8007094 <UART_SetConfig+0x6c>
 800710e:	f502 32e4 	add.w	r2, r2, #116736	@ 0x1c800
 8007112:	f8d2 2088 	ldr.w	r2, [r2, #136]	@ 0x88
 8007116:	f002 0230 	and.w	r2, r2, #48	@ 0x30
 800711a:	2a20      	cmp	r2, #32
 800711c:	d056      	beq.n	80071cc <UART_SetConfig+0x1a4>
 800711e:	d805      	bhi.n	800712c <UART_SetConfig+0x104>
 8007120:	2a00      	cmp	r2, #0
 8007122:	d0b7      	beq.n	8007094 <UART_SetConfig+0x6c>
 8007124:	2a10      	cmp	r2, #16
 8007126:	d153      	bne.n	80071d0 <UART_SetConfig+0x1a8>
 8007128:	2204      	movs	r2, #4
 800712a:	e7b3      	b.n	8007094 <UART_SetConfig+0x6c>
 800712c:	2a30      	cmp	r2, #48	@ 0x30
 800712e:	d151      	bne.n	80071d4 <UART_SetConfig+0x1ac>
 8007130:	2208      	movs	r2, #8
 8007132:	e7af      	b.n	8007094 <UART_SetConfig+0x6c>
 8007134:	f502 32e2 	add.w	r2, r2, #115712	@ 0x1c400
 8007138:	f8d2 2088 	ldr.w	r2, [r2, #136]	@ 0x88
 800713c:	f002 02c0 	and.w	r2, r2, #192	@ 0xc0
 8007140:	2a80      	cmp	r2, #128	@ 0x80
 8007142:	d049      	beq.n	80071d8 <UART_SetConfig+0x1b0>
 8007144:	d805      	bhi.n	8007152 <UART_SetConfig+0x12a>
 8007146:	2a00      	cmp	r2, #0
 8007148:	d0a4      	beq.n	8007094 <UART_SetConfig+0x6c>
 800714a:	2a40      	cmp	r2, #64	@ 0x40
 800714c:	d146      	bne.n	80071dc <UART_SetConfig+0x1b4>
 800714e:	2204      	movs	r2, #4
 8007150:	e7a0      	b.n	8007094 <UART_SetConfig+0x6c>
 8007152:	2ac0      	cmp	r2, #192	@ 0xc0
 8007154:	d144      	bne.n	80071e0 <UART_SetConfig+0x1b8>
 8007156:	2208      	movs	r2, #8
 8007158:	e79c      	b.n	8007094 <UART_SetConfig+0x6c>
 800715a:	f502 32e0 	add.w	r2, r2, #114688	@ 0x1c000
 800715e:	f8d2 2088 	ldr.w	r2, [r2, #136]	@ 0x88
 8007162:	f402 7240 	and.w	r2, r2, #768	@ 0x300
 8007166:	f5b2 7f00 	cmp.w	r2, #512	@ 0x200
 800716a:	d03b      	beq.n	80071e4 <UART_SetConfig+0x1bc>
 800716c:	d806      	bhi.n	800717c <UART_SetConfig+0x154>
 800716e:	2a00      	cmp	r2, #0
 8007170:	d090      	beq.n	8007094 <UART_SetConfig+0x6c>
 8007172:	f5b2 7f80 	cmp.w	r2, #256	@ 0x100
 8007176:	d137      	bne.n	80071e8 <UART_SetConfig+0x1c0>
 8007178:	2204      	movs	r2, #4
 800717a:	e78b      	b.n	8007094 <UART_SetConfig+0x6c>
 800717c:	f5b2 7f40 	cmp.w	r2, #768	@ 0x300
 8007180:	d134      	bne.n	80071ec <UART_SetConfig+0x1c4>
 8007182:	2208      	movs	r2, #8
 8007184:	e786      	b.n	8007094 <UART_SetConfig+0x6c>
 8007186:	f502 32c8 	add.w	r2, r2, #102400	@ 0x19000
 800718a:	f8d2 2088 	ldr.w	r2, [r2, #136]	@ 0x88
 800718e:	f402 6240 	and.w	r2, r2, #3072	@ 0xc00
 8007192:	f5b2 6f00 	cmp.w	r2, #2048	@ 0x800
 8007196:	d02b      	beq.n	80071f0 <UART_SetConfig+0x1c8>
 8007198:	d807      	bhi.n	80071aa <UART_SetConfig+0x182>
 800719a:	2a00      	cmp	r2, #0
 800719c:	f43f af7a 	beq.w	8007094 <UART_SetConfig+0x6c>
 80071a0:	f5b2 6f80 	cmp.w	r2, #1024	@ 0x400
 80071a4:	d126      	bne.n	80071f4 <UART_SetConfig+0x1cc>
 80071a6:	2204      	movs	r2, #4
 80071a8:	e774      	b.n	8007094 <UART_SetConfig+0x6c>
 80071aa:	f5b2 6f40 	cmp.w	r2, #3072	@ 0xc00
 80071ae:	d123      	bne.n	80071f8 <UART_SetConfig+0x1d0>
 80071b0:	2208      	movs	r2, #8
 80071b2:	e76f      	b.n	8007094 <UART_SetConfig+0x6c>
 80071b4:	2202      	movs	r2, #2
 80071b6:	e76d      	b.n	8007094 <UART_SetConfig+0x6c>
 80071b8:	2201      	movs	r2, #1
 80071ba:	e76b      	b.n	8007094 <UART_SetConfig+0x6c>
 80071bc:	2210      	movs	r2, #16
 80071be:	e769      	b.n	8007094 <UART_SetConfig+0x6c>
 80071c0:	2210      	movs	r2, #16
 80071c2:	e767      	b.n	8007094 <UART_SetConfig+0x6c>
 80071c4:	2202      	movs	r2, #2
 80071c6:	e765      	b.n	8007094 <UART_SetConfig+0x6c>
 80071c8:	2210      	movs	r2, #16
 80071ca:	e763      	b.n	8007094 <UART_SetConfig+0x6c>
 80071cc:	2202      	movs	r2, #2
 80071ce:	e761      	b.n	8007094 <UART_SetConfig+0x6c>
 80071d0:	2210      	movs	r2, #16
 80071d2:	e75f      	b.n	8007094 <UART_SetConfig+0x6c>
 80071d4:	2210      	movs	r2, #16
 80071d6:	e75d      	b.n	8007094 <UART_SetConfig+0x6c>
 80071d8:	2202      	movs	r2, #2
 80071da:	e75b      	b.n	8007094 <UART_SetConfig+0x6c>
 80071dc:	2210      	movs	r2, #16
 80071de:	e759      	b.n	8007094 <UART_SetConfig+0x6c>
 80071e0:	2210      	movs	r2, #16
 80071e2:	e757      	b.n	8007094 <UART_SetConfig+0x6c>
 80071e4:	2202      	movs	r2, #2
 80071e6:	e755      	b.n	8007094 <UART_SetConfig+0x6c>
 80071e8:	2210      	movs	r2, #16
 80071ea:	e753      	b.n	8007094 <UART_SetConfig+0x6c>
 80071ec:	2210      	movs	r2, #16
 80071ee:	e751      	b.n	8007094 <UART_SetConfig+0x6c>
 80071f0:	2202      	movs	r2, #2
 80071f2:	e74f      	b.n	8007094 <UART_SetConfig+0x6c>
 80071f4:	2210      	movs	r2, #16
 80071f6:	e74d      	b.n	8007094 <UART_SetConfig+0x6c>
 80071f8:	2210      	movs	r2, #16
 80071fa:	e74b      	b.n	8007094 <UART_SetConfig+0x6c>
    switch (clocksource)
 80071fc:	2a04      	cmp	r2, #4
 80071fe:	d02d      	beq.n	800725c <UART_SetConfig+0x234>
 8007200:	d806      	bhi.n	8007210 <UART_SetConfig+0x1e8>
 8007202:	b162      	cbz	r2, 800721e <UART_SetConfig+0x1f6>
 8007204:	2a02      	cmp	r2, #2
 8007206:	d101      	bne.n	800720c <UART_SetConfig+0x1e4>
        pclk = (uint32_t) HSI_VALUE;
 8007208:	4825      	ldr	r0, [pc, #148]	@ (80072a0 <UART_SetConfig+0x278>)
 800720a:	e00c      	b.n	8007226 <UART_SetConfig+0x1fe>
    switch (clocksource)
 800720c:	2001      	movs	r0, #1
 800720e:	e085      	b.n	800731c <UART_SetConfig+0x2f4>
 8007210:	2a08      	cmp	r2, #8
 8007212:	d102      	bne.n	800721a <UART_SetConfig+0x1f2>
 8007214:	f44f 4000 	mov.w	r0, #32768	@ 0x8000
 8007218:	e005      	b.n	8007226 <UART_SetConfig+0x1fe>
 800721a:	2001      	movs	r0, #1
 800721c:	e07e      	b.n	800731c <UART_SetConfig+0x2f4>
        pclk = HAL_RCC_GetPCLK1Freq();
 800721e:	f7fd fdb9 	bl	8004d94 <HAL_RCC_GetPCLK1Freq>
    if (pclk != 0U)
 8007222:	2800      	cmp	r0, #0
 8007224:	d07a      	beq.n	800731c <UART_SetConfig+0x2f4>
      if ((pclk < (3U * huart->Init.BaudRate)) ||
 8007226:	6862      	ldr	r2, [r4, #4]
 8007228:	eb02 0342 	add.w	r3, r2, r2, lsl #1
 800722c:	4283      	cmp	r3, r0
 800722e:	d87e      	bhi.n	800732e <UART_SetConfig+0x306>
 8007230:	ebb0 3f02 	cmp.w	r0, r2, lsl #12
 8007234:	d87d      	bhi.n	8007332 <UART_SetConfig+0x30a>
        usartdiv = (uint32_t)(UART_DIV_LPUART(pclk, huart->Init.BaudRate));
 8007236:	0e01      	lsrs	r1, r0, #24
 8007238:	0200      	lsls	r0, r0, #8
 800723a:	0853      	lsrs	r3, r2, #1
 800723c:	18c0      	adds	r0, r0, r3
 800723e:	f04f 0300 	mov.w	r3, #0
 8007242:	f141 0100 	adc.w	r1, r1, #0
 8007246:	f7f8 fffb 	bl	8000240 <__aeabi_uldivmod>
        if ((usartdiv >= LPUART_BRR_MIN) && (usartdiv <= LPUART_BRR_MAX))
 800724a:	f5a0 7240 	sub.w	r2, r0, #768	@ 0x300
 800724e:	4b15      	ldr	r3, [pc, #84]	@ (80072a4 <UART_SetConfig+0x27c>)
 8007250:	429a      	cmp	r2, r3
 8007252:	d870      	bhi.n	8007336 <UART_SetConfig+0x30e>
          huart->Instance->BRR = usartdiv;
 8007254:	6823      	ldr	r3, [r4, #0]
 8007256:	60d8      	str	r0, [r3, #12]
 8007258:	2000      	movs	r0, #0
 800725a:	e05f      	b.n	800731c <UART_SetConfig+0x2f4>
        pclk = HAL_RCC_GetSysClockFreq();
 800725c:	f7fd f96c 	bl	8004538 <HAL_RCC_GetSysClockFreq>
        break;
 8007260:	e7df      	b.n	8007222 <UART_SetConfig+0x1fa>
    switch (clocksource)
 8007262:	2a02      	cmp	r2, #2
 8007264:	d03c      	beq.n	80072e0 <UART_SetConfig+0x2b8>
 8007266:	d905      	bls.n	8007274 <UART_SetConfig+0x24c>
 8007268:	2a04      	cmp	r2, #4
 800726a:	d036      	beq.n	80072da <UART_SetConfig+0x2b2>
 800726c:	2a08      	cmp	r2, #8
 800726e:	d01e      	beq.n	80072ae <UART_SetConfig+0x286>
 8007270:	2001      	movs	r0, #1
 8007272:	e053      	b.n	800731c <UART_SetConfig+0x2f4>
 8007274:	b1c2      	cbz	r2, 80072a8 <UART_SetConfig+0x280>
 8007276:	2a01      	cmp	r2, #1
 8007278:	d102      	bne.n	8007280 <UART_SetConfig+0x258>
        pclk = HAL_RCC_GetPCLK2Freq();
 800727a:	f7fd fd9d 	bl	8004db8 <HAL_RCC_GetPCLK2Freq>
        break;
 800727e:	e015      	b.n	80072ac <UART_SetConfig+0x284>
    switch (clocksource)
 8007280:	2001      	movs	r0, #1
 8007282:	e04b      	b.n	800731c <UART_SetConfig+0x2f4>
 8007284:	efff69f3 	.word	0xefff69f3
 8007288:	40008000 	.word	0x40008000
 800728c:	40013800 	.word	0x40013800
 8007290:	40004400 	.word	0x40004400
 8007294:	40004800 	.word	0x40004800
 8007298:	40004c00 	.word	0x40004c00
 800729c:	40005000 	.word	0x40005000
 80072a0:	00f42400 	.word	0x00f42400
 80072a4:	000ffcff 	.word	0x000ffcff
        pclk = HAL_RCC_GetPCLK1Freq();
 80072a8:	f7fd fd74 	bl	8004d94 <HAL_RCC_GetPCLK1Freq>
    if (pclk != 0U)
 80072ac:	b3b0      	cbz	r0, 800731c <UART_SetConfig+0x2f4>
      usartdiv = (uint32_t)(UART_DIV_SAMPLING8(pclk, huart->Init.BaudRate));
 80072ae:	6862      	ldr	r2, [r4, #4]
 80072b0:	0853      	lsrs	r3, r2, #1
 80072b2:	eb03 0340 	add.w	r3, r3, r0, lsl #1
 80072b6:	fbb3 f3f2 	udiv	r3, r3, r2
      if ((usartdiv >= UART_BRR_MIN) && (usartdiv <= UART_BRR_MAX))
 80072ba:	f1a3 0110 	sub.w	r1, r3, #16
 80072be:	f64f 72ef 	movw	r2, #65519	@ 0xffef
 80072c2:	4291      	cmp	r1, r2
 80072c4:	d839      	bhi.n	800733a <UART_SetConfig+0x312>
        brrtemp = (uint16_t)(usartdiv & 0xFFF0U);
 80072c6:	b29a      	uxth	r2, r3
 80072c8:	f022 020f 	bic.w	r2, r2, #15
        brrtemp |= (uint16_t)((usartdiv & (uint16_t)0x000FU) >> 1U);
 80072cc:	f3c3 0342 	ubfx	r3, r3, #1, #3
 80072d0:	4313      	orrs	r3, r2
        huart->Instance->BRR = brrtemp;
 80072d2:	6822      	ldr	r2, [r4, #0]
 80072d4:	60d3      	str	r3, [r2, #12]
 80072d6:	2000      	movs	r0, #0
 80072d8:	e020      	b.n	800731c <UART_SetConfig+0x2f4>
        pclk = HAL_RCC_GetSysClockFreq();
 80072da:	f7fd f92d 	bl	8004538 <HAL_RCC_GetSysClockFreq>
        break;
 80072de:	e7e5      	b.n	80072ac <UART_SetConfig+0x284>
    switch (clocksource)
 80072e0:	4818      	ldr	r0, [pc, #96]	@ (8007344 <UART_SetConfig+0x31c>)
 80072e2:	e7e4      	b.n	80072ae <UART_SetConfig+0x286>
    switch (clocksource)
 80072e4:	b142      	cbz	r2, 80072f8 <UART_SetConfig+0x2d0>
 80072e6:	2a01      	cmp	r2, #1
 80072e8:	d102      	bne.n	80072f0 <UART_SetConfig+0x2c8>
        pclk = HAL_RCC_GetPCLK2Freq();
 80072ea:	f7fd fd65 	bl	8004db8 <HAL_RCC_GetPCLK2Freq>
        break;
 80072ee:	e005      	b.n	80072fc <UART_SetConfig+0x2d4>
    switch (clocksource)
 80072f0:	2001      	movs	r0, #1
 80072f2:	e013      	b.n	800731c <UART_SetConfig+0x2f4>
 80072f4:	2001      	movs	r0, #1
 80072f6:	e011      	b.n	800731c <UART_SetConfig+0x2f4>
        pclk = HAL_RCC_GetPCLK1Freq();
 80072f8:	f7fd fd4c 	bl	8004d94 <HAL_RCC_GetPCLK1Freq>
    if (pclk != 0U)
 80072fc:	b170      	cbz	r0, 800731c <UART_SetConfig+0x2f4>
      usartdiv = (uint32_t)(UART_DIV_SAMPLING16(pclk, huart->Init.BaudRate));
 80072fe:	6863      	ldr	r3, [r4, #4]
 8007300:	eb00 0053 	add.w	r0, r0, r3, lsr #1
 8007304:	fbb0 f0f3 	udiv	r0, r0, r3
      if ((usartdiv >= UART_BRR_MIN) && (usartdiv <= UART_BRR_MAX))
 8007308:	f1a0 0210 	sub.w	r2, r0, #16
 800730c:	f64f 73ef 	movw	r3, #65519	@ 0xffef
 8007310:	429a      	cmp	r2, r3
 8007312:	d814      	bhi.n	800733e <UART_SetConfig+0x316>
        huart->Instance->BRR = (uint16_t)usartdiv;
 8007314:	6823      	ldr	r3, [r4, #0]
 8007316:	b280      	uxth	r0, r0
 8007318:	60d8      	str	r0, [r3, #12]
 800731a:	2000      	movs	r0, #0
  huart->RxISR = NULL;
 800731c:	2300      	movs	r3, #0
 800731e:	66a3      	str	r3, [r4, #104]	@ 0x68
  huart->TxISR = NULL;
 8007320:	66e3      	str	r3, [r4, #108]	@ 0x6c
}
 8007322:	bd10      	pop	{r4, pc}
        pclk = HAL_RCC_GetSysClockFreq();
 8007324:	f7fd f908 	bl	8004538 <HAL_RCC_GetSysClockFreq>
        break;
 8007328:	e7e8      	b.n	80072fc <UART_SetConfig+0x2d4>
    switch (clocksource)
 800732a:	4806      	ldr	r0, [pc, #24]	@ (8007344 <UART_SetConfig+0x31c>)
 800732c:	e7e7      	b.n	80072fe <UART_SetConfig+0x2d6>
        ret = HAL_ERROR;
 800732e:	2001      	movs	r0, #1
 8007330:	e7f4      	b.n	800731c <UART_SetConfig+0x2f4>
 8007332:	2001      	movs	r0, #1
 8007334:	e7f2      	b.n	800731c <UART_SetConfig+0x2f4>
          ret = HAL_ERROR;
 8007336:	2001      	movs	r0, #1
 8007338:	e7f0      	b.n	800731c <UART_SetConfig+0x2f4>
        ret = HAL_ERROR;
 800733a:	2001      	movs	r0, #1
 800733c:	e7ee      	b.n	800731c <UART_SetConfig+0x2f4>
        ret = HAL_ERROR;
 800733e:	2001      	movs	r0, #1
 8007340:	e7ec      	b.n	800731c <UART_SetConfig+0x2f4>
 8007342:	bf00      	nop
 8007344:	00f42400 	.word	0x00f42400

08007348 <UART_AdvFeatureConfig>:
  if (HAL_IS_BIT_SET(huart->AdvancedInit.AdvFeatureInit, UART_ADVFEATURE_SWAP_INIT))
 8007348:	6a43      	ldr	r3, [r0, #36]	@ 0x24
 800734a:	f013 0f08 	tst.w	r3, #8
 800734e:	d006      	beq.n	800735e <UART_AdvFeatureConfig+0x16>
    MODIFY_REG(huart->Instance->CR2, USART_CR2_SWAP, huart->AdvancedInit.Swap);
 8007350:	6802      	ldr	r2, [r0, #0]
 8007352:	6853      	ldr	r3, [r2, #4]
 8007354:	f423 4300 	bic.w	r3, r3, #32768	@ 0x8000
 8007358:	6b41      	ldr	r1, [r0, #52]	@ 0x34
 800735a:	430b      	orrs	r3, r1
 800735c:	6053      	str	r3, [r2, #4]
  if (HAL_IS_BIT_SET(huart->AdvancedInit.AdvFeatureInit, UART_ADVFEATURE_TXINVERT_INIT))
 800735e:	6a43      	ldr	r3, [r0, #36]	@ 0x24
 8007360:	f013 0f01 	tst.w	r3, #1
 8007364:	d006      	beq.n	8007374 <UART_AdvFeatureConfig+0x2c>
    MODIFY_REG(huart->Instance->CR2, USART_CR2_TXINV, huart->AdvancedInit.TxPinLevelInvert);
 8007366:	6802      	ldr	r2, [r0, #0]
 8007368:	6853      	ldr	r3, [r2, #4]
 800736a:	f423 3300 	bic.w	r3, r3, #131072	@ 0x20000
 800736e:	6a81      	ldr	r1, [r0, #40]	@ 0x28
 8007370:	430b      	orrs	r3, r1
 8007372:	6053      	str	r3, [r2, #4]
  if (HAL_IS_BIT_SET(huart->AdvancedInit.AdvFeatureInit, UART_ADVFEATURE_RXINVERT_INIT))
 8007374:	6a43      	ldr	r3, [r0, #36]	@ 0x24
 8007376:	f013 0f02 	tst.w	r3, #2
 800737a:	d006      	beq.n	800738a <UART_AdvFeatureConfig+0x42>
    MODIFY_REG(huart->Instance->CR2, USART_CR2_RXINV, huart->AdvancedInit.RxPinLevelInvert);
 800737c:	6802      	ldr	r2, [r0, #0]
 800737e:	6853      	ldr	r3, [r2, #4]
 8007380:	f423 3380 	bic.w	r3, r3, #65536	@ 0x10000
 8007384:	6ac1      	ldr	r1, [r0, #44]	@ 0x2c
 8007386:	430b      	orrs	r3, r1
 8007388:	6053      	str	r3, [r2, #4]
  if (HAL_IS_BIT_SET(huart->AdvancedInit.AdvFeatureInit, UART_ADVFEATURE_DATAINVERT_INIT))
 800738a:	6a43      	ldr	r3, [r0, #36]	@ 0x24
 800738c:	f013 0f04 	tst.w	r3, #4
 8007390:	d006      	beq.n	80073a0 <UART_AdvFeatureConfig+0x58>
    MODIFY_REG(huart->Instance->CR2, USART_CR2_DATAINV, huart->AdvancedInit.DataInvert);
 8007392:	6802      	ldr	r2, [r0, #0]
 8007394:	6853      	ldr	r3, [r2, #4]
 8007396:	f423 2380 	bic.w	r3, r3, #262144	@ 0x40000
 800739a:	6b01      	ldr	r1, [r0, #48]	@ 0x30
 800739c:	430b      	orrs	r3, r1
 800739e:	6053      	str	r3, [r2, #4]
  if (HAL_IS_BIT_SET(huart->AdvancedInit.AdvFeatureInit, UART_ADVFEATURE_RXOVERRUNDISABLE_INIT))
 80073a0:	6a43      	ldr	r3, [r0, #36]	@ 0x24
 80073a2:	f013 0f10 	tst.w	r3, #16
 80073a6:	d006      	beq.n	80073b6 <UART_AdvFeatureConfig+0x6e>
    MODIFY_REG(huart->Instance->CR3, USART_CR3_OVRDIS, huart->AdvancedInit.OverrunDisable);
 80073a8:	6802      	ldr	r2, [r0, #0]
 80073aa:	6893      	ldr	r3, [r2, #8]
 80073ac:	f423 5380 	bic.w	r3, r3, #4096	@ 0x1000
 80073b0:	6b81      	ldr	r1, [r0, #56]	@ 0x38
 80073b2:	430b      	orrs	r3, r1
 80073b4:	6093      	str	r3, [r2, #8]
  if (HAL_IS_BIT_SET(huart->AdvancedInit.AdvFeatureInit, UART_ADVFEATURE_DMADISABLEONERROR_INIT))
 80073b6:	6a43      	ldr	r3, [r0, #36]	@ 0x24
 80073b8:	f013 0f20 	tst.w	r3, #32
 80073bc:	d006      	beq.n	80073cc <UART_AdvFeatureConfig+0x84>
    MODIFY_REG(huart->Instance->CR3, USART_CR3_DDRE, huart->AdvancedInit.DMADisableonRxError);
 80073be:	6802      	ldr	r2, [r0, #0]
 80073c0:	6893      	ldr	r3, [r2, #8]
 80073c2:	f423 5300 	bic.w	r3, r3, #8192	@ 0x2000
 80073c6:	6bc1      	ldr	r1, [r0, #60]	@ 0x3c
 80073c8:	430b      	orrs	r3, r1
 80073ca:	6093      	str	r3, [r2, #8]
  if (HAL_IS_BIT_SET(huart->AdvancedInit.AdvFeatureInit, UART_ADVFEATURE_AUTOBAUDRATE_INIT))
 80073cc:	6a43      	ldr	r3, [r0, #36]	@ 0x24
 80073ce:	f013 0f40 	tst.w	r3, #64	@ 0x40
 80073d2:	d00a      	beq.n	80073ea <UART_AdvFeatureConfig+0xa2>
    MODIFY_REG(huart->Instance->CR2, USART_CR2_ABREN, huart->AdvancedInit.AutoBaudRateEnable);
 80073d4:	6802      	ldr	r2, [r0, #0]
 80073d6:	6853      	ldr	r3, [r2, #4]
 80073d8:	f423 1380 	bic.w	r3, r3, #1048576	@ 0x100000
 80073dc:	6c01      	ldr	r1, [r0, #64]	@ 0x40
 80073de:	430b      	orrs	r3, r1
 80073e0:	6053      	str	r3, [r2, #4]
    if (huart->AdvancedInit.AutoBaudRateEnable == UART_ADVFEATURE_AUTOBAUDRATE_ENABLE)
 80073e2:	6c03      	ldr	r3, [r0, #64]	@ 0x40
 80073e4:	f5b3 1f80 	cmp.w	r3, #1048576	@ 0x100000
 80073e8:	d00b      	beq.n	8007402 <UART_AdvFeatureConfig+0xba>
  if (HAL_IS_BIT_SET(huart->AdvancedInit.AdvFeatureInit, UART_ADVFEATURE_MSBFIRST_INIT))
 80073ea:	6a43      	ldr	r3, [r0, #36]	@ 0x24
 80073ec:	f013 0f80 	tst.w	r3, #128	@ 0x80
 80073f0:	d006      	beq.n	8007400 <UART_AdvFeatureConfig+0xb8>
    MODIFY_REG(huart->Instance->CR2, USART_CR2_MSBFIRST, huart->AdvancedInit.MSBFirst);
 80073f2:	6802      	ldr	r2, [r0, #0]
 80073f4:	6853      	ldr	r3, [r2, #4]
 80073f6:	f423 2300 	bic.w	r3, r3, #524288	@ 0x80000
 80073fa:	6c81      	ldr	r1, [r0, #72]	@ 0x48
 80073fc:	430b      	orrs	r3, r1
 80073fe:	6053      	str	r3, [r2, #4]
}
 8007400:	4770      	bx	lr
      MODIFY_REG(huart->Instance->CR2, USART_CR2_ABRMODE, huart->AdvancedInit.AutoBaudRateMode);
 8007402:	6802      	ldr	r2, [r0, #0]
 8007404:	6853      	ldr	r3, [r2, #4]
 8007406:	f423 03c0 	bic.w	r3, r3, #6291456	@ 0x600000
 800740a:	6c41      	ldr	r1, [r0, #68]	@ 0x44
 800740c:	430b      	orrs	r3, r1
 800740e:	6053      	str	r3, [r2, #4]
 8007410:	e7eb      	b.n	80073ea <UART_AdvFeatureConfig+0xa2>

08007412 <UART_WaitOnFlagUntilTimeout>:
{
 8007412:	e92d 41f0 	stmdb	sp!, {r4, r5, r6, r7, r8, lr}
 8007416:	4604      	mov	r4, r0
 8007418:	460d      	mov	r5, r1
 800741a:	4616      	mov	r6, r2
 800741c:	4698      	mov	r8, r3
 800741e:	9f06      	ldr	r7, [sp, #24]
  while ((__HAL_UART_GET_FLAG(huart, Flag) ? SET : RESET) == Status)
 8007420:	6823      	ldr	r3, [r4, #0]
 8007422:	69db      	ldr	r3, [r3, #28]
 8007424:	ea35 0303 	bics.w	r3, r5, r3
 8007428:	bf0c      	ite	eq
 800742a:	f04f 0c01 	moveq.w	ip, #1
 800742e:	f04f 0c00 	movne.w	ip, #0
 8007432:	45b4      	cmp	ip, r6
 8007434:	d134      	bne.n	80074a0 <UART_WaitOnFlagUntilTimeout+0x8e>
    if (Timeout != HAL_MAX_DELAY)
 8007436:	f1b7 3fff 	cmp.w	r7, #4294967295	@ 0xffffffff
 800743a:	d0f1      	beq.n	8007420 <UART_WaitOnFlagUntilTimeout+0xe>
      if (((HAL_GetTick() - Tickstart) > Timeout) || (Timeout == 0U))
 800743c:	f7fc f9e8 	bl	8003810 <HAL_GetTick>
 8007440:	4643      	mov	r3, r8
 8007442:	1ac0      	subs	r0, r0, r3
 8007444:	42b8      	cmp	r0, r7
 8007446:	d82e      	bhi.n	80074a6 <UART_WaitOnFlagUntilTimeout+0x94>
 8007448:	b37f      	cbz	r7, 80074aa <UART_WaitOnFlagUntilTimeout+0x98>
      if ((READ_BIT(huart->Instance->CR1, USART_CR1_RE) != 0U) && (Flag != UART_FLAG_TXE) && (Flag != UART_FLAG_TC))
 800744a:	6823      	ldr	r3, [r4, #0]
 800744c:	681a      	ldr	r2, [r3, #0]
 800744e:	f012 0f04 	tst.w	r2, #4
 8007452:	d0e5      	beq.n	8007420 <UART_WaitOnFlagUntilTimeout+0xe>
 8007454:	2d80      	cmp	r5, #128	@ 0x80
 8007456:	d0e3      	beq.n	8007420 <UART_WaitOnFlagUntilTimeout+0xe>
 8007458:	2d40      	cmp	r5, #64	@ 0x40
 800745a:	d0e1      	beq.n	8007420 <UART_WaitOnFlagUntilTimeout+0xe>
        if (__HAL_UART_GET_FLAG(huart, UART_FLAG_ORE) == SET)
 800745c:	69da      	ldr	r2, [r3, #28]
 800745e:	f012 0f08 	tst.w	r2, #8
 8007462:	d111      	bne.n	8007488 <UART_WaitOnFlagUntilTimeout+0x76>
        if (__HAL_UART_GET_FLAG(huart, UART_FLAG_RTOF) == SET)
 8007464:	69da      	ldr	r2, [r3, #28]
 8007466:	f412 6f00 	tst.w	r2, #2048	@ 0x800
 800746a:	d0d9      	beq.n	8007420 <UART_WaitOnFlagUntilTimeout+0xe>
          __HAL_UART_CLEAR_FLAG(huart, UART_CLEAR_RTOF);
 800746c:	f44f 6200 	mov.w	r2, #2048	@ 0x800
 8007470:	621a      	str	r2, [r3, #32]
          UART_EndRxTransfer(huart);
 8007472:	4620      	mov	r0, r4
 8007474:	f7ff fdaf 	bl	8006fd6 <UART_EndRxTransfer>
          huart->ErrorCode = HAL_UART_ERROR_RTO;
 8007478:	2320      	movs	r3, #32
 800747a:	f8c4 3084 	str.w	r3, [r4, #132]	@ 0x84
          __HAL_UNLOCK(huart);
 800747e:	2300      	movs	r3, #0
 8007480:	f884 3078 	strb.w	r3, [r4, #120]	@ 0x78
          return HAL_TIMEOUT;
 8007484:	2003      	movs	r0, #3
 8007486:	e00c      	b.n	80074a2 <UART_WaitOnFlagUntilTimeout+0x90>
          __HAL_UART_CLEAR_FLAG(huart, UART_CLEAR_OREF);
 8007488:	2508      	movs	r5, #8
 800748a:	621d      	str	r5, [r3, #32]
          UART_EndRxTransfer(huart);
 800748c:	4620      	mov	r0, r4
 800748e:	f7ff fda2 	bl	8006fd6 <UART_EndRxTransfer>
          huart->ErrorCode = HAL_UART_ERROR_ORE;
 8007492:	f8c4 5084 	str.w	r5, [r4, #132]	@ 0x84
          __HAL_UNLOCK(huart);
 8007496:	2300      	movs	r3, #0
 8007498:	f884 3078 	strb.w	r3, [r4, #120]	@ 0x78
          return HAL_ERROR;
 800749c:	2001      	movs	r0, #1
 800749e:	e000      	b.n	80074a2 <UART_WaitOnFlagUntilTimeout+0x90>
  return HAL_OK;
 80074a0:	2000      	movs	r0, #0
}
 80074a2:	e8bd 81f0 	ldmia.w	sp!, {r4, r5, r6, r7, r8, pc}
        return HAL_TIMEOUT;
 80074a6:	2003      	movs	r0, #3
 80074a8:	e7fb      	b.n	80074a2 <UART_WaitOnFlagUntilTimeout+0x90>
 80074aa:	2003      	movs	r0, #3
 80074ac:	e7f9      	b.n	80074a2 <UART_WaitOnFlagUntilTimeout+0x90>

080074ae <HAL_UART_Transmit>:
{
 80074ae:	e92d 41f0 	stmdb	sp!, {r4, r5, r6, r7, r8, lr}
 80074b2:	b084      	sub	sp, #16
 80074b4:	461e      	mov	r6, r3
  if (huart->gState == HAL_UART_STATE_READY)
 80074b6:	6fc3      	ldr	r3, [r0, #124]	@ 0x7c
 80074b8:	2b20      	cmp	r3, #32
 80074ba:	d15e      	bne.n	800757a <HAL_UART_Transmit+0xcc>
 80074bc:	4604      	mov	r4, r0
 80074be:	460d      	mov	r5, r1
    if ((pData == NULL) || (Size == 0U))
 80074c0:	2900      	cmp	r1, #0
 80074c2:	d05e      	beq.n	8007582 <HAL_UART_Transmit+0xd4>
 80074c4:	9203      	str	r2, [sp, #12]
 80074c6:	b90a      	cbnz	r2, 80074cc <HAL_UART_Transmit+0x1e>
      return  HAL_ERROR;
 80074c8:	2001      	movs	r0, #1
 80074ca:	e057      	b.n	800757c <HAL_UART_Transmit+0xce>
    huart->ErrorCode = HAL_UART_ERROR_NONE;
 80074cc:	2300      	movs	r3, #0
 80074ce:	f8c0 3084 	str.w	r3, [r0, #132]	@ 0x84
    huart->gState = HAL_UART_STATE_BUSY_TX;
 80074d2:	2321      	movs	r3, #33	@ 0x21
 80074d4:	67c3      	str	r3, [r0, #124]	@ 0x7c
    tickstart = HAL_GetTick();
 80074d6:	f7fc f99b 	bl	8003810 <HAL_GetTick>
 80074da:	4607      	mov	r7, r0
    huart->TxXferSize  = Size;
 80074dc:	9b03      	ldr	r3, [sp, #12]
 80074de:	f8a4 3050 	strh.w	r3, [r4, #80]	@ 0x50
    huart->TxXferCount = Size;
 80074e2:	f8a4 3052 	strh.w	r3, [r4, #82]	@ 0x52
    if ((huart->Init.WordLength == UART_WORDLENGTH_9B) && (huart->Init.Parity == UART_PARITY_NONE))
 80074e6:	68a3      	ldr	r3, [r4, #8]
 80074e8:	f5b3 5f80 	cmp.w	r3, #4096	@ 0x1000
 80074ec:	d002      	beq.n	80074f4 <HAL_UART_Transmit+0x46>
      pdata16bits = NULL;
 80074ee:	2300      	movs	r3, #0
 80074f0:	4698      	mov	r8, r3
 80074f2:	e01c      	b.n	800752e <HAL_UART_Transmit+0x80>
    if ((huart->Init.WordLength == UART_WORDLENGTH_9B) && (huart->Init.Parity == UART_PARITY_NONE))
 80074f4:	6923      	ldr	r3, [r4, #16]
 80074f6:	b373      	cbz	r3, 8007556 <HAL_UART_Transmit+0xa8>
      pdata16bits = NULL;
 80074f8:	2300      	movs	r3, #0
 80074fa:	4698      	mov	r8, r3
 80074fc:	e017      	b.n	800752e <HAL_UART_Transmit+0x80>
        huart->gState = HAL_UART_STATE_READY;
 80074fe:	2320      	movs	r3, #32
 8007500:	67e3      	str	r3, [r4, #124]	@ 0x7c
        return HAL_TIMEOUT;
 8007502:	2003      	movs	r0, #3
 8007504:	e03a      	b.n	800757c <HAL_UART_Transmit+0xce>
        huart->Instance->TDR = (uint16_t)(*pdata16bits & 0x01FFU);
 8007506:	4642      	mov	r2, r8
 8007508:	f832 3b02 	ldrh.w	r3, [r2], #2
 800750c:	4690      	mov	r8, r2
 800750e:	6822      	ldr	r2, [r4, #0]
 8007510:	f3c3 0308 	ubfx	r3, r3, #0, #9
 8007514:	6293      	str	r3, [r2, #40]	@ 0x28
      if ((huart->gState & HAL_UART_STATE_BUSY_TX) == HAL_UART_STATE_BUSY_TX)
 8007516:	6fe3      	ldr	r3, [r4, #124]	@ 0x7c
 8007518:	f003 0321 	and.w	r3, r3, #33	@ 0x21
 800751c:	2b21      	cmp	r3, #33	@ 0x21
 800751e:	d132      	bne.n	8007586 <HAL_UART_Transmit+0xd8>
        huart->TxXferCount--;
 8007520:	f8b4 2052 	ldrh.w	r2, [r4, #82]	@ 0x52
 8007524:	b292      	uxth	r2, r2
 8007526:	3a01      	subs	r2, #1
 8007528:	b292      	uxth	r2, r2
 800752a:	f8a4 2052 	strh.w	r2, [r4, #82]	@ 0x52
    while (huart->TxXferCount > 0U)
 800752e:	f8b4 3052 	ldrh.w	r3, [r4, #82]	@ 0x52
 8007532:	b29b      	uxth	r3, r3
 8007534:	b193      	cbz	r3, 800755c <HAL_UART_Transmit+0xae>
      if (UART_WaitOnFlagUntilTimeout(huart, UART_FLAG_TXE, RESET, tickstart, Timeout) != HAL_OK)
 8007536:	9600      	str	r6, [sp, #0]
 8007538:	463b      	mov	r3, r7
 800753a:	2200      	movs	r2, #0
 800753c:	2180      	movs	r1, #128	@ 0x80
 800753e:	4620      	mov	r0, r4
 8007540:	f7ff ff67 	bl	8007412 <UART_WaitOnFlagUntilTimeout>
 8007544:	2800      	cmp	r0, #0
 8007546:	d1da      	bne.n	80074fe <HAL_UART_Transmit+0x50>
      if (pdata8bits == NULL)
 8007548:	2d00      	cmp	r5, #0
 800754a:	d0dc      	beq.n	8007506 <HAL_UART_Transmit+0x58>
        huart->Instance->TDR = (uint8_t)(*pdata8bits & 0xFFU);
 800754c:	f815 2b01 	ldrb.w	r2, [r5], #1
 8007550:	6823      	ldr	r3, [r4, #0]
 8007552:	629a      	str	r2, [r3, #40]	@ 0x28
        pdata8bits++;
 8007554:	e7df      	b.n	8007516 <HAL_UART_Transmit+0x68>
      pdata16bits = (const uint16_t *) pData;
 8007556:	46a8      	mov	r8, r5
      pdata8bits  = NULL;
 8007558:	461d      	mov	r5, r3
 800755a:	e7e8      	b.n	800752e <HAL_UART_Transmit+0x80>
    if (UART_WaitOnFlagUntilTimeout(huart, UART_FLAG_TC, RESET, tickstart, Timeout) != HAL_OK)
 800755c:	9600      	str	r6, [sp, #0]
 800755e:	463b      	mov	r3, r7
 8007560:	2200      	movs	r2, #0
 8007562:	2140      	movs	r1, #64	@ 0x40
 8007564:	4620      	mov	r0, r4
 8007566:	f7ff ff54 	bl	8007412 <UART_WaitOnFlagUntilTimeout>
 800756a:	b910      	cbnz	r0, 8007572 <HAL_UART_Transmit+0xc4>
    huart->gState = HAL_UART_STATE_READY;
 800756c:	2320      	movs	r3, #32
 800756e:	67e3      	str	r3, [r4, #124]	@ 0x7c
    return HAL_OK;
 8007570:	e004      	b.n	800757c <HAL_UART_Transmit+0xce>
      huart->gState = HAL_UART_STATE_READY;
 8007572:	2320      	movs	r3, #32
 8007574:	67e3      	str	r3, [r4, #124]	@ 0x7c
      return HAL_TIMEOUT;
 8007576:	2003      	movs	r0, #3
 8007578:	e000      	b.n	800757c <HAL_UART_Transmit+0xce>
    return HAL_BUSY;
 800757a:	2002      	movs	r0, #2
}
 800757c:	b004      	add	sp, #16
 800757e:	e8bd 81f0 	ldmia.w	sp!, {r4, r5, r6, r7, r8, pc}
      return  HAL_ERROR;
 8007582:	2001      	movs	r0, #1
 8007584:	e7fa      	b.n	800757c <HAL_UART_Transmit+0xce>
        return HAL_ERROR;
 8007586:	2001      	movs	r0, #1
 8007588:	e7f8      	b.n	800757c <HAL_UART_Transmit+0xce>

0800758a <UART_CheckIdleState>:
{
 800758a:	b530      	push	{r4, r5, lr}
 800758c:	b083      	sub	sp, #12
 800758e:	4604      	mov	r4, r0
  huart->ErrorCode = HAL_UART_ERROR_NONE;
 8007590:	2300      	movs	r3, #0
 8007592:	f8c0 3084 	str.w	r3, [r0, #132]	@ 0x84
  tickstart = HAL_GetTick();
 8007596:	f7fc f93b 	bl	8003810 <HAL_GetTick>
 800759a:	4605      	mov	r5, r0
  if ((huart->Instance->CR1 & USART_CR1_TE) == USART_CR1_TE)
 800759c:	6822      	ldr	r2, [r4, #0]
 800759e:	6812      	ldr	r2, [r2, #0]
 80075a0:	f012 0f08 	tst.w	r2, #8
 80075a4:	d10f      	bne.n	80075c6 <UART_CheckIdleState+0x3c>
  if ((huart->Instance->CR1 & USART_CR1_RE) == USART_CR1_RE)
 80075a6:	6823      	ldr	r3, [r4, #0]
 80075a8:	681b      	ldr	r3, [r3, #0]
 80075aa:	f013 0f04 	tst.w	r3, #4
 80075ae:	d125      	bne.n	80075fc <UART_CheckIdleState+0x72>
  huart->gState = HAL_UART_STATE_READY;
 80075b0:	2320      	movs	r3, #32
 80075b2:	67e3      	str	r3, [r4, #124]	@ 0x7c
  huart->RxState = HAL_UART_STATE_READY;
 80075b4:	f8c4 3080 	str.w	r3, [r4, #128]	@ 0x80
  huart->ReceptionType = HAL_UART_RECEPTION_STANDARD;
 80075b8:	2000      	movs	r0, #0
 80075ba:	6620      	str	r0, [r4, #96]	@ 0x60
  huart->RxEventType = HAL_UART_RXEVENT_TC;
 80075bc:	6660      	str	r0, [r4, #100]	@ 0x64
  __HAL_UNLOCK(huart);
 80075be:	f884 0078 	strb.w	r0, [r4, #120]	@ 0x78
}
 80075c2:	b003      	add	sp, #12
 80075c4:	bd30      	pop	{r4, r5, pc}
    if (UART_WaitOnFlagUntilTimeout(huart, USART_ISR_TEACK, RESET, tickstart, HAL_UART_TIMEOUT_VALUE) != HAL_OK)
 80075c6:	f06f 437e 	mvn.w	r3, #4261412864	@ 0xfe000000
 80075ca:	9300      	str	r3, [sp, #0]
 80075cc:	4603      	mov	r3, r0
 80075ce:	2200      	movs	r2, #0
 80075d0:	f44f 1100 	mov.w	r1, #2097152	@ 0x200000
 80075d4:	4620      	mov	r0, r4
 80075d6:	f7ff ff1c 	bl	8007412 <UART_WaitOnFlagUntilTimeout>
 80075da:	2800      	cmp	r0, #0
 80075dc:	d0e3      	beq.n	80075a6 <UART_CheckIdleState+0x1c>
      ATOMIC_CLEAR_BIT(huart->Instance->CR1, (USART_CR1_TXEIE));
 80075de:	6822      	ldr	r2, [r4, #0]
   __ASM volatile ("ldrex %0, %1" : "=r" (result) : "Q" (*addr) );
 80075e0:	e852 3f00 	ldrex	r3, [r2]
 80075e4:	f023 0380 	bic.w	r3, r3, #128	@ 0x80
   __ASM volatile ("strex %0, %2, %1" : "=&r" (result), "=Q" (*addr) : "r" (value) );
 80075e8:	e842 3100 	strex	r1, r3, [r2]
 80075ec:	2900      	cmp	r1, #0
 80075ee:	d1f6      	bne.n	80075de <UART_CheckIdleState+0x54>
      huart->gState = HAL_UART_STATE_READY;
 80075f0:	2320      	movs	r3, #32
 80075f2:	67e3      	str	r3, [r4, #124]	@ 0x7c
      __HAL_UNLOCK(huart);
 80075f4:	f884 1078 	strb.w	r1, [r4, #120]	@ 0x78
      return HAL_TIMEOUT;
 80075f8:	2003      	movs	r0, #3
 80075fa:	e7e2      	b.n	80075c2 <UART_CheckIdleState+0x38>
    if (UART_WaitOnFlagUntilTimeout(huart, USART_ISR_REACK, RESET, tickstart, HAL_UART_TIMEOUT_VALUE) != HAL_OK)
 80075fc:	f06f 437e 	mvn.w	r3, #4261412864	@ 0xfe000000
 8007600:	9300      	str	r3, [sp, #0]
 8007602:	462b      	mov	r3, r5
 8007604:	2200      	movs	r2, #0
 8007606:	f44f 0180 	mov.w	r1, #4194304	@ 0x400000
 800760a:	4620      	mov	r0, r4
 800760c:	f7ff ff01 	bl	8007412 <UART_WaitOnFlagUntilTimeout>
 8007610:	2800      	cmp	r0, #0
 8007612:	d0cd      	beq.n	80075b0 <UART_CheckIdleState+0x26>
      ATOMIC_CLEAR_BIT(huart->Instance->CR1, (USART_CR1_RXNEIE | USART_CR1_PEIE));
 8007614:	6822      	ldr	r2, [r4, #0]
   __ASM volatile ("ldrex %0, %1" : "=r" (result) : "Q" (*addr) );
 8007616:	e852 3f00 	ldrex	r3, [r2]
 800761a:	f423 7390 	bic.w	r3, r3, #288	@ 0x120
   __ASM volatile ("strex %0, %2, %1" : "=&r" (result), "=Q" (*addr) : "r" (value) );
 800761e:	e842 3100 	strex	r1, r3, [r2]
 8007622:	2900      	cmp	r1, #0
 8007624:	d1f6      	bne.n	8007614 <UART_CheckIdleState+0x8a>
      ATOMIC_CLEAR_BIT(huart->Instance->CR3, USART_CR3_EIE);
 8007626:	6822      	ldr	r2, [r4, #0]
   __ASM volatile ("ldrex %0, %1" : "=r" (result) : "Q" (*addr) );
 8007628:	f102 0308 	add.w	r3, r2, #8
 800762c:	e853 3f00 	ldrex	r3, [r3]
 8007630:	f023 0301 	bic.w	r3, r3, #1
   __ASM volatile ("strex %0, %2, %1" : "=&r" (result), "=Q" (*addr) : "r" (value) );
 8007634:	3208      	adds	r2, #8
 8007636:	e842 3100 	strex	r1, r3, [r2]
 800763a:	2900      	cmp	r1, #0
 800763c:	d1f3      	bne.n	8007626 <UART_CheckIdleState+0x9c>
      huart->RxState = HAL_UART_STATE_READY;
 800763e:	2320      	movs	r3, #32
 8007640:	f8c4 3080 	str.w	r3, [r4, #128]	@ 0x80
      __HAL_UNLOCK(huart);
 8007644:	f884 1078 	strb.w	r1, [r4, #120]	@ 0x78
      return HAL_TIMEOUT;
 8007648:	2003      	movs	r0, #3
 800764a:	e7ba      	b.n	80075c2 <UART_CheckIdleState+0x38>

0800764c <HAL_UART_Init>:
  if (huart == NULL)
 800764c:	b368      	cbz	r0, 80076aa <HAL_UART_Init+0x5e>
{
 800764e:	b510      	push	{r4, lr}
 8007650:	4604      	mov	r4, r0
  if (huart->gState == HAL_UART_STATE_RESET)
 8007652:	6fc3      	ldr	r3, [r0, #124]	@ 0x7c
 8007654:	b303      	cbz	r3, 8007698 <HAL_UART_Init+0x4c>
  huart->gState = HAL_UART_STATE_BUSY;
 8007656:	2324      	movs	r3, #36	@ 0x24
 8007658:	67e3      	str	r3, [r4, #124]	@ 0x7c
  __HAL_UART_DISABLE(huart);
 800765a:	6822      	ldr	r2, [r4, #0]
 800765c:	6813      	ldr	r3, [r2, #0]
 800765e:	f023 0301 	bic.w	r3, r3, #1
 8007662:	6013      	str	r3, [r2, #0]
  if (huart->AdvancedInit.AdvFeatureInit != UART_ADVFEATURE_NO_INIT)
 8007664:	6a63      	ldr	r3, [r4, #36]	@ 0x24
 8007666:	b9e3      	cbnz	r3, 80076a2 <HAL_UART_Init+0x56>
  if (UART_SetConfig(huart) == HAL_ERROR)
 8007668:	4620      	mov	r0, r4
 800766a:	f7ff fcdd 	bl	8007028 <UART_SetConfig>
 800766e:	2801      	cmp	r0, #1
 8007670:	d011      	beq.n	8007696 <HAL_UART_Init+0x4a>
  CLEAR_BIT(huart->Instance->CR2, (USART_CR2_LINEN | USART_CR2_CLKEN));
 8007672:	6822      	ldr	r2, [r4, #0]
 8007674:	6853      	ldr	r3, [r2, #4]
 8007676:	f423 4390 	bic.w	r3, r3, #18432	@ 0x4800
 800767a:	6053      	str	r3, [r2, #4]
  CLEAR_BIT(huart->Instance->CR3, (USART_CR3_SCEN | USART_CR3_HDSEL | USART_CR3_IREN));
 800767c:	6822      	ldr	r2, [r4, #0]
 800767e:	6893      	ldr	r3, [r2, #8]
 8007680:	f023 032a 	bic.w	r3, r3, #42	@ 0x2a
 8007684:	6093      	str	r3, [r2, #8]
  __HAL_UART_ENABLE(huart);
 8007686:	6822      	ldr	r2, [r4, #0]
 8007688:	6813      	ldr	r3, [r2, #0]
 800768a:	f043 0301 	orr.w	r3, r3, #1
 800768e:	6013      	str	r3, [r2, #0]
  return (UART_CheckIdleState(huart));
 8007690:	4620      	mov	r0, r4
 8007692:	f7ff ff7a 	bl	800758a <UART_CheckIdleState>
}
 8007696:	bd10      	pop	{r4, pc}
    huart->Lock = HAL_UNLOCKED;
 8007698:	f880 3078 	strb.w	r3, [r0, #120]	@ 0x78
    HAL_UART_MspInit(huart);
 800769c:	f7fc fcfa 	bl	8004094 <HAL_UART_MspInit>
 80076a0:	e7d9      	b.n	8007656 <HAL_UART_Init+0xa>
    UART_AdvFeatureConfig(huart);
 80076a2:	4620      	mov	r0, r4
 80076a4:	f7ff fe50 	bl	8007348 <UART_AdvFeatureConfig>
 80076a8:	e7de      	b.n	8007668 <HAL_UART_Init+0x1c>
    return HAL_ERROR;
 80076aa:	2001      	movs	r0, #1
}
 80076ac:	4770      	bx	lr

080076ae <NMI_Handler>:
{
  /* USER CODE BEGIN NonMaskableInt_IRQn 0 */

  /* USER CODE END NonMaskableInt_IRQn 0 */
  /* USER CODE BEGIN NonMaskableInt_IRQn 1 */
   while (1)
 80076ae:	e7fe      	b.n	80076ae <NMI_Handler>

080076b0 <HardFault_Handler>:
void HardFault_Handler(void)
{
  /* USER CODE BEGIN HardFault_IRQn 0 */

  /* USER CODE END HardFault_IRQn 0 */
  while (1)
 80076b0:	e7fe      	b.n	80076b0 <HardFault_Handler>

080076b2 <MemManage_Handler>:
void MemManage_Handler(void)
{
  /* USER CODE BEGIN MemoryManagement_IRQn 0 */

  /* USER CODE END MemoryManagement_IRQn 0 */
  while (1)
 80076b2:	e7fe      	b.n	80076b2 <MemManage_Handler>

080076b4 <BusFault_Handler>:
void BusFault_Handler(void)
{
  /* USER CODE BEGIN BusFault_IRQn 0 */

  /* USER CODE END BusFault_IRQn 0 */
  while (1)
 80076b4:	e7fe      	b.n	80076b4 <BusFault_Handler>

080076b6 <UsageFault_Handler>:
void UsageFault_Handler(void)
{
  /* USER CODE BEGIN UsageFault_IRQn 0 */

  /* USER CODE END UsageFault_IRQn 0 */
  while (1)
 80076b6:	e7fe      	b.n	80076b6 <UsageFault_Handler>

080076b8 <SVC_Handler>:

  /* USER CODE END SVCall_IRQn 0 */
  /* USER CODE BEGIN SVCall_IRQn 1 */

  /* USER CODE END SVCall_IRQn 1 */
}
 80076b8:	4770      	bx	lr

080076ba <DebugMon_Handler>:

  /* USER CODE END DebugMonitor_IRQn 0 */
  /* USER CODE BEGIN DebugMonitor_IRQn 1 */

  /* USER CODE END DebugMonitor_IRQn 1 */
}
 80076ba:	4770      	bx	lr

080076bc <PendSV_Handler>:

  /* USER CODE END PendSV_IRQn 0 */
  /* USER CODE BEGIN PendSV_IRQn 1 */

  /* USER CODE END PendSV_IRQn 1 */
}
 80076bc:	4770      	bx	lr

080076be <SysTick_Handler>:

/**
  * @brief This function handles System tick timer.
  */
void SysTick_Handler(void)
{
 80076be:	b508      	push	{r3, lr}
  /* USER CODE BEGIN SysTick_IRQn 0 */

  /* USER CODE END SysTick_IRQn 0 */
  HAL_IncTick();
 80076c0:	f7fc f89a 	bl	80037f8 <HAL_IncTick>
  /* USER CODE BEGIN SysTick_IRQn 1 */

  /* USER CODE END SysTick_IRQn 1 */
}
 80076c4:	bd08      	pop	{r3, pc}
	...

080076c8 <DMA1_Channel5_IRQHandler>:

/**
  * @brief This function handles DMA1 channel5 global interrupt.
  */
void DMA1_Channel5_IRQHandler(void)
{
 80076c8:	b508      	push	{r3, lr}
  /* USER CODE BEGIN DMA1_Channel5_IRQn 0 */

  /* USER CODE END DMA1_Channel5_IRQn 0 */
  HAL_DMA_IRQHandler(&hdma_usart1_rx);
 80076ca:	4802      	ldr	r0, [pc, #8]	@ (80076d4 <DMA1_Channel5_IRQHandler+0xc>)
 80076cc:	f7fc fa18 	bl	8003b00 <HAL_DMA_IRQHandler>
  /* USER CODE BEGIN DMA1_Channel5_IRQn 1 */

  /* USER CODE END DMA1_Channel5_IRQn 1 */
}
 80076d0:	bd08      	pop	{r3, pc}
 80076d2:	bf00      	nop
 80076d4:	20000abc 	.word	0x20000abc

080076d8 <EXTI15_10_IRQHandler>:

/**
  * @brief This function handles EXTI line[15:10] interrupts.
  */
void EXTI15_10_IRQHandler(void)
{
 80076d8:	b508      	push	{r3, lr}
  /* USER CODE BEGIN EXTI15_10_IRQn 0 */

  /* USER CODE END EXTI15_10_IRQn 0 */
  HAL_GPIO_EXTI_IRQHandler(D_WAKE_Pin);
 80076da:	f44f 6000 	mov.w	r0, #2048	@ 0x800
 80076de:	f7fc fbb1 	bl	8003e44 <HAL_GPIO_EXTI_IRQHandler>
  /* USER CODE BEGIN EXTI15_10_IRQn 1 */

  /* USER CODE END EXTI15_10_IRQn 1 */
}
 80076e2:	bd08      	pop	{r3, pc}

080076e4 <SDMMC_GetCmdError>:
  */
static uint32_t SDMMC_GetCmdError(SDMMC_TypeDef *SDMMCx)
{
  /* 8 is the number of required instructions cycles for the below loop statement.
  The SDMMC_CMDTIMEOUT is expressed in ms */
  uint32_t count = SDMMC_CMDTIMEOUT * (SystemCoreClock / 8U / 1000U);
 80076e4:	4b0c      	ldr	r3, [pc, #48]	@ (8007718 <SDMMC_GetCmdError+0x34>)
 80076e6:	681b      	ldr	r3, [r3, #0]
 80076e8:	4a0c      	ldr	r2, [pc, #48]	@ (800771c <SDMMC_GetCmdError+0x38>)
 80076ea:	fba2 2303 	umull	r2, r3, r2, r3
 80076ee:	0a5b      	lsrs	r3, r3, #9
 80076f0:	f241 3288 	movw	r2, #5000	@ 0x1388
 80076f4:	fb02 f303 	mul.w	r3, r2, r3

  do
  {
    if (count-- == 0U)
 80076f8:	3b01      	subs	r3, #1
 80076fa:	f1b3 3fff 	cmp.w	r3, #4294967295	@ 0xffffffff
 80076fe:	d007      	beq.n	8007710 <SDMMC_GetCmdError+0x2c>
    {
      return SDMMC_ERROR_TIMEOUT;
    }

  } while (!__SDMMC_GET_FLAG(SDMMCx, SDMMC_FLAG_CMDSENT));
 8007700:	6b42      	ldr	r2, [r0, #52]	@ 0x34
 8007702:	f012 0f80 	tst.w	r2, #128	@ 0x80
 8007706:	d0f7      	beq.n	80076f8 <SDMMC_GetCmdError+0x14>

  /* Clear all the static flags */
  __SDMMC_CLEAR_FLAG(SDMMCx, SDMMC_STATIC_CMD_FLAGS);
 8007708:	23c5      	movs	r3, #197	@ 0xc5
 800770a:	6383      	str	r3, [r0, #56]	@ 0x38

  return SDMMC_ERROR_NONE;
 800770c:	2000      	movs	r0, #0
 800770e:	4770      	bx	lr
      return SDMMC_ERROR_TIMEOUT;
 8007710:	f04f 4000 	mov.w	r0, #2147483648	@ 0x80000000
}
 8007714:	4770      	bx	lr
 8007716:	bf00      	nop
 8007718:	20000008 	.word	0x20000008
 800771c:	10624dd3 	.word	0x10624dd3

08007720 <SDMMC_Init>:
{
 8007720:	b084      	sub	sp, #16
 8007722:	f10d 0c04 	add.w	ip, sp, #4
 8007726:	e88c 000e 	stmia.w	ip, {r1, r2, r3}
  tmpreg |= (Init.ClockEdge           | \
 800772a:	460b      	mov	r3, r1
 800772c:	9a03      	ldr	r2, [sp, #12]
 800772e:	4313      	orrs	r3, r2
             Init.BusWide             | \
 8007730:	9a04      	ldr	r2, [sp, #16]
             Init.ClockPowerSave      | \
 8007732:	4313      	orrs	r3, r2
             Init.HardwareFlowControl | \
 8007734:	9a05      	ldr	r2, [sp, #20]
             Init.BusWide             | \
 8007736:	4313      	orrs	r3, r2
             Init.ClockDiv
 8007738:	9a06      	ldr	r2, [sp, #24]
             Init.HardwareFlowControl | \
 800773a:	4313      	orrs	r3, r2
  tmpreg |= (Init.ClockEdge           | \
 800773c:	9a02      	ldr	r2, [sp, #8]
 800773e:	431a      	orrs	r2, r3
  MODIFY_REG(SDMMCx->CLKCR, CLKCR_CLEAR_MASK, tmpreg);
 8007740:	6843      	ldr	r3, [r0, #4]
 8007742:	f423 43fd 	bic.w	r3, r3, #32384	@ 0x7e80
 8007746:	f023 037f 	bic.w	r3, r3, #127	@ 0x7f
 800774a:	4313      	orrs	r3, r2
 800774c:	6043      	str	r3, [r0, #4]
}
 800774e:	2000      	movs	r0, #0
 8007750:	b004      	add	sp, #16
 8007752:	4770      	bx	lr

08007754 <SDMMC_ReadFIFO>:
  return (SDMMCx->FIFO);
 8007754:	f8d0 0080 	ldr.w	r0, [r0, #128]	@ 0x80
}
 8007758:	4770      	bx	lr

0800775a <SDMMC_WriteFIFO>:
  SDMMCx->FIFO = *pWriteData;
 800775a:	680b      	ldr	r3, [r1, #0]
 800775c:	f8c0 3080 	str.w	r3, [r0, #128]	@ 0x80
}
 8007760:	2000      	movs	r0, #0
 8007762:	4770      	bx	lr

08007764 <SDMMC_PowerState_ON>:
{
 8007764:	b508      	push	{r3, lr}
  SDMMCx->POWER = SDMMC_POWER_PWRCTRL;
 8007766:	2303      	movs	r3, #3
 8007768:	6003      	str	r3, [r0, #0]
  HAL_Delay(2);
 800776a:	2002      	movs	r0, #2
 800776c:	f7fc f856 	bl	800381c <HAL_Delay>
}
 8007770:	2000      	movs	r0, #0
 8007772:	bd08      	pop	{r3, pc}

08007774 <SDMMC_GetPowerState>:
  return (SDMMCx->POWER & SDMMC_POWER_PWRCTRL);
 8007774:	6800      	ldr	r0, [r0, #0]
}
 8007776:	f000 0003 	and.w	r0, r0, #3
 800777a:	4770      	bx	lr

0800777c <SDMMC_SendCommand>:
  SDMMCx->ARG = Command->Argument;
 800777c:	680b      	ldr	r3, [r1, #0]
 800777e:	6083      	str	r3, [r0, #8]
  tmpreg |= (uint32_t)(Command->CmdIndex         | \
 8007780:	684b      	ldr	r3, [r1, #4]
                       Command->Response         | \
 8007782:	688a      	ldr	r2, [r1, #8]
  tmpreg |= (uint32_t)(Command->CmdIndex         | \
 8007784:	4313      	orrs	r3, r2
                       Command->WaitForInterrupt | \
 8007786:	68ca      	ldr	r2, [r1, #12]
                       Command->Response         | \
 8007788:	4313      	orrs	r3, r2
                       Command->CPSM);
 800778a:	690a      	ldr	r2, [r1, #16]
                       Command->WaitForInterrupt | \
 800778c:	4313      	orrs	r3, r2
  MODIFY_REG(SDMMCx->CMD, CMD_CLEAR_MASK, tmpreg);
 800778e:	68c2      	ldr	r2, [r0, #12]
 8007790:	f36f 020b 	bfc	r2, #0, #12
 8007794:	4313      	orrs	r3, r2
 8007796:	60c3      	str	r3, [r0, #12]
}
 8007798:	2000      	movs	r0, #0
 800779a:	4770      	bx	lr

0800779c <SDMMC_GetCommandResponse>:
  return (uint8_t)(SDMMCx->RESPCMD);
 800779c:	6900      	ldr	r0, [r0, #16]
}
 800779e:	b2c0      	uxtb	r0, r0
 80077a0:	4770      	bx	lr

080077a2 <SDMMC_GetResponse>:
  tmp = (uint32_t)(&(SDMMCx->RESP1)) + Response;
 80077a2:	3014      	adds	r0, #20
  return (*(__IO uint32_t *) tmp);
 80077a4:	5840      	ldr	r0, [r0, r1]
}
 80077a6:	4770      	bx	lr

080077a8 <SDMMC_ConfigData>:
  SDMMCx->DTIMER = Data->DataTimeOut;
 80077a8:	680b      	ldr	r3, [r1, #0]
 80077aa:	6243      	str	r3, [r0, #36]	@ 0x24
  SDMMCx->DLEN = Data->DataLength;
 80077ac:	684b      	ldr	r3, [r1, #4]
 80077ae:	6283      	str	r3, [r0, #40]	@ 0x28
  tmpreg |= (uint32_t)(Data->DataBlockSize | \
 80077b0:	688b      	ldr	r3, [r1, #8]
                       Data->TransferDir   | \
 80077b2:	68ca      	ldr	r2, [r1, #12]
  tmpreg |= (uint32_t)(Data->DataBlockSize | \
 80077b4:	4313      	orrs	r3, r2
                       Data->TransferMode  | \
 80077b6:	690a      	ldr	r2, [r1, #16]
                       Data->TransferDir   | \
 80077b8:	4313      	orrs	r3, r2
                       Data->DPSM);
 80077ba:	694a      	ldr	r2, [r1, #20]
                       Data->TransferMode  | \
 80077bc:	4313      	orrs	r3, r2
  MODIFY_REG(SDMMCx->DCTRL, DCTRL_CLEAR_MASK, tmpreg);
 80077be:	6ac2      	ldr	r2, [r0, #44]	@ 0x2c
 80077c0:	f022 02f7 	bic.w	r2, r2, #247	@ 0xf7
 80077c4:	4313      	orrs	r3, r2
 80077c6:	62c3      	str	r3, [r0, #44]	@ 0x2c
}
 80077c8:	2000      	movs	r0, #0
 80077ca:	4770      	bx	lr

080077cc <SDMMC_CmdGoIdleState>:
{
 80077cc:	b510      	push	{r4, lr}
 80077ce:	b086      	sub	sp, #24
 80077d0:	4604      	mov	r4, r0
  sdmmc_cmdinit.Argument         = 0U;
 80077d2:	2300      	movs	r3, #0
 80077d4:	9301      	str	r3, [sp, #4]
  sdmmc_cmdinit.CmdIndex         = SDMMC_CMD_GO_IDLE_STATE;
 80077d6:	9302      	str	r3, [sp, #8]
  sdmmc_cmdinit.Response         = SDMMC_RESPONSE_NO;
 80077d8:	9303      	str	r3, [sp, #12]
  sdmmc_cmdinit.WaitForInterrupt = SDMMC_WAIT_NO;
 80077da:	9304      	str	r3, [sp, #16]
  sdmmc_cmdinit.CPSM             = SDMMC_CPSM_ENABLE;
 80077dc:	f44f 6380 	mov.w	r3, #1024	@ 0x400
 80077e0:	9305      	str	r3, [sp, #20]
  (void)SDMMC_SendCommand(SDMMCx, &sdmmc_cmdinit);
 80077e2:	a901      	add	r1, sp, #4
 80077e4:	f7ff ffca 	bl	800777c <SDMMC_SendCommand>
  errorstate = SDMMC_GetCmdError(SDMMCx);
 80077e8:	4620      	mov	r0, r4
 80077ea:	f7ff ff7b 	bl	80076e4 <SDMMC_GetCmdError>
}
 80077ee:	b006      	add	sp, #24
 80077f0:	bd10      	pop	{r4, pc}
	...

080077f4 <SDMMC_GetCmdResp1>:
{
 80077f4:	b538      	push	{r3, r4, r5, lr}
 80077f6:	4604      	mov	r4, r0
 80077f8:	460d      	mov	r5, r1
  uint32_t count = Timeout * (SystemCoreClock / 8U / 1000U);
 80077fa:	4b50      	ldr	r3, [pc, #320]	@ (800793c <SDMMC_GetCmdResp1+0x148>)
 80077fc:	681b      	ldr	r3, [r3, #0]
 80077fe:	4950      	ldr	r1, [pc, #320]	@ (8007940 <SDMMC_GetCmdResp1+0x14c>)
 8007800:	fba1 1303 	umull	r1, r3, r1, r3
 8007804:	0a5b      	lsrs	r3, r3, #9
 8007806:	fb03 f202 	mul.w	r2, r3, r2
    if (count-- == 0U)
 800780a:	3a01      	subs	r2, #1
 800780c:	f1b2 3fff 	cmp.w	r2, #4294967295	@ 0xffffffff
 8007810:	d05d      	beq.n	80078ce <SDMMC_GetCmdResp1+0xda>
    sta_reg = SDMMCx->STA;
 8007812:	6b63      	ldr	r3, [r4, #52]	@ 0x34
  while (((sta_reg & (SDMMC_FLAG_CCRCFAIL | SDMMC_FLAG_CMDREND | SDMMC_FLAG_CTIMEOUT)) == 0U) ||
 8007814:	f013 0f45 	tst.w	r3, #69	@ 0x45
 8007818:	d0f7      	beq.n	800780a <SDMMC_GetCmdResp1+0x16>
 800781a:	f413 6f00 	tst.w	r3, #2048	@ 0x800
 800781e:	d1f4      	bne.n	800780a <SDMMC_GetCmdResp1+0x16>
  if (__SDMMC_GET_FLAG(SDMMCx, SDMMC_FLAG_CTIMEOUT))
 8007820:	6b63      	ldr	r3, [r4, #52]	@ 0x34
 8007822:	f013 0f04 	tst.w	r3, #4
 8007826:	d106      	bne.n	8007836 <SDMMC_GetCmdResp1+0x42>
  else if (__SDMMC_GET_FLAG(SDMMCx, SDMMC_FLAG_CCRCFAIL))
 8007828:	6b60      	ldr	r0, [r4, #52]	@ 0x34
 800782a:	f010 0001 	ands.w	r0, r0, #1
 800782e:	d005      	beq.n	800783c <SDMMC_GetCmdResp1+0x48>
    __SDMMC_CLEAR_FLAG(SDMMCx, SDMMC_FLAG_CCRCFAIL);
 8007830:	2301      	movs	r3, #1
 8007832:	63a3      	str	r3, [r4, #56]	@ 0x38
    return SDMMC_ERROR_CMD_CRC_FAIL;
 8007834:	e04d      	b.n	80078d2 <SDMMC_GetCmdResp1+0xde>
    __SDMMC_CLEAR_FLAG(SDMMCx, SDMMC_FLAG_CTIMEOUT);
 8007836:	2004      	movs	r0, #4
 8007838:	63a0      	str	r0, [r4, #56]	@ 0x38
    return SDMMC_ERROR_CMD_RSP_TIMEOUT;
 800783a:	e04a      	b.n	80078d2 <SDMMC_GetCmdResp1+0xde>
  __SDMMC_CLEAR_FLAG(SDMMCx, SDMMC_STATIC_CMD_FLAGS);
 800783c:	23c5      	movs	r3, #197	@ 0xc5
 800783e:	63a3      	str	r3, [r4, #56]	@ 0x38
  if (SDMMC_GetCommandResponse(SDMMCx) != SD_CMD)
 8007840:	4620      	mov	r0, r4
 8007842:	f7ff ffab 	bl	800779c <SDMMC_GetCommandResponse>
 8007846:	42a8      	cmp	r0, r5
 8007848:	d001      	beq.n	800784e <SDMMC_GetCmdResp1+0x5a>
    return SDMMC_ERROR_CMD_CRC_FAIL;
 800784a:	2001      	movs	r0, #1
 800784c:	e041      	b.n	80078d2 <SDMMC_GetCmdResp1+0xde>
  response_r1 = SDMMC_GetResponse(SDMMCx, SDMMC_RESP1);
 800784e:	2100      	movs	r1, #0
 8007850:	4620      	mov	r0, r4
 8007852:	f7ff ffa6 	bl	80077a2 <SDMMC_GetResponse>
 8007856:	4603      	mov	r3, r0
  if ((response_r1 &SDMMC_OCR_ERRORBITS) == SDMMC_ALLZERO)
 8007858:	483a      	ldr	r0, [pc, #232]	@ (8007944 <SDMMC_GetCmdResp1+0x150>)
 800785a:	4018      	ands	r0, r3
 800785c:	b3c8      	cbz	r0, 80078d2 <SDMMC_GetCmdResp1+0xde>
  else if ((response_r1 &SDMMC_OCR_ADDR_OUT_OF_RANGE) == SDMMC_OCR_ADDR_OUT_OF_RANGE)
 800785e:	2b00      	cmp	r3, #0
 8007860:	db38      	blt.n	80078d4 <SDMMC_GetCmdResp1+0xe0>
  else if ((response_r1 &SDMMC_OCR_ADDR_MISALIGNED) == SDMMC_OCR_ADDR_MISALIGNED)
 8007862:	f013 4f80 	tst.w	r3, #1073741824	@ 0x40000000
 8007866:	d138      	bne.n	80078da <SDMMC_GetCmdResp1+0xe6>
  else if ((response_r1 &SDMMC_OCR_BLOCK_LEN_ERR) == SDMMC_OCR_BLOCK_LEN_ERR)
 8007868:	f013 5f00 	tst.w	r3, #536870912	@ 0x20000000
 800786c:	d137      	bne.n	80078de <SDMMC_GetCmdResp1+0xea>
  else if ((response_r1 &SDMMC_OCR_ERASE_SEQ_ERR) == SDMMC_OCR_ERASE_SEQ_ERR)
 800786e:	f013 5f80 	tst.w	r3, #268435456	@ 0x10000000
 8007872:	d136      	bne.n	80078e2 <SDMMC_GetCmdResp1+0xee>
  else if ((response_r1 &SDMMC_OCR_BAD_ERASE_PARAM) == SDMMC_OCR_BAD_ERASE_PARAM)
 8007874:	f013 6f00 	tst.w	r3, #134217728	@ 0x8000000
 8007878:	d136      	bne.n	80078e8 <SDMMC_GetCmdResp1+0xf4>
  else if ((response_r1 &SDMMC_OCR_WRITE_PROT_VIOLATION) == SDMMC_OCR_WRITE_PROT_VIOLATION)
 800787a:	f013 6f80 	tst.w	r3, #67108864	@ 0x4000000
 800787e:	d136      	bne.n	80078ee <SDMMC_GetCmdResp1+0xfa>
  else if ((response_r1 &SDMMC_OCR_LOCK_UNLOCK_FAILED) == SDMMC_OCR_LOCK_UNLOCK_FAILED)
 8007880:	f013 7f80 	tst.w	r3, #16777216	@ 0x1000000
 8007884:	d136      	bne.n	80078f4 <SDMMC_GetCmdResp1+0x100>
  else if ((response_r1 &SDMMC_OCR_COM_CRC_FAILED) == SDMMC_OCR_COM_CRC_FAILED)
 8007886:	f413 0f00 	tst.w	r3, #8388608	@ 0x800000
 800788a:	d136      	bne.n	80078fa <SDMMC_GetCmdResp1+0x106>
  else if ((response_r1 &SDMMC_OCR_ILLEGAL_CMD) == SDMMC_OCR_ILLEGAL_CMD)
 800788c:	f413 0f80 	tst.w	r3, #4194304	@ 0x400000
 8007890:	d136      	bne.n	8007900 <SDMMC_GetCmdResp1+0x10c>
  else if ((response_r1 &SDMMC_OCR_CARD_ECC_FAILED) == SDMMC_OCR_CARD_ECC_FAILED)
 8007892:	f413 1f00 	tst.w	r3, #2097152	@ 0x200000
 8007896:	d136      	bne.n	8007906 <SDMMC_GetCmdResp1+0x112>
  else if ((response_r1 &SDMMC_OCR_CC_ERROR) == SDMMC_OCR_CC_ERROR)
 8007898:	f413 1f80 	tst.w	r3, #1048576	@ 0x100000
 800789c:	d136      	bne.n	800790c <SDMMC_GetCmdResp1+0x118>
  else if ((response_r1 &SDMMC_OCR_STREAM_READ_UNDERRUN) == SDMMC_OCR_STREAM_READ_UNDERRUN)
 800789e:	f413 2f80 	tst.w	r3, #262144	@ 0x40000
 80078a2:	d136      	bne.n	8007912 <SDMMC_GetCmdResp1+0x11e>
  else if ((response_r1 &SDMMC_OCR_STREAM_WRITE_OVERRUN) == SDMMC_OCR_STREAM_WRITE_OVERRUN)
 80078a4:	f413 3f00 	tst.w	r3, #131072	@ 0x20000
 80078a8:	d136      	bne.n	8007918 <SDMMC_GetCmdResp1+0x124>
  else if ((response_r1 &SDMMC_OCR_CID_CSD_OVERWRITE) == SDMMC_OCR_CID_CSD_OVERWRITE)
 80078aa:	f413 3f80 	tst.w	r3, #65536	@ 0x10000
 80078ae:	d136      	bne.n	800791e <SDMMC_GetCmdResp1+0x12a>
  else if ((response_r1 &SDMMC_OCR_WP_ERASE_SKIP) == SDMMC_OCR_WP_ERASE_SKIP)
 80078b0:	f413 4f00 	tst.w	r3, #32768	@ 0x8000
 80078b4:	d136      	bne.n	8007924 <SDMMC_GetCmdResp1+0x130>
  else if ((response_r1 &SDMMC_OCR_CARD_ECC_DISABLED) == SDMMC_OCR_CARD_ECC_DISABLED)
 80078b6:	f413 4f80 	tst.w	r3, #16384	@ 0x4000
 80078ba:	d136      	bne.n	800792a <SDMMC_GetCmdResp1+0x136>
  else if ((response_r1 &SDMMC_OCR_ERASE_RESET) == SDMMC_OCR_ERASE_RESET)
 80078bc:	f413 5f00 	tst.w	r3, #8192	@ 0x2000
 80078c0:	d136      	bne.n	8007930 <SDMMC_GetCmdResp1+0x13c>
  else if ((response_r1 &SDMMC_OCR_AKE_SEQ_ERROR) == SDMMC_OCR_AKE_SEQ_ERROR)
 80078c2:	f013 0f08 	tst.w	r3, #8
 80078c6:	d036      	beq.n	8007936 <SDMMC_GetCmdResp1+0x142>
    return SDMMC_ERROR_AKE_SEQ_ERR;
 80078c8:	f44f 0000 	mov.w	r0, #8388608	@ 0x800000
 80078cc:	e001      	b.n	80078d2 <SDMMC_GetCmdResp1+0xde>
      return SDMMC_ERROR_TIMEOUT;
 80078ce:	f04f 4000 	mov.w	r0, #2147483648	@ 0x80000000
}
 80078d2:	bd38      	pop	{r3, r4, r5, pc}
    return SDMMC_ERROR_ADDR_OUT_OF_RANGE;
 80078d4:	f04f 7000 	mov.w	r0, #33554432	@ 0x2000000
 80078d8:	e7fb      	b.n	80078d2 <SDMMC_GetCmdResp1+0xde>
    return SDMMC_ERROR_ADDR_MISALIGNED;
 80078da:	2040      	movs	r0, #64	@ 0x40
 80078dc:	e7f9      	b.n	80078d2 <SDMMC_GetCmdResp1+0xde>
    return SDMMC_ERROR_BLOCK_LEN_ERR;
 80078de:	2080      	movs	r0, #128	@ 0x80
 80078e0:	e7f7      	b.n	80078d2 <SDMMC_GetCmdResp1+0xde>
    return SDMMC_ERROR_ERASE_SEQ_ERR;
 80078e2:	f44f 7080 	mov.w	r0, #256	@ 0x100
 80078e6:	e7f4      	b.n	80078d2 <SDMMC_GetCmdResp1+0xde>
    return SDMMC_ERROR_BAD_ERASE_PARAM;
 80078e8:	f44f 7000 	mov.w	r0, #512	@ 0x200
 80078ec:	e7f1      	b.n	80078d2 <SDMMC_GetCmdResp1+0xde>
    return SDMMC_ERROR_WRITE_PROT_VIOLATION;
 80078ee:	f44f 6080 	mov.w	r0, #1024	@ 0x400
 80078f2:	e7ee      	b.n	80078d2 <SDMMC_GetCmdResp1+0xde>
    return SDMMC_ERROR_LOCK_UNLOCK_FAILED;
 80078f4:	f44f 6000 	mov.w	r0, #2048	@ 0x800
 80078f8:	e7eb      	b.n	80078d2 <SDMMC_GetCmdResp1+0xde>
    return SDMMC_ERROR_COM_CRC_FAILED;
 80078fa:	f44f 5080 	mov.w	r0, #4096	@ 0x1000
 80078fe:	e7e8      	b.n	80078d2 <SDMMC_GetCmdResp1+0xde>
    return SDMMC_ERROR_ILLEGAL_CMD;
 8007900:	f44f 5000 	mov.w	r0, #8192	@ 0x2000
 8007904:	e7e5      	b.n	80078d2 <SDMMC_GetCmdResp1+0xde>
    return SDMMC_ERROR_CARD_ECC_FAILED;
 8007906:	f44f 4080 	mov.w	r0, #16384	@ 0x4000
 800790a:	e7e2      	b.n	80078d2 <SDMMC_GetCmdResp1+0xde>
    return SDMMC_ERROR_CC_ERR;
 800790c:	f44f 4000 	mov.w	r0, #32768	@ 0x8000
 8007910:	e7df      	b.n	80078d2 <SDMMC_GetCmdResp1+0xde>
    return SDMMC_ERROR_STREAM_READ_UNDERRUN;
 8007912:	f44f 3000 	mov.w	r0, #131072	@ 0x20000
 8007916:	e7dc      	b.n	80078d2 <SDMMC_GetCmdResp1+0xde>
    return SDMMC_ERROR_STREAM_WRITE_OVERRUN;
 8007918:	f44f 2080 	mov.w	r0, #262144	@ 0x40000
 800791c:	e7d9      	b.n	80078d2 <SDMMC_GetCmdResp1+0xde>
    return SDMMC_ERROR_CID_CSD_OVERWRITE;
 800791e:	f44f 2000 	mov.w	r0, #524288	@ 0x80000
 8007922:	e7d6      	b.n	80078d2 <SDMMC_GetCmdResp1+0xde>
    return SDMMC_ERROR_WP_ERASE_SKIP;
 8007924:	f44f 1080 	mov.w	r0, #1048576	@ 0x100000
 8007928:	e7d3      	b.n	80078d2 <SDMMC_GetCmdResp1+0xde>
    return SDMMC_ERROR_CARD_ECC_DISABLED;
 800792a:	f44f 1000 	mov.w	r0, #2097152	@ 0x200000
 800792e:	e7d0      	b.n	80078d2 <SDMMC_GetCmdResp1+0xde>
    return SDMMC_ERROR_ERASE_RESET;
 8007930:	f44f 0080 	mov.w	r0, #4194304	@ 0x400000
 8007934:	e7cd      	b.n	80078d2 <SDMMC_GetCmdResp1+0xde>
    return SDMMC_ERROR_GENERAL_UNKNOWN_ERR;
 8007936:	f44f 3080 	mov.w	r0, #65536	@ 0x10000
 800793a:	e7ca      	b.n	80078d2 <SDMMC_GetCmdResp1+0xde>
 800793c:	20000008 	.word	0x20000008
 8007940:	10624dd3 	.word	0x10624dd3
 8007944:	fdffe008 	.word	0xfdffe008

08007948 <SDMMC_CmdBlockLength>:
{
 8007948:	b530      	push	{r4, r5, lr}
 800794a:	b087      	sub	sp, #28
 800794c:	4605      	mov	r5, r0
  sdmmc_cmdinit.Argument         = (uint32_t)BlockSize;
 800794e:	9101      	str	r1, [sp, #4]
  sdmmc_cmdinit.CmdIndex         = SDMMC_CMD_SET_BLOCKLEN;
 8007950:	2410      	movs	r4, #16
 8007952:	9402      	str	r4, [sp, #8]
  sdmmc_cmdinit.Response         = SDMMC_RESPONSE_SHORT;
 8007954:	2340      	movs	r3, #64	@ 0x40
 8007956:	9303      	str	r3, [sp, #12]
  sdmmc_cmdinit.WaitForInterrupt = SDMMC_WAIT_NO;
 8007958:	2300      	movs	r3, #0
 800795a:	9304      	str	r3, [sp, #16]
  sdmmc_cmdinit.CPSM             = SDMMC_CPSM_ENABLE;
 800795c:	f44f 6380 	mov.w	r3, #1024	@ 0x400
 8007960:	9305      	str	r3, [sp, #20]
  (void)SDMMC_SendCommand(SDMMCx, &sdmmc_cmdinit);
 8007962:	a901      	add	r1, sp, #4
 8007964:	f7ff ff0a 	bl	800777c <SDMMC_SendCommand>
  errorstate = SDMMC_GetCmdResp1(SDMMCx, SDMMC_CMD_SET_BLOCKLEN, SDMMC_CMDTIMEOUT);
 8007968:	f241 3288 	movw	r2, #5000	@ 0x1388
 800796c:	4621      	mov	r1, r4
 800796e:	4628      	mov	r0, r5
 8007970:	f7ff ff40 	bl	80077f4 <SDMMC_GetCmdResp1>
}
 8007974:	b007      	add	sp, #28
 8007976:	bd30      	pop	{r4, r5, pc}

08007978 <SDMMC_CmdReadSingleBlock>:
{
 8007978:	b530      	push	{r4, r5, lr}
 800797a:	b087      	sub	sp, #28
 800797c:	4605      	mov	r5, r0
  sdmmc_cmdinit.Argument         = (uint32_t)ReadAdd;
 800797e:	9101      	str	r1, [sp, #4]
  sdmmc_cmdinit.CmdIndex         = SDMMC_CMD_READ_SINGLE_BLOCK;
 8007980:	2411      	movs	r4, #17
 8007982:	9402      	str	r4, [sp, #8]
  sdmmc_cmdinit.Response         = SDMMC_RESPONSE_SHORT;
 8007984:	2340      	movs	r3, #64	@ 0x40
 8007986:	9303      	str	r3, [sp, #12]
  sdmmc_cmdinit.WaitForInterrupt = SDMMC_WAIT_NO;
 8007988:	2300      	movs	r3, #0
 800798a:	9304      	str	r3, [sp, #16]
  sdmmc_cmdinit.CPSM             = SDMMC_CPSM_ENABLE;
 800798c:	f44f 6380 	mov.w	r3, #1024	@ 0x400
 8007990:	9305      	str	r3, [sp, #20]
  (void)SDMMC_SendCommand(SDMMCx, &sdmmc_cmdinit);
 8007992:	a901      	add	r1, sp, #4
 8007994:	f7ff fef2 	bl	800777c <SDMMC_SendCommand>
  errorstate = SDMMC_GetCmdResp1(SDMMCx, SDMMC_CMD_READ_SINGLE_BLOCK, SDMMC_CMDTIMEOUT);
 8007998:	f241 3288 	movw	r2, #5000	@ 0x1388
 800799c:	4621      	mov	r1, r4
 800799e:	4628      	mov	r0, r5
 80079a0:	f7ff ff28 	bl	80077f4 <SDMMC_GetCmdResp1>
}
 80079a4:	b007      	add	sp, #28
 80079a6:	bd30      	pop	{r4, r5, pc}

080079a8 <SDMMC_CmdReadMultiBlock>:
{
 80079a8:	b530      	push	{r4, r5, lr}
 80079aa:	b087      	sub	sp, #28
 80079ac:	4605      	mov	r5, r0
  sdmmc_cmdinit.Argument         = (uint32_t)ReadAdd;
 80079ae:	9101      	str	r1, [sp, #4]
  sdmmc_cmdinit.CmdIndex         = SDMMC_CMD_READ_MULT_BLOCK;
 80079b0:	2412      	movs	r4, #18
 80079b2:	9402      	str	r4, [sp, #8]
  sdmmc_cmdinit.Response         = SDMMC_RESPONSE_SHORT;
 80079b4:	2340      	movs	r3, #64	@ 0x40
 80079b6:	9303      	str	r3, [sp, #12]
  sdmmc_cmdinit.WaitForInterrupt = SDMMC_WAIT_NO;
 80079b8:	2300      	movs	r3, #0
 80079ba:	9304      	str	r3, [sp, #16]
  sdmmc_cmdinit.CPSM             = SDMMC_CPSM_ENABLE;
 80079bc:	f44f 6380 	mov.w	r3, #1024	@ 0x400
 80079c0:	9305      	str	r3, [sp, #20]
  (void)SDMMC_SendCommand(SDMMCx, &sdmmc_cmdinit);
 80079c2:	a901      	add	r1, sp, #4
 80079c4:	f7ff feda 	bl	800777c <SDMMC_SendCommand>
  errorstate = SDMMC_GetCmdResp1(SDMMCx, SDMMC_CMD_READ_MULT_BLOCK, SDMMC_CMDTIMEOUT);
 80079c8:	f241 3288 	movw	r2, #5000	@ 0x1388
 80079cc:	4621      	mov	r1, r4
 80079ce:	4628      	mov	r0, r5
 80079d0:	f7ff ff10 	bl	80077f4 <SDMMC_GetCmdResp1>
}
 80079d4:	b007      	add	sp, #28
 80079d6:	bd30      	pop	{r4, r5, pc}

080079d8 <SDMMC_CmdWriteSingleBlock>:
{
 80079d8:	b530      	push	{r4, r5, lr}
 80079da:	b087      	sub	sp, #28
 80079dc:	4605      	mov	r5, r0
  sdmmc_cmdinit.Argument         = (uint32_t)WriteAdd;
 80079de:	9101      	str	r1, [sp, #4]
  sdmmc_cmdinit.CmdIndex         = SDMMC_CMD_WRITE_SINGLE_BLOCK;
 80079e0:	2418      	movs	r4, #24
 80079e2:	9402      	str	r4, [sp, #8]
  sdmmc_cmdinit.Response         = SDMMC_RESPONSE_SHORT;
 80079e4:	2340      	movs	r3, #64	@ 0x40
 80079e6:	9303      	str	r3, [sp, #12]
  sdmmc_cmdinit.WaitForInterrupt = SDMMC_WAIT_NO;
 80079e8:	2300      	movs	r3, #0
 80079ea:	9304      	str	r3, [sp, #16]
  sdmmc_cmdinit.CPSM             = SDMMC_CPSM_ENABLE;
 80079ec:	f44f 6380 	mov.w	r3, #1024	@ 0x400
 80079f0:	9305      	str	r3, [sp, #20]
  (void)SDMMC_SendCommand(SDMMCx, &sdmmc_cmdinit);
 80079f2:	a901      	add	r1, sp, #4
 80079f4:	f7ff fec2 	bl	800777c <SDMMC_SendCommand>
  errorstate = SDMMC_GetCmdResp1(SDMMCx, SDMMC_CMD_WRITE_SINGLE_BLOCK, SDMMC_CMDTIMEOUT);
 80079f8:	f241 3288 	movw	r2, #5000	@ 0x1388
 80079fc:	4621      	mov	r1, r4
 80079fe:	4628      	mov	r0, r5
 8007a00:	f7ff fef8 	bl	80077f4 <SDMMC_GetCmdResp1>
}
 8007a04:	b007      	add	sp, #28
 8007a06:	bd30      	pop	{r4, r5, pc}

08007a08 <SDMMC_CmdWriteMultiBlock>:
{
 8007a08:	b530      	push	{r4, r5, lr}
 8007a0a:	b087      	sub	sp, #28
 8007a0c:	4605      	mov	r5, r0
  sdmmc_cmdinit.Argument         = (uint32_t)WriteAdd;
 8007a0e:	9101      	str	r1, [sp, #4]
  sdmmc_cmdinit.CmdIndex         = SDMMC_CMD_WRITE_MULT_BLOCK;
 8007a10:	2419      	movs	r4, #25
 8007a12:	9402      	str	r4, [sp, #8]
  sdmmc_cmdinit.Response         = SDMMC_RESPONSE_SHORT;
 8007a14:	2340      	movs	r3, #64	@ 0x40
 8007a16:	9303      	str	r3, [sp, #12]
  sdmmc_cmdinit.WaitForInterrupt = SDMMC_WAIT_NO;
 8007a18:	2300      	movs	r3, #0
 8007a1a:	9304      	str	r3, [sp, #16]
  sdmmc_cmdinit.CPSM             = SDMMC_CPSM_ENABLE;
 8007a1c:	f44f 6380 	mov.w	r3, #1024	@ 0x400
 8007a20:	9305      	str	r3, [sp, #20]
  (void)SDMMC_SendCommand(SDMMCx, &sdmmc_cmdinit);
 8007a22:	a901      	add	r1, sp, #4
 8007a24:	f7ff feaa 	bl	800777c <SDMMC_SendCommand>
  errorstate = SDMMC_GetCmdResp1(SDMMCx, SDMMC_CMD_WRITE_MULT_BLOCK, SDMMC_CMDTIMEOUT);
 8007a28:	f241 3288 	movw	r2, #5000	@ 0x1388
 8007a2c:	4621      	mov	r1, r4
 8007a2e:	4628      	mov	r0, r5
 8007a30:	f7ff fee0 	bl	80077f4 <SDMMC_GetCmdResp1>
}
 8007a34:	b007      	add	sp, #28
 8007a36:	bd30      	pop	{r4, r5, pc}

08007a38 <SDMMC_CmdStopTransfer>:
{
 8007a38:	b530      	push	{r4, r5, lr}
 8007a3a:	b087      	sub	sp, #28
 8007a3c:	4605      	mov	r5, r0
  sdmmc_cmdinit.Argument         = 0U;
 8007a3e:	2300      	movs	r3, #0
 8007a40:	9301      	str	r3, [sp, #4]
  sdmmc_cmdinit.CmdIndex         = SDMMC_CMD_STOP_TRANSMISSION;
 8007a42:	240c      	movs	r4, #12
 8007a44:	9402      	str	r4, [sp, #8]
  sdmmc_cmdinit.Response         = SDMMC_RESPONSE_SHORT;
 8007a46:	2240      	movs	r2, #64	@ 0x40
 8007a48:	9203      	str	r2, [sp, #12]
  sdmmc_cmdinit.WaitForInterrupt = SDMMC_WAIT_NO;
 8007a4a:	9304      	str	r3, [sp, #16]
  sdmmc_cmdinit.CPSM             = SDMMC_CPSM_ENABLE;
 8007a4c:	f44f 6380 	mov.w	r3, #1024	@ 0x400
 8007a50:	9305      	str	r3, [sp, #20]
  (void)SDMMC_SendCommand(SDMMCx, &sdmmc_cmdinit);
 8007a52:	a901      	add	r1, sp, #4
 8007a54:	f7ff fe92 	bl	800777c <SDMMC_SendCommand>
  errorstate = SDMMC_GetCmdResp1(SDMMCx, SDMMC_CMD_STOP_TRANSMISSION, SDMMC_STOPTRANSFERTIMEOUT);
 8007a58:	4a03      	ldr	r2, [pc, #12]	@ (8007a68 <SDMMC_CmdStopTransfer+0x30>)
 8007a5a:	4621      	mov	r1, r4
 8007a5c:	4628      	mov	r0, r5
 8007a5e:	f7ff fec9 	bl	80077f4 <SDMMC_GetCmdResp1>
}
 8007a62:	b007      	add	sp, #28
 8007a64:	bd30      	pop	{r4, r5, pc}
 8007a66:	bf00      	nop
 8007a68:	05f5e100 	.word	0x05f5e100

08007a6c <SDMMC_CmdSelDesel>:
{
 8007a6c:	b530      	push	{r4, r5, lr}
 8007a6e:	b087      	sub	sp, #28
 8007a70:	4605      	mov	r5, r0
  sdmmc_cmdinit.Argument         = (uint32_t)Addr;
 8007a72:	9201      	str	r2, [sp, #4]
  sdmmc_cmdinit.CmdIndex         = SDMMC_CMD_SEL_DESEL_CARD;
 8007a74:	2407      	movs	r4, #7
 8007a76:	9402      	str	r4, [sp, #8]
  sdmmc_cmdinit.Response         = SDMMC_RESPONSE_SHORT;
 8007a78:	2340      	movs	r3, #64	@ 0x40
 8007a7a:	9303      	str	r3, [sp, #12]
  sdmmc_cmdinit.WaitForInterrupt = SDMMC_WAIT_NO;
 8007a7c:	2300      	movs	r3, #0
 8007a7e:	9304      	str	r3, [sp, #16]
  sdmmc_cmdinit.CPSM             = SDMMC_CPSM_ENABLE;
 8007a80:	f44f 6380 	mov.w	r3, #1024	@ 0x400
 8007a84:	9305      	str	r3, [sp, #20]
  (void)SDMMC_SendCommand(SDMMCx, &sdmmc_cmdinit);
 8007a86:	a901      	add	r1, sp, #4
 8007a88:	f7ff fe78 	bl	800777c <SDMMC_SendCommand>
  errorstate = SDMMC_GetCmdResp1(SDMMCx, SDMMC_CMD_SEL_DESEL_CARD, SDMMC_CMDTIMEOUT);
 8007a8c:	f241 3288 	movw	r2, #5000	@ 0x1388
 8007a90:	4621      	mov	r1, r4
 8007a92:	4628      	mov	r0, r5
 8007a94:	f7ff feae 	bl	80077f4 <SDMMC_GetCmdResp1>
}
 8007a98:	b007      	add	sp, #28
 8007a9a:	bd30      	pop	{r4, r5, pc}

08007a9c <SDMMC_CmdAppCommand>:
{
 8007a9c:	b530      	push	{r4, r5, lr}
 8007a9e:	b087      	sub	sp, #28
 8007aa0:	4605      	mov	r5, r0
  sdmmc_cmdinit.Argument         = (uint32_t)Argument;
 8007aa2:	9101      	str	r1, [sp, #4]
  sdmmc_cmdinit.CmdIndex         = SDMMC_CMD_APP_CMD;
 8007aa4:	2437      	movs	r4, #55	@ 0x37
 8007aa6:	9402      	str	r4, [sp, #8]
  sdmmc_cmdinit.Response         = SDMMC_RESPONSE_SHORT;
 8007aa8:	2340      	movs	r3, #64	@ 0x40
 8007aaa:	9303      	str	r3, [sp, #12]
  sdmmc_cmdinit.WaitForInterrupt = SDMMC_WAIT_NO;
 8007aac:	2300      	movs	r3, #0
 8007aae:	9304      	str	r3, [sp, #16]
  sdmmc_cmdinit.CPSM             = SDMMC_CPSM_ENABLE;
 8007ab0:	f44f 6380 	mov.w	r3, #1024	@ 0x400
 8007ab4:	9305      	str	r3, [sp, #20]
  (void)SDMMC_SendCommand(SDMMCx, &sdmmc_cmdinit);
 8007ab6:	a901      	add	r1, sp, #4
 8007ab8:	f7ff fe60 	bl	800777c <SDMMC_SendCommand>
  errorstate = SDMMC_GetCmdResp1(SDMMCx, SDMMC_CMD_APP_CMD, SDMMC_CMDTIMEOUT);
 8007abc:	f241 3288 	movw	r2, #5000	@ 0x1388
 8007ac0:	4621      	mov	r1, r4
 8007ac2:	4628      	mov	r0, r5
 8007ac4:	f7ff fe96 	bl	80077f4 <SDMMC_GetCmdResp1>
}
 8007ac8:	b007      	add	sp, #28
 8007aca:	bd30      	pop	{r4, r5, pc}

08007acc <SDMMC_CmdBusWidth>:
{
 8007acc:	b530      	push	{r4, r5, lr}
 8007ace:	b087      	sub	sp, #28
 8007ad0:	4605      	mov	r5, r0
  sdmmc_cmdinit.Argument         = (uint32_t)BusWidth;
 8007ad2:	9101      	str	r1, [sp, #4]
  sdmmc_cmdinit.CmdIndex         = SDMMC_CMD_APP_SD_SET_BUSWIDTH;
 8007ad4:	2406      	movs	r4, #6
 8007ad6:	9402      	str	r4, [sp, #8]
  sdmmc_cmdinit.Response         = SDMMC_RESPONSE_SHORT;
 8007ad8:	2340      	movs	r3, #64	@ 0x40
 8007ada:	9303      	str	r3, [sp, #12]
  sdmmc_cmdinit.WaitForInterrupt = SDMMC_WAIT_NO;
 8007adc:	2300      	movs	r3, #0
 8007ade:	9304      	str	r3, [sp, #16]
  sdmmc_cmdinit.CPSM             = SDMMC_CPSM_ENABLE;
 8007ae0:	f44f 6380 	mov.w	r3, #1024	@ 0x400
 8007ae4:	9305      	str	r3, [sp, #20]
  (void)SDMMC_SendCommand(SDMMCx, &sdmmc_cmdinit);
 8007ae6:	a901      	add	r1, sp, #4
 8007ae8:	f7ff fe48 	bl	800777c <SDMMC_SendCommand>
  errorstate = SDMMC_GetCmdResp1(SDMMCx, SDMMC_CMD_APP_SD_SET_BUSWIDTH, SDMMC_CMDTIMEOUT);
 8007aec:	f241 3288 	movw	r2, #5000	@ 0x1388
 8007af0:	4621      	mov	r1, r4
 8007af2:	4628      	mov	r0, r5
 8007af4:	f7ff fe7e 	bl	80077f4 <SDMMC_GetCmdResp1>
}
 8007af8:	b007      	add	sp, #28
 8007afa:	bd30      	pop	{r4, r5, pc}

08007afc <SDMMC_CmdSendSCR>:
{
 8007afc:	b530      	push	{r4, r5, lr}
 8007afe:	b087      	sub	sp, #28
 8007b00:	4605      	mov	r5, r0
  sdmmc_cmdinit.Argument         = 0U;
 8007b02:	2300      	movs	r3, #0
 8007b04:	9301      	str	r3, [sp, #4]
  sdmmc_cmdinit.CmdIndex         = SDMMC_CMD_SD_APP_SEND_SCR;
 8007b06:	2433      	movs	r4, #51	@ 0x33
 8007b08:	9402      	str	r4, [sp, #8]
  sdmmc_cmdinit.Response         = SDMMC_RESPONSE_SHORT;
 8007b0a:	2240      	movs	r2, #64	@ 0x40
 8007b0c:	9203      	str	r2, [sp, #12]
  sdmmc_cmdinit.WaitForInterrupt = SDMMC_WAIT_NO;
 8007b0e:	9304      	str	r3, [sp, #16]
  sdmmc_cmdinit.CPSM             = SDMMC_CPSM_ENABLE;
 8007b10:	f44f 6380 	mov.w	r3, #1024	@ 0x400
 8007b14:	9305      	str	r3, [sp, #20]
  (void)SDMMC_SendCommand(SDMMCx, &sdmmc_cmdinit);
 8007b16:	a901      	add	r1, sp, #4
 8007b18:	f7ff fe30 	bl	800777c <SDMMC_SendCommand>
  errorstate = SDMMC_GetCmdResp1(SDMMCx, SDMMC_CMD_SD_APP_SEND_SCR, SDMMC_CMDTIMEOUT);
 8007b1c:	f241 3288 	movw	r2, #5000	@ 0x1388
 8007b20:	4621      	mov	r1, r4
 8007b22:	4628      	mov	r0, r5
 8007b24:	f7ff fe66 	bl	80077f4 <SDMMC_GetCmdResp1>
}
 8007b28:	b007      	add	sp, #28
 8007b2a:	bd30      	pop	{r4, r5, pc}

08007b2c <SDMMC_CmdSendStatus>:
{
 8007b2c:	b530      	push	{r4, r5, lr}
 8007b2e:	b087      	sub	sp, #28
 8007b30:	4605      	mov	r5, r0
  sdmmc_cmdinit.Argument         = Argument;
 8007b32:	9101      	str	r1, [sp, #4]
  sdmmc_cmdinit.CmdIndex         = SDMMC_CMD_SEND_STATUS;
 8007b34:	240d      	movs	r4, #13
 8007b36:	9402      	str	r4, [sp, #8]
  sdmmc_cmdinit.Response         = SDMMC_RESPONSE_SHORT;
 8007b38:	2340      	movs	r3, #64	@ 0x40
 8007b3a:	9303      	str	r3, [sp, #12]
  sdmmc_cmdinit.WaitForInterrupt = SDMMC_WAIT_NO;
 8007b3c:	2300      	movs	r3, #0
 8007b3e:	9304      	str	r3, [sp, #16]
  sdmmc_cmdinit.CPSM             = SDMMC_CPSM_ENABLE;
 8007b40:	f44f 6380 	mov.w	r3, #1024	@ 0x400
 8007b44:	9305      	str	r3, [sp, #20]
  (void)SDMMC_SendCommand(SDMMCx, &sdmmc_cmdinit);
 8007b46:	a901      	add	r1, sp, #4
 8007b48:	f7ff fe18 	bl	800777c <SDMMC_SendCommand>
  errorstate = SDMMC_GetCmdResp1(SDMMCx, SDMMC_CMD_SEND_STATUS, SDMMC_CMDTIMEOUT);
 8007b4c:	f241 3288 	movw	r2, #5000	@ 0x1388
 8007b50:	4621      	mov	r1, r4
 8007b52:	4628      	mov	r0, r5
 8007b54:	f7ff fe4e 	bl	80077f4 <SDMMC_GetCmdResp1>
}
 8007b58:	b007      	add	sp, #28
 8007b5a:	bd30      	pop	{r4, r5, pc}

08007b5c <SDMMC_GetCmdResp2>:
{
 8007b5c:	4601      	mov	r1, r0
  uint32_t count = SDMMC_CMDTIMEOUT * (SystemCoreClock / 8U / 1000U);
 8007b5e:	4b14      	ldr	r3, [pc, #80]	@ (8007bb0 <SDMMC_GetCmdResp2+0x54>)
 8007b60:	681b      	ldr	r3, [r3, #0]
 8007b62:	4a14      	ldr	r2, [pc, #80]	@ (8007bb4 <SDMMC_GetCmdResp2+0x58>)
 8007b64:	fba2 2303 	umull	r2, r3, r2, r3
 8007b68:	0a5b      	lsrs	r3, r3, #9
 8007b6a:	f241 3288 	movw	r2, #5000	@ 0x1388
 8007b6e:	fb02 f303 	mul.w	r3, r2, r3
    if (count-- == 0U)
 8007b72:	3b01      	subs	r3, #1
 8007b74:	f1b3 3fff 	cmp.w	r3, #4294967295	@ 0xffffffff
 8007b78:	d017      	beq.n	8007baa <SDMMC_GetCmdResp2+0x4e>
    sta_reg = SDMMCx->STA;
 8007b7a:	6b4a      	ldr	r2, [r1, #52]	@ 0x34
  } while (((sta_reg & (SDMMC_FLAG_CCRCFAIL | SDMMC_FLAG_CMDREND | SDMMC_FLAG_CTIMEOUT)) == 0U) ||
 8007b7c:	f012 0f45 	tst.w	r2, #69	@ 0x45
 8007b80:	d0f7      	beq.n	8007b72 <SDMMC_GetCmdResp2+0x16>
 8007b82:	f412 6f00 	tst.w	r2, #2048	@ 0x800
 8007b86:	d1f4      	bne.n	8007b72 <SDMMC_GetCmdResp2+0x16>
  if (__SDMMC_GET_FLAG(SDMMCx, SDMMC_FLAG_CTIMEOUT))
 8007b88:	6b4b      	ldr	r3, [r1, #52]	@ 0x34
 8007b8a:	f013 0f04 	tst.w	r3, #4
 8007b8e:	d106      	bne.n	8007b9e <SDMMC_GetCmdResp2+0x42>
  else if (__SDMMC_GET_FLAG(SDMMCx, SDMMC_FLAG_CCRCFAIL))
 8007b90:	6b48      	ldr	r0, [r1, #52]	@ 0x34
 8007b92:	f010 0001 	ands.w	r0, r0, #1
 8007b96:	d105      	bne.n	8007ba4 <SDMMC_GetCmdResp2+0x48>
    __SDMMC_CLEAR_FLAG(SDMMCx, SDMMC_STATIC_CMD_FLAGS);
 8007b98:	23c5      	movs	r3, #197	@ 0xc5
 8007b9a:	638b      	str	r3, [r1, #56]	@ 0x38
  return SDMMC_ERROR_NONE;
 8007b9c:	4770      	bx	lr
    __SDMMC_CLEAR_FLAG(SDMMCx, SDMMC_FLAG_CTIMEOUT);
 8007b9e:	2004      	movs	r0, #4
 8007ba0:	6388      	str	r0, [r1, #56]	@ 0x38
    return SDMMC_ERROR_CMD_RSP_TIMEOUT;
 8007ba2:	4770      	bx	lr
    __SDMMC_CLEAR_FLAG(SDMMCx, SDMMC_FLAG_CCRCFAIL);
 8007ba4:	2301      	movs	r3, #1
 8007ba6:	638b      	str	r3, [r1, #56]	@ 0x38
    return SDMMC_ERROR_CMD_CRC_FAIL;
 8007ba8:	4770      	bx	lr
      return SDMMC_ERROR_TIMEOUT;
 8007baa:	f04f 4000 	mov.w	r0, #2147483648	@ 0x80000000
}
 8007bae:	4770      	bx	lr
 8007bb0:	20000008 	.word	0x20000008
 8007bb4:	10624dd3 	.word	0x10624dd3

08007bb8 <SDMMC_CmdSendCID>:
{
 8007bb8:	b510      	push	{r4, lr}
 8007bba:	b086      	sub	sp, #24
 8007bbc:	4604      	mov	r4, r0
  sdmmc_cmdinit.Argument         = 0U;
 8007bbe:	2300      	movs	r3, #0
 8007bc0:	9301      	str	r3, [sp, #4]
  sdmmc_cmdinit.CmdIndex         = SDMMC_CMD_ALL_SEND_CID;
 8007bc2:	2202      	movs	r2, #2
 8007bc4:	9202      	str	r2, [sp, #8]
  sdmmc_cmdinit.Response         = SDMMC_RESPONSE_LONG;
 8007bc6:	22c0      	movs	r2, #192	@ 0xc0
 8007bc8:	9203      	str	r2, [sp, #12]
  sdmmc_cmdinit.WaitForInterrupt = SDMMC_WAIT_NO;
 8007bca:	9304      	str	r3, [sp, #16]
  sdmmc_cmdinit.CPSM             = SDMMC_CPSM_ENABLE;
 8007bcc:	f44f 6380 	mov.w	r3, #1024	@ 0x400
 8007bd0:	9305      	str	r3, [sp, #20]
  (void)SDMMC_SendCommand(SDMMCx, &sdmmc_cmdinit);
 8007bd2:	a901      	add	r1, sp, #4
 8007bd4:	f7ff fdd2 	bl	800777c <SDMMC_SendCommand>
  errorstate = SDMMC_GetCmdResp2(SDMMCx);
 8007bd8:	4620      	mov	r0, r4
 8007bda:	f7ff ffbf 	bl	8007b5c <SDMMC_GetCmdResp2>
}
 8007bde:	b006      	add	sp, #24
 8007be0:	bd10      	pop	{r4, pc}

08007be2 <SDMMC_CmdSendCSD>:
{
 8007be2:	b510      	push	{r4, lr}
 8007be4:	b086      	sub	sp, #24
 8007be6:	4604      	mov	r4, r0
  sdmmc_cmdinit.Argument         = Argument;
 8007be8:	9101      	str	r1, [sp, #4]
  sdmmc_cmdinit.CmdIndex         = SDMMC_CMD_SEND_CSD;
 8007bea:	2309      	movs	r3, #9
 8007bec:	9302      	str	r3, [sp, #8]
  sdmmc_cmdinit.Response         = SDMMC_RESPONSE_LONG;
 8007bee:	23c0      	movs	r3, #192	@ 0xc0
 8007bf0:	9303      	str	r3, [sp, #12]
  sdmmc_cmdinit.WaitForInterrupt = SDMMC_WAIT_NO;
 8007bf2:	2300      	movs	r3, #0
 8007bf4:	9304      	str	r3, [sp, #16]
  sdmmc_cmdinit.CPSM             = SDMMC_CPSM_ENABLE;
 8007bf6:	f44f 6380 	mov.w	r3, #1024	@ 0x400
 8007bfa:	9305      	str	r3, [sp, #20]
  (void)SDMMC_SendCommand(SDMMCx, &sdmmc_cmdinit);
 8007bfc:	a901      	add	r1, sp, #4
 8007bfe:	f7ff fdbd 	bl	800777c <SDMMC_SendCommand>
  errorstate = SDMMC_GetCmdResp2(SDMMCx);
 8007c02:	4620      	mov	r0, r4
 8007c04:	f7ff ffaa 	bl	8007b5c <SDMMC_GetCmdResp2>
}
 8007c08:	b006      	add	sp, #24
 8007c0a:	bd10      	pop	{r4, pc}

08007c0c <SDMMC_GetCmdResp3>:
{
 8007c0c:	4601      	mov	r1, r0
  uint32_t count = SDMMC_CMDTIMEOUT * (SystemCoreClock / 8U / 1000U);
 8007c0e:	4b11      	ldr	r3, [pc, #68]	@ (8007c54 <SDMMC_GetCmdResp3+0x48>)
 8007c10:	681b      	ldr	r3, [r3, #0]
 8007c12:	4a11      	ldr	r2, [pc, #68]	@ (8007c58 <SDMMC_GetCmdResp3+0x4c>)
 8007c14:	fba2 2303 	umull	r2, r3, r2, r3
 8007c18:	0a5b      	lsrs	r3, r3, #9
 8007c1a:	f241 3288 	movw	r2, #5000	@ 0x1388
 8007c1e:	fb02 f303 	mul.w	r3, r2, r3
    if (count-- == 0U)
 8007c22:	3b01      	subs	r3, #1
 8007c24:	f1b3 3fff 	cmp.w	r3, #4294967295	@ 0xffffffff
 8007c28:	d010      	beq.n	8007c4c <SDMMC_GetCmdResp3+0x40>
    sta_reg = SDMMCx->STA;
 8007c2a:	6b4a      	ldr	r2, [r1, #52]	@ 0x34
  } while (((sta_reg & (SDMMC_FLAG_CCRCFAIL | SDMMC_FLAG_CMDREND | SDMMC_FLAG_CTIMEOUT)) == 0U) ||
 8007c2c:	f012 0f45 	tst.w	r2, #69	@ 0x45
 8007c30:	d0f7      	beq.n	8007c22 <SDMMC_GetCmdResp3+0x16>
 8007c32:	f412 6f00 	tst.w	r2, #2048	@ 0x800
 8007c36:	d1f4      	bne.n	8007c22 <SDMMC_GetCmdResp3+0x16>
  if (__SDMMC_GET_FLAG(SDMMCx, SDMMC_FLAG_CTIMEOUT))
 8007c38:	6b48      	ldr	r0, [r1, #52]	@ 0x34
 8007c3a:	f010 0004 	ands.w	r0, r0, #4
 8007c3e:	d102      	bne.n	8007c46 <SDMMC_GetCmdResp3+0x3a>
    __SDMMC_CLEAR_FLAG(SDMMCx, SDMMC_STATIC_CMD_FLAGS);
 8007c40:	23c5      	movs	r3, #197	@ 0xc5
 8007c42:	638b      	str	r3, [r1, #56]	@ 0x38
  return SDMMC_ERROR_NONE;
 8007c44:	4770      	bx	lr
    __SDMMC_CLEAR_FLAG(SDMMCx, SDMMC_FLAG_CTIMEOUT);
 8007c46:	2004      	movs	r0, #4
 8007c48:	6388      	str	r0, [r1, #56]	@ 0x38
    return SDMMC_ERROR_CMD_RSP_TIMEOUT;
 8007c4a:	4770      	bx	lr
      return SDMMC_ERROR_TIMEOUT;
 8007c4c:	f04f 4000 	mov.w	r0, #2147483648	@ 0x80000000
}
 8007c50:	4770      	bx	lr
 8007c52:	bf00      	nop
 8007c54:	20000008 	.word	0x20000008
 8007c58:	10624dd3 	.word	0x10624dd3

08007c5c <SDMMC_CmdAppOperCommand>:
{
 8007c5c:	b510      	push	{r4, lr}
 8007c5e:	b086      	sub	sp, #24
 8007c60:	4604      	mov	r4, r0
  sdmmc_cmdinit.Argument         = SDMMC_VOLTAGE_WINDOW_SD | Argument;
 8007c62:	f041 4100 	orr.w	r1, r1, #2147483648	@ 0x80000000
 8007c66:	f441 1180 	orr.w	r1, r1, #1048576	@ 0x100000
 8007c6a:	9101      	str	r1, [sp, #4]
  sdmmc_cmdinit.CmdIndex         = SDMMC_CMD_SD_APP_OP_COND;
 8007c6c:	2329      	movs	r3, #41	@ 0x29
 8007c6e:	9302      	str	r3, [sp, #8]
  sdmmc_cmdinit.Response         = SDMMC_RESPONSE_SHORT;
 8007c70:	2340      	movs	r3, #64	@ 0x40
 8007c72:	9303      	str	r3, [sp, #12]
  sdmmc_cmdinit.WaitForInterrupt = SDMMC_WAIT_NO;
 8007c74:	2300      	movs	r3, #0
 8007c76:	9304      	str	r3, [sp, #16]
  sdmmc_cmdinit.CPSM             = SDMMC_CPSM_ENABLE;
 8007c78:	f44f 6380 	mov.w	r3, #1024	@ 0x400
 8007c7c:	9305      	str	r3, [sp, #20]
  (void)SDMMC_SendCommand(SDMMCx, &sdmmc_cmdinit);
 8007c7e:	a901      	add	r1, sp, #4
 8007c80:	f7ff fd7c 	bl	800777c <SDMMC_SendCommand>
  errorstate = SDMMC_GetCmdResp3(SDMMCx);
 8007c84:	4620      	mov	r0, r4
 8007c86:	f7ff ffc1 	bl	8007c0c <SDMMC_GetCmdResp3>
}
 8007c8a:	b006      	add	sp, #24
 8007c8c:	bd10      	pop	{r4, pc}
	...

08007c90 <SDMMC_GetCmdResp6>:
{
 8007c90:	b570      	push	{r4, r5, r6, lr}
 8007c92:	4604      	mov	r4, r0
 8007c94:	460d      	mov	r5, r1
 8007c96:	4616      	mov	r6, r2
  uint32_t count = SDMMC_CMDTIMEOUT * (SystemCoreClock / 8U / 1000U);
 8007c98:	4b24      	ldr	r3, [pc, #144]	@ (8007d2c <SDMMC_GetCmdResp6+0x9c>)
 8007c9a:	681b      	ldr	r3, [r3, #0]
 8007c9c:	4a24      	ldr	r2, [pc, #144]	@ (8007d30 <SDMMC_GetCmdResp6+0xa0>)
 8007c9e:	fba2 2303 	umull	r2, r3, r2, r3
 8007ca2:	0a5b      	lsrs	r3, r3, #9
 8007ca4:	f241 3288 	movw	r2, #5000	@ 0x1388
 8007ca8:	fb02 f303 	mul.w	r3, r2, r3
    if (count-- == 0U)
 8007cac:	3b01      	subs	r3, #1
 8007cae:	f1b3 3fff 	cmp.w	r3, #4294967295	@ 0xffffffff
 8007cb2:	d031      	beq.n	8007d18 <SDMMC_GetCmdResp6+0x88>
    sta_reg = SDMMCx->STA;
 8007cb4:	6b62      	ldr	r2, [r4, #52]	@ 0x34
  } while (((sta_reg & (SDMMC_FLAG_CCRCFAIL | SDMMC_FLAG_CMDREND | SDMMC_FLAG_CTIMEOUT)) == 0U) ||
 8007cb6:	f012 0f45 	tst.w	r2, #69	@ 0x45
 8007cba:	d0f7      	beq.n	8007cac <SDMMC_GetCmdResp6+0x1c>
 8007cbc:	f412 6f00 	tst.w	r2, #2048	@ 0x800
 8007cc0:	d1f4      	bne.n	8007cac <SDMMC_GetCmdResp6+0x1c>
  if (__SDMMC_GET_FLAG(SDMMCx, SDMMC_FLAG_CTIMEOUT))
 8007cc2:	6b63      	ldr	r3, [r4, #52]	@ 0x34
 8007cc4:	f013 0f04 	tst.w	r3, #4
 8007cc8:	d106      	bne.n	8007cd8 <SDMMC_GetCmdResp6+0x48>
  else if (__SDMMC_GET_FLAG(SDMMCx, SDMMC_FLAG_CCRCFAIL))
 8007cca:	6b60      	ldr	r0, [r4, #52]	@ 0x34
 8007ccc:	f010 0001 	ands.w	r0, r0, #1
 8007cd0:	d005      	beq.n	8007cde <SDMMC_GetCmdResp6+0x4e>
    __SDMMC_CLEAR_FLAG(SDMMCx, SDMMC_FLAG_CCRCFAIL);
 8007cd2:	2301      	movs	r3, #1
 8007cd4:	63a3      	str	r3, [r4, #56]	@ 0x38
    return SDMMC_ERROR_CMD_CRC_FAIL;
 8007cd6:	e021      	b.n	8007d1c <SDMMC_GetCmdResp6+0x8c>
    __SDMMC_CLEAR_FLAG(SDMMCx, SDMMC_FLAG_CTIMEOUT);
 8007cd8:	2004      	movs	r0, #4
 8007cda:	63a0      	str	r0, [r4, #56]	@ 0x38
    return SDMMC_ERROR_CMD_RSP_TIMEOUT;
 8007cdc:	e01e      	b.n	8007d1c <SDMMC_GetCmdResp6+0x8c>
  if (SDMMC_GetCommandResponse(SDMMCx) != SD_CMD)
 8007cde:	4620      	mov	r0, r4
 8007ce0:	f7ff fd5c 	bl	800779c <SDMMC_GetCommandResponse>
 8007ce4:	42a8      	cmp	r0, r5
 8007ce6:	d001      	beq.n	8007cec <SDMMC_GetCmdResp6+0x5c>
    return SDMMC_ERROR_CMD_CRC_FAIL;
 8007ce8:	2001      	movs	r0, #1
 8007cea:	e017      	b.n	8007d1c <SDMMC_GetCmdResp6+0x8c>
  __SDMMC_CLEAR_FLAG(SDMMCx, SDMMC_STATIC_CMD_FLAGS);
 8007cec:	23c5      	movs	r3, #197	@ 0xc5
 8007cee:	63a3      	str	r3, [r4, #56]	@ 0x38
  response_r1 = SDMMC_GetResponse(SDMMCx, SDMMC_RESP1);
 8007cf0:	2100      	movs	r1, #0
 8007cf2:	4620      	mov	r0, r4
 8007cf4:	f7ff fd55 	bl	80077a2 <SDMMC_GetResponse>
 8007cf8:	4603      	mov	r3, r0
  if ((response_r1 & (SDMMC_R6_GENERAL_UNKNOWN_ERROR | SDMMC_R6_ILLEGAL_CMD | SDMMC_R6_COM_CRC_FAILED)) == SDMMC_ALLZERO)
 8007cfa:	f410 4060 	ands.w	r0, r0, #57344	@ 0xe000
 8007cfe:	d008      	beq.n	8007d12 <SDMMC_GetCmdResp6+0x82>
  else if ((response_r1 & SDMMC_R6_ILLEGAL_CMD) == SDMMC_R6_ILLEGAL_CMD)
 8007d00:	f413 4f80 	tst.w	r3, #16384	@ 0x4000
 8007d04:	d10b      	bne.n	8007d1e <SDMMC_GetCmdResp6+0x8e>
  else if ((response_r1 & SDMMC_R6_COM_CRC_FAILED) == SDMMC_R6_COM_CRC_FAILED)
 8007d06:	f413 4f00 	tst.w	r3, #32768	@ 0x8000
 8007d0a:	d00b      	beq.n	8007d24 <SDMMC_GetCmdResp6+0x94>
    return SDMMC_ERROR_COM_CRC_FAILED;
 8007d0c:	f44f 5080 	mov.w	r0, #4096	@ 0x1000
 8007d10:	e004      	b.n	8007d1c <SDMMC_GetCmdResp6+0x8c>
    *pRCA = (uint16_t)(response_r1 >> 16);
 8007d12:	0c1b      	lsrs	r3, r3, #16
 8007d14:	8033      	strh	r3, [r6, #0]
    return SDMMC_ERROR_NONE;
 8007d16:	e001      	b.n	8007d1c <SDMMC_GetCmdResp6+0x8c>
      return SDMMC_ERROR_TIMEOUT;
 8007d18:	f04f 4000 	mov.w	r0, #2147483648	@ 0x80000000
}
 8007d1c:	bd70      	pop	{r4, r5, r6, pc}
    return SDMMC_ERROR_ILLEGAL_CMD;
 8007d1e:	f44f 5000 	mov.w	r0, #8192	@ 0x2000
 8007d22:	e7fb      	b.n	8007d1c <SDMMC_GetCmdResp6+0x8c>
    return SDMMC_ERROR_GENERAL_UNKNOWN_ERR;
 8007d24:	f44f 3080 	mov.w	r0, #65536	@ 0x10000
 8007d28:	e7f8      	b.n	8007d1c <SDMMC_GetCmdResp6+0x8c>
 8007d2a:	bf00      	nop
 8007d2c:	20000008 	.word	0x20000008
 8007d30:	10624dd3 	.word	0x10624dd3

08007d34 <SDMMC_CmdSetRelAdd>:
{
 8007d34:	b570      	push	{r4, r5, r6, lr}
 8007d36:	b086      	sub	sp, #24
 8007d38:	4606      	mov	r6, r0
 8007d3a:	460d      	mov	r5, r1
  sdmmc_cmdinit.Argument         = 0U;
 8007d3c:	2300      	movs	r3, #0
 8007d3e:	9301      	str	r3, [sp, #4]
  sdmmc_cmdinit.CmdIndex         = SDMMC_CMD_SET_REL_ADDR;
 8007d40:	2403      	movs	r4, #3
 8007d42:	9402      	str	r4, [sp, #8]
  sdmmc_cmdinit.Response         = SDMMC_RESPONSE_SHORT;
 8007d44:	2240      	movs	r2, #64	@ 0x40
 8007d46:	9203      	str	r2, [sp, #12]
  sdmmc_cmdinit.WaitForInterrupt = SDMMC_WAIT_NO;
 8007d48:	9304      	str	r3, [sp, #16]
  sdmmc_cmdinit.CPSM             = SDMMC_CPSM_ENABLE;
 8007d4a:	f44f 6380 	mov.w	r3, #1024	@ 0x400
 8007d4e:	9305      	str	r3, [sp, #20]
  (void)SDMMC_SendCommand(SDMMCx, &sdmmc_cmdinit);
 8007d50:	a901      	add	r1, sp, #4
 8007d52:	f7ff fd13 	bl	800777c <SDMMC_SendCommand>
  errorstate = SDMMC_GetCmdResp6(SDMMCx, SDMMC_CMD_SET_REL_ADDR, pRCA);
 8007d56:	462a      	mov	r2, r5
 8007d58:	4621      	mov	r1, r4
 8007d5a:	4630      	mov	r0, r6
 8007d5c:	f7ff ff98 	bl	8007c90 <SDMMC_GetCmdResp6>
}
 8007d60:	b006      	add	sp, #24
 8007d62:	bd70      	pop	{r4, r5, r6, pc}

08007d64 <SDMMC_GetCmdResp7>:
{
 8007d64:	4601      	mov	r1, r0
  uint32_t count = SDMMC_CMDTIMEOUT * (SystemCoreClock / 8U / 1000U);
 8007d66:	4b17      	ldr	r3, [pc, #92]	@ (8007dc4 <SDMMC_GetCmdResp7+0x60>)
 8007d68:	681b      	ldr	r3, [r3, #0]
 8007d6a:	4a17      	ldr	r2, [pc, #92]	@ (8007dc8 <SDMMC_GetCmdResp7+0x64>)
 8007d6c:	fba2 2303 	umull	r2, r3, r2, r3
 8007d70:	0a5b      	lsrs	r3, r3, #9
 8007d72:	f241 3288 	movw	r2, #5000	@ 0x1388
 8007d76:	fb02 f303 	mul.w	r3, r2, r3
    if (count-- == 0U)
 8007d7a:	3b01      	subs	r3, #1
 8007d7c:	f1b3 3fff 	cmp.w	r3, #4294967295	@ 0xffffffff
 8007d80:	d01b      	beq.n	8007dba <SDMMC_GetCmdResp7+0x56>
    sta_reg = SDMMCx->STA;
 8007d82:	6b4a      	ldr	r2, [r1, #52]	@ 0x34
  } while (((sta_reg & (SDMMC_FLAG_CCRCFAIL | SDMMC_FLAG_CMDREND | SDMMC_FLAG_CTIMEOUT)) == 0U) ||
 8007d84:	f012 0f45 	tst.w	r2, #69	@ 0x45
 8007d88:	d0f7      	beq.n	8007d7a <SDMMC_GetCmdResp7+0x16>
 8007d8a:	f412 6f00 	tst.w	r2, #2048	@ 0x800
 8007d8e:	d1f4      	bne.n	8007d7a <SDMMC_GetCmdResp7+0x16>
  if (__SDMMC_GET_FLAG(SDMMCx, SDMMC_FLAG_CTIMEOUT))
 8007d90:	6b4b      	ldr	r3, [r1, #52]	@ 0x34
 8007d92:	f013 0f04 	tst.w	r3, #4
 8007d96:	d10a      	bne.n	8007dae <SDMMC_GetCmdResp7+0x4a>
  else if (__SDMMC_GET_FLAG(SDMMCx, SDMMC_FLAG_CCRCFAIL))
 8007d98:	6b48      	ldr	r0, [r1, #52]	@ 0x34
 8007d9a:	f010 0001 	ands.w	r0, r0, #1
 8007d9e:	d109      	bne.n	8007db4 <SDMMC_GetCmdResp7+0x50>
  if (__SDMMC_GET_FLAG(SDMMCx, SDMMC_FLAG_CMDREND))
 8007da0:	6b4b      	ldr	r3, [r1, #52]	@ 0x34
 8007da2:	f013 0340 	ands.w	r3, r3, #64	@ 0x40
 8007da6:	d00b      	beq.n	8007dc0 <SDMMC_GetCmdResp7+0x5c>
    __SDMMC_CLEAR_FLAG(SDMMCx, SDMMC_FLAG_CMDREND);
 8007da8:	2340      	movs	r3, #64	@ 0x40
 8007daa:	638b      	str	r3, [r1, #56]	@ 0x38
 8007dac:	4770      	bx	lr
    __SDMMC_CLEAR_FLAG(SDMMCx, SDMMC_FLAG_CTIMEOUT);
 8007dae:	2004      	movs	r0, #4
 8007db0:	6388      	str	r0, [r1, #56]	@ 0x38
    return SDMMC_ERROR_CMD_RSP_TIMEOUT;
 8007db2:	4770      	bx	lr
    __SDMMC_CLEAR_FLAG(SDMMCx, SDMMC_FLAG_CCRCFAIL);
 8007db4:	2301      	movs	r3, #1
 8007db6:	638b      	str	r3, [r1, #56]	@ 0x38
    return SDMMC_ERROR_CMD_CRC_FAIL;
 8007db8:	4770      	bx	lr
      return SDMMC_ERROR_TIMEOUT;
 8007dba:	f04f 4000 	mov.w	r0, #2147483648	@ 0x80000000
 8007dbe:	4770      	bx	lr
  return SDMMC_ERROR_NONE;
 8007dc0:	4618      	mov	r0, r3
}
 8007dc2:	4770      	bx	lr
 8007dc4:	20000008 	.word	0x20000008
 8007dc8:	10624dd3 	.word	0x10624dd3

08007dcc <SDMMC_CmdOperCond>:
{
 8007dcc:	b510      	push	{r4, lr}
 8007dce:	b086      	sub	sp, #24
 8007dd0:	4604      	mov	r4, r0
  sdmmc_cmdinit.Argument         = SDMMC_CHECK_PATTERN;
 8007dd2:	f44f 73d5 	mov.w	r3, #426	@ 0x1aa
 8007dd6:	9301      	str	r3, [sp, #4]
  sdmmc_cmdinit.CmdIndex         = SDMMC_CMD_HS_SEND_EXT_CSD;
 8007dd8:	2308      	movs	r3, #8
 8007dda:	9302      	str	r3, [sp, #8]
  sdmmc_cmdinit.Response         = SDMMC_RESPONSE_SHORT;
 8007ddc:	2340      	movs	r3, #64	@ 0x40
 8007dde:	9303      	str	r3, [sp, #12]
  sdmmc_cmdinit.WaitForInterrupt = SDMMC_WAIT_NO;
 8007de0:	2300      	movs	r3, #0
 8007de2:	9304      	str	r3, [sp, #16]
  sdmmc_cmdinit.CPSM             = SDMMC_CPSM_ENABLE;
 8007de4:	f44f 6380 	mov.w	r3, #1024	@ 0x400
 8007de8:	9305      	str	r3, [sp, #20]
  (void)SDMMC_SendCommand(SDMMCx, &sdmmc_cmdinit);
 8007dea:	a901      	add	r1, sp, #4
 8007dec:	f7ff fcc6 	bl	800777c <SDMMC_SendCommand>
  errorstate = SDMMC_GetCmdResp7(SDMMCx);
 8007df0:	4620      	mov	r0, r4
 8007df2:	f7ff ffb7 	bl	8007d64 <SDMMC_GetCmdResp7>
}
 8007df6:	b006      	add	sp, #24
 8007df8:	bd10      	pop	{r4, pc}
	...

08007dfc <_sbrk>:
 *
 * @param incr Memory size
 * @return Pointer to allocated memory
 */
void *_sbrk(ptrdiff_t incr)
{
 8007dfc:	b508      	push	{r3, lr}
 8007dfe:	4603      	mov	r3, r0
  extern uint8_t _end; /* Symbol defined in the linker script */
  extern uint8_t _estack; /* Symbol defined in the linker script */
  extern uint32_t _Min_Stack_Size; /* Symbol defined in the linker script */
  const uint32_t stack_limit = (uint32_t)&_estack - (uint32_t)&_Min_Stack_Size;
 8007e00:	4a0d      	ldr	r2, [pc, #52]	@ (8007e38 <_sbrk+0x3c>)
 8007e02:	490e      	ldr	r1, [pc, #56]	@ (8007e3c <_sbrk+0x40>)
  const uint8_t *max_heap = (uint8_t *)stack_limit;
  uint8_t *prev_heap_end;

  /* Initialize heap end at first call */
  if (NULL == __sbrk_heap_end)
 8007e04:	480e      	ldr	r0, [pc, #56]	@ (8007e40 <_sbrk+0x44>)
 8007e06:	6800      	ldr	r0, [r0, #0]
 8007e08:	b140      	cbz	r0, 8007e1c <_sbrk+0x20>
  {
    __sbrk_heap_end = &_end;
  }

  /* Protect heap from growing into the reserved MSP stack */
  if (__sbrk_heap_end + incr > max_heap)
 8007e0a:	480d      	ldr	r0, [pc, #52]	@ (8007e40 <_sbrk+0x44>)
 8007e0c:	6800      	ldr	r0, [r0, #0]
 8007e0e:	4403      	add	r3, r0
 8007e10:	1a52      	subs	r2, r2, r1
 8007e12:	4293      	cmp	r3, r2
 8007e14:	d808      	bhi.n	8007e28 <_sbrk+0x2c>
    errno = ENOMEM;
    return (void *)-1;
  }

  prev_heap_end = __sbrk_heap_end;
  __sbrk_heap_end += incr;
 8007e16:	4a0a      	ldr	r2, [pc, #40]	@ (8007e40 <_sbrk+0x44>)
 8007e18:	6013      	str	r3, [r2, #0]

  return (void *)prev_heap_end;
}
 8007e1a:	bd08      	pop	{r3, pc}
    __sbrk_heap_end = &_end;
 8007e1c:	4808      	ldr	r0, [pc, #32]	@ (8007e40 <_sbrk+0x44>)
 8007e1e:	f8df c024 	ldr.w	ip, [pc, #36]	@ 8007e44 <_sbrk+0x48>
 8007e22:	f8c0 c000 	str.w	ip, [r0]
 8007e26:	e7f0      	b.n	8007e0a <_sbrk+0xe>
    errno = ENOMEM;
 8007e28:	f000 f89e 	bl	8007f68 <__errno>
 8007e2c:	230c      	movs	r3, #12
 8007e2e:	6003      	str	r3, [r0, #0]
    return (void *)-1;
 8007e30:	f04f 30ff 	mov.w	r0, #4294967295	@ 0xffffffff
 8007e34:	e7f1      	b.n	8007e1a <_sbrk+0x1e>
 8007e36:	bf00      	nop
 8007e38:	20018000 	.word	0x20018000
 8007e3c:	00000400 	.word	0x00000400
 8007e40:	20001188 	.word	0x20001188
 8007e44:	200012d8 	.word	0x200012d8

08007e48 <SystemInit>:
  SCB->VTOR = VECT_TAB_BASE_ADDRESS | VECT_TAB_OFFSET;
#endif

  /* FPU settings ------------------------------------------------------------*/
#if (__FPU_PRESENT == 1) && (__FPU_USED == 1)
  SCB->CPACR |= ((3UL << 20U)|(3UL << 22U));  /* set CP10 and CP11 Full Access */
 8007e48:	4a03      	ldr	r2, [pc, #12]	@ (8007e58 <SystemInit+0x10>)
 8007e4a:	f8d2 3088 	ldr.w	r3, [r2, #136]	@ 0x88
 8007e4e:	f443 0370 	orr.w	r3, r3, #15728640	@ 0xf00000
 8007e52:	f8c2 3088 	str.w	r3, [r2, #136]	@ 0x88
#endif
}
 8007e56:	4770      	bx	lr
 8007e58:	e000ed00 	.word	0xe000ed00

08007e5c <Reset_Handler>:

    .section	.text.Reset_Handler
	.weak	Reset_Handler
	.type	Reset_Handler, %function
Reset_Handler:
  ldr   sp, =_estack    /* Set stack pointer */
 8007e5c:	f8df d034 	ldr.w	sp, [pc, #52]	@ 8007e94 <LoopForever+0x2>

/* Call the clock system initialization function.*/
    bl  SystemInit
 8007e60:	f7ff fff2 	bl	8007e48 <SystemInit>

/* Copy the data segment initializers from flash to SRAM */
  ldr r0, =_sdata
 8007e64:	480c      	ldr	r0, [pc, #48]	@ (8007e98 <LoopForever+0x6>)
  ldr r1, =_edata
 8007e66:	490d      	ldr	r1, [pc, #52]	@ (8007e9c <LoopForever+0xa>)
  ldr r2, =_sidata
 8007e68:	4a0d      	ldr	r2, [pc, #52]	@ (8007ea0 <LoopForever+0xe>)
  movs r3, #0
 8007e6a:	2300      	movs	r3, #0
  b LoopCopyDataInit
 8007e6c:	e002      	b.n	8007e74 <LoopCopyDataInit>

08007e6e <CopyDataInit>:

CopyDataInit:
  ldr r4, [r2, r3]
 8007e6e:	58d4      	ldr	r4, [r2, r3]
  str r4, [r0, r3]
 8007e70:	50c4      	str	r4, [r0, r3]
  adds r3, r3, #4
 8007e72:	3304      	adds	r3, #4

08007e74 <LoopCopyDataInit>:

LoopCopyDataInit:
  adds r4, r0, r3
 8007e74:	18c4      	adds	r4, r0, r3
  cmp r4, r1
 8007e76:	428c      	cmp	r4, r1
  bcc CopyDataInit
 8007e78:	d3f9      	bcc.n	8007e6e <CopyDataInit>
  
/* Zero fill the bss segment. */
  ldr r2, =_sbss
 8007e7a:	4a0a      	ldr	r2, [pc, #40]	@ (8007ea4 <LoopForever+0x12>)
  ldr r4, =_ebss
 8007e7c:	4c0a      	ldr	r4, [pc, #40]	@ (8007ea8 <LoopForever+0x16>)
  movs r3, #0
 8007e7e:	2300      	movs	r3, #0
  b LoopFillZerobss
 8007e80:	e001      	b.n	8007e86 <LoopFillZerobss>

08007e82 <FillZerobss>:

FillZerobss:
  str  r3, [r2]
 8007e82:	6013      	str	r3, [r2, #0]
  adds r2, r2, #4
 8007e84:	3204      	adds	r2, #4

08007e86 <LoopFillZerobss>:

LoopFillZerobss:
  cmp r2, r4
 8007e86:	42a2      	cmp	r2, r4
  bcc FillZerobss
 8007e88:	d3fb      	bcc.n	8007e82 <FillZerobss>

/* Call static constructors */
    bl __libc_init_array
 8007e8a:	f000 f873 	bl	8007f74 <__libc_init_array>
/* Call the application's entry point.*/
	bl	main
 8007e8e:	f7fb fa8d 	bl	80033ac <main>

08007e92 <LoopForever>:

LoopForever:
    b LoopForever
 8007e92:	e7fe      	b.n	8007e92 <LoopForever>
  ldr   sp, =_estack    /* Set stack pointer */
 8007e94:	20018000 	.word	0x20018000
  ldr r0, =_sdata
 8007e98:	20000000 	.word	0x20000000
  ldr r1, =_edata
 8007e9c:	20000060 	.word	0x20000060
  ldr r2, =_sidata
 8007ea0:	080093f0 	.word	0x080093f0
  ldr r2, =_sbss
 8007ea4:	20000060 	.word	0x20000060
  ldr r4, =_ebss
 8007ea8:	200012d4 	.word	0x200012d4

08007eac <ADC1_2_IRQHandler>:
 * @retval : None
*/
    .section	.text.Default_Handler,"ax",%progbits
Default_Handler:
Infinite_Loop:
	b	Infinite_Loop
 8007eac:	e7fe      	b.n	8007eac <ADC1_2_IRQHandler>
	...

08007eb0 <sniprintf>:
 8007eb0:	b40c      	push	{r2, r3}
 8007eb2:	b530      	push	{r4, r5, lr}
 8007eb4:	4b15      	ldr	r3, [pc, #84]	@ (8007f0c <sniprintf+0x5c>)
 8007eb6:	1e0c      	subs	r4, r1, #0
 8007eb8:	681d      	ldr	r5, [r3, #0]
 8007eba:	b09d      	sub	sp, #116	@ 0x74
 8007ebc:	da08      	bge.n	8007ed0 <sniprintf+0x20>
 8007ebe:	238b      	movs	r3, #139	@ 0x8b
 8007ec0:	602b      	str	r3, [r5, #0]
 8007ec2:	f04f 30ff 	mov.w	r0, #4294967295	@ 0xffffffff
 8007ec6:	b01d      	add	sp, #116	@ 0x74
 8007ec8:	e8bd 4030 	ldmia.w	sp!, {r4, r5, lr}
 8007ecc:	b002      	add	sp, #8
 8007ece:	4770      	bx	lr
 8007ed0:	f04f 0300 	mov.w	r3, #0
 8007ed4:	931b      	str	r3, [sp, #108]	@ 0x6c
 8007ed6:	bf18      	it	ne
 8007ed8:	2301      	movne	r3, #1
 8007eda:	1ae3      	subs	r3, r4, r3
 8007edc:	9304      	str	r3, [sp, #16]
 8007ede:	9307      	str	r3, [sp, #28]
 8007ee0:	4b0b      	ldr	r3, [pc, #44]	@ (8007f10 <sniprintf+0x60>)
 8007ee2:	9002      	str	r0, [sp, #8]
 8007ee4:	9006      	str	r0, [sp, #24]
 8007ee6:	9305      	str	r3, [sp, #20]
 8007ee8:	9a20      	ldr	r2, [sp, #128]	@ 0x80
 8007eea:	ab21      	add	r3, sp, #132	@ 0x84
 8007eec:	a902      	add	r1, sp, #8
 8007eee:	4628      	mov	r0, r5
 8007ef0:	9301      	str	r3, [sp, #4]
 8007ef2:	f000 f9c9 	bl	8008288 <_svfiprintf_r>
 8007ef6:	1c43      	adds	r3, r0, #1
 8007ef8:	bfbc      	itt	lt
 8007efa:	238b      	movlt	r3, #139	@ 0x8b
 8007efc:	602b      	strlt	r3, [r5, #0]
 8007efe:	2c00      	cmp	r4, #0
 8007f00:	d0e1      	beq.n	8007ec6 <sniprintf+0x16>
 8007f02:	9b02      	ldr	r3, [sp, #8]
 8007f04:	2200      	movs	r2, #0
 8007f06:	701a      	strb	r2, [r3, #0]
 8007f08:	e7dd      	b.n	8007ec6 <sniprintf+0x16>
 8007f0a:	bf00      	nop
 8007f0c:	2000000c 	.word	0x2000000c
 8007f10:	ffff0208 	.word	0xffff0208

08007f14 <siprintf>:
 8007f14:	b40e      	push	{r1, r2, r3}
 8007f16:	b510      	push	{r4, lr}
 8007f18:	b09d      	sub	sp, #116	@ 0x74
 8007f1a:	ab1f      	add	r3, sp, #124	@ 0x7c
 8007f1c:	9002      	str	r0, [sp, #8]
 8007f1e:	9006      	str	r0, [sp, #24]
 8007f20:	f06f 4100 	mvn.w	r1, #2147483648	@ 0x80000000
 8007f24:	480a      	ldr	r0, [pc, #40]	@ (8007f50 <siprintf+0x3c>)
 8007f26:	9107      	str	r1, [sp, #28]
 8007f28:	9104      	str	r1, [sp, #16]
 8007f2a:	490a      	ldr	r1, [pc, #40]	@ (8007f54 <siprintf+0x40>)
 8007f2c:	f853 2b04 	ldr.w	r2, [r3], #4
 8007f30:	9105      	str	r1, [sp, #20]
 8007f32:	2400      	movs	r4, #0
 8007f34:	a902      	add	r1, sp, #8
 8007f36:	6800      	ldr	r0, [r0, #0]
 8007f38:	9301      	str	r3, [sp, #4]
 8007f3a:	941b      	str	r4, [sp, #108]	@ 0x6c
 8007f3c:	f000 f9a4 	bl	8008288 <_svfiprintf_r>
 8007f40:	9b02      	ldr	r3, [sp, #8]
 8007f42:	701c      	strb	r4, [r3, #0]
 8007f44:	b01d      	add	sp, #116	@ 0x74
 8007f46:	e8bd 4010 	ldmia.w	sp!, {r4, lr}
 8007f4a:	b003      	add	sp, #12
 8007f4c:	4770      	bx	lr
 8007f4e:	bf00      	nop
 8007f50:	2000000c 	.word	0x2000000c
 8007f54:	ffff0208 	.word	0xffff0208

08007f58 <memset>:
 8007f58:	4402      	add	r2, r0
 8007f5a:	4603      	mov	r3, r0
 8007f5c:	4293      	cmp	r3, r2
 8007f5e:	d100      	bne.n	8007f62 <memset+0xa>
 8007f60:	4770      	bx	lr
 8007f62:	f803 1b01 	strb.w	r1, [r3], #1
 8007f66:	e7f9      	b.n	8007f5c <memset+0x4>

08007f68 <__errno>:
 8007f68:	4b01      	ldr	r3, [pc, #4]	@ (8007f70 <__errno+0x8>)
 8007f6a:	6818      	ldr	r0, [r3, #0]
 8007f6c:	4770      	bx	lr
 8007f6e:	bf00      	nop
 8007f70:	2000000c 	.word	0x2000000c

08007f74 <__libc_init_array>:
 8007f74:	b570      	push	{r4, r5, r6, lr}
 8007f76:	4b0d      	ldr	r3, [pc, #52]	@ (8007fac <__libc_init_array+0x38>)
 8007f78:	4c0d      	ldr	r4, [pc, #52]	@ (8007fb0 <__libc_init_array+0x3c>)
 8007f7a:	2600      	movs	r6, #0
 8007f7c:	1b1d      	subs	r5, r3, r4
 8007f7e:	ebb6 0fa5 	cmp.w	r6, r5, asr #2
 8007f82:	d109      	bne.n	8007f98 <__libc_init_array+0x24>
 8007f84:	f000 fe08 	bl	8008b98 <_init>
 8007f88:	4c0a      	ldr	r4, [pc, #40]	@ (8007fb4 <__libc_init_array+0x40>)
 8007f8a:	4b0b      	ldr	r3, [pc, #44]	@ (8007fb8 <__libc_init_array+0x44>)
 8007f8c:	2600      	movs	r6, #0
 8007f8e:	1b1d      	subs	r5, r3, r4
 8007f90:	ebb6 0fa5 	cmp.w	r6, r5, asr #2
 8007f94:	d105      	bne.n	8007fa2 <__libc_init_array+0x2e>
 8007f96:	bd70      	pop	{r4, r5, r6, pc}
 8007f98:	f854 3b04 	ldr.w	r3, [r4], #4
 8007f9c:	4798      	blx	r3
 8007f9e:	3601      	adds	r6, #1
 8007fa0:	e7ed      	b.n	8007f7e <__libc_init_array+0xa>
 8007fa2:	f854 3b04 	ldr.w	r3, [r4], #4
 8007fa6:	4798      	blx	r3
 8007fa8:	3601      	adds	r6, #1
 8007faa:	e7f1      	b.n	8007f90 <__libc_init_array+0x1c>
 8007fac:	080093e0 	.word	0x080093e0
 8007fb0:	080093e0 	.word	0x080093e0
 8007fb4:	080093e0 	.word	0x080093e0
 8007fb8:	080093e4 	.word	0x080093e4

08007fbc <__retarget_lock_acquire_recursive>:
 8007fbc:	4770      	bx	lr

08007fbe <__retarget_lock_release_recursive>:
 8007fbe:	4770      	bx	lr

08007fc0 <memcpy>:
 8007fc0:	440a      	add	r2, r1
 8007fc2:	4291      	cmp	r1, r2
 8007fc4:	f100 33ff 	add.w	r3, r0, #4294967295	@ 0xffffffff
 8007fc8:	d100      	bne.n	8007fcc <memcpy+0xc>
 8007fca:	4770      	bx	lr
 8007fcc:	b510      	push	{r4, lr}
 8007fce:	f811 4b01 	ldrb.w	r4, [r1], #1
 8007fd2:	f803 4f01 	strb.w	r4, [r3, #1]!
 8007fd6:	4291      	cmp	r1, r2
 8007fd8:	d1f9      	bne.n	8007fce <memcpy+0xe>
 8007fda:	bd10      	pop	{r4, pc}

08007fdc <_free_r>:
 8007fdc:	b537      	push	{r0, r1, r2, r4, r5, lr}
 8007fde:	2900      	cmp	r1, #0
 8007fe0:	d044      	beq.n	800806c <_free_r+0x90>
 8007fe2:	f851 3c04 	ldr.w	r3, [r1, #-4]
 8007fe6:	9001      	str	r0, [sp, #4]
 8007fe8:	2b00      	cmp	r3, #0
 8007fea:	f1a1 0404 	sub.w	r4, r1, #4
 8007fee:	bfb8      	it	lt
 8007ff0:	18e4      	addlt	r4, r4, r3
 8007ff2:	f000 f8dd 	bl	80081b0 <__malloc_lock>
 8007ff6:	4a1e      	ldr	r2, [pc, #120]	@ (8008070 <_free_r+0x94>)
 8007ff8:	9801      	ldr	r0, [sp, #4]
 8007ffa:	6813      	ldr	r3, [r2, #0]
 8007ffc:	b933      	cbnz	r3, 800800c <_free_r+0x30>
 8007ffe:	6063      	str	r3, [r4, #4]
 8008000:	6014      	str	r4, [r2, #0]
 8008002:	b003      	add	sp, #12
 8008004:	e8bd 4030 	ldmia.w	sp!, {r4, r5, lr}
 8008008:	f000 b8d8 	b.w	80081bc <__malloc_unlock>
 800800c:	42a3      	cmp	r3, r4
 800800e:	d908      	bls.n	8008022 <_free_r+0x46>
 8008010:	6825      	ldr	r5, [r4, #0]
 8008012:	1961      	adds	r1, r4, r5
 8008014:	428b      	cmp	r3, r1
 8008016:	bf01      	itttt	eq
 8008018:	6819      	ldreq	r1, [r3, #0]
 800801a:	685b      	ldreq	r3, [r3, #4]
 800801c:	1949      	addeq	r1, r1, r5
 800801e:	6021      	streq	r1, [r4, #0]
 8008020:	e7ed      	b.n	8007ffe <_free_r+0x22>
 8008022:	461a      	mov	r2, r3
 8008024:	685b      	ldr	r3, [r3, #4]
 8008026:	b10b      	cbz	r3, 800802c <_free_r+0x50>
 8008028:	42a3      	cmp	r3, r4
 800802a:	d9fa      	bls.n	8008022 <_free_r+0x46>
 800802c:	6811      	ldr	r1, [r2, #0]
 800802e:	1855      	adds	r5, r2, r1
 8008030:	42a5      	cmp	r5, r4
 8008032:	d10b      	bne.n	800804c <_free_r+0x70>
 8008034:	6824      	ldr	r4, [r4, #0]
 8008036:	4421      	add	r1, r4
 8008038:	1854      	adds	r4, r2, r1
 800803a:	42a3      	cmp	r3, r4
 800803c:	6011      	str	r1, [r2, #0]
 800803e:	d1e0      	bne.n	8008002 <_free_r+0x26>
 8008040:	681c      	ldr	r4, [r3, #0]
 8008042:	685b      	ldr	r3, [r3, #4]
 8008044:	6053      	str	r3, [r2, #4]
 8008046:	440c      	add	r4, r1
 8008048:	6014      	str	r4, [r2, #0]
 800804a:	e7da      	b.n	8008002 <_free_r+0x26>
 800804c:	d902      	bls.n	8008054 <_free_r+0x78>
 800804e:	230c      	movs	r3, #12
 8008050:	6003      	str	r3, [r0, #0]
 8008052:	e7d6      	b.n	8008002 <_free_r+0x26>
 8008054:	6825      	ldr	r5, [r4, #0]
 8008056:	1961      	adds	r1, r4, r5
 8008058:	428b      	cmp	r3, r1
 800805a:	bf04      	itt	eq
 800805c:	6819      	ldreq	r1, [r3, #0]
 800805e:	685b      	ldreq	r3, [r3, #4]
 8008060:	6063      	str	r3, [r4, #4]
 8008062:	bf04      	itt	eq
 8008064:	1949      	addeq	r1, r1, r5
 8008066:	6021      	streq	r1, [r4, #0]
 8008068:	6054      	str	r4, [r2, #4]
 800806a:	e7ca      	b.n	8008002 <_free_r+0x26>
 800806c:	b003      	add	sp, #12
 800806e:	bd30      	pop	{r4, r5, pc}
 8008070:	200012d0 	.word	0x200012d0

08008074 <sbrk_aligned>:
 8008074:	b570      	push	{r4, r5, r6, lr}
 8008076:	4c0f      	ldr	r4, [pc, #60]	@ (80080b4 <sbrk_aligned+0x40>)
 8008078:	460e      	mov	r6, r1
 800807a:	6821      	ldr	r1, [r4, #0]
 800807c:	4605      	mov	r5, r0
 800807e:	b911      	cbnz	r1, 8008086 <sbrk_aligned+0x12>
 8008080:	f000 fbb4 	bl	80087ec <_sbrk_r>
 8008084:	6020      	str	r0, [r4, #0]
 8008086:	4631      	mov	r1, r6
 8008088:	4628      	mov	r0, r5
 800808a:	f000 fbaf 	bl	80087ec <_sbrk_r>
 800808e:	1c43      	adds	r3, r0, #1
 8008090:	d103      	bne.n	800809a <sbrk_aligned+0x26>
 8008092:	f04f 34ff 	mov.w	r4, #4294967295	@ 0xffffffff
 8008096:	4620      	mov	r0, r4
 8008098:	bd70      	pop	{r4, r5, r6, pc}
 800809a:	1cc4      	adds	r4, r0, #3
 800809c:	f024 0403 	bic.w	r4, r4, #3
 80080a0:	42a0      	cmp	r0, r4
 80080a2:	d0f8      	beq.n	8008096 <sbrk_aligned+0x22>
 80080a4:	1a21      	subs	r1, r4, r0
 80080a6:	4628      	mov	r0, r5
 80080a8:	f000 fba0 	bl	80087ec <_sbrk_r>
 80080ac:	3001      	adds	r0, #1
 80080ae:	d1f2      	bne.n	8008096 <sbrk_aligned+0x22>
 80080b0:	e7ef      	b.n	8008092 <sbrk_aligned+0x1e>
 80080b2:	bf00      	nop
 80080b4:	200012cc 	.word	0x200012cc

080080b8 <_malloc_r>:
 80080b8:	e92d 43f8 	stmdb	sp!, {r3, r4, r5, r6, r7, r8, r9, lr}
 80080bc:	1ccd      	adds	r5, r1, #3
 80080be:	f025 0503 	bic.w	r5, r5, #3
 80080c2:	3508      	adds	r5, #8
 80080c4:	2d0c      	cmp	r5, #12
 80080c6:	bf38      	it	cc
 80080c8:	250c      	movcc	r5, #12
 80080ca:	2d00      	cmp	r5, #0
 80080cc:	4606      	mov	r6, r0
 80080ce:	db01      	blt.n	80080d4 <_malloc_r+0x1c>
 80080d0:	42a9      	cmp	r1, r5
 80080d2:	d904      	bls.n	80080de <_malloc_r+0x26>
 80080d4:	230c      	movs	r3, #12
 80080d6:	6033      	str	r3, [r6, #0]
 80080d8:	2000      	movs	r0, #0
 80080da:	e8bd 83f8 	ldmia.w	sp!, {r3, r4, r5, r6, r7, r8, r9, pc}
 80080de:	4f33      	ldr	r7, [pc, #204]	@ (80081ac <_malloc_r+0xf4>)
 80080e0:	f000 f866 	bl	80081b0 <__malloc_lock>
 80080e4:	683b      	ldr	r3, [r7, #0]
 80080e6:	461c      	mov	r4, r3
 80080e8:	bb3c      	cbnz	r4, 800813a <_malloc_r+0x82>
 80080ea:	4629      	mov	r1, r5
 80080ec:	4630      	mov	r0, r6
 80080ee:	f7ff ffc1 	bl	8008074 <sbrk_aligned>
 80080f2:	1c43      	adds	r3, r0, #1
 80080f4:	4604      	mov	r4, r0
 80080f6:	d156      	bne.n	80081a6 <_malloc_r+0xee>
 80080f8:	683c      	ldr	r4, [r7, #0]
 80080fa:	46a0      	mov	r8, r4
 80080fc:	f1b8 0f00 	cmp.w	r8, #0
 8008100:	d140      	bne.n	8008184 <_malloc_r+0xcc>
 8008102:	2c00      	cmp	r4, #0
 8008104:	d049      	beq.n	800819a <_malloc_r+0xe2>
 8008106:	6823      	ldr	r3, [r4, #0]
 8008108:	4641      	mov	r1, r8
 800810a:	4630      	mov	r0, r6
 800810c:	eb04 0903 	add.w	r9, r4, r3
 8008110:	f000 fb6c 	bl	80087ec <_sbrk_r>
 8008114:	4581      	cmp	r9, r0
 8008116:	d140      	bne.n	800819a <_malloc_r+0xe2>
 8008118:	6821      	ldr	r1, [r4, #0]
 800811a:	1a6d      	subs	r5, r5, r1
 800811c:	4629      	mov	r1, r5
 800811e:	4630      	mov	r0, r6
 8008120:	f7ff ffa8 	bl	8008074 <sbrk_aligned>
 8008124:	3001      	adds	r0, #1
 8008126:	d038      	beq.n	800819a <_malloc_r+0xe2>
 8008128:	6823      	ldr	r3, [r4, #0]
 800812a:	442b      	add	r3, r5
 800812c:	6023      	str	r3, [r4, #0]
 800812e:	683b      	ldr	r3, [r7, #0]
 8008130:	685a      	ldr	r2, [r3, #4]
 8008132:	bb5a      	cbnz	r2, 800818c <_malloc_r+0xd4>
 8008134:	f8c7 8000 	str.w	r8, [r7]
 8008138:	e00e      	b.n	8008158 <_malloc_r+0xa0>
 800813a:	6822      	ldr	r2, [r4, #0]
 800813c:	1b52      	subs	r2, r2, r5
 800813e:	d41e      	bmi.n	800817e <_malloc_r+0xc6>
 8008140:	2a0b      	cmp	r2, #11
 8008142:	d916      	bls.n	8008172 <_malloc_r+0xba>
 8008144:	1961      	adds	r1, r4, r5
 8008146:	42a3      	cmp	r3, r4
 8008148:	6025      	str	r5, [r4, #0]
 800814a:	bf18      	it	ne
 800814c:	6059      	strne	r1, [r3, #4]
 800814e:	6863      	ldr	r3, [r4, #4]
 8008150:	bf08      	it	eq
 8008152:	6039      	streq	r1, [r7, #0]
 8008154:	5162      	str	r2, [r4, r5]
 8008156:	604b      	str	r3, [r1, #4]
 8008158:	4630      	mov	r0, r6
 800815a:	f000 f82f 	bl	80081bc <__malloc_unlock>
 800815e:	f104 000b 	add.w	r0, r4, #11
 8008162:	1d23      	adds	r3, r4, #4
 8008164:	f020 0007 	bic.w	r0, r0, #7
 8008168:	1ac2      	subs	r2, r0, r3
 800816a:	bf1c      	itt	ne
 800816c:	1a1b      	subne	r3, r3, r0
 800816e:	50a3      	strne	r3, [r4, r2]
 8008170:	e7b3      	b.n	80080da <_malloc_r+0x22>
 8008172:	6862      	ldr	r2, [r4, #4]
 8008174:	42a3      	cmp	r3, r4
 8008176:	bf0c      	ite	eq
 8008178:	603a      	streq	r2, [r7, #0]
 800817a:	605a      	strne	r2, [r3, #4]
 800817c:	e7ec      	b.n	8008158 <_malloc_r+0xa0>
 800817e:	4623      	mov	r3, r4
 8008180:	6864      	ldr	r4, [r4, #4]
 8008182:	e7b1      	b.n	80080e8 <_malloc_r+0x30>
 8008184:	4644      	mov	r4, r8
 8008186:	f8d8 8004 	ldr.w	r8, [r8, #4]
 800818a:	e7b7      	b.n	80080fc <_malloc_r+0x44>
 800818c:	461a      	mov	r2, r3
 800818e:	685b      	ldr	r3, [r3, #4]
 8008190:	42a3      	cmp	r3, r4
 8008192:	d1fb      	bne.n	800818c <_malloc_r+0xd4>
 8008194:	2300      	movs	r3, #0
 8008196:	6053      	str	r3, [r2, #4]
 8008198:	e7de      	b.n	8008158 <_malloc_r+0xa0>
 800819a:	230c      	movs	r3, #12
 800819c:	6033      	str	r3, [r6, #0]
 800819e:	4630      	mov	r0, r6
 80081a0:	f000 f80c 	bl	80081bc <__malloc_unlock>
 80081a4:	e798      	b.n	80080d8 <_malloc_r+0x20>
 80081a6:	6005      	str	r5, [r0, #0]
 80081a8:	e7d6      	b.n	8008158 <_malloc_r+0xa0>
 80081aa:	bf00      	nop
 80081ac:	200012d0 	.word	0x200012d0

080081b0 <__malloc_lock>:
 80081b0:	4801      	ldr	r0, [pc, #4]	@ (80081b8 <__malloc_lock+0x8>)
 80081b2:	f7ff bf03 	b.w	8007fbc <__retarget_lock_acquire_recursive>
 80081b6:	bf00      	nop
 80081b8:	200012c8 	.word	0x200012c8

080081bc <__malloc_unlock>:
 80081bc:	4801      	ldr	r0, [pc, #4]	@ (80081c4 <__malloc_unlock+0x8>)
 80081be:	f7ff befe 	b.w	8007fbe <__retarget_lock_release_recursive>
 80081c2:	bf00      	nop
 80081c4:	200012c8 	.word	0x200012c8

080081c8 <__ssputs_r>:
 80081c8:	e92d 47f0 	stmdb	sp!, {r4, r5, r6, r7, r8, r9, sl, lr}
 80081cc:	688e      	ldr	r6, [r1, #8]
 80081ce:	461f      	mov	r7, r3
 80081d0:	42be      	cmp	r6, r7
 80081d2:	4682      	mov	sl, r0
 80081d4:	460c      	mov	r4, r1
 80081d6:	4690      	mov	r8, r2
 80081d8:	4633      	mov	r3, r6
 80081da:	d853      	bhi.n	8008284 <__ssputs_r+0xbc>
 80081dc:	f9b1 000c 	ldrsh.w	r0, [r1, #12]
 80081e0:	f410 6f90 	tst.w	r0, #1152	@ 0x480
 80081e4:	d02b      	beq.n	800823e <__ssputs_r+0x76>
 80081e6:	6965      	ldr	r5, [r4, #20]
 80081e8:	6823      	ldr	r3, [r4, #0]
 80081ea:	6909      	ldr	r1, [r1, #16]
 80081ec:	eb05 0545 	add.w	r5, r5, r5, lsl #1
 80081f0:	eba3 0901 	sub.w	r9, r3, r1
 80081f4:	eb05 75d5 	add.w	r5, r5, r5, lsr #31
 80081f8:	1c7b      	adds	r3, r7, #1
 80081fa:	106d      	asrs	r5, r5, #1
 80081fc:	444b      	add	r3, r9
 80081fe:	42ab      	cmp	r3, r5
 8008200:	462a      	mov	r2, r5
 8008202:	bf84      	itt	hi
 8008204:	461d      	movhi	r5, r3
 8008206:	462a      	movhi	r2, r5
 8008208:	0543      	lsls	r3, r0, #21
 800820a:	d527      	bpl.n	800825c <__ssputs_r+0x94>
 800820c:	4611      	mov	r1, r2
 800820e:	4650      	mov	r0, sl
 8008210:	f7ff ff52 	bl	80080b8 <_malloc_r>
 8008214:	4606      	mov	r6, r0
 8008216:	b358      	cbz	r0, 8008270 <__ssputs_r+0xa8>
 8008218:	6921      	ldr	r1, [r4, #16]
 800821a:	464a      	mov	r2, r9
 800821c:	f7ff fed0 	bl	8007fc0 <memcpy>
 8008220:	89a3      	ldrh	r3, [r4, #12]
 8008222:	f423 6390 	bic.w	r3, r3, #1152	@ 0x480
 8008226:	f043 0380 	orr.w	r3, r3, #128	@ 0x80
 800822a:	81a3      	strh	r3, [r4, #12]
 800822c:	6126      	str	r6, [r4, #16]
 800822e:	6165      	str	r5, [r4, #20]
 8008230:	444e      	add	r6, r9
 8008232:	eba5 0509 	sub.w	r5, r5, r9
 8008236:	6026      	str	r6, [r4, #0]
 8008238:	60a5      	str	r5, [r4, #8]
 800823a:	463e      	mov	r6, r7
 800823c:	463b      	mov	r3, r7
 800823e:	461f      	mov	r7, r3
 8008240:	6820      	ldr	r0, [r4, #0]
 8008242:	463a      	mov	r2, r7
 8008244:	4641      	mov	r1, r8
 8008246:	f000 fab7 	bl	80087b8 <memmove>
 800824a:	68a3      	ldr	r3, [r4, #8]
 800824c:	1b9b      	subs	r3, r3, r6
 800824e:	60a3      	str	r3, [r4, #8]
 8008250:	6823      	ldr	r3, [r4, #0]
 8008252:	443b      	add	r3, r7
 8008254:	6023      	str	r3, [r4, #0]
 8008256:	2000      	movs	r0, #0
 8008258:	e8bd 87f0 	ldmia.w	sp!, {r4, r5, r6, r7, r8, r9, sl, pc}
 800825c:	4650      	mov	r0, sl
 800825e:	f000 fad5 	bl	800880c <_realloc_r>
 8008262:	4606      	mov	r6, r0
 8008264:	2800      	cmp	r0, #0
 8008266:	d1e1      	bne.n	800822c <__ssputs_r+0x64>
 8008268:	6921      	ldr	r1, [r4, #16]
 800826a:	4650      	mov	r0, sl
 800826c:	f7ff feb6 	bl	8007fdc <_free_r>
 8008270:	230c      	movs	r3, #12
 8008272:	f8ca 3000 	str.w	r3, [sl]
 8008276:	89a3      	ldrh	r3, [r4, #12]
 8008278:	f043 0340 	orr.w	r3, r3, #64	@ 0x40
 800827c:	81a3      	strh	r3, [r4, #12]
 800827e:	f04f 30ff 	mov.w	r0, #4294967295	@ 0xffffffff
 8008282:	e7e9      	b.n	8008258 <__ssputs_r+0x90>
 8008284:	463e      	mov	r6, r7
 8008286:	e7db      	b.n	8008240 <__ssputs_r+0x78>

08008288 <_svfiprintf_r>:
 8008288:	e92d 47f0 	stmdb	sp!, {r4, r5, r6, r7, r8, r9, sl, lr}
 800828c:	461f      	mov	r7, r3
 800828e:	898b      	ldrh	r3, [r1, #12]
 8008290:	061b      	lsls	r3, r3, #24
 8008292:	b09c      	sub	sp, #112	@ 0x70
 8008294:	4606      	mov	r6, r0
 8008296:	460d      	mov	r5, r1
 8008298:	4614      	mov	r4, r2
 800829a:	d510      	bpl.n	80082be <_svfiprintf_r+0x36>
 800829c:	690b      	ldr	r3, [r1, #16]
 800829e:	b973      	cbnz	r3, 80082be <_svfiprintf_r+0x36>
 80082a0:	2140      	movs	r1, #64	@ 0x40
 80082a2:	f7ff ff09 	bl	80080b8 <_malloc_r>
 80082a6:	6028      	str	r0, [r5, #0]
 80082a8:	6128      	str	r0, [r5, #16]
 80082aa:	b930      	cbnz	r0, 80082ba <_svfiprintf_r+0x32>
 80082ac:	230c      	movs	r3, #12
 80082ae:	6033      	str	r3, [r6, #0]
 80082b0:	f04f 30ff 	mov.w	r0, #4294967295	@ 0xffffffff
 80082b4:	b01c      	add	sp, #112	@ 0x70
 80082b6:	e8bd 87f0 	ldmia.w	sp!, {r4, r5, r6, r7, r8, r9, sl, pc}
 80082ba:	2340      	movs	r3, #64	@ 0x40
 80082bc:	616b      	str	r3, [r5, #20]
 80082be:	2300      	movs	r3, #0
 80082c0:	9309      	str	r3, [sp, #36]	@ 0x24
 80082c2:	2320      	movs	r3, #32
 80082c4:	f88d 3029 	strb.w	r3, [sp, #41]	@ 0x29
 80082c8:	9703      	str	r7, [sp, #12]
 80082ca:	2330      	movs	r3, #48	@ 0x30
 80082cc:	4f65      	ldr	r7, [pc, #404]	@ (8008464 <_svfiprintf_r+0x1dc>)
 80082ce:	f88d 302a 	strb.w	r3, [sp, #42]	@ 0x2a
 80082d2:	f04f 0801 	mov.w	r8, #1
 80082d6:	4623      	mov	r3, r4
 80082d8:	781a      	ldrb	r2, [r3, #0]
 80082da:	4699      	mov	r9, r3
 80082dc:	b11a      	cbz	r2, 80082e6 <_svfiprintf_r+0x5e>
 80082de:	2a25      	cmp	r2, #37	@ 0x25
 80082e0:	f103 0301 	add.w	r3, r3, #1
 80082e4:	d1f8      	bne.n	80082d8 <_svfiprintf_r+0x50>
 80082e6:	ebb9 0a04 	subs.w	sl, r9, r4
 80082ea:	d00b      	beq.n	8008304 <_svfiprintf_r+0x7c>
 80082ec:	4653      	mov	r3, sl
 80082ee:	4622      	mov	r2, r4
 80082f0:	4629      	mov	r1, r5
 80082f2:	4630      	mov	r0, r6
 80082f4:	f7ff ff68 	bl	80081c8 <__ssputs_r>
 80082f8:	3001      	adds	r0, #1
 80082fa:	f000 80a3 	beq.w	8008444 <_svfiprintf_r+0x1bc>
 80082fe:	9a09      	ldr	r2, [sp, #36]	@ 0x24
 8008300:	4452      	add	r2, sl
 8008302:	9209      	str	r2, [sp, #36]	@ 0x24
 8008304:	f899 3000 	ldrb.w	r3, [r9]
 8008308:	2b00      	cmp	r3, #0
 800830a:	f000 809b 	beq.w	8008444 <_svfiprintf_r+0x1bc>
 800830e:	2200      	movs	r2, #0
 8008310:	f04f 33ff 	mov.w	r3, #4294967295	@ 0xffffffff
 8008314:	e9cd 3205 	strd	r3, r2, [sp, #20]
 8008318:	f109 0901 	add.w	r9, r9, #1
 800831c:	9204      	str	r2, [sp, #16]
 800831e:	9207      	str	r2, [sp, #28]
 8008320:	f88d 2053 	strb.w	r2, [sp, #83]	@ 0x53
 8008324:	921a      	str	r2, [sp, #104]	@ 0x68
 8008326:	464c      	mov	r4, r9
 8008328:	2205      	movs	r2, #5
 800832a:	f814 1b01 	ldrb.w	r1, [r4], #1
 800832e:	484d      	ldr	r0, [pc, #308]	@ (8008464 <_svfiprintf_r+0x1dc>)
 8008330:	f7f7 ff36 	bl	80001a0 <memchr>
 8008334:	9a04      	ldr	r2, [sp, #16]
 8008336:	b9d0      	cbnz	r0, 800836e <_svfiprintf_r+0xe6>
 8008338:	06d0      	lsls	r0, r2, #27
 800833a:	bf44      	itt	mi
 800833c:	2320      	movmi	r3, #32
 800833e:	f88d 3053 	strbmi.w	r3, [sp, #83]	@ 0x53
 8008342:	0711      	lsls	r1, r2, #28
 8008344:	bf44      	itt	mi
 8008346:	232b      	movmi	r3, #43	@ 0x2b
 8008348:	f88d 3053 	strbmi.w	r3, [sp, #83]	@ 0x53
 800834c:	f899 3000 	ldrb.w	r3, [r9]
 8008350:	2b2a      	cmp	r3, #42	@ 0x2a
 8008352:	d013      	beq.n	800837c <_svfiprintf_r+0xf4>
 8008354:	9907      	ldr	r1, [sp, #28]
 8008356:	464b      	mov	r3, r9
 8008358:	2000      	movs	r0, #0
 800835a:	f04f 0c0a 	mov.w	ip, #10
 800835e:	781a      	ldrb	r2, [r3, #0]
 8008360:	3a30      	subs	r2, #48	@ 0x30
 8008362:	2a09      	cmp	r2, #9
 8008364:	461c      	mov	r4, r3
 8008366:	d94a      	bls.n	80083fe <_svfiprintf_r+0x176>
 8008368:	b1a8      	cbz	r0, 8008396 <_svfiprintf_r+0x10e>
 800836a:	9107      	str	r1, [sp, #28]
 800836c:	e013      	b.n	8008396 <_svfiprintf_r+0x10e>
 800836e:	1bc0      	subs	r0, r0, r7
 8008370:	fa08 f000 	lsl.w	r0, r8, r0
 8008374:	4310      	orrs	r0, r2
 8008376:	9004      	str	r0, [sp, #16]
 8008378:	46a1      	mov	r9, r4
 800837a:	e7d4      	b.n	8008326 <_svfiprintf_r+0x9e>
 800837c:	9b03      	ldr	r3, [sp, #12]
 800837e:	1d19      	adds	r1, r3, #4
 8008380:	681b      	ldr	r3, [r3, #0]
 8008382:	9103      	str	r1, [sp, #12]
 8008384:	2b00      	cmp	r3, #0
 8008386:	bfbb      	ittet	lt
 8008388:	425b      	neglt	r3, r3
 800838a:	f042 0202 	orrlt.w	r2, r2, #2
 800838e:	9307      	strge	r3, [sp, #28]
 8008390:	9307      	strlt	r3, [sp, #28]
 8008392:	bfb8      	it	lt
 8008394:	9204      	strlt	r2, [sp, #16]
 8008396:	7823      	ldrb	r3, [r4, #0]
 8008398:	2b2e      	cmp	r3, #46	@ 0x2e
 800839a:	d10a      	bne.n	80083b2 <_svfiprintf_r+0x12a>
 800839c:	7863      	ldrb	r3, [r4, #1]
 800839e:	2b2a      	cmp	r3, #42	@ 0x2a
 80083a0:	d132      	bne.n	8008408 <_svfiprintf_r+0x180>
 80083a2:	9b03      	ldr	r3, [sp, #12]
 80083a4:	1d1a      	adds	r2, r3, #4
 80083a6:	681b      	ldr	r3, [r3, #0]
 80083a8:	9203      	str	r2, [sp, #12]
 80083aa:	ea43 73e3 	orr.w	r3, r3, r3, asr #31
 80083ae:	3402      	adds	r4, #2
 80083b0:	9305      	str	r3, [sp, #20]
 80083b2:	f8df 90c0 	ldr.w	r9, [pc, #192]	@ 8008474 <_svfiprintf_r+0x1ec>
 80083b6:	7821      	ldrb	r1, [r4, #0]
 80083b8:	2203      	movs	r2, #3
 80083ba:	4648      	mov	r0, r9
 80083bc:	f7f7 fef0 	bl	80001a0 <memchr>
 80083c0:	b138      	cbz	r0, 80083d2 <_svfiprintf_r+0x14a>
 80083c2:	9b04      	ldr	r3, [sp, #16]
 80083c4:	eba0 0009 	sub.w	r0, r0, r9
 80083c8:	2240      	movs	r2, #64	@ 0x40
 80083ca:	4082      	lsls	r2, r0
 80083cc:	4313      	orrs	r3, r2
 80083ce:	3401      	adds	r4, #1
 80083d0:	9304      	str	r3, [sp, #16]
 80083d2:	7821      	ldrb	r1, [r4, #0]
 80083d4:	4824      	ldr	r0, [pc, #144]	@ (8008468 <_svfiprintf_r+0x1e0>)
 80083d6:	f88d 1028 	strb.w	r1, [sp, #40]	@ 0x28
 80083da:	2206      	movs	r2, #6
 80083dc:	f7f7 fee0 	bl	80001a0 <memchr>
 80083e0:	2800      	cmp	r0, #0
 80083e2:	d035      	beq.n	8008450 <_svfiprintf_r+0x1c8>
 80083e4:	4821      	ldr	r0, [pc, #132]	@ (800846c <_svfiprintf_r+0x1e4>)
 80083e6:	bb18      	cbnz	r0, 8008430 <_svfiprintf_r+0x1a8>
 80083e8:	9b03      	ldr	r3, [sp, #12]
 80083ea:	3307      	adds	r3, #7
 80083ec:	f023 0307 	bic.w	r3, r3, #7
 80083f0:	3308      	adds	r3, #8
 80083f2:	9303      	str	r3, [sp, #12]
 80083f4:	9b09      	ldr	r3, [sp, #36]	@ 0x24
 80083f6:	4403      	add	r3, r0
 80083f8:	3401      	adds	r4, #1
 80083fa:	9309      	str	r3, [sp, #36]	@ 0x24
 80083fc:	e76b      	b.n	80082d6 <_svfiprintf_r+0x4e>
 80083fe:	3301      	adds	r3, #1
 8008400:	fb0c 2101 	mla	r1, ip, r1, r2
 8008404:	2001      	movs	r0, #1
 8008406:	e7aa      	b.n	800835e <_svfiprintf_r+0xd6>
 8008408:	2300      	movs	r3, #0
 800840a:	9305      	str	r3, [sp, #20]
 800840c:	1c61      	adds	r1, r4, #1
 800840e:	4618      	mov	r0, r3
 8008410:	f04f 0c0a 	mov.w	ip, #10
 8008414:	780a      	ldrb	r2, [r1, #0]
 8008416:	3a30      	subs	r2, #48	@ 0x30
 8008418:	2a09      	cmp	r2, #9
 800841a:	460c      	mov	r4, r1
 800841c:	d903      	bls.n	8008426 <_svfiprintf_r+0x19e>
 800841e:	2b00      	cmp	r3, #0
 8008420:	d0c7      	beq.n	80083b2 <_svfiprintf_r+0x12a>
 8008422:	9005      	str	r0, [sp, #20]
 8008424:	e7c5      	b.n	80083b2 <_svfiprintf_r+0x12a>
 8008426:	3101      	adds	r1, #1
 8008428:	fb0c 2000 	mla	r0, ip, r0, r2
 800842c:	2301      	movs	r3, #1
 800842e:	e7f1      	b.n	8008414 <_svfiprintf_r+0x18c>
 8008430:	ab03      	add	r3, sp, #12
 8008432:	9300      	str	r3, [sp, #0]
 8008434:	462a      	mov	r2, r5
 8008436:	4b0e      	ldr	r3, [pc, #56]	@ (8008470 <_svfiprintf_r+0x1e8>)
 8008438:	a904      	add	r1, sp, #16
 800843a:	4630      	mov	r0, r6
 800843c:	f3af 8000 	nop.w
 8008440:	1c42      	adds	r2, r0, #1
 8008442:	d1d7      	bne.n	80083f4 <_svfiprintf_r+0x16c>
 8008444:	89ab      	ldrh	r3, [r5, #12]
 8008446:	065b      	lsls	r3, r3, #25
 8008448:	f53f af32 	bmi.w	80082b0 <_svfiprintf_r+0x28>
 800844c:	9809      	ldr	r0, [sp, #36]	@ 0x24
 800844e:	e731      	b.n	80082b4 <_svfiprintf_r+0x2c>
 8008450:	ab03      	add	r3, sp, #12
 8008452:	9300      	str	r3, [sp, #0]
 8008454:	462a      	mov	r2, r5
 8008456:	4b06      	ldr	r3, [pc, #24]	@ (8008470 <_svfiprintf_r+0x1e8>)
 8008458:	a904      	add	r1, sp, #16
 800845a:	4630      	mov	r0, r6
 800845c:	f000 f882 	bl	8008564 <_printf_i>
 8008460:	e7ee      	b.n	8008440 <_svfiprintf_r+0x1b8>
 8008462:	bf00      	nop
 8008464:	080093a0 	.word	0x080093a0
 8008468:	080093aa 	.word	0x080093aa
 800846c:	00000000 	.word	0x00000000
 8008470:	080081c9 	.word	0x080081c9
 8008474:	080093a6 	.word	0x080093a6

08008478 <_printf_common>:
 8008478:	e92d 47f0 	stmdb	sp!, {r4, r5, r6, r7, r8, r9, sl, lr}
 800847c:	4691      	mov	r9, r2
 800847e:	4698      	mov	r8, r3
 8008480:	688a      	ldr	r2, [r1, #8]
 8008482:	690b      	ldr	r3, [r1, #16]
 8008484:	9e08      	ldr	r6, [sp, #32]
 8008486:	4293      	cmp	r3, r2
 8008488:	bfb8      	it	lt
 800848a:	4613      	movlt	r3, r2
 800848c:	f8c9 3000 	str.w	r3, [r9]
 8008490:	f891 2043 	ldrb.w	r2, [r1, #67]	@ 0x43
 8008494:	4607      	mov	r7, r0
 8008496:	460c      	mov	r4, r1
 8008498:	b112      	cbz	r2, 80084a0 <_printf_common+0x28>
 800849a:	3301      	adds	r3, #1
 800849c:	f8c9 3000 	str.w	r3, [r9]
 80084a0:	6823      	ldr	r3, [r4, #0]
 80084a2:	0699      	lsls	r1, r3, #26
 80084a4:	bf42      	ittt	mi
 80084a6:	f8d9 3000 	ldrmi.w	r3, [r9]
 80084aa:	3302      	addmi	r3, #2
 80084ac:	f8c9 3000 	strmi.w	r3, [r9]
 80084b0:	6825      	ldr	r5, [r4, #0]
 80084b2:	f015 0506 	ands.w	r5, r5, #6
 80084b6:	d107      	bne.n	80084c8 <_printf_common+0x50>
 80084b8:	f104 0a19 	add.w	sl, r4, #25
 80084bc:	68e3      	ldr	r3, [r4, #12]
 80084be:	f8d9 2000 	ldr.w	r2, [r9]
 80084c2:	1a9b      	subs	r3, r3, r2
 80084c4:	42ab      	cmp	r3, r5
 80084c6:	dc29      	bgt.n	800851c <_printf_common+0xa4>
 80084c8:	f894 3043 	ldrb.w	r3, [r4, #67]	@ 0x43
 80084cc:	6822      	ldr	r2, [r4, #0]
 80084ce:	3b00      	subs	r3, #0
 80084d0:	bf18      	it	ne
 80084d2:	2301      	movne	r3, #1
 80084d4:	0692      	lsls	r2, r2, #26
 80084d6:	d42e      	bmi.n	8008536 <_printf_common+0xbe>
 80084d8:	f104 0243 	add.w	r2, r4, #67	@ 0x43
 80084dc:	4641      	mov	r1, r8
 80084de:	4638      	mov	r0, r7
 80084e0:	47b0      	blx	r6
 80084e2:	3001      	adds	r0, #1
 80084e4:	d021      	beq.n	800852a <_printf_common+0xb2>
 80084e6:	6823      	ldr	r3, [r4, #0]
 80084e8:	68a1      	ldr	r1, [r4, #8]
 80084ea:	6922      	ldr	r2, [r4, #16]
 80084ec:	f003 0306 	and.w	r3, r3, #6
 80084f0:	2b04      	cmp	r3, #4
 80084f2:	bf01      	itttt	eq
 80084f4:	68e5      	ldreq	r5, [r4, #12]
 80084f6:	f8d9 3000 	ldreq.w	r3, [r9]
 80084fa:	1aed      	subeq	r5, r5, r3
 80084fc:	ea25 75e5 	biceq.w	r5, r5, r5, asr #31
 8008500:	bf18      	it	ne
 8008502:	2500      	movne	r5, #0
 8008504:	1a8b      	subs	r3, r1, r2
 8008506:	442b      	add	r3, r5
 8008508:	4291      	cmp	r1, r2
 800850a:	bfc8      	it	gt
 800850c:	461d      	movgt	r5, r3
 800850e:	f04f 0900 	mov.w	r9, #0
 8008512:	341a      	adds	r4, #26
 8008514:	454d      	cmp	r5, r9
 8008516:	d11a      	bne.n	800854e <_printf_common+0xd6>
 8008518:	2000      	movs	r0, #0
 800851a:	e008      	b.n	800852e <_printf_common+0xb6>
 800851c:	2301      	movs	r3, #1
 800851e:	4652      	mov	r2, sl
 8008520:	4641      	mov	r1, r8
 8008522:	4638      	mov	r0, r7
 8008524:	47b0      	blx	r6
 8008526:	3001      	adds	r0, #1
 8008528:	d103      	bne.n	8008532 <_printf_common+0xba>
 800852a:	f04f 30ff 	mov.w	r0, #4294967295	@ 0xffffffff
 800852e:	e8bd 87f0 	ldmia.w	sp!, {r4, r5, r6, r7, r8, r9, sl, pc}
 8008532:	3501      	adds	r5, #1
 8008534:	e7c2      	b.n	80084bc <_printf_common+0x44>
 8008536:	18e1      	adds	r1, r4, r3
 8008538:	1c5a      	adds	r2, r3, #1
 800853a:	2030      	movs	r0, #48	@ 0x30
 800853c:	f881 0043 	strb.w	r0, [r1, #67]	@ 0x43
 8008540:	4422      	add	r2, r4
 8008542:	f894 1045 	ldrb.w	r1, [r4, #69]	@ 0x45
 8008546:	f882 1043 	strb.w	r1, [r2, #67]	@ 0x43
 800854a:	3302      	adds	r3, #2
 800854c:	e7c4      	b.n	80084d8 <_printf_common+0x60>
 800854e:	2301      	movs	r3, #1
 8008550:	4622      	mov	r2, r4
 8008552:	4641      	mov	r1, r8
 8008554:	4638      	mov	r0, r7
 8008556:	47b0      	blx	r6
 8008558:	3001      	adds	r0, #1
 800855a:	d0e6      	beq.n	800852a <_printf_common+0xb2>
 800855c:	f109 0901 	add.w	r9, r9, #1
 8008560:	e7d8      	b.n	8008514 <_printf_common+0x9c>
	...

08008564 <_printf_i>:
 8008564:	e92d 43f0 	stmdb	sp!, {r4, r5, r6, r7, r8, r9, lr}
 8008568:	4698      	mov	r8, r3
 800856a:	7e0b      	ldrb	r3, [r1, #24]
 800856c:	b085      	sub	sp, #20
 800856e:	2b78      	cmp	r3, #120	@ 0x78
 8008570:	4617      	mov	r7, r2
 8008572:	4606      	mov	r6, r0
 8008574:	9a0c      	ldr	r2, [sp, #48]	@ 0x30
 8008576:	460c      	mov	r4, r1
 8008578:	d809      	bhi.n	800858e <_printf_i+0x2a>
 800857a:	2b62      	cmp	r3, #98	@ 0x62
 800857c:	f101 0143 	add.w	r1, r1, #67	@ 0x43
 8008580:	d808      	bhi.n	8008594 <_printf_i+0x30>
 8008582:	2b00      	cmp	r3, #0
 8008584:	f000 80dc 	beq.w	8008740 <_printf_i+0x1dc>
 8008588:	2b58      	cmp	r3, #88	@ 0x58
 800858a:	f000 80bd 	beq.w	8008708 <_printf_i+0x1a4>
 800858e:	f104 0542 	add.w	r5, r4, #66	@ 0x42
 8008592:	e039      	b.n	8008608 <_printf_i+0xa4>
 8008594:	f1a3 0063 	sub.w	r0, r3, #99	@ 0x63
 8008598:	2815      	cmp	r0, #21
 800859a:	d8f8      	bhi.n	800858e <_printf_i+0x2a>
 800859c:	a501      	add	r5, pc, #4	@ (adr r5, 80085a4 <_printf_i+0x40>)
 800859e:	f855 f020 	ldr.w	pc, [r5, r0, lsl #2]
 80085a2:	bf00      	nop
 80085a4:	080085fd 	.word	0x080085fd
 80085a8:	08008611 	.word	0x08008611
 80085ac:	0800858f 	.word	0x0800858f
 80085b0:	0800858f 	.word	0x0800858f
 80085b4:	0800858f 	.word	0x0800858f
 80085b8:	0800858f 	.word	0x0800858f
 80085bc:	08008611 	.word	0x08008611
 80085c0:	0800858f 	.word	0x0800858f
 80085c4:	0800858f 	.word	0x0800858f
 80085c8:	0800858f 	.word	0x0800858f
 80085cc:	0800858f 	.word	0x0800858f
 80085d0:	08008721 	.word	0x08008721
 80085d4:	0800863d 	.word	0x0800863d
 80085d8:	080086cf 	.word	0x080086cf
 80085dc:	0800858f 	.word	0x0800858f
 80085e0:	0800858f 	.word	0x0800858f
 80085e4:	08008749 	.word	0x08008749
 80085e8:	0800858f 	.word	0x0800858f
 80085ec:	0800863d 	.word	0x0800863d
 80085f0:	0800858f 	.word	0x0800858f
 80085f4:	0800858f 	.word	0x0800858f
 80085f8:	080086d7 	.word	0x080086d7
 80085fc:	6813      	ldr	r3, [r2, #0]
 80085fe:	1d19      	adds	r1, r3, #4
 8008600:	681b      	ldr	r3, [r3, #0]
 8008602:	6011      	str	r1, [r2, #0]
 8008604:	f104 0542 	add.w	r5, r4, #66	@ 0x42
 8008608:	f884 3042 	strb.w	r3, [r4, #66]	@ 0x42
 800860c:	2301      	movs	r3, #1
 800860e:	e0a8      	b.n	8008762 <_printf_i+0x1fe>
 8008610:	6813      	ldr	r3, [r2, #0]
 8008612:	6825      	ldr	r5, [r4, #0]
 8008614:	1d18      	adds	r0, r3, #4
 8008616:	6010      	str	r0, [r2, #0]
 8008618:	0628      	lsls	r0, r5, #24
 800861a:	d501      	bpl.n	8008620 <_printf_i+0xbc>
 800861c:	681b      	ldr	r3, [r3, #0]
 800861e:	e003      	b.n	8008628 <_printf_i+0xc4>
 8008620:	066a      	lsls	r2, r5, #25
 8008622:	d5fb      	bpl.n	800861c <_printf_i+0xb8>
 8008624:	f9b3 3000 	ldrsh.w	r3, [r3]
 8008628:	2b00      	cmp	r3, #0
 800862a:	da03      	bge.n	8008634 <_printf_i+0xd0>
 800862c:	222d      	movs	r2, #45	@ 0x2d
 800862e:	425b      	negs	r3, r3
 8008630:	f884 2043 	strb.w	r2, [r4, #67]	@ 0x43
 8008634:	f8df c178 	ldr.w	ip, [pc, #376]	@ 80087b0 <_printf_i+0x24c>
 8008638:	220a      	movs	r2, #10
 800863a:	e013      	b.n	8008664 <_printf_i+0x100>
 800863c:	6825      	ldr	r5, [r4, #0]
 800863e:	6810      	ldr	r0, [r2, #0]
 8008640:	f015 0f80 	tst.w	r5, #128	@ 0x80
 8008644:	f850 3b04 	ldr.w	r3, [r0], #4
 8008648:	d102      	bne.n	8008650 <_printf_i+0xec>
 800864a:	066d      	lsls	r5, r5, #25
 800864c:	bf48      	it	mi
 800864e:	b29b      	uxthmi	r3, r3
 8008650:	6010      	str	r0, [r2, #0]
 8008652:	7e22      	ldrb	r2, [r4, #24]
 8008654:	f8df c158 	ldr.w	ip, [pc, #344]	@ 80087b0 <_printf_i+0x24c>
 8008658:	2a6f      	cmp	r2, #111	@ 0x6f
 800865a:	d15d      	bne.n	8008718 <_printf_i+0x1b4>
 800865c:	2208      	movs	r2, #8
 800865e:	2000      	movs	r0, #0
 8008660:	f884 0043 	strb.w	r0, [r4, #67]	@ 0x43
 8008664:	6865      	ldr	r5, [r4, #4]
 8008666:	60a5      	str	r5, [r4, #8]
 8008668:	2d00      	cmp	r5, #0
 800866a:	db05      	blt.n	8008678 <_printf_i+0x114>
 800866c:	6820      	ldr	r0, [r4, #0]
 800866e:	431d      	orrs	r5, r3
 8008670:	f020 0004 	bic.w	r0, r0, #4
 8008674:	6020      	str	r0, [r4, #0]
 8008676:	d051      	beq.n	800871c <_printf_i+0x1b8>
 8008678:	460d      	mov	r5, r1
 800867a:	fbb3 f0f2 	udiv	r0, r3, r2
 800867e:	fb02 3e10 	mls	lr, r2, r0, r3
 8008682:	429a      	cmp	r2, r3
 8008684:	f81c e00e 	ldrb.w	lr, [ip, lr]
 8008688:	f805 ed01 	strb.w	lr, [r5, #-1]!
 800868c:	4603      	mov	r3, r0
 800868e:	d9f4      	bls.n	800867a <_printf_i+0x116>
 8008690:	2a08      	cmp	r2, #8
 8008692:	d10b      	bne.n	80086ac <_printf_i+0x148>
 8008694:	6823      	ldr	r3, [r4, #0]
 8008696:	07da      	lsls	r2, r3, #31
 8008698:	d508      	bpl.n	80086ac <_printf_i+0x148>
 800869a:	6923      	ldr	r3, [r4, #16]
 800869c:	6862      	ldr	r2, [r4, #4]
 800869e:	429a      	cmp	r2, r3
 80086a0:	bfde      	ittt	le
 80086a2:	2330      	movle	r3, #48	@ 0x30
 80086a4:	f805 3c01 	strble.w	r3, [r5, #-1]
 80086a8:	f105 35ff 	addle.w	r5, r5, #4294967295	@ 0xffffffff
 80086ac:	1b49      	subs	r1, r1, r5
 80086ae:	6121      	str	r1, [r4, #16]
 80086b0:	f8cd 8000 	str.w	r8, [sp]
 80086b4:	463b      	mov	r3, r7
 80086b6:	aa03      	add	r2, sp, #12
 80086b8:	4621      	mov	r1, r4
 80086ba:	4630      	mov	r0, r6
 80086bc:	f7ff fedc 	bl	8008478 <_printf_common>
 80086c0:	3001      	adds	r0, #1
 80086c2:	d153      	bne.n	800876c <_printf_i+0x208>
 80086c4:	f04f 30ff 	mov.w	r0, #4294967295	@ 0xffffffff
 80086c8:	b005      	add	sp, #20
 80086ca:	e8bd 83f0 	ldmia.w	sp!, {r4, r5, r6, r7, r8, r9, pc}
 80086ce:	6823      	ldr	r3, [r4, #0]
 80086d0:	f043 0320 	orr.w	r3, r3, #32
 80086d4:	6023      	str	r3, [r4, #0]
 80086d6:	f8df c0dc 	ldr.w	ip, [pc, #220]	@ 80087b4 <_printf_i+0x250>
 80086da:	2378      	movs	r3, #120	@ 0x78
 80086dc:	f884 3045 	strb.w	r3, [r4, #69]	@ 0x45
 80086e0:	6820      	ldr	r0, [r4, #0]
 80086e2:	6815      	ldr	r5, [r2, #0]
 80086e4:	f010 0f80 	tst.w	r0, #128	@ 0x80
 80086e8:	f855 3b04 	ldr.w	r3, [r5], #4
 80086ec:	d103      	bne.n	80086f6 <_printf_i+0x192>
 80086ee:	f010 0f40 	tst.w	r0, #64	@ 0x40
 80086f2:	bf18      	it	ne
 80086f4:	b29b      	uxthne	r3, r3
 80086f6:	6015      	str	r5, [r2, #0]
 80086f8:	07c5      	lsls	r5, r0, #31
 80086fa:	bf44      	itt	mi
 80086fc:	f040 0020 	orrmi.w	r0, r0, #32
 8008700:	6020      	strmi	r0, [r4, #0]
 8008702:	b123      	cbz	r3, 800870e <_printf_i+0x1aa>
 8008704:	2210      	movs	r2, #16
 8008706:	e7aa      	b.n	800865e <_printf_i+0xfa>
 8008708:	f8df c0a4 	ldr.w	ip, [pc, #164]	@ 80087b0 <_printf_i+0x24c>
 800870c:	e7e6      	b.n	80086dc <_printf_i+0x178>
 800870e:	6822      	ldr	r2, [r4, #0]
 8008710:	f022 0220 	bic.w	r2, r2, #32
 8008714:	6022      	str	r2, [r4, #0]
 8008716:	e7f5      	b.n	8008704 <_printf_i+0x1a0>
 8008718:	220a      	movs	r2, #10
 800871a:	e7a0      	b.n	800865e <_printf_i+0xfa>
 800871c:	460d      	mov	r5, r1
 800871e:	e7b7      	b.n	8008690 <_printf_i+0x12c>
 8008720:	6813      	ldr	r3, [r2, #0]
 8008722:	f8d4 c000 	ldr.w	ip, [r4]
 8008726:	6960      	ldr	r0, [r4, #20]
 8008728:	1d1d      	adds	r5, r3, #4
 800872a:	6015      	str	r5, [r2, #0]
 800872c:	f01c 0f80 	tst.w	ip, #128	@ 0x80
 8008730:	681b      	ldr	r3, [r3, #0]
 8008732:	d001      	beq.n	8008738 <_printf_i+0x1d4>
 8008734:	6018      	str	r0, [r3, #0]
 8008736:	e003      	b.n	8008740 <_printf_i+0x1dc>
 8008738:	f01c 0f40 	tst.w	ip, #64	@ 0x40
 800873c:	d0fa      	beq.n	8008734 <_printf_i+0x1d0>
 800873e:	8018      	strh	r0, [r3, #0]
 8008740:	2300      	movs	r3, #0
 8008742:	6123      	str	r3, [r4, #16]
 8008744:	460d      	mov	r5, r1
 8008746:	e7b3      	b.n	80086b0 <_printf_i+0x14c>
 8008748:	6813      	ldr	r3, [r2, #0]
 800874a:	1d19      	adds	r1, r3, #4
 800874c:	6011      	str	r1, [r2, #0]
 800874e:	681d      	ldr	r5, [r3, #0]
 8008750:	6862      	ldr	r2, [r4, #4]
 8008752:	2100      	movs	r1, #0
 8008754:	4628      	mov	r0, r5
 8008756:	f7f7 fd23 	bl	80001a0 <memchr>
 800875a:	b108      	cbz	r0, 8008760 <_printf_i+0x1fc>
 800875c:	1b40      	subs	r0, r0, r5
 800875e:	6060      	str	r0, [r4, #4]
 8008760:	6863      	ldr	r3, [r4, #4]
 8008762:	6123      	str	r3, [r4, #16]
 8008764:	2300      	movs	r3, #0
 8008766:	f884 3043 	strb.w	r3, [r4, #67]	@ 0x43
 800876a:	e7a1      	b.n	80086b0 <_printf_i+0x14c>
 800876c:	6923      	ldr	r3, [r4, #16]
 800876e:	462a      	mov	r2, r5
 8008770:	4639      	mov	r1, r7
 8008772:	4630      	mov	r0, r6
 8008774:	47c0      	blx	r8
 8008776:	3001      	adds	r0, #1
 8008778:	d0a4      	beq.n	80086c4 <_printf_i+0x160>
 800877a:	6823      	ldr	r3, [r4, #0]
 800877c:	079b      	lsls	r3, r3, #30
 800877e:	d414      	bmi.n	80087aa <_printf_i+0x246>
 8008780:	68e0      	ldr	r0, [r4, #12]
 8008782:	9b03      	ldr	r3, [sp, #12]
 8008784:	4298      	cmp	r0, r3
 8008786:	bfb8      	it	lt
 8008788:	4618      	movlt	r0, r3
 800878a:	e79d      	b.n	80086c8 <_printf_i+0x164>
 800878c:	2301      	movs	r3, #1
 800878e:	f104 0219 	add.w	r2, r4, #25
 8008792:	4639      	mov	r1, r7
 8008794:	4630      	mov	r0, r6
 8008796:	47c0      	blx	r8
 8008798:	3001      	adds	r0, #1
 800879a:	d093      	beq.n	80086c4 <_printf_i+0x160>
 800879c:	3501      	adds	r5, #1
 800879e:	68e3      	ldr	r3, [r4, #12]
 80087a0:	9903      	ldr	r1, [sp, #12]
 80087a2:	1a5b      	subs	r3, r3, r1
 80087a4:	42ab      	cmp	r3, r5
 80087a6:	dcf1      	bgt.n	800878c <_printf_i+0x228>
 80087a8:	e7ea      	b.n	8008780 <_printf_i+0x21c>
 80087aa:	2500      	movs	r5, #0
 80087ac:	e7f7      	b.n	800879e <_printf_i+0x23a>
 80087ae:	bf00      	nop
 80087b0:	080093b1 	.word	0x080093b1
 80087b4:	080093c2 	.word	0x080093c2

080087b8 <memmove>:
 80087b8:	4288      	cmp	r0, r1
 80087ba:	b510      	push	{r4, lr}
 80087bc:	eb01 0402 	add.w	r4, r1, r2
 80087c0:	d902      	bls.n	80087c8 <memmove+0x10>
 80087c2:	4284      	cmp	r4, r0
 80087c4:	4623      	mov	r3, r4
 80087c6:	d807      	bhi.n	80087d8 <memmove+0x20>
 80087c8:	1e43      	subs	r3, r0, #1
 80087ca:	42a1      	cmp	r1, r4
 80087cc:	d007      	beq.n	80087de <memmove+0x26>
 80087ce:	f811 2b01 	ldrb.w	r2, [r1], #1
 80087d2:	f803 2f01 	strb.w	r2, [r3, #1]!
 80087d6:	e7f8      	b.n	80087ca <memmove+0x12>
 80087d8:	4402      	add	r2, r0
 80087da:	4282      	cmp	r2, r0
 80087dc:	d100      	bne.n	80087e0 <memmove+0x28>
 80087de:	bd10      	pop	{r4, pc}
 80087e0:	f813 1d01 	ldrb.w	r1, [r3, #-1]!
 80087e4:	f802 1d01 	strb.w	r1, [r2, #-1]!
 80087e8:	e7f7      	b.n	80087da <memmove+0x22>
	...

080087ec <_sbrk_r>:
 80087ec:	b538      	push	{r3, r4, r5, lr}
 80087ee:	4c06      	ldr	r4, [pc, #24]	@ (8008808 <_sbrk_r+0x1c>)
 80087f0:	2300      	movs	r3, #0
 80087f2:	4605      	mov	r5, r0
 80087f4:	4608      	mov	r0, r1
 80087f6:	6023      	str	r3, [r4, #0]
 80087f8:	f7ff fb00 	bl	8007dfc <_sbrk>
 80087fc:	1c43      	adds	r3, r0, #1
 80087fe:	d102      	bne.n	8008806 <_sbrk_r+0x1a>
 8008800:	6823      	ldr	r3, [r4, #0]
 8008802:	b103      	cbz	r3, 8008806 <_sbrk_r+0x1a>
 8008804:	602b      	str	r3, [r5, #0]
 8008806:	bd38      	pop	{r3, r4, r5, pc}
 8008808:	200012c4 	.word	0x200012c4

0800880c <_realloc_r>:
 800880c:	e92d 41f0 	stmdb	sp!, {r4, r5, r6, r7, r8, lr}
 8008810:	4607      	mov	r7, r0
 8008812:	4615      	mov	r5, r2
 8008814:	460c      	mov	r4, r1
 8008816:	b921      	cbnz	r1, 8008822 <_realloc_r+0x16>
 8008818:	e8bd 41f0 	ldmia.w	sp!, {r4, r5, r6, r7, r8, lr}
 800881c:	4611      	mov	r1, r2
 800881e:	f7ff bc4b 	b.w	80080b8 <_malloc_r>
 8008822:	b92a      	cbnz	r2, 8008830 <_realloc_r+0x24>
 8008824:	f7ff fbda 	bl	8007fdc <_free_r>
 8008828:	462c      	mov	r4, r5
 800882a:	4620      	mov	r0, r4
 800882c:	e8bd 81f0 	ldmia.w	sp!, {r4, r5, r6, r7, r8, pc}
 8008830:	f000 f81a 	bl	8008868 <_malloc_usable_size_r>
 8008834:	4285      	cmp	r5, r0
 8008836:	4606      	mov	r6, r0
 8008838:	d802      	bhi.n	8008840 <_realloc_r+0x34>
 800883a:	ebb5 0f50 	cmp.w	r5, r0, lsr #1
 800883e:	d8f4      	bhi.n	800882a <_realloc_r+0x1e>
 8008840:	4629      	mov	r1, r5
 8008842:	4638      	mov	r0, r7
 8008844:	f7ff fc38 	bl	80080b8 <_malloc_r>
 8008848:	4680      	mov	r8, r0
 800884a:	b908      	cbnz	r0, 8008850 <_realloc_r+0x44>
 800884c:	4644      	mov	r4, r8
 800884e:	e7ec      	b.n	800882a <_realloc_r+0x1e>
 8008850:	42b5      	cmp	r5, r6
 8008852:	462a      	mov	r2, r5
 8008854:	4621      	mov	r1, r4
 8008856:	bf28      	it	cs
 8008858:	4632      	movcs	r2, r6
 800885a:	f7ff fbb1 	bl	8007fc0 <memcpy>
 800885e:	4621      	mov	r1, r4
 8008860:	4638      	mov	r0, r7
 8008862:	f7ff fbbb 	bl	8007fdc <_free_r>
 8008866:	e7f1      	b.n	800884c <_realloc_r+0x40>

08008868 <_malloc_usable_size_r>:
 8008868:	f851 3c04 	ldr.w	r3, [r1, #-4]
 800886c:	1f18      	subs	r0, r3, #4
 800886e:	2b00      	cmp	r3, #0
 8008870:	bfbc      	itt	lt
 8008872:	580b      	ldrlt	r3, [r1, r0]
 8008874:	18c0      	addlt	r0, r0, r3
 8008876:	4770      	bx	lr

08008878 <__udivmoddi4>:
 8008878:	e92d 47f0 	stmdb	sp!, {r4, r5, r6, r7, r8, r9, sl, lr}
 800887c:	b082      	sub	sp, #8
 800887e:	4606      	mov	r6, r0
 8008880:	f8dd e028 	ldr.w	lr, [sp, #40]	@ 0x28
 8008884:	4608      	mov	r0, r1
 8008886:	46b4      	mov	ip, r6
 8008888:	460d      	mov	r5, r1
 800888a:	2b00      	cmp	r3, #0
 800888c:	d14e      	bne.n	800892c <__udivmoddi4+0xb4>
 800888e:	428a      	cmp	r2, r1
 8008890:	4614      	mov	r4, r2
 8008892:	d96d      	bls.n	8008970 <__udivmoddi4+0xf8>
 8008894:	fab2 f282 	clz	r2, r2
 8008898:	b142      	cbz	r2, 80088ac <__udivmoddi4+0x34>
 800889a:	f1c2 0320 	rsb	r3, r2, #32
 800889e:	4095      	lsls	r5, r2
 80088a0:	fa26 f303 	lsr.w	r3, r6, r3
 80088a4:	4094      	lsls	r4, r2
 80088a6:	431d      	orrs	r5, r3
 80088a8:	fa06 fc02 	lsl.w	ip, r6, r2
 80088ac:	0c26      	lsrs	r6, r4, #16
 80088ae:	b2a7      	uxth	r7, r4
 80088b0:	fbb5 f1f6 	udiv	r1, r5, r6
 80088b4:	ea4f 431c 	mov.w	r3, ip, lsr #16
 80088b8:	fb06 5511 	mls	r5, r6, r1, r5
 80088bc:	ea43 4305 	orr.w	r3, r3, r5, lsl #16
 80088c0:	fb01 f007 	mul.w	r0, r1, r7
 80088c4:	4298      	cmp	r0, r3
 80088c6:	d909      	bls.n	80088dc <__udivmoddi4+0x64>
 80088c8:	18e3      	adds	r3, r4, r3
 80088ca:	f101 35ff 	add.w	r5, r1, #4294967295	@ 0xffffffff
 80088ce:	f080 8103 	bcs.w	8008ad8 <__udivmoddi4+0x260>
 80088d2:	4298      	cmp	r0, r3
 80088d4:	f240 8100 	bls.w	8008ad8 <__udivmoddi4+0x260>
 80088d8:	3902      	subs	r1, #2
 80088da:	4423      	add	r3, r4
 80088dc:	1a1b      	subs	r3, r3, r0
 80088de:	fa1f fc8c 	uxth.w	ip, ip
 80088e2:	fbb3 f0f6 	udiv	r0, r3, r6
 80088e6:	fb06 3310 	mls	r3, r6, r0, r3
 80088ea:	ea4c 4c03 	orr.w	ip, ip, r3, lsl #16
 80088ee:	fb00 f307 	mul.w	r3, r0, r7
 80088f2:	4563      	cmp	r3, ip
 80088f4:	d90a      	bls.n	800890c <__udivmoddi4+0x94>
 80088f6:	eb14 0c0c 	adds.w	ip, r4, ip
 80088fa:	f100 35ff 	add.w	r5, r0, #4294967295	@ 0xffffffff
 80088fe:	f080 80ed 	bcs.w	8008adc <__udivmoddi4+0x264>
 8008902:	4563      	cmp	r3, ip
 8008904:	f240 80ea 	bls.w	8008adc <__udivmoddi4+0x264>
 8008908:	44a4      	add	ip, r4
 800890a:	3802      	subs	r0, #2
 800890c:	ea40 4001 	orr.w	r0, r0, r1, lsl #16
 8008910:	ebac 0c03 	sub.w	ip, ip, r3
 8008914:	2100      	movs	r1, #0
 8008916:	f1be 0f00 	cmp.w	lr, #0
 800891a:	d004      	beq.n	8008926 <__udivmoddi4+0xae>
 800891c:	fa2c f302 	lsr.w	r3, ip, r2
 8008920:	2200      	movs	r2, #0
 8008922:	e9ce 3200 	strd	r3, r2, [lr]
 8008926:	b002      	add	sp, #8
 8008928:	e8bd 87f0 	ldmia.w	sp!, {r4, r5, r6, r7, r8, r9, sl, pc}
 800892c:	428b      	cmp	r3, r1
 800892e:	d909      	bls.n	8008944 <__udivmoddi4+0xcc>
 8008930:	f1be 0f00 	cmp.w	lr, #0
 8008934:	d001      	beq.n	800893a <__udivmoddi4+0xc2>
 8008936:	e9ce 6100 	strd	r6, r1, [lr]
 800893a:	2100      	movs	r1, #0
 800893c:	4608      	mov	r0, r1
 800893e:	b002      	add	sp, #8
 8008940:	e8bd 87f0 	ldmia.w	sp!, {r4, r5, r6, r7, r8, r9, sl, pc}
 8008944:	fab3 f183 	clz	r1, r3
 8008948:	4617      	mov	r7, r2
 800894a:	2900      	cmp	r1, #0
 800894c:	d14d      	bne.n	80089ea <__udivmoddi4+0x172>
 800894e:	4283      	cmp	r3, r0
 8008950:	d302      	bcc.n	8008958 <__udivmoddi4+0xe0>
 8008952:	42b2      	cmp	r2, r6
 8008954:	f200 810f 	bhi.w	8008b76 <__udivmoddi4+0x2fe>
 8008958:	ebb6 0c07 	subs.w	ip, r6, r7
 800895c:	eb60 0303 	sbc.w	r3, r0, r3
 8008960:	2001      	movs	r0, #1
 8008962:	461d      	mov	r5, r3
 8008964:	f1be 0f00 	cmp.w	lr, #0
 8008968:	d0dd      	beq.n	8008926 <__udivmoddi4+0xae>
 800896a:	e9ce c500 	strd	ip, r5, [lr]
 800896e:	e7da      	b.n	8008926 <__udivmoddi4+0xae>
 8008970:	2a00      	cmp	r2, #0
 8008972:	f000 8098 	beq.w	8008aa6 <__udivmoddi4+0x22e>
 8008976:	461a      	mov	r2, r3
 8008978:	fab4 f384 	clz	r3, r4
 800897c:	2b00      	cmp	r3, #0
 800897e:	f040 80af 	bne.w	8008ae0 <__udivmoddi4+0x268>
 8008982:	1b0b      	subs	r3, r1, r4
 8008984:	0c27      	lsrs	r7, r4, #16
 8008986:	b2a6      	uxth	r6, r4
 8008988:	2101      	movs	r1, #1
 800898a:	fbb3 f5f7 	udiv	r5, r3, r7
 800898e:	ea4f 401c 	mov.w	r0, ip, lsr #16
 8008992:	fb07 3315 	mls	r3, r7, r5, r3
 8008996:	ea40 4303 	orr.w	r3, r0, r3, lsl #16
 800899a:	fb06 f805 	mul.w	r8, r6, r5
 800899e:	4598      	cmp	r8, r3
 80089a0:	d907      	bls.n	80089b2 <__udivmoddi4+0x13a>
 80089a2:	18e3      	adds	r3, r4, r3
 80089a4:	f105 30ff 	add.w	r0, r5, #4294967295	@ 0xffffffff
 80089a8:	d202      	bcs.n	80089b0 <__udivmoddi4+0x138>
 80089aa:	4598      	cmp	r8, r3
 80089ac:	f200 80e8 	bhi.w	8008b80 <__udivmoddi4+0x308>
 80089b0:	4605      	mov	r5, r0
 80089b2:	eba3 0308 	sub.w	r3, r3, r8
 80089b6:	fa1f fc8c 	uxth.w	ip, ip
 80089ba:	fbb3 f0f7 	udiv	r0, r3, r7
 80089be:	fb07 3310 	mls	r3, r7, r0, r3
 80089c2:	ea4c 4c03 	orr.w	ip, ip, r3, lsl #16
 80089c6:	fb06 f300 	mul.w	r3, r6, r0
 80089ca:	4563      	cmp	r3, ip
 80089cc:	d908      	bls.n	80089e0 <__udivmoddi4+0x168>
 80089ce:	eb14 0c0c 	adds.w	ip, r4, ip
 80089d2:	f100 36ff 	add.w	r6, r0, #4294967295	@ 0xffffffff
 80089d6:	d202      	bcs.n	80089de <__udivmoddi4+0x166>
 80089d8:	4563      	cmp	r3, ip
 80089da:	f200 80ce 	bhi.w	8008b7a <__udivmoddi4+0x302>
 80089de:	4630      	mov	r0, r6
 80089e0:	ebac 0c03 	sub.w	ip, ip, r3
 80089e4:	ea40 4005 	orr.w	r0, r0, r5, lsl #16
 80089e8:	e795      	b.n	8008916 <__udivmoddi4+0x9e>
 80089ea:	f1c1 0520 	rsb	r5, r1, #32
 80089ee:	408b      	lsls	r3, r1
 80089f0:	fa22 fc05 	lsr.w	ip, r2, r5
 80089f4:	ea4c 0c03 	orr.w	ip, ip, r3
 80089f8:	fa00 f401 	lsl.w	r4, r0, r1
 80089fc:	fa26 f305 	lsr.w	r3, r6, r5
 8008a00:	40e8      	lsrs	r0, r5
 8008a02:	fa02 f901 	lsl.w	r9, r2, r1
 8008a06:	ea43 0804 	orr.w	r8, r3, r4
 8008a0a:	ea4f 421c 	mov.w	r2, ip, lsr #16
 8008a0e:	fa06 fa01 	lsl.w	sl, r6, r1
 8008a12:	fbb0 f7f2 	udiv	r7, r0, r2
 8008a16:	fa1f f68c 	uxth.w	r6, ip
 8008a1a:	fb02 0017 	mls	r0, r2, r7, r0
 8008a1e:	ea4f 4418 	mov.w	r4, r8, lsr #16
 8008a22:	ea44 4400 	orr.w	r4, r4, r0, lsl #16
 8008a26:	fb07 f006 	mul.w	r0, r7, r6
 8008a2a:	42a0      	cmp	r0, r4
 8008a2c:	d90a      	bls.n	8008a44 <__udivmoddi4+0x1cc>
 8008a2e:	eb1c 0404 	adds.w	r4, ip, r4
 8008a32:	f107 33ff 	add.w	r3, r7, #4294967295	@ 0xffffffff
 8008a36:	f080 809c 	bcs.w	8008b72 <__udivmoddi4+0x2fa>
 8008a3a:	42a0      	cmp	r0, r4
 8008a3c:	f240 8099 	bls.w	8008b72 <__udivmoddi4+0x2fa>
 8008a40:	3f02      	subs	r7, #2
 8008a42:	4464      	add	r4, ip
 8008a44:	1a24      	subs	r4, r4, r0
 8008a46:	fa1f f388 	uxth.w	r3, r8
 8008a4a:	fbb4 f0f2 	udiv	r0, r4, r2
 8008a4e:	fb02 4410 	mls	r4, r2, r0, r4
 8008a52:	ea43 4304 	orr.w	r3, r3, r4, lsl #16
 8008a56:	fb00 f606 	mul.w	r6, r0, r6
 8008a5a:	429e      	cmp	r6, r3
 8008a5c:	d909      	bls.n	8008a72 <__udivmoddi4+0x1fa>
 8008a5e:	eb1c 0303 	adds.w	r3, ip, r3
 8008a62:	f100 34ff 	add.w	r4, r0, #4294967295	@ 0xffffffff
 8008a66:	f080 8082 	bcs.w	8008b6e <__udivmoddi4+0x2f6>
 8008a6a:	429e      	cmp	r6, r3
 8008a6c:	d97f      	bls.n	8008b6e <__udivmoddi4+0x2f6>
 8008a6e:	3802      	subs	r0, #2
 8008a70:	4463      	add	r3, ip
 8008a72:	ea40 4007 	orr.w	r0, r0, r7, lsl #16
 8008a76:	fba0 7409 	umull	r7, r4, r0, r9
 8008a7a:	1b9b      	subs	r3, r3, r6
 8008a7c:	42a3      	cmp	r3, r4
 8008a7e:	463e      	mov	r6, r7
 8008a80:	46a0      	mov	r8, r4
 8008a82:	d364      	bcc.n	8008b4e <__udivmoddi4+0x2d6>
 8008a84:	d061      	beq.n	8008b4a <__udivmoddi4+0x2d2>
 8008a86:	f1be 0f00 	cmp.w	lr, #0
 8008a8a:	d00a      	beq.n	8008aa2 <__udivmoddi4+0x22a>
 8008a8c:	ebba 0206 	subs.w	r2, sl, r6
 8008a90:	eb63 0308 	sbc.w	r3, r3, r8
 8008a94:	fa03 f505 	lsl.w	r5, r3, r5
 8008a98:	40ca      	lsrs	r2, r1
 8008a9a:	4315      	orrs	r5, r2
 8008a9c:	40cb      	lsrs	r3, r1
 8008a9e:	e9ce 5300 	strd	r5, r3, [lr]
 8008aa2:	2100      	movs	r1, #0
 8008aa4:	e73f      	b.n	8008926 <__udivmoddi4+0xae>
 8008aa6:	0873      	lsrs	r3, r6, #1
 8008aa8:	ea43 73c1 	orr.w	r3, r3, r1, lsl #31
 8008aac:	084a      	lsrs	r2, r1, #1
 8008aae:	0c19      	lsrs	r1, r3, #16
 8008ab0:	ea41 4102 	orr.w	r1, r1, r2, lsl #16
 8008ab4:	ea4f 7cc6 	mov.w	ip, r6, lsl #31
 8008ab8:	b29b      	uxth	r3, r3
 8008aba:	fbb2 f0f4 	udiv	r0, r2, r4
 8008abe:	4626      	mov	r6, r4
 8008ac0:	46a0      	mov	r8, r4
 8008ac2:	4627      	mov	r7, r4
 8008ac4:	221f      	movs	r2, #31
 8008ac6:	ea43 4301 	orr.w	r3, r3, r1, lsl #16
 8008aca:	fbb1 f1f4 	udiv	r1, r1, r4
 8008ace:	eba3 0308 	sub.w	r3, r3, r8
 8008ad2:	ea41 4100 	orr.w	r1, r1, r0, lsl #16
 8008ad6:	e758      	b.n	800898a <__udivmoddi4+0x112>
 8008ad8:	4629      	mov	r1, r5
 8008ada:	e6ff      	b.n	80088dc <__udivmoddi4+0x64>
 8008adc:	4628      	mov	r0, r5
 8008ade:	e715      	b.n	800890c <__udivmoddi4+0x94>
 8008ae0:	461a      	mov	r2, r3
 8008ae2:	f1c3 0120 	rsb	r1, r3, #32
 8008ae6:	409c      	lsls	r4, r3
 8008ae8:	fa26 f301 	lsr.w	r3, r6, r1
 8008aec:	fa20 f101 	lsr.w	r1, r0, r1
 8008af0:	4090      	lsls	r0, r2
 8008af2:	4303      	orrs	r3, r0
 8008af4:	0c27      	lsrs	r7, r4, #16
 8008af6:	fa06 fc02 	lsl.w	ip, r6, r2
 8008afa:	fbb1 f0f7 	udiv	r0, r1, r7
 8008afe:	b2a6      	uxth	r6, r4
 8008b00:	fb07 1510 	mls	r5, r7, r0, r1
 8008b04:	0c19      	lsrs	r1, r3, #16
 8008b06:	ea41 4105 	orr.w	r1, r1, r5, lsl #16
 8008b0a:	fb00 f506 	mul.w	r5, r0, r6
 8008b0e:	428d      	cmp	r5, r1
 8008b10:	d93b      	bls.n	8008b8a <__udivmoddi4+0x312>
 8008b12:	1861      	adds	r1, r4, r1
 8008b14:	d201      	bcs.n	8008b1a <__udivmoddi4+0x2a2>
 8008b16:	428d      	cmp	r5, r1
 8008b18:	d820      	bhi.n	8008b5c <__udivmoddi4+0x2e4>
 8008b1a:	1b49      	subs	r1, r1, r5
 8008b1c:	3801      	subs	r0, #1
 8008b1e:	fbb1 f5f7 	udiv	r5, r1, r7
 8008b22:	9501      	str	r5, [sp, #4]
 8008b24:	fb05 f806 	mul.w	r8, r5, r6
 8008b28:	9d01      	ldr	r5, [sp, #4]
 8008b2a:	b29b      	uxth	r3, r3
 8008b2c:	fb07 1115 	mls	r1, r7, r5, r1
 8008b30:	ea43 4301 	orr.w	r3, r3, r1, lsl #16
 8008b34:	4543      	cmp	r3, r8
 8008b36:	d226      	bcs.n	8008b86 <__udivmoddi4+0x30e>
 8008b38:	18e3      	adds	r3, r4, r3
 8008b3a:	f105 31ff 	add.w	r1, r5, #4294967295	@ 0xffffffff
 8008b3e:	d2c6      	bcs.n	8008ace <__udivmoddi4+0x256>
 8008b40:	4543      	cmp	r3, r8
 8008b42:	d2c4      	bcs.n	8008ace <__udivmoddi4+0x256>
 8008b44:	1ea9      	subs	r1, r5, #2
 8008b46:	4423      	add	r3, r4
 8008b48:	e7c1      	b.n	8008ace <__udivmoddi4+0x256>
 8008b4a:	45ba      	cmp	sl, r7
 8008b4c:	d29b      	bcs.n	8008a86 <__udivmoddi4+0x20e>
 8008b4e:	ebb7 0609 	subs.w	r6, r7, r9
 8008b52:	eb64 040c 	sbc.w	r4, r4, ip
 8008b56:	3801      	subs	r0, #1
 8008b58:	46a0      	mov	r8, r4
 8008b5a:	e794      	b.n	8008a86 <__udivmoddi4+0x20e>
 8008b5c:	1b65      	subs	r5, r4, r5
 8008b5e:	4429      	add	r1, r5
 8008b60:	3802      	subs	r0, #2
 8008b62:	fbb1 f5f7 	udiv	r5, r1, r7
 8008b66:	9501      	str	r5, [sp, #4]
 8008b68:	fb05 f806 	mul.w	r8, r5, r6
 8008b6c:	e7dc      	b.n	8008b28 <__udivmoddi4+0x2b0>
 8008b6e:	4620      	mov	r0, r4
 8008b70:	e77f      	b.n	8008a72 <__udivmoddi4+0x1fa>
 8008b72:	461f      	mov	r7, r3
 8008b74:	e766      	b.n	8008a44 <__udivmoddi4+0x1cc>
 8008b76:	4608      	mov	r0, r1
 8008b78:	e6f4      	b.n	8008964 <__udivmoddi4+0xec>
 8008b7a:	44a4      	add	ip, r4
 8008b7c:	3802      	subs	r0, #2
 8008b7e:	e72f      	b.n	80089e0 <__udivmoddi4+0x168>
 8008b80:	3d02      	subs	r5, #2
 8008b82:	4423      	add	r3, r4
 8008b84:	e715      	b.n	80089b2 <__udivmoddi4+0x13a>
 8008b86:	9901      	ldr	r1, [sp, #4]
 8008b88:	e7a1      	b.n	8008ace <__udivmoddi4+0x256>
 8008b8a:	1b49      	subs	r1, r1, r5
 8008b8c:	fbb1 f5f7 	udiv	r5, r1, r7
 8008b90:	9501      	str	r5, [sp, #4]
 8008b92:	fb05 f806 	mul.w	r8, r5, r6
 8008b96:	e7c7      	b.n	8008b28 <__udivmoddi4+0x2b0>

08008b98 <_init>:
 8008b98:	b5f8      	push	{r3, r4, r5, r6, r7, lr}
 8008b9a:	bf00      	nop
 8008b9c:	bcf8      	pop	{r3, r4, r5, r6, r7}
 8008b9e:	bc08      	pop	{r3}
 8008ba0:	469e      	mov	lr, r3
 8008ba2:	4770      	bx	lr

08008ba4 <_fini>:
 8008ba4:	b5f8      	push	{r3, r4, r5, r6, r7, lr}
 8008ba6:	bf00      	nop
 8008ba8:	bcf8      	pop	{r3, r4, r5, r6, r7}
 8008baa:	bc08      	pop	{r3}
 8008bac:	469e      	mov	lr, r3
 8008bae:	4770      	bx	lr
