
build/debug/L4_V3.elf:     file format elf32-littlearm

Sections:
Idx Name          Size      VMA       LMA       File off  Algn
  0 .isr_vector   00000188  08000000  08000000  00001000  2**0
                  CONTENTS, ALLOC, LOAD, READONLY, DATA
  1 .text         00003368  08000188  08000188  00001188  2**2
                  CONTENTS, ALLOC, LOAD, READONLY, CODE
  2 .rodata       00001b30  080034f0  080034f0  000044f0  2**2
                  CONTENTS, ALLOC, LOAD, READONLY, DATA
  3 .ARM.extab    00000000  08005020  08005020  00007010  2**0
                  CONTENTS, READONLY
  4 .ARM          00000008  08005020  08005020  00006020  2**2
                  CONTENTS, ALLOC, LOAD, READONLY, DATA
  5 .preinit_array 00000000  08005028  08005028  00007010  2**0
                  CONTENTS, ALLOC, LOAD, DATA
  6 .init_array   00000008  08005028  08005028  00006028  2**2
                  CONTENTS, ALLOC, LOAD, READONLY, DATA
  7 .fini_array   00000008  08005030  08005030  00006030  2**2
                  CONTENTS, ALLOC, LOAD, READONLY, DATA
  8 .data         00000010  20000000  08005038  00007000  2**2
                  CONTENTS, ALLOC, LOAD, DATA
  9 .bss          0000069c  20000010  08005048  00007010  2**2
                  ALLOC
 10 ._user_heap_stack 00000604  200006ac  08005048  000076ac  2**0
                  ALLOC
 11 .ARM.attributes 00000030  00000000  00000000  00007010  2**0
                  CONTENTS, READONLY
 12 .comment      00000039  00000000  00000000  00007040  2**0
                  CONTENTS, READONLY
 13 .debug_info   0001795d  00000000  00000000  00007079  2**0
                  CONTENTS, READONLY, DEBUGGING, OCTETS
 14 .debug_abbrev 000028f0  00000000  00000000  0001e9d6  2**0
                  CONTENTS, READONLY, DEBUGGING, OCTETS
 15 .debug_aranges 00000f70  00000000  00000000  000212c8  2**3
                  CONTENTS, READONLY, DEBUGGING, OCTETS
 16 .debug_rnglists 00000c3b  00000000  00000000  00022238  2**0
                  CONTENTS, READONLY, DEBUGGING, OCTETS
 17 .debug_line   00013e7b  00000000  00000000  00022e73  2**0
                  CONTENTS, READONLY, DEBUGGING, OCTETS
 18 .debug_str    00004d87  00000000  00000000  00036cee  2**0
                  CONTENTS, READONLY, DEBUGGING, OCTETS
 19 .debug_frame  000029f8  00000000  00000000  0003ba78  2**2
                  CONTENTS, READONLY, DEBUGGING, OCTETS
 20 .debug_loclists 0000c1c2  00000000  00000000  0003e470  2**0
                  CONTENTS, READONLY, DEBUGGING, OCTETS
 21 .debug_line_str 00000051  00000000  00000000  0004a632  2**0
                  CONTENTS, READONLY, DEBUGGING, OCTETS

Disassembly of section .text:

08000188 <__aeabi_uldivmod>:
 8000188:	b953      	cbnz	r3, 80001a0 <__aeabi_uldivmod+0x18>
 800018a:	b94a      	cbnz	r2, 80001a0 <__aeabi_uldivmod+0x18>
 800018c:	2900      	cmp	r1, #0
 800018e:	bf08      	it	eq
 8000190:	2800      	cmpeq	r0, #0
 8000192:	bf1c      	itt	ne
 8000194:	f04f 31ff 	movne.w	r1, #4294967295	@ 0xffffffff
 8000198:	f04f 30ff 	movne.w	r0, #4294967295	@ 0xffffffff
 800019c:	f000 b80c 	b.w	80001b8 <__aeabi_idiv0>
 80001a0:	f1ad 0c08 	sub.w	ip, sp, #8
 80001a4:	e96d ce04 	strd	ip, lr, [sp, #-16]!
 80001a8:	f003 f806 	bl	80031b8 <__udivmoddi4>
 80001ac:	f8dd e004 	ldr.w	lr, [sp, #4]
 80001b0:	e9dd 2302 	ldrd	r2, r3, [sp, #8]
 80001b4:	b004      	add	sp, #16
 80001b6:	4770      	bx	lr

080001b8 <__aeabi_idiv0>:
 80001b8:	4770      	bx	lr
 80001ba:	bf00      	nop

080001bc <__do_global_dtors_aux>:
 80001bc:	b508      	push	{r3, lr}
 80001be:	4b06      	ldr	r3, [pc, #24]	@ (80001d8 <__do_global_dtors_aux+0x1c>)
 80001c0:	781a      	ldrb	r2, [r3, #0]
 80001c2:	b93a      	cbnz	r2, 80001d4 <__do_global_dtors_aux+0x18>
 80001c4:	4a05      	ldr	r2, [pc, #20]	@ (80001dc <__do_global_dtors_aux+0x20>)
 80001c6:	b11a      	cbz	r2, 80001d0 <__do_global_dtors_aux+0x14>
 80001c8:	4805      	ldr	r0, [pc, #20]	@ (80001e0 <__do_global_dtors_aux+0x24>)
 80001ca:	f3af 8000 	nop.w
 80001ce:	4b02      	ldr	r3, [pc, #8]	@ (80001d8 <__do_global_dtors_aux+0x1c>)
 80001d0:	2201      	movs	r2, #1
 80001d2:	701a      	strb	r2, [r3, #0]
 80001d4:	bd08      	pop	{r3, pc}
 80001d6:	bf00      	nop
 80001d8:	20000010 	.word	0x20000010
 80001dc:	00000000 	.word	0x00000000
 80001e0:	080034d8 	.word	0x080034d8

080001e4 <frame_dummy>:
 80001e4:	b508      	push	{r3, lr}
 80001e6:	4b03      	ldr	r3, [pc, #12]	@ (80001f4 <frame_dummy+0x10>)
 80001e8:	b11b      	cbz	r3, 80001f2 <frame_dummy+0xe>
 80001ea:	4903      	ldr	r1, [pc, #12]	@ (80001f8 <frame_dummy+0x14>)
 80001ec:	4803      	ldr	r0, [pc, #12]	@ (80001fc <frame_dummy+0x18>)
 80001ee:	f3af 8000 	nop.w
 80001f2:	bd08      	pop	{r3, pc}
 80001f4:	00000000 	.word	0x00000000
 80001f8:	20000014 	.word	0x20000014
 80001fc:	080034d8 	.word	0x080034d8

08000200 <MX_GPIO_Init>:
  * @brief GPIO Initialization Function
  * @param None
  * @retval None
  */
static void MX_GPIO_Init(void)
{
 8000200:	e92d 41f0 	stmdb	sp!, {r4, r5, r6, r7, r8, lr}
 8000204:	b088      	sub	sp, #32
  GPIO_InitTypeDef GPIO_InitStruct = {0};
 8000206:	ad03      	add	r5, sp, #12
 8000208:	2400      	movs	r4, #0
 800020a:	9403      	str	r4, [sp, #12]
 800020c:	9404      	str	r4, [sp, #16]
 800020e:	9405      	str	r4, [sp, #20]
 8000210:	9406      	str	r4, [sp, #24]
 8000212:	9407      	str	r4, [sp, #28]
  /* USER CODE BEGIN MX_GPIO_Init_1 */

  /* USER CODE END MX_GPIO_Init_1 */

  /* GPIO Ports Clock Enable */
  __HAL_RCC_GPIOC_CLK_ENABLE();
 8000214:	4b31      	ldr	r3, [pc, #196]	@ (80002dc <MX_GPIO_Init+0xdc>)
 8000216:	6cda      	ldr	r2, [r3, #76]	@ 0x4c
 8000218:	f042 0204 	orr.w	r2, r2, #4
 800021c:	64da      	str	r2, [r3, #76]	@ 0x4c
 800021e:	6cda      	ldr	r2, [r3, #76]	@ 0x4c
 8000220:	f002 0204 	and.w	r2, r2, #4
 8000224:	9200      	str	r2, [sp, #0]
 8000226:	9a00      	ldr	r2, [sp, #0]
  __HAL_RCC_GPIOA_CLK_ENABLE();
 8000228:	6cda      	ldr	r2, [r3, #76]	@ 0x4c
 800022a:	f042 0201 	orr.w	r2, r2, #1
 800022e:	64da      	str	r2, [r3, #76]	@ 0x4c
 8000230:	6cda      	ldr	r2, [r3, #76]	@ 0x4c
 8000232:	f002 0201 	and.w	r2, r2, #1
 8000236:	9201      	str	r2, [sp, #4]
 8000238:	9a01      	ldr	r2, [sp, #4]
  __HAL_RCC_GPIOB_CLK_ENABLE();
 800023a:	6cda      	ldr	r2, [r3, #76]	@ 0x4c
 800023c:	f042 0202 	orr.w	r2, r2, #2
 8000240:	64da      	str	r2, [r3, #76]	@ 0x4c
 8000242:	6cdb      	ldr	r3, [r3, #76]	@ 0x4c
 8000244:	f003 0302 	and.w	r3, r3, #2
 8000248:	9302      	str	r3, [sp, #8]
 800024a:	9b02      	ldr	r3, [sp, #8]

  /*Configure GPIO pin Output Level */
  HAL_GPIO_WritePin(GPIOC, Wi_EN_Pin|Wi_RST_Pin|Wi_WAKE_Pin|Wi_GPIO_0_Pin, GPIO_PIN_RESET);
 800024c:	f8df 8094 	ldr.w	r8, [pc, #148]	@ 80002e4 <MX_GPIO_Init+0xe4>
 8000250:	4622      	mov	r2, r4
 8000252:	21cc      	movs	r1, #204	@ 0xcc
 8000254:	4640      	mov	r0, r8
 8000256:	f000 fd17 	bl	8000c88 <HAL_GPIO_WritePin>

  /*Configure GPIO pin Output Level */
  HAL_GPIO_WritePin(GPIOB, Wi_PWR_CTRL_Pin|Lo_PWR_CTRL_Pin|SD0_PWR_CTRL_Pin|Lo_GPIO_0_Pin
 800025a:	4e21      	ldr	r6, [pc, #132]	@ (80002e0 <MX_GPIO_Init+0xe0>)
 800025c:	4622      	mov	r2, r4
 800025e:	f641 4107 	movw	r1, #7175	@ 0x1c07
 8000262:	4630      	mov	r0, r6
 8000264:	f000 fd10 	bl	8000c88 <HAL_GPIO_WritePin>
                          |Lo_GPIO_1_Pin|Lo_GPIO_2_Pin, GPIO_PIN_RESET);

  /*Configure GPIO pins : Wi_EN_Pin Wi_RST_Pin Wi_WAKE_Pin Wi_GPIO_0_Pin */
  GPIO_InitStruct.Pin = Wi_EN_Pin|Wi_RST_Pin|Wi_WAKE_Pin|Wi_GPIO_0_Pin;
 8000268:	23cc      	movs	r3, #204	@ 0xcc
 800026a:	9303      	str	r3, [sp, #12]
  GPIO_InitStruct.Mode = GPIO_MODE_OUTPUT_PP;
 800026c:	2701      	movs	r7, #1
 800026e:	9704      	str	r7, [sp, #16]
  GPIO_InitStruct.Pull = GPIO_NOPULL;
 8000270:	9405      	str	r4, [sp, #20]
  GPIO_InitStruct.Speed = GPIO_SPEED_FREQ_LOW;
 8000272:	9406      	str	r4, [sp, #24]
  HAL_GPIO_Init(GPIOC, &GPIO_InitStruct);
 8000274:	4629      	mov	r1, r5
 8000276:	4640      	mov	r0, r8
 8000278:	f000 fbf8 	bl	8000a6c <HAL_GPIO_Init>

  /*Configure GPIO pins : Wi_PWR_CTRL_Pin Lo_PWR_CTRL_Pin SD0_PWR_CTRL_Pin Lo_GPIO_0_Pin
                           Lo_GPIO_1_Pin Lo_GPIO_2_Pin */
  GPIO_InitStruct.Pin = Wi_PWR_CTRL_Pin|Lo_PWR_CTRL_Pin|SD0_PWR_CTRL_Pin|Lo_GPIO_0_Pin
 800027c:	f641 4307 	movw	r3, #7175	@ 0x1c07
 8000280:	9303      	str	r3, [sp, #12]
                          |Lo_GPIO_1_Pin|Lo_GPIO_2_Pin;
  GPIO_InitStruct.Mode = GPIO_MODE_OUTPUT_PP;
 8000282:	9704      	str	r7, [sp, #16]
  GPIO_InitStruct.Pull = GPIO_NOPULL;
 8000284:	9405      	str	r4, [sp, #20]
  GPIO_InitStruct.Speed = GPIO_SPEED_FREQ_LOW;
 8000286:	9406      	str	r4, [sp, #24]
  HAL_GPIO_Init(GPIOB, &GPIO_InitStruct);
 8000288:	4629      	mov	r1, r5
 800028a:	4630      	mov	r0, r6
 800028c:	f000 fbee 	bl	8000a6c <HAL_GPIO_Init>

  /*Configure GPIO pin : PA8 */
  GPIO_InitStruct.Pin = GPIO_PIN_8;
 8000290:	f44f 7380 	mov.w	r3, #256	@ 0x100
 8000294:	9303      	str	r3, [sp, #12]
  GPIO_InitStruct.Mode = GPIO_MODE_AF_PP;
 8000296:	2302      	movs	r3, #2
 8000298:	9304      	str	r3, [sp, #16]
  GPIO_InitStruct.Pull = GPIO_NOPULL;
 800029a:	9405      	str	r4, [sp, #20]
  GPIO_InitStruct.Speed = GPIO_SPEED_FREQ_LOW;
 800029c:	9406      	str	r4, [sp, #24]
  GPIO_InitStruct.Alternate = GPIO_AF0_MCO;
 800029e:	9407      	str	r4, [sp, #28]
  HAL_GPIO_Init(GPIOA, &GPIO_InitStruct);
 80002a0:	4629      	mov	r1, r5
 80002a2:	f04f 4090 	mov.w	r0, #1207959552	@ 0x48000000
 80002a6:	f000 fbe1 	bl	8000a6c <HAL_GPIO_Init>

  /*Configure GPIO pin : D_wakeup_Pin */
  GPIO_InitStruct.Pin = D_wakeup_Pin;
 80002aa:	f44f 6300 	mov.w	r3, #2048	@ 0x800
 80002ae:	9303      	str	r3, [sp, #12]
  GPIO_InitStruct.Mode = GPIO_MODE_IT_RISING;
 80002b0:	f44f 1388 	mov.w	r3, #1114112	@ 0x110000
 80002b4:	9304      	str	r3, [sp, #16]
  GPIO_InitStruct.Pull = GPIO_NOPULL;
 80002b6:	9405      	str	r4, [sp, #20]
  HAL_GPIO_Init(D_wakeup_GPIO_Port, &GPIO_InitStruct);
 80002b8:	4629      	mov	r1, r5
 80002ba:	f04f 4090 	mov.w	r0, #1207959552	@ 0x48000000
 80002be:	f000 fbd5 	bl	8000a6c <HAL_GPIO_Init>

  /*Configure GPIO pin : D_GPIO0_Pin */
  GPIO_InitStruct.Pin = D_GPIO0_Pin;
 80002c2:	f44f 5380 	mov.w	r3, #4096	@ 0x1000
 80002c6:	9303      	str	r3, [sp, #12]
  GPIO_InitStruct.Mode = GPIO_MODE_INPUT;
 80002c8:	9404      	str	r4, [sp, #16]
  GPIO_InitStruct.Pull = GPIO_NOPULL;
 80002ca:	9405      	str	r4, [sp, #20]
  HAL_GPIO_Init(D_GPIO0_GPIO_Port, &GPIO_InitStruct);
 80002cc:	4629      	mov	r1, r5
 80002ce:	f04f 4090 	mov.w	r0, #1207959552	@ 0x48000000
 80002d2:	f000 fbcb 	bl	8000a6c <HAL_GPIO_Init>

  /* USER CODE BEGIN MX_GPIO_Init_2 */

  /* USER CODE END MX_GPIO_Init_2 */
}
 80002d6:	b008      	add	sp, #32
 80002d8:	e8bd 81f0 	ldmia.w	sp!, {r4, r5, r6, r7, r8, pc}
 80002dc:	40021000 	.word	0x40021000
 80002e0:	48000400 	.word	0x48000400
 80002e4:	48000800 	.word	0x48000800

080002e8 <Error_Handler>:
  \details Disables IRQ interrupts by setting the I-bit in the CPSR.
           Can only be executed in Privileged modes.
 */
__STATIC_FORCEINLINE void __disable_irq(void)
{
  __ASM volatile ("cpsid i" : : : "memory");
 80002e8:	b672      	cpsid	i
void Error_Handler(void)
{
  /* USER CODE BEGIN Error_Handler_Debug */
  /* User can add his own implementation to report the HAL error return state */
  __disable_irq();
  while (1)
 80002ea:	e7fe      	b.n	80002ea <Error_Handler+0x2>

080002ec <MX_LPUART1_UART_Init>:
{
 80002ec:	b508      	push	{r3, lr}
  hlpuart1.Instance = LPUART1;
 80002ee:	480b      	ldr	r0, [pc, #44]	@ (800031c <MX_LPUART1_UART_Init+0x30>)
 80002f0:	4b0b      	ldr	r3, [pc, #44]	@ (8000320 <MX_LPUART1_UART_Init+0x34>)
 80002f2:	6003      	str	r3, [r0, #0]
  hlpuart1.Init.BaudRate = 209700;
 80002f4:	4b0b      	ldr	r3, [pc, #44]	@ (8000324 <MX_LPUART1_UART_Init+0x38>)
 80002f6:	6043      	str	r3, [r0, #4]
  hlpuart1.Init.WordLength = UART_WORDLENGTH_7B;
 80002f8:	f04f 5380 	mov.w	r3, #268435456	@ 0x10000000
 80002fc:	6083      	str	r3, [r0, #8]
  hlpuart1.Init.StopBits = UART_STOPBITS_1;
 80002fe:	2300      	movs	r3, #0
 8000300:	60c3      	str	r3, [r0, #12]
  hlpuart1.Init.Parity = UART_PARITY_NONE;
 8000302:	6103      	str	r3, [r0, #16]
  hlpuart1.Init.Mode = UART_MODE_TX_RX;
 8000304:	220c      	movs	r2, #12
 8000306:	6142      	str	r2, [r0, #20]
  hlpuart1.Init.HwFlowCtl = UART_HWCONTROL_NONE;
 8000308:	6183      	str	r3, [r0, #24]
  hlpuart1.Init.OneBitSampling = UART_ONE_BIT_SAMPLE_DISABLE;
 800030a:	6203      	str	r3, [r0, #32]
  hlpuart1.AdvancedInit.AdvFeatureInit = UART_ADVFEATURE_NO_INIT;
 800030c:	6243      	str	r3, [r0, #36]	@ 0x24
  if (HAL_UART_Init(&hlpuart1) != HAL_OK)
 800030e:	f002 feb5 	bl	800307c <HAL_UART_Init>
 8000312:	b900      	cbnz	r0, 8000316 <MX_LPUART1_UART_Init+0x2a>
}
 8000314:	bd08      	pop	{r3, pc}
    Error_Handler();
 8000316:	f7ff ffe7 	bl	80002e8 <Error_Handler>
 800031a:	bf00      	nop
 800031c:	200001c4 	.word	0x200001c4
 8000320:	40008000 	.word	0x40008000
 8000324:	00033324 	.word	0x00033324

08000328 <MX_USART2_UART_Init>:
{
 8000328:	b508      	push	{r3, lr}
  huart2.Instance = USART2;
 800032a:	480c      	ldr	r0, [pc, #48]	@ (800035c <MX_USART2_UART_Init+0x34>)
 800032c:	4b0c      	ldr	r3, [pc, #48]	@ (8000360 <MX_USART2_UART_Init+0x38>)
 800032e:	6003      	str	r3, [r0, #0]
  huart2.Init.BaudRate = 115200;
 8000330:	f44f 33e1 	mov.w	r3, #115200	@ 0x1c200
 8000334:	6043      	str	r3, [r0, #4]
  huart2.Init.WordLength = UART_WORDLENGTH_8B;
 8000336:	2300      	movs	r3, #0
 8000338:	6083      	str	r3, [r0, #8]
  huart2.Init.StopBits = UART_STOPBITS_1;
 800033a:	60c3      	str	r3, [r0, #12]
  huart2.Init.Parity = UART_PARITY_NONE;
 800033c:	6103      	str	r3, [r0, #16]
  huart2.Init.Mode = UART_MODE_TX_RX;
 800033e:	220c      	movs	r2, #12
 8000340:	6142      	str	r2, [r0, #20]
  huart2.Init.HwFlowCtl = UART_HWCONTROL_RTS_CTS;
 8000342:	f44f 7240 	mov.w	r2, #768	@ 0x300
 8000346:	6182      	str	r2, [r0, #24]
  huart2.Init.OverSampling = UART_OVERSAMPLING_16;
 8000348:	61c3      	str	r3, [r0, #28]
  huart2.Init.OneBitSampling = UART_ONE_BIT_SAMPLE_DISABLE;
 800034a:	6203      	str	r3, [r0, #32]
  huart2.AdvancedInit.AdvFeatureInit = UART_ADVFEATURE_NO_INIT;
 800034c:	6243      	str	r3, [r0, #36]	@ 0x24
  if (HAL_UART_Init(&huart2) != HAL_OK)
 800034e:	f002 fe95 	bl	800307c <HAL_UART_Init>
 8000352:	b900      	cbnz	r0, 8000356 <MX_USART2_UART_Init+0x2e>
}
 8000354:	bd08      	pop	{r3, pc}
    Error_Handler();
 8000356:	f7ff ffc7 	bl	80002e8 <Error_Handler>
 800035a:	bf00      	nop
 800035c:	2000013c 	.word	0x2000013c
 8000360:	40004400 	.word	0x40004400

08000364 <MX_USART3_UART_Init>:
{
 8000364:	b508      	push	{r3, lr}
  huart3.Instance = USART3;
 8000366:	480b      	ldr	r0, [pc, #44]	@ (8000394 <MX_USART3_UART_Init+0x30>)
 8000368:	4b0b      	ldr	r3, [pc, #44]	@ (8000398 <MX_USART3_UART_Init+0x34>)
 800036a:	6003      	str	r3, [r0, #0]
  huart3.Init.BaudRate = 115200;
 800036c:	f44f 33e1 	mov.w	r3, #115200	@ 0x1c200
 8000370:	6043      	str	r3, [r0, #4]
  huart3.Init.WordLength = UART_WORDLENGTH_8B;
 8000372:	2300      	movs	r3, #0
 8000374:	6083      	str	r3, [r0, #8]
  huart3.Init.StopBits = UART_STOPBITS_1;
 8000376:	60c3      	str	r3, [r0, #12]
  huart3.Init.Parity = UART_PARITY_NONE;
 8000378:	6103      	str	r3, [r0, #16]
  huart3.Init.Mode = UART_MODE_TX_RX;
 800037a:	220c      	movs	r2, #12
 800037c:	6142      	str	r2, [r0, #20]
  huart3.Init.HwFlowCtl = UART_HWCONTROL_NONE;
 800037e:	6183      	str	r3, [r0, #24]
  huart3.Init.OverSampling = UART_OVERSAMPLING_16;
 8000380:	61c3      	str	r3, [r0, #28]
  huart3.Init.OneBitSampling = UART_ONE_BIT_SAMPLE_DISABLE;
 8000382:	6203      	str	r3, [r0, #32]
  huart3.AdvancedInit.AdvFeatureInit = UART_ADVFEATURE_NO_INIT;
 8000384:	6243      	str	r3, [r0, #36]	@ 0x24
  if (HAL_UART_Init(&huart3) != HAL_OK)
 8000386:	f002 fe79 	bl	800307c <HAL_UART_Init>
 800038a:	b900      	cbnz	r0, 800038e <MX_USART3_UART_Init+0x2a>
}
 800038c:	bd08      	pop	{r3, pc}
    Error_Handler();
 800038e:	f7ff ffab 	bl	80002e8 <Error_Handler>
 8000392:	bf00      	nop
 8000394:	200000b4 	.word	0x200000b4
 8000398:	40004800 	.word	0x40004800

0800039c <MX_SPI1_Init>:
{
 800039c:	b508      	push	{r3, lr}
  hspi1.Instance = SPI1;
 800039e:	480f      	ldr	r0, [pc, #60]	@ (80003dc <MX_SPI1_Init+0x40>)
 80003a0:	4b0f      	ldr	r3, [pc, #60]	@ (80003e0 <MX_SPI1_Init+0x44>)
 80003a2:	6003      	str	r3, [r0, #0]
  hspi1.Init.Mode = SPI_MODE_MASTER;
 80003a4:	f44f 7382 	mov.w	r3, #260	@ 0x104
 80003a8:	6043      	str	r3, [r0, #4]
  hspi1.Init.Direction = SPI_DIRECTION_2LINES;
 80003aa:	2300      	movs	r3, #0
 80003ac:	6083      	str	r3, [r0, #8]
  hspi1.Init.DataSize = SPI_DATASIZE_4BIT;
 80003ae:	f44f 7240 	mov.w	r2, #768	@ 0x300
 80003b2:	60c2      	str	r2, [r0, #12]
  hspi1.Init.CLKPolarity = SPI_POLARITY_LOW;
 80003b4:	6103      	str	r3, [r0, #16]
  hspi1.Init.CLKPhase = SPI_PHASE_1EDGE;
 80003b6:	6143      	str	r3, [r0, #20]
  hspi1.Init.NSS = SPI_NSS_HARD_OUTPUT;
 80003b8:	f44f 2280 	mov.w	r2, #262144	@ 0x40000
 80003bc:	6182      	str	r2, [r0, #24]
  hspi1.Init.BaudRatePrescaler = SPI_BAUDRATEPRESCALER_2;
 80003be:	61c3      	str	r3, [r0, #28]
  hspi1.Init.FirstBit = SPI_FIRSTBIT_MSB;
 80003c0:	6203      	str	r3, [r0, #32]
  hspi1.Init.TIMode = SPI_TIMODE_DISABLE;
 80003c2:	6243      	str	r3, [r0, #36]	@ 0x24
  hspi1.Init.CRCCalculation = SPI_CRCCALCULATION_DISABLE;
 80003c4:	6283      	str	r3, [r0, #40]	@ 0x28
  hspi1.Init.CRCPolynomial = 7;
 80003c6:	2207      	movs	r2, #7
 80003c8:	62c2      	str	r2, [r0, #44]	@ 0x2c
  hspi1.Init.CRCLength = SPI_CRC_LENGTH_DATASIZE;
 80003ca:	6303      	str	r3, [r0, #48]	@ 0x30
  hspi1.Init.NSSPMode = SPI_NSS_PULSE_ENABLE;
 80003cc:	2308      	movs	r3, #8
 80003ce:	6343      	str	r3, [r0, #52]	@ 0x34
  if (HAL_SPI_Init(&hspi1) != HAL_OK)
 80003d0:	f002 fb18 	bl	8002a04 <HAL_SPI_Init>
 80003d4:	b900      	cbnz	r0, 80003d8 <MX_SPI1_Init+0x3c>
}
 80003d6:	bd08      	pop	{r3, pc}
    Error_Handler();
 80003d8:	f7ff ff86 	bl	80002e8 <Error_Handler>
 80003dc:	2000002c 	.word	0x2000002c
 80003e0:	40013000 	.word	0x40013000

080003e4 <MX_RTC_Init>:
{
 80003e4:	b500      	push	{lr}
 80003e6:	b087      	sub	sp, #28
  RTC_TimeTypeDef sTime = {0};
 80003e8:	2300      	movs	r3, #0
 80003ea:	9301      	str	r3, [sp, #4]
 80003ec:	9302      	str	r3, [sp, #8]
 80003ee:	9303      	str	r3, [sp, #12]
 80003f0:	9304      	str	r3, [sp, #16]
 80003f2:	9305      	str	r3, [sp, #20]
  RTC_DateTypeDef sDate = {0};
 80003f4:	9300      	str	r3, [sp, #0]
  hrtc.Instance = RTC;
 80003f6:	4819      	ldr	r0, [pc, #100]	@ (800045c <MX_RTC_Init+0x78>)
 80003f8:	4a19      	ldr	r2, [pc, #100]	@ (8000460 <MX_RTC_Init+0x7c>)
 80003fa:	6002      	str	r2, [r0, #0]
  hrtc.Init.HourFormat = RTC_HOURFORMAT_24;
 80003fc:	6043      	str	r3, [r0, #4]
  hrtc.Init.AsynchPrediv = 127;
 80003fe:	227f      	movs	r2, #127	@ 0x7f
 8000400:	6082      	str	r2, [r0, #8]
  hrtc.Init.SynchPrediv = 255;
 8000402:	22ff      	movs	r2, #255	@ 0xff
 8000404:	60c2      	str	r2, [r0, #12]
  hrtc.Init.OutPut = RTC_OUTPUT_DISABLE;
 8000406:	6103      	str	r3, [r0, #16]
  hrtc.Init.OutPutRemap = RTC_OUTPUT_REMAP_NONE;
 8000408:	6143      	str	r3, [r0, #20]
  hrtc.Init.OutPutPolarity = RTC_OUTPUT_POLARITY_HIGH;
 800040a:	6183      	str	r3, [r0, #24]
  hrtc.Init.OutPutType = RTC_OUTPUT_TYPE_OPENDRAIN;
 800040c:	61c3      	str	r3, [r0, #28]
  if (HAL_RTC_Init(&hrtc) != HAL_OK)
 800040e:	f002 f9df 	bl	80027d0 <HAL_RTC_Init>
 8000412:	b9e8      	cbnz	r0, 8000450 <MX_RTC_Init+0x6c>
  sTime.Hours = 0x0;
 8000414:	f88d 0004 	strb.w	r0, [sp, #4]
  sTime.Minutes = 0x0;
 8000418:	f88d 0005 	strb.w	r0, [sp, #5]
  sTime.Seconds = 0x0;
 800041c:	f88d 0006 	strb.w	r0, [sp, #6]
  sTime.DayLightSaving = RTC_DAYLIGHTSAVING_NONE;
 8000420:	9004      	str	r0, [sp, #16]
  sTime.StoreOperation = RTC_STOREOPERATION_RESET;
 8000422:	9005      	str	r0, [sp, #20]
  if (HAL_RTC_SetTime(&hrtc, &sTime, RTC_FORMAT_BCD) != HAL_OK)
 8000424:	2201      	movs	r2, #1
 8000426:	a901      	add	r1, sp, #4
 8000428:	480c      	ldr	r0, [pc, #48]	@ (800045c <MX_RTC_Init+0x78>)
 800042a:	f002 fa2f 	bl	800288c <HAL_RTC_SetTime>
 800042e:	b988      	cbnz	r0, 8000454 <MX_RTC_Init+0x70>
  sDate.WeekDay = RTC_WEEKDAY_MONDAY;
 8000430:	2201      	movs	r2, #1
 8000432:	f88d 2000 	strb.w	r2, [sp]
  sDate.Month = RTC_MONTH_JANUARY;
 8000436:	f88d 2001 	strb.w	r2, [sp, #1]
  sDate.Date = 0x1;
 800043a:	f88d 2002 	strb.w	r2, [sp, #2]
  sDate.Year = 0x0;
 800043e:	f88d 0003 	strb.w	r0, [sp, #3]
  if (HAL_RTC_SetDate(&hrtc, &sDate, RTC_FORMAT_BCD) != HAL_OK)
 8000442:	4669      	mov	r1, sp
 8000444:	4805      	ldr	r0, [pc, #20]	@ (800045c <MX_RTC_Init+0x78>)
 8000446:	f002 fa89 	bl	800295c <HAL_RTC_SetDate>
 800044a:	b928      	cbnz	r0, 8000458 <MX_RTC_Init+0x74>
}
 800044c:	b007      	add	sp, #28
 800044e:	bd00      	pop	{pc}
    Error_Handler();
 8000450:	f7ff ff4a 	bl	80002e8 <Error_Handler>
    Error_Handler();
 8000454:	f7ff ff48 	bl	80002e8 <Error_Handler>
    Error_Handler();
 8000458:	f7ff ff46 	bl	80002e8 <Error_Handler>
 800045c:	20000090 	.word	0x20000090
 8000460:	40002800 	.word	0x40002800

08000464 <MX_I2C2_Init>:
{
 8000464:	b508      	push	{r3, lr}
  hi2c2.Instance = I2C2;
 8000466:	4811      	ldr	r0, [pc, #68]	@ (80004ac <MX_I2C2_Init+0x48>)
 8000468:	4b11      	ldr	r3, [pc, #68]	@ (80004b0 <MX_I2C2_Init+0x4c>)
 800046a:	6003      	str	r3, [r0, #0]
  hi2c2.Init.Timing = 0x10805D88;
 800046c:	4b11      	ldr	r3, [pc, #68]	@ (80004b4 <MX_I2C2_Init+0x50>)
 800046e:	6043      	str	r3, [r0, #4]
  hi2c2.Init.OwnAddress1 = 0;
 8000470:	2300      	movs	r3, #0
 8000472:	6083      	str	r3, [r0, #8]
  hi2c2.Init.AddressingMode = I2C_ADDRESSINGMODE_7BIT;
 8000474:	2201      	movs	r2, #1
 8000476:	60c2      	str	r2, [r0, #12]
  hi2c2.Init.DualAddressMode = I2C_DUALADDRESS_DISABLE;
 8000478:	6103      	str	r3, [r0, #16]
  hi2c2.Init.OwnAddress2 = 0;
 800047a:	6143      	str	r3, [r0, #20]
  hi2c2.Init.OwnAddress2Masks = I2C_OA2_NOMASK;
 800047c:	6183      	str	r3, [r0, #24]
  hi2c2.Init.GeneralCallMode = I2C_GENERALCALL_DISABLE;
 800047e:	61c3      	str	r3, [r0, #28]
  hi2c2.Init.NoStretchMode = I2C_NOSTRETCH_DISABLE;
 8000480:	6203      	str	r3, [r0, #32]
  if (HAL_I2C_Init(&hi2c2) != HAL_OK)
 8000482:	f000 fd9e 	bl	8000fc2 <HAL_I2C_Init>
 8000486:	b950      	cbnz	r0, 800049e <MX_I2C2_Init+0x3a>
  if (HAL_I2CEx_ConfigAnalogFilter(&hi2c2, I2C_ANALOGFILTER_ENABLE) != HAL_OK)
 8000488:	4601      	mov	r1, r0
 800048a:	4808      	ldr	r0, [pc, #32]	@ (80004ac <MX_I2C2_Init+0x48>)
 800048c:	f000 fecc 	bl	8001228 <HAL_I2CEx_ConfigAnalogFilter>
 8000490:	b938      	cbnz	r0, 80004a2 <MX_I2C2_Init+0x3e>
  if (HAL_I2CEx_ConfigDigitalFilter(&hi2c2, 0) != HAL_OK)
 8000492:	4601      	mov	r1, r0
 8000494:	4805      	ldr	r0, [pc, #20]	@ (80004ac <MX_I2C2_Init+0x48>)
 8000496:	f000 fef4 	bl	8001282 <HAL_I2CEx_ConfigDigitalFilter>
 800049a:	b920      	cbnz	r0, 80004a6 <MX_I2C2_Init+0x42>
}
 800049c:	bd08      	pop	{r3, pc}
    Error_Handler();
 800049e:	f7ff ff23 	bl	80002e8 <Error_Handler>
    Error_Handler();
 80004a2:	f7ff ff21 	bl	80002e8 <Error_Handler>
    Error_Handler();
 80004a6:	f7ff ff1f 	bl	80002e8 <Error_Handler>
 80004aa:	bf00      	nop
 80004ac:	2000024c 	.word	0x2000024c
 80004b0:	40005800 	.word	0x40005800
 80004b4:	10805d88 	.word	0x10805d88

080004b8 <SystemClock_Config>:
{
 80004b8:	b500      	push	{lr}
 80004ba:	b097      	sub	sp, #92	@ 0x5c
  RCC_OscInitTypeDef RCC_OscInitStruct = {0};
 80004bc:	2244      	movs	r2, #68	@ 0x44
 80004be:	2100      	movs	r1, #0
 80004c0:	a805      	add	r0, sp, #20
 80004c2:	f002 fe4c 	bl	800315e <memset>
  RCC_ClkInitTypeDef RCC_ClkInitStruct = {0};
 80004c6:	2300      	movs	r3, #0
 80004c8:	9300      	str	r3, [sp, #0]
 80004ca:	9301      	str	r3, [sp, #4]
 80004cc:	9302      	str	r3, [sp, #8]
 80004ce:	9303      	str	r3, [sp, #12]
 80004d0:	9304      	str	r3, [sp, #16]
  if (HAL_PWREx_ControlVoltageScaling(PWR_REGULATOR_VOLTAGE_SCALE1) != HAL_OK)
 80004d2:	f44f 7000 	mov.w	r0, #512	@ 0x200
 80004d6:	f001 f863 	bl	80015a0 <HAL_PWREx_ControlVoltageScaling>
 80004da:	b9f0      	cbnz	r0, 800051a <SystemClock_Config+0x62>
  RCC_OscInitStruct.OscillatorType = RCC_OSCILLATORTYPE_LSI|RCC_OSCILLATORTYPE_MSI;
 80004dc:	2318      	movs	r3, #24
 80004de:	9305      	str	r3, [sp, #20]
  RCC_OscInitStruct.LSIState = RCC_LSI_ON;
 80004e0:	2301      	movs	r3, #1
 80004e2:	930a      	str	r3, [sp, #40]	@ 0x28
  RCC_OscInitStruct.MSIState = RCC_MSI_ON;
 80004e4:	930b      	str	r3, [sp, #44]	@ 0x2c
  RCC_OscInitStruct.MSICalibrationValue = 0;
 80004e6:	900c      	str	r0, [sp, #48]	@ 0x30
  RCC_OscInitStruct.MSIClockRange = RCC_MSIRANGE_11;
 80004e8:	22b0      	movs	r2, #176	@ 0xb0
 80004ea:	920d      	str	r2, [sp, #52]	@ 0x34
  RCC_OscInitStruct.PLL.PLLState = RCC_PLL_NONE;
 80004ec:	900f      	str	r0, [sp, #60]	@ 0x3c
  if (HAL_RCC_OscConfig(&RCC_OscInitStruct) != HAL_OK)
 80004ee:	a805      	add	r0, sp, #20
 80004f0:	f001 f962 	bl	80017b8 <HAL_RCC_OscConfig>
 80004f4:	b998      	cbnz	r0, 800051e <SystemClock_Config+0x66>
  RCC_ClkInitStruct.ClockType = RCC_CLOCKTYPE_HCLK|RCC_CLOCKTYPE_SYSCLK
 80004f6:	230f      	movs	r3, #15
 80004f8:	9300      	str	r3, [sp, #0]
  RCC_ClkInitStruct.SYSCLKSource = RCC_SYSCLKSOURCE_MSI;
 80004fa:	9001      	str	r0, [sp, #4]
  RCC_ClkInitStruct.AHBCLKDivider = RCC_SYSCLK_DIV1;
 80004fc:	9002      	str	r0, [sp, #8]
  RCC_ClkInitStruct.APB1CLKDivider = RCC_HCLK_DIV1;
 80004fe:	9003      	str	r0, [sp, #12]
  RCC_ClkInitStruct.APB2CLKDivider = RCC_HCLK_DIV1;
 8000500:	9004      	str	r0, [sp, #16]
  if (HAL_RCC_ClockConfig(&RCC_ClkInitStruct, FLASH_LATENCY_2) != HAL_OK)
 8000502:	2102      	movs	r1, #2
 8000504:	4668      	mov	r0, sp
 8000506:	f001 fc67 	bl	8001dd8 <HAL_RCC_ClockConfig>
 800050a:	b950      	cbnz	r0, 8000522 <SystemClock_Config+0x6a>
  HAL_RCC_MCOConfig(RCC_MCO1, RCC_MCO1SOURCE_SYSCLK, RCC_MCODIV_1);
 800050c:	4602      	mov	r2, r0
 800050e:	f04f 7180 	mov.w	r1, #16777216	@ 0x1000000
 8000512:	f001 f8d5 	bl	80016c0 <HAL_RCC_MCOConfig>
}
 8000516:	b017      	add	sp, #92	@ 0x5c
 8000518:	bd00      	pop	{pc}
    Error_Handler();
 800051a:	f7ff fee5 	bl	80002e8 <Error_Handler>
    Error_Handler();
 800051e:	f7ff fee3 	bl	80002e8 <Error_Handler>
    Error_Handler();
 8000522:	f7ff fee1 	bl	80002e8 <Error_Handler>
	...

08000528 <main>:
{
 8000528:	b500      	push	{lr}
 800052a:	b083      	sub	sp, #12
  HAL_Init();
 800052c:	f000 f9fa 	bl	8000924 <HAL_Init>
  SystemClock_Config();
 8000530:	f7ff ffc2 	bl	80004b8 <SystemClock_Config>
  MX_GPIO_Init();
 8000534:	f7ff fe64 	bl	8000200 <MX_GPIO_Init>
  MX_LPUART1_UART_Init();
 8000538:	f7ff fed8 	bl	80002ec <MX_LPUART1_UART_Init>
  MX_USART2_UART_Init();
 800053c:	f7ff fef4 	bl	8000328 <MX_USART2_UART_Init>
  MX_USART3_UART_Init();
 8000540:	f7ff ff10 	bl	8000364 <MX_USART3_UART_Init>
  MX_SPI1_Init();
 8000544:	f7ff ff2a 	bl	800039c <MX_SPI1_Init>
  MX_RTC_Init();
 8000548:	f7ff ff4c 	bl	80003e4 <MX_RTC_Init>
  MX_I2C2_Init();
 800054c:	f7ff ff8a 	bl	8000464 <MX_I2C2_Init>
  HAL_GPIO_WritePin(Lo_PWR_CTRL_GPIO_Port, Lo_PWR_CTRL_Pin, GPIO_PIN_SET);
 8000550:	2201      	movs	r2, #1
 8000552:	2102      	movs	r1, #2
 8000554:	481d      	ldr	r0, [pc, #116]	@ (80005cc <main+0xa4>)
 8000556:	f000 fb97 	bl	8000c88 <HAL_GPIO_WritePin>
  HAL_GPIO_WritePin(Wi_EN_GPIO_Port, Wi_EN_Pin, GPIO_PIN_SET);
 800055a:	4c1d      	ldr	r4, [pc, #116]	@ (80005d0 <main+0xa8>)
 800055c:	2201      	movs	r2, #1
 800055e:	2104      	movs	r1, #4
 8000560:	4620      	mov	r0, r4
 8000562:	f000 fb91 	bl	8000c88 <HAL_GPIO_WritePin>
  HAL_GPIO_WritePin(Wi_GPIO_0_GPIO_Port, Wi_GPIO_0_Pin, GPIO_PIN_SET);
 8000566:	2201      	movs	r2, #1
 8000568:	2180      	movs	r1, #128	@ 0x80
 800056a:	4620      	mov	r0, r4
 800056c:	f000 fb8c 	bl	8000c88 <HAL_GPIO_WritePin>
  ssd1306_Init(); 
 8000570:	f000 f94c 	bl	800080c <ssd1306_Init>
  ssd1306_SetCursor(0, 0);                           // x, y pixel position
 8000574:	2100      	movs	r1, #0
 8000576:	4608      	mov	r0, r1
 8000578:	f000 f928 	bl	80007cc <ssd1306_SetCursor>
  ssd1306_WriteString("Hello!", Font_7x10, White);
 800057c:	4c15      	ldr	r4, [pc, #84]	@ (80005d4 <main+0xac>)
 800057e:	2501      	movs	r5, #1
 8000580:	9500      	str	r5, [sp, #0]
 8000582:	e894 000e 	ldmia.w	r4, {r1, r2, r3}
 8000586:	4814      	ldr	r0, [pc, #80]	@ (80005d8 <main+0xb0>)
 8000588:	f000 f908 	bl	800079c <ssd1306_WriteString>
  ssd1306_SetCursor(0, 12);
 800058c:	210c      	movs	r1, #12
 800058e:	2000      	movs	r0, #0
 8000590:	f000 f91c 	bl	80007cc <ssd1306_SetCursor>
  ssd1306_WriteString("STM32L4", Font_7x10, White);
 8000594:	9500      	str	r5, [sp, #0]
 8000596:	e894 000e 	ldmia.w	r4, {r1, r2, r3}
 800059a:	4810      	ldr	r0, [pc, #64]	@ (80005dc <main+0xb4>)
 800059c:	f000 f8fe 	bl	800079c <ssd1306_WriteString>
  ssd1306_SetCursor(0, 30);
 80005a0:	211e      	movs	r1, #30
 80005a2:	2000      	movs	r0, #0
 80005a4:	f000 f912 	bl	80007cc <ssd1306_SetCursor>
  ssd1306_WriteString("BIG", Font_16x26, White);
 80005a8:	4b0d      	ldr	r3, [pc, #52]	@ (80005e0 <main+0xb8>)
 80005aa:	9500      	str	r5, [sp, #0]
 80005ac:	cb0e      	ldmia	r3, {r1, r2, r3}
 80005ae:	480d      	ldr	r0, [pc, #52]	@ (80005e4 <main+0xbc>)
 80005b0:	f000 f8f4 	bl	800079c <ssd1306_WriteString>
  ssd1306_UpdateScreen();   
 80005b4:	f000 f84e 	bl	8000654 <ssd1306_UpdateScreen>
  {  HAL_GPIO_TogglePin(Lo_PWR_CTRL_GPIO_Port, Lo_PWR_CTRL_Pin);
 80005b8:	2102      	movs	r1, #2
 80005ba:	4804      	ldr	r0, [pc, #16]	@ (80005cc <main+0xa4>)
 80005bc:	f000 fb69 	bl	8000c92 <HAL_GPIO_TogglePin>
    HAL_Delay(2000);
 80005c0:	f44f 60fa 	mov.w	r0, #2000	@ 0x7d0
 80005c4:	f000 f9d0 	bl	8000968 <HAL_Delay>
  while (1)
 80005c8:	e7f6      	b.n	80005b8 <main+0x90>
 80005ca:	bf00      	nop
 80005cc:	48000400 	.word	0x48000400
 80005d0:	48000800 	.word	0x48000800
 80005d4:	08003510 	.word	0x08003510
 80005d8:	080034f0 	.word	0x080034f0
 80005dc:	080034f8 	.word	0x080034f8
 80005e0:	08003504 	.word	0x08003504
 80005e4:	08003500 	.word	0x08003500

080005e8 <ssd1306_WriteCommand>:
void ssd1306_Reset(void) {
    /* for I2C - do nothing */
}

// Send a byte to the command register
void ssd1306_WriteCommand(uint8_t byte) {
 80005e8:	b500      	push	{lr}
 80005ea:	b087      	sub	sp, #28
 80005ec:	f88d 0017 	strb.w	r0, [sp, #23]
    HAL_I2C_Mem_Write(&SSD1306_I2C_PORT, SSD1306_I2C_ADDR, 0x00, 1, &byte, 1, HAL_MAX_DELAY);
 80005f0:	f04f 33ff 	mov.w	r3, #4294967295	@ 0xffffffff
 80005f4:	9302      	str	r3, [sp, #8]
 80005f6:	2301      	movs	r3, #1
 80005f8:	9301      	str	r3, [sp, #4]
 80005fa:	f10d 0217 	add.w	r2, sp, #23
 80005fe:	9200      	str	r2, [sp, #0]
 8000600:	2200      	movs	r2, #0
 8000602:	2178      	movs	r1, #120	@ 0x78
 8000604:	4802      	ldr	r0, [pc, #8]	@ (8000610 <ssd1306_WriteCommand+0x28>)
 8000606:	f000 fd40 	bl	800108a <HAL_I2C_Mem_Write>
}
 800060a:	b007      	add	sp, #28
 800060c:	bd00      	pop	{pc}
 800060e:	bf00      	nop
 8000610:	2000024c 	.word	0x2000024c

08000614 <ssd1306_WriteData>:

// Send data
void ssd1306_WriteData(uint8_t* buffer, size_t buff_size) {
 8000614:	b500      	push	{lr}
 8000616:	b085      	sub	sp, #20
    HAL_I2C_Mem_Write(&SSD1306_I2C_PORT, SSD1306_I2C_ADDR, 0x40, 1, buffer, buff_size, HAL_MAX_DELAY);
 8000618:	f04f 33ff 	mov.w	r3, #4294967295	@ 0xffffffff
 800061c:	9302      	str	r3, [sp, #8]
 800061e:	b289      	uxth	r1, r1
 8000620:	9101      	str	r1, [sp, #4]
 8000622:	9000      	str	r0, [sp, #0]
 8000624:	2301      	movs	r3, #1
 8000626:	2240      	movs	r2, #64	@ 0x40
 8000628:	2178      	movs	r1, #120	@ 0x78
 800062a:	4802      	ldr	r0, [pc, #8]	@ (8000634 <ssd1306_WriteData+0x20>)
 800062c:	f000 fd2d 	bl	800108a <HAL_I2C_Mem_Write>
}
 8000630:	b005      	add	sp, #20
 8000632:	bd00      	pop	{pc}
 8000634:	2000024c 	.word	0x2000024c

08000638 <ssd1306_Fill>:
    
    SSD1306.Initialized = 1;
}

/* Fill the whole screen with the given color */
void ssd1306_Fill(SSD1306_COLOR color) {
 8000638:	b508      	push	{r3, lr}
    memset(SSD1306_Buffer, (color == Black) ? 0x00 : 0xFF, sizeof(SSD1306_Buffer));
 800063a:	b930      	cbnz	r0, 800064a <ssd1306_Fill+0x12>
 800063c:	4601      	mov	r1, r0
 800063e:	f44f 6280 	mov.w	r2, #1024	@ 0x400
 8000642:	4803      	ldr	r0, [pc, #12]	@ (8000650 <ssd1306_Fill+0x18>)
 8000644:	f002 fd8b 	bl	800315e <memset>
}
 8000648:	bd08      	pop	{r3, pc}
    memset(SSD1306_Buffer, (color == Black) ? 0x00 : 0xFF, sizeof(SSD1306_Buffer));
 800064a:	21ff      	movs	r1, #255	@ 0xff
 800064c:	e7f7      	b.n	800063e <ssd1306_Fill+0x6>
 800064e:	bf00      	nop
 8000650:	200002a8 	.word	0x200002a8

08000654 <ssd1306_UpdateScreen>:

/* Write the screenbuffer with changed to the screen */
void ssd1306_UpdateScreen(void) {
 8000654:	b510      	push	{r4, lr}
    // depends on the screen height:
    //
    //  * 32px   ==  4 pages
    //  * 64px   ==  8 pages
    //  * 128px  ==  16 pages
    for(uint8_t i = 0; i < SSD1306_HEIGHT/8; i++) {
 8000656:	2400      	movs	r4, #0
 8000658:	e012      	b.n	8000680 <ssd1306_UpdateScreen+0x2c>
        ssd1306_WriteCommand(0xB0 + i); // Set the current RAM page address.
 800065a:	f1a4 0050 	sub.w	r0, r4, #80	@ 0x50
 800065e:	b2c0      	uxtb	r0, r0
 8000660:	f7ff ffc2 	bl	80005e8 <ssd1306_WriteCommand>
        ssd1306_WriteCommand(0x00 + SSD1306_X_OFFSET_LOWER);
 8000664:	2000      	movs	r0, #0
 8000666:	f7ff ffbf 	bl	80005e8 <ssd1306_WriteCommand>
        ssd1306_WriteCommand(0x10 + SSD1306_X_OFFSET_UPPER);
 800066a:	2010      	movs	r0, #16
 800066c:	f7ff ffbc 	bl	80005e8 <ssd1306_WriteCommand>
        ssd1306_WriteData(&SSD1306_Buffer[SSD1306_WIDTH*i],SSD1306_WIDTH);
 8000670:	2180      	movs	r1, #128	@ 0x80
 8000672:	4805      	ldr	r0, [pc, #20]	@ (8000688 <ssd1306_UpdateScreen+0x34>)
 8000674:	eb00 10c4 	add.w	r0, r0, r4, lsl #7
 8000678:	f7ff ffcc 	bl	8000614 <ssd1306_WriteData>
    for(uint8_t i = 0; i < SSD1306_HEIGHT/8; i++) {
 800067c:	3401      	adds	r4, #1
 800067e:	b2e4      	uxtb	r4, r4
 8000680:	2c07      	cmp	r4, #7
 8000682:	d9ea      	bls.n	800065a <ssd1306_UpdateScreen+0x6>
    }
}
 8000684:	bd10      	pop	{r4, pc}
 8000686:	bf00      	nop
 8000688:	200002a8 	.word	0x200002a8

0800068c <ssd1306_DrawPixel>:
 * X => X Coordinate
 * Y => Y Coordinate
 * color => Pixel color
 */
void ssd1306_DrawPixel(uint8_t x, uint8_t y, SSD1306_COLOR color) {
    if(x >= SSD1306_WIDTH || y >= SSD1306_HEIGHT) {
 800068c:	f010 0f80 	tst.w	r0, #128	@ 0x80
 8000690:	d113      	bne.n	80006ba <ssd1306_DrawPixel+0x2e>
 8000692:	293f      	cmp	r1, #63	@ 0x3f
 8000694:	d811      	bhi.n	80006ba <ssd1306_DrawPixel+0x2e>
        // Don't write outside the buffer
        return;
    }
   
    // Draw in the right color
    if(color == White) {
 8000696:	2a01      	cmp	r2, #1
 8000698:	d010      	beq.n	80006bc <ssd1306_DrawPixel+0x30>
        SSD1306_Buffer[x + (y / 8) * SSD1306_WIDTH] |= 1 << (y % 8);
    } else { 
        SSD1306_Buffer[x + (y / 8) * SSD1306_WIDTH] &= ~(1 << (y % 8));
 800069a:	08cb      	lsrs	r3, r1, #3
 800069c:	eb00 10c3 	add.w	r0, r0, r3, lsl #7
 80006a0:	f8df c034 	ldr.w	ip, [pc, #52]	@ 80006d8 <ssd1306_DrawPixel+0x4c>
 80006a4:	f81c 2000 	ldrb.w	r2, [ip, r0]
 80006a8:	f001 0107 	and.w	r1, r1, #7
 80006ac:	2301      	movs	r3, #1
 80006ae:	408b      	lsls	r3, r1
 80006b0:	43db      	mvns	r3, r3
 80006b2:	b25b      	sxtb	r3, r3
 80006b4:	4013      	ands	r3, r2
 80006b6:	f80c 3000 	strb.w	r3, [ip, r0]
    }
}
 80006ba:	4770      	bx	lr
        SSD1306_Buffer[x + (y / 8) * SSD1306_WIDTH] |= 1 << (y % 8);
 80006bc:	08cb      	lsrs	r3, r1, #3
 80006be:	eb00 10c3 	add.w	r0, r0, r3, lsl #7
 80006c2:	f8df c014 	ldr.w	ip, [pc, #20]	@ 80006d8 <ssd1306_DrawPixel+0x4c>
 80006c6:	f81c 3000 	ldrb.w	r3, [ip, r0]
 80006ca:	f001 0107 	and.w	r1, r1, #7
 80006ce:	408a      	lsls	r2, r1
 80006d0:	4313      	orrs	r3, r2
 80006d2:	f80c 3000 	strb.w	r3, [ip, r0]
 80006d6:	4770      	bx	lr
 80006d8:	200002a8 	.word	0x200002a8

080006dc <ssd1306_WriteChar>:
 * Draw 1 char to the screen buffer
 * ch       => char om weg te schrijven
 * Font     => Font waarmee we gaan schrijven
 * color    => Black or White
 */
char ssd1306_WriteChar(char ch, SSD1306_Font_t Font, SSD1306_COLOR color) {
 80006dc:	e92d 47f0 	stmdb	sp!, {r4, r5, r6, r7, r8, r9, sl, lr}
 80006e0:	b084      	sub	sp, #16
 80006e2:	4681      	mov	r9, r0
 80006e4:	a804      	add	r0, sp, #16
 80006e6:	e900 000e 	stmdb	r0, {r1, r2, r3}
 80006ea:	f89d 8030 	ldrb.w	r8, [sp, #48]	@ 0x30
    uint32_t i, b, j;
    
    // Check if character is valid
    if (ch < 32 || ch > 126)
 80006ee:	f1a9 0320 	sub.w	r3, r9, #32
 80006f2:	b2db      	uxtb	r3, r3
 80006f4:	2b5e      	cmp	r3, #94	@ 0x5e
 80006f6:	d846      	bhi.n	8000786 <ssd1306_WriteChar+0xaa>
        return 0;
    
    // Char width is not equal to font width for proportional font
    const uint8_t char_width = Font.char_width ? Font.char_width[ch-32] : Font.width;
 80006f8:	9b03      	ldr	r3, [sp, #12]
 80006fa:	b183      	cbz	r3, 800071e <ssd1306_WriteChar+0x42>
 80006fc:	f1a9 0220 	sub.w	r2, r9, #32
 8000700:	5c9e      	ldrb	r6, [r3, r2]
    // Check remaining space on current line
    if (SSD1306_WIDTH < (SSD1306.CurrentX + char_width) ||
 8000702:	4b25      	ldr	r3, [pc, #148]	@ (8000798 <ssd1306_WriteChar+0xbc>)
 8000704:	881b      	ldrh	r3, [r3, #0]
 8000706:	4433      	add	r3, r6
 8000708:	2b80      	cmp	r3, #128	@ 0x80
 800070a:	dc40      	bgt.n	800078e <ssd1306_WriteChar+0xb2>
        SSD1306_HEIGHT < (SSD1306.CurrentY + Font.height))
 800070c:	4b22      	ldr	r3, [pc, #136]	@ (8000798 <ssd1306_WriteChar+0xbc>)
 800070e:	885b      	ldrh	r3, [r3, #2]
 8000710:	f89d a005 	ldrb.w	sl, [sp, #5]
 8000714:	4453      	add	r3, sl
    if (SSD1306_WIDTH < (SSD1306.CurrentX + char_width) ||
 8000716:	2b40      	cmp	r3, #64	@ 0x40
 8000718:	dc3b      	bgt.n	8000792 <ssd1306_WriteChar+0xb6>
        // Not enough space on current line
        return 0;
    }
    
    // Use the font to write
    for(i = 0; i < Font.height; i++) {
 800071a:	2500      	movs	r5, #0
 800071c:	e022      	b.n	8000764 <ssd1306_WriteChar+0x88>
    const uint8_t char_width = Font.char_width ? Font.char_width[ch-32] : Font.width;
 800071e:	f89d 6004 	ldrb.w	r6, [sp, #4]
 8000722:	e7ee      	b.n	8000702 <ssd1306_WriteChar+0x26>
        b = Font.data[(ch - 32) * Font.height + i];
        for(j = 0; j < char_width; j++) {
            if((b << j) & 0x8000)  {
                ssd1306_DrawPixel(SSD1306.CurrentX + j, (SSD1306.CurrentY + i), (SSD1306_COLOR) color);
            } else {
                ssd1306_DrawPixel(SSD1306.CurrentX + j, (SSD1306.CurrentY + i), (SSD1306_COLOR)!color);
 8000724:	4b1c      	ldr	r3, [pc, #112]	@ (8000798 <ssd1306_WriteChar+0xbc>)
 8000726:	8818      	ldrh	r0, [r3, #0]
 8000728:	8859      	ldrh	r1, [r3, #2]
 800072a:	4429      	add	r1, r5
 800072c:	4420      	add	r0, r4
 800072e:	fab8 f288 	clz	r2, r8
 8000732:	0952      	lsrs	r2, r2, #5
 8000734:	b2c9      	uxtb	r1, r1
 8000736:	b2c0      	uxtb	r0, r0
 8000738:	f7ff ffa8 	bl	800068c <ssd1306_DrawPixel>
        for(j = 0; j < char_width; j++) {
 800073c:	3401      	adds	r4, #1
 800073e:	42a6      	cmp	r6, r4
 8000740:	d90f      	bls.n	8000762 <ssd1306_WriteChar+0x86>
            if((b << j) & 0x8000)  {
 8000742:	fa07 f304 	lsl.w	r3, r7, r4
 8000746:	f413 4f00 	tst.w	r3, #32768	@ 0x8000
 800074a:	d0eb      	beq.n	8000724 <ssd1306_WriteChar+0x48>
                ssd1306_DrawPixel(SSD1306.CurrentX + j, (SSD1306.CurrentY + i), (SSD1306_COLOR) color);
 800074c:	4b12      	ldr	r3, [pc, #72]	@ (8000798 <ssd1306_WriteChar+0xbc>)
 800074e:	8818      	ldrh	r0, [r3, #0]
 8000750:	8859      	ldrh	r1, [r3, #2]
 8000752:	4429      	add	r1, r5
 8000754:	4420      	add	r0, r4
 8000756:	4642      	mov	r2, r8
 8000758:	b2c9      	uxtb	r1, r1
 800075a:	b2c0      	uxtb	r0, r0
 800075c:	f7ff ff96 	bl	800068c <ssd1306_DrawPixel>
 8000760:	e7ec      	b.n	800073c <ssd1306_WriteChar+0x60>
    for(i = 0; i < Font.height; i++) {
 8000762:	3501      	adds	r5, #1
 8000764:	45aa      	cmp	sl, r5
 8000766:	d908      	bls.n	800077a <ssd1306_WriteChar+0x9e>
        b = Font.data[(ch - 32) * Font.height + i];
 8000768:	f1a9 0320 	sub.w	r3, r9, #32
 800076c:	fb03 530a 	mla	r3, r3, sl, r5
 8000770:	9a02      	ldr	r2, [sp, #8]
 8000772:	f832 7013 	ldrh.w	r7, [r2, r3, lsl #1]
        for(j = 0; j < char_width; j++) {
 8000776:	2400      	movs	r4, #0
 8000778:	e7e1      	b.n	800073e <ssd1306_WriteChar+0x62>
            }
        }
    }
    
    // The current space is now taken
    SSD1306.CurrentX += char_width;
 800077a:	4b07      	ldr	r3, [pc, #28]	@ (8000798 <ssd1306_WriteChar+0xbc>)
 800077c:	881a      	ldrh	r2, [r3, #0]
 800077e:	4416      	add	r6, r2
 8000780:	801e      	strh	r6, [r3, #0]
    
    // Return written char for validation
    return ch;
 8000782:	4648      	mov	r0, r9
 8000784:	e000      	b.n	8000788 <ssd1306_WriteChar+0xac>
        return 0;
 8000786:	2000      	movs	r0, #0
}
 8000788:	b004      	add	sp, #16
 800078a:	e8bd 87f0 	ldmia.w	sp!, {r4, r5, r6, r7, r8, r9, sl, pc}
        return 0;
 800078e:	2000      	movs	r0, #0
 8000790:	e7fa      	b.n	8000788 <ssd1306_WriteChar+0xac>
 8000792:	2000      	movs	r0, #0
 8000794:	e7f8      	b.n	8000788 <ssd1306_WriteChar+0xac>
 8000796:	bf00      	nop
 8000798:	200002a0 	.word	0x200002a0

0800079c <ssd1306_WriteString>:

/* Write full string to screenbuffer */
char ssd1306_WriteString(char* str, SSD1306_Font_t Font, SSD1306_COLOR color) {
 800079c:	b530      	push	{r4, r5, lr}
 800079e:	b087      	sub	sp, #28
 80007a0:	4604      	mov	r4, r0
 80007a2:	a806      	add	r0, sp, #24
 80007a4:	e900 000e 	stmdb	r0, {r1, r2, r3}
 80007a8:	f89d 5028 	ldrb.w	r5, [sp, #40]	@ 0x28
    while (*str) {
 80007ac:	e000      	b.n	80007b0 <ssd1306_WriteString+0x14>
        if (ssd1306_WriteChar(*str, Font, color) != *str) {
            // Char could not be written
            return *str;
        }
        str++;
 80007ae:	3401      	adds	r4, #1
    while (*str) {
 80007b0:	7820      	ldrb	r0, [r4, #0]
 80007b2:	b148      	cbz	r0, 80007c8 <ssd1306_WriteString+0x2c>
        if (ssd1306_WriteChar(*str, Font, color) != *str) {
 80007b4:	9500      	str	r5, [sp, #0]
 80007b6:	ab06      	add	r3, sp, #24
 80007b8:	e913 000e 	ldmdb	r3, {r1, r2, r3}
 80007bc:	f7ff ff8e 	bl	80006dc <ssd1306_WriteChar>
 80007c0:	4603      	mov	r3, r0
 80007c2:	7820      	ldrb	r0, [r4, #0]
 80007c4:	4283      	cmp	r3, r0
 80007c6:	d0f2      	beq.n	80007ae <ssd1306_WriteString+0x12>
    }
    
    // Everything ok
    return *str;
}
 80007c8:	b007      	add	sp, #28
 80007ca:	bd30      	pop	{r4, r5, pc}

080007cc <ssd1306_SetCursor>:

/* Position the cursor */
void ssd1306_SetCursor(uint8_t x, uint8_t y) {
    SSD1306.CurrentX = x;
 80007cc:	4b01      	ldr	r3, [pc, #4]	@ (80007d4 <ssd1306_SetCursor+0x8>)
 80007ce:	8018      	strh	r0, [r3, #0]
    SSD1306.CurrentY = y;
 80007d0:	8059      	strh	r1, [r3, #2]
}
 80007d2:	4770      	bx	lr
 80007d4:	200002a0 	.word	0x200002a0

080007d8 <ssd1306_SetContrast>:
        }
    }
    return;
}

void ssd1306_SetContrast(const uint8_t value) {
 80007d8:	b510      	push	{r4, lr}
 80007da:	4604      	mov	r4, r0
    const uint8_t kSetContrastControlRegister = 0x81;
    ssd1306_WriteCommand(kSetContrastControlRegister);
 80007dc:	2081      	movs	r0, #129	@ 0x81
 80007de:	f7ff ff03 	bl	80005e8 <ssd1306_WriteCommand>
    ssd1306_WriteCommand(value);
 80007e2:	4620      	mov	r0, r4
 80007e4:	f7ff ff00 	bl	80005e8 <ssd1306_WriteCommand>
}
 80007e8:	bd10      	pop	{r4, pc}
	...

080007ec <ssd1306_SetDisplayOn>:

void ssd1306_SetDisplayOn(const uint8_t on) {
 80007ec:	b508      	push	{r3, lr}
    uint8_t value;
    if (on) {
 80007ee:	b130      	cbz	r0, 80007fe <ssd1306_SetDisplayOn+0x12>
        value = 0xAF;   // Display on
        SSD1306.DisplayOn = 1;
 80007f0:	4b05      	ldr	r3, [pc, #20]	@ (8000808 <ssd1306_SetDisplayOn+0x1c>)
 80007f2:	2201      	movs	r2, #1
 80007f4:	715a      	strb	r2, [r3, #5]
        value = 0xAF;   // Display on
 80007f6:	20af      	movs	r0, #175	@ 0xaf
    } else {
        value = 0xAE;   // Display off
        SSD1306.DisplayOn = 0;
    }
    ssd1306_WriteCommand(value);
 80007f8:	f7ff fef6 	bl	80005e8 <ssd1306_WriteCommand>
}
 80007fc:	bd08      	pop	{r3, pc}
        SSD1306.DisplayOn = 0;
 80007fe:	4b02      	ldr	r3, [pc, #8]	@ (8000808 <ssd1306_SetDisplayOn+0x1c>)
 8000800:	7158      	strb	r0, [r3, #5]
        value = 0xAE;   // Display off
 8000802:	20ae      	movs	r0, #174	@ 0xae
 8000804:	e7f8      	b.n	80007f8 <ssd1306_SetDisplayOn+0xc>
 8000806:	bf00      	nop
 8000808:	200002a0 	.word	0x200002a0

0800080c <ssd1306_Init>:
void ssd1306_Init(void) {
 800080c:	b508      	push	{r3, lr}
    HAL_Delay(100);
 800080e:	2064      	movs	r0, #100	@ 0x64
 8000810:	f000 f8aa 	bl	8000968 <HAL_Delay>
    ssd1306_SetDisplayOn(0); //display off
 8000814:	2000      	movs	r0, #0
 8000816:	f7ff ffe9 	bl	80007ec <ssd1306_SetDisplayOn>
    ssd1306_WriteCommand(0x20); //Set Memory Addressing Mode
 800081a:	2020      	movs	r0, #32
 800081c:	f7ff fee4 	bl	80005e8 <ssd1306_WriteCommand>
    ssd1306_WriteCommand(0x00); // 00b,Horizontal Addressing Mode; 01b,Vertical Addressing Mode;
 8000820:	2000      	movs	r0, #0
 8000822:	f7ff fee1 	bl	80005e8 <ssd1306_WriteCommand>
    ssd1306_WriteCommand(0xB0); //Set Page Start Address for Page Addressing Mode,0-7
 8000826:	20b0      	movs	r0, #176	@ 0xb0
 8000828:	f7ff fede 	bl	80005e8 <ssd1306_WriteCommand>
    ssd1306_WriteCommand(0xC8); //Set COM Output Scan Direction
 800082c:	20c8      	movs	r0, #200	@ 0xc8
 800082e:	f7ff fedb 	bl	80005e8 <ssd1306_WriteCommand>
    ssd1306_WriteCommand(0x00); //---set low column address
 8000832:	2000      	movs	r0, #0
 8000834:	f7ff fed8 	bl	80005e8 <ssd1306_WriteCommand>
    ssd1306_WriteCommand(0x10); //---set high column address
 8000838:	2010      	movs	r0, #16
 800083a:	f7ff fed5 	bl	80005e8 <ssd1306_WriteCommand>
    ssd1306_WriteCommand(0x40); //--set start line address - CHECK
 800083e:	2040      	movs	r0, #64	@ 0x40
 8000840:	f7ff fed2 	bl	80005e8 <ssd1306_WriteCommand>
    ssd1306_SetContrast(0xFF);
 8000844:	20ff      	movs	r0, #255	@ 0xff
 8000846:	f7ff ffc7 	bl	80007d8 <ssd1306_SetContrast>
    ssd1306_WriteCommand(0xA1); //--set segment re-map 0 to 127 - CHECK
 800084a:	20a1      	movs	r0, #161	@ 0xa1
 800084c:	f7ff fecc 	bl	80005e8 <ssd1306_WriteCommand>
    ssd1306_WriteCommand(0xA6); //--set normal color
 8000850:	20a6      	movs	r0, #166	@ 0xa6
 8000852:	f7ff fec9 	bl	80005e8 <ssd1306_WriteCommand>
    ssd1306_WriteCommand(0xA8); //--set multiplex ratio(1 to 64) - CHECK
 8000856:	20a8      	movs	r0, #168	@ 0xa8
 8000858:	f7ff fec6 	bl	80005e8 <ssd1306_WriteCommand>
    ssd1306_WriteCommand(0x3F); //
 800085c:	203f      	movs	r0, #63	@ 0x3f
 800085e:	f7ff fec3 	bl	80005e8 <ssd1306_WriteCommand>
    ssd1306_WriteCommand(0xA4); //0xa4,Output follows RAM content;0xa5,Output ignores RAM content
 8000862:	20a4      	movs	r0, #164	@ 0xa4
 8000864:	f7ff fec0 	bl	80005e8 <ssd1306_WriteCommand>
    ssd1306_WriteCommand(0xD3); //-set display offset - CHECK
 8000868:	20d3      	movs	r0, #211	@ 0xd3
 800086a:	f7ff febd 	bl	80005e8 <ssd1306_WriteCommand>
    ssd1306_WriteCommand(0x00); //-not offset
 800086e:	2000      	movs	r0, #0
 8000870:	f7ff feba 	bl	80005e8 <ssd1306_WriteCommand>
    ssd1306_WriteCommand(0xD5); //--set display clock divide ratio/oscillator frequency
 8000874:	20d5      	movs	r0, #213	@ 0xd5
 8000876:	f7ff feb7 	bl	80005e8 <ssd1306_WriteCommand>
    ssd1306_WriteCommand(0xF0); //--set divide ratio
 800087a:	20f0      	movs	r0, #240	@ 0xf0
 800087c:	f7ff feb4 	bl	80005e8 <ssd1306_WriteCommand>
    ssd1306_WriteCommand(0xD9); //--set pre-charge period
 8000880:	20d9      	movs	r0, #217	@ 0xd9
 8000882:	f7ff feb1 	bl	80005e8 <ssd1306_WriteCommand>
    ssd1306_WriteCommand(0x22); //
 8000886:	2022      	movs	r0, #34	@ 0x22
 8000888:	f7ff feae 	bl	80005e8 <ssd1306_WriteCommand>
    ssd1306_WriteCommand(0xDA); //--set com pins hardware configuration - CHECK
 800088c:	20da      	movs	r0, #218	@ 0xda
 800088e:	f7ff feab 	bl	80005e8 <ssd1306_WriteCommand>
    ssd1306_WriteCommand(0x12);
 8000892:	2012      	movs	r0, #18
 8000894:	f7ff fea8 	bl	80005e8 <ssd1306_WriteCommand>
    ssd1306_WriteCommand(0xDB); //--set vcomh
 8000898:	20db      	movs	r0, #219	@ 0xdb
 800089a:	f7ff fea5 	bl	80005e8 <ssd1306_WriteCommand>
    ssd1306_WriteCommand(0x20); //0x20,0.77xVcc
 800089e:	2020      	movs	r0, #32
 80008a0:	f7ff fea2 	bl	80005e8 <ssd1306_WriteCommand>
    ssd1306_WriteCommand(0x8D); //--set DC-DC enable
 80008a4:	208d      	movs	r0, #141	@ 0x8d
 80008a6:	f7ff fe9f 	bl	80005e8 <ssd1306_WriteCommand>
    ssd1306_WriteCommand(0x14); //
 80008aa:	2014      	movs	r0, #20
 80008ac:	f7ff fe9c 	bl	80005e8 <ssd1306_WriteCommand>
    ssd1306_SetDisplayOn(1); //--turn on SSD1306 panel
 80008b0:	2001      	movs	r0, #1
 80008b2:	f7ff ff9b 	bl	80007ec <ssd1306_SetDisplayOn>
    ssd1306_Fill(Black);
 80008b6:	2000      	movs	r0, #0
 80008b8:	f7ff febe 	bl	8000638 <ssd1306_Fill>
    ssd1306_UpdateScreen();
 80008bc:	f7ff feca 	bl	8000654 <ssd1306_UpdateScreen>
    SSD1306.CurrentX = 0;
 80008c0:	4b03      	ldr	r3, [pc, #12]	@ (80008d0 <ssd1306_Init+0xc4>)
 80008c2:	2200      	movs	r2, #0
 80008c4:	801a      	strh	r2, [r3, #0]
    SSD1306.CurrentY = 0;
 80008c6:	805a      	strh	r2, [r3, #2]
    SSD1306.Initialized = 1;
 80008c8:	2201      	movs	r2, #1
 80008ca:	711a      	strb	r2, [r3, #4]
}
 80008cc:	bd08      	pop	{r3, pc}
 80008ce:	bf00      	nop
 80008d0:	200002a0 	.word	0x200002a0

080008d4 <HAL_InitTick>:
__weak HAL_StatusTypeDef HAL_InitTick(uint32_t TickPriority)
{
  HAL_StatusTypeDef  status = HAL_OK;

  /* Check uwTickFreq for MisraC 2012 (even if uwTickFreq is a enum type that doesn't take the value zero)*/
  if ((uint32_t)uwTickFreq != 0U)
 80008d4:	4b10      	ldr	r3, [pc, #64]	@ (8000918 <HAL_InitTick+0x44>)
 80008d6:	781b      	ldrb	r3, [r3, #0]
 80008d8:	b90b      	cbnz	r3, 80008de <HAL_InitTick+0xa>
      status = HAL_ERROR;
    }
  }
  else
  {
    status = HAL_ERROR;
 80008da:	2001      	movs	r0, #1
  }

  /* Return function status */
  return status;
}
 80008dc:	4770      	bx	lr
{
 80008de:	b510      	push	{r4, lr}
 80008e0:	4604      	mov	r4, r0
    if (HAL_SYSTICK_Config(SystemCoreClock / (1000U / (uint32_t)uwTickFreq)) == 0U)
 80008e2:	4a0e      	ldr	r2, [pc, #56]	@ (800091c <HAL_InitTick+0x48>)
 80008e4:	6810      	ldr	r0, [r2, #0]
 80008e6:	f44f 727a 	mov.w	r2, #1000	@ 0x3e8
 80008ea:	fbb2 f3f3 	udiv	r3, r2, r3
 80008ee:	fbb0 f0f3 	udiv	r0, r0, r3
 80008f2:	f000 f8a7 	bl	8000a44 <HAL_SYSTICK_Config>
 80008f6:	b968      	cbnz	r0, 8000914 <HAL_InitTick+0x40>
      if (TickPriority < (1UL << __NVIC_PRIO_BITS))
 80008f8:	2c0f      	cmp	r4, #15
 80008fa:	d901      	bls.n	8000900 <HAL_InitTick+0x2c>
        status = HAL_ERROR;
 80008fc:	2001      	movs	r0, #1
 80008fe:	e00a      	b.n	8000916 <HAL_InitTick+0x42>
        HAL_NVIC_SetPriority(SysTick_IRQn, TickPriority, 0U);
 8000900:	4602      	mov	r2, r0
 8000902:	4621      	mov	r1, r4
 8000904:	f04f 30ff 	mov.w	r0, #4294967295	@ 0xffffffff
 8000908:	f000 f88c 	bl	8000a24 <HAL_NVIC_SetPriority>
        uwTickPrio = TickPriority;
 800090c:	4b04      	ldr	r3, [pc, #16]	@ (8000920 <HAL_InitTick+0x4c>)
 800090e:	601c      	str	r4, [r3, #0]
  HAL_StatusTypeDef  status = HAL_OK;
 8000910:	2000      	movs	r0, #0
 8000912:	e000      	b.n	8000916 <HAL_InitTick+0x42>
      status = HAL_ERROR;
 8000914:	2001      	movs	r0, #1
}
 8000916:	bd10      	pop	{r4, pc}
 8000918:	20000000 	.word	0x20000000
 800091c:	20000008 	.word	0x20000008
 8000920:	20000004 	.word	0x20000004

08000924 <HAL_Init>:
{
 8000924:	b510      	push	{r4, lr}
  HAL_NVIC_SetPriorityGrouping(NVIC_PRIORITYGROUP_4);
 8000926:	2003      	movs	r0, #3
 8000928:	f000 f86a 	bl	8000a00 <HAL_NVIC_SetPriorityGrouping>
  if (HAL_InitTick(TICK_INT_PRIORITY) != HAL_OK)
 800092c:	200f      	movs	r0, #15
 800092e:	f7ff ffd1 	bl	80008d4 <HAL_InitTick>
 8000932:	b118      	cbz	r0, 800093c <HAL_Init+0x18>
    status = HAL_ERROR;
 8000934:	2301      	movs	r3, #1
 8000936:	461c      	mov	r4, r3
}
 8000938:	4620      	mov	r0, r4
 800093a:	bd10      	pop	{r4, pc}
 800093c:	4604      	mov	r4, r0
    HAL_MspInit();
 800093e:	f000 fccb 	bl	80012d8 <HAL_MspInit>
 8000942:	e7f9      	b.n	8000938 <HAL_Init+0x14>

08000944 <HAL_IncTick>:
  *      implementations in user file.
  * @retval None
  */
__weak void HAL_IncTick(void)
{
  uwTick += (uint32_t)uwTickFreq;
 8000944:	4b03      	ldr	r3, [pc, #12]	@ (8000954 <HAL_IncTick+0x10>)
 8000946:	781b      	ldrb	r3, [r3, #0]
 8000948:	4a03      	ldr	r2, [pc, #12]	@ (8000958 <HAL_IncTick+0x14>)
 800094a:	6811      	ldr	r1, [r2, #0]
 800094c:	440b      	add	r3, r1
 800094e:	6013      	str	r3, [r2, #0]
}
 8000950:	4770      	bx	lr
 8000952:	bf00      	nop
 8000954:	20000000 	.word	0x20000000
 8000958:	200006a8 	.word	0x200006a8

0800095c <HAL_GetTick>:
  *       implementations in user file.
  * @retval tick value
  */
__weak uint32_t HAL_GetTick(void)
{
  return uwTick;
 800095c:	4b01      	ldr	r3, [pc, #4]	@ (8000964 <HAL_GetTick+0x8>)
 800095e:	6818      	ldr	r0, [r3, #0]
}
 8000960:	4770      	bx	lr
 8000962:	bf00      	nop
 8000964:	200006a8 	.word	0x200006a8

08000968 <HAL_Delay>:
  *       implementations in user file.
  * @param Delay  specifies the delay time length, in milliseconds.
  * @retval None
  */
__weak void HAL_Delay(uint32_t Delay)
{
 8000968:	b538      	push	{r3, r4, r5, lr}
 800096a:	4604      	mov	r4, r0
  uint32_t tickstart = HAL_GetTick();
 800096c:	f7ff fff6 	bl	800095c <HAL_GetTick>
 8000970:	4605      	mov	r5, r0
  uint32_t wait = Delay;

  /* Add a period to guaranty minimum wait */
  if (wait < HAL_MAX_DELAY)
 8000972:	f1b4 3fff 	cmp.w	r4, #4294967295	@ 0xffffffff
 8000976:	d002      	beq.n	800097e <HAL_Delay+0x16>
  {
    wait += (uint32_t)uwTickFreq;
 8000978:	4b04      	ldr	r3, [pc, #16]	@ (800098c <HAL_Delay+0x24>)
 800097a:	781b      	ldrb	r3, [r3, #0]
 800097c:	441c      	add	r4, r3
  }

  while ((HAL_GetTick() - tickstart) < wait)
 800097e:	f7ff ffed 	bl	800095c <HAL_GetTick>
 8000982:	1b40      	subs	r0, r0, r5
 8000984:	42a0      	cmp	r0, r4
 8000986:	d3fa      	bcc.n	800097e <HAL_Delay+0x16>
  {
  }
}
 8000988:	bd38      	pop	{r3, r4, r5, pc}
 800098a:	bf00      	nop
 800098c:	20000000 	.word	0x20000000

08000990 <__NVIC_SetPriority>:
  \param [in]  priority  Priority to set.
  \note    The priority cannot be set for every processor exception.
 */
__STATIC_INLINE void __NVIC_SetPriority(IRQn_Type IRQn, uint32_t priority)
{
  if ((int32_t)(IRQn) >= 0)
 8000990:	2800      	cmp	r0, #0
 8000992:	db08      	blt.n	80009a6 <__NVIC_SetPriority+0x16>
  {
    NVIC->IP[((uint32_t)IRQn)]               = (uint8_t)((priority << (8U - __NVIC_PRIO_BITS)) & (uint32_t)0xFFUL);
 8000994:	0109      	lsls	r1, r1, #4
 8000996:	b2c9      	uxtb	r1, r1
 8000998:	f100 4060 	add.w	r0, r0, #3758096384	@ 0xe0000000
 800099c:	f500 4061 	add.w	r0, r0, #57600	@ 0xe100
 80009a0:	f880 1300 	strb.w	r1, [r0, #768]	@ 0x300
 80009a4:	4770      	bx	lr
  }
  else
  {
    SCB->SHP[(((uint32_t)IRQn) & 0xFUL)-4UL] = (uint8_t)((priority << (8U - __NVIC_PRIO_BITS)) & (uint32_t)0xFFUL);
 80009a6:	f000 000f 	and.w	r0, r0, #15
 80009aa:	0109      	lsls	r1, r1, #4
 80009ac:	b2c9      	uxtb	r1, r1
 80009ae:	4b01      	ldr	r3, [pc, #4]	@ (80009b4 <__NVIC_SetPriority+0x24>)
 80009b0:	5419      	strb	r1, [r3, r0]
  }
}
 80009b2:	4770      	bx	lr
 80009b4:	e000ed14 	.word	0xe000ed14

080009b8 <NVIC_EncodePriority>:
  \param [in]   PreemptPriority  Preemptive priority value (starting from 0).
  \param [in]       SubPriority  Subpriority value (starting from 0).
  \return                        Encoded priority. Value can be used in the function \ref NVIC_SetPriority().
 */
__STATIC_INLINE uint32_t NVIC_EncodePriority (uint32_t PriorityGroup, uint32_t PreemptPriority, uint32_t SubPriority)
{
 80009b8:	b500      	push	{lr}
  uint32_t PriorityGroupTmp = (PriorityGroup & (uint32_t)0x07UL);   /* only values 0..7 are used          */
 80009ba:	f000 0007 	and.w	r0, r0, #7
  uint32_t PreemptPriorityBits;
  uint32_t SubPriorityBits;

  PreemptPriorityBits = ((7UL - PriorityGroupTmp) > (uint32_t)(__NVIC_PRIO_BITS)) ? (uint32_t)(__NVIC_PRIO_BITS) : (uint32_t)(7UL - PriorityGroupTmp);
 80009be:	f1a0 0c03 	sub.w	ip, r0, #3
 80009c2:	f1bc 0f04 	cmp.w	ip, #4
 80009c6:	d807      	bhi.n	80009d8 <NVIC_EncodePriority+0x20>
 80009c8:	f1c0 0e07 	rsb	lr, r0, #7
  SubPriorityBits     = ((PriorityGroupTmp + (uint32_t)(__NVIC_PRIO_BITS)) < (uint32_t)7UL) ? (uint32_t)0UL : (uint32_t)((PriorityGroupTmp - 7UL) + (uint32_t)(__NVIC_PRIO_BITS));
 80009cc:	3004      	adds	r0, #4
 80009ce:	2806      	cmp	r0, #6
 80009d0:	d806      	bhi.n	80009e0 <NVIC_EncodePriority+0x28>
 80009d2:	f04f 0c00 	mov.w	ip, #0
 80009d6:	e003      	b.n	80009e0 <NVIC_EncodePriority+0x28>
  PreemptPriorityBits = ((7UL - PriorityGroupTmp) > (uint32_t)(__NVIC_PRIO_BITS)) ? (uint32_t)(__NVIC_PRIO_BITS) : (uint32_t)(7UL - PriorityGroupTmp);
 80009d8:	f04f 0e04 	mov.w	lr, #4
  SubPriorityBits     = ((PriorityGroupTmp + (uint32_t)(__NVIC_PRIO_BITS)) < (uint32_t)7UL) ? (uint32_t)0UL : (uint32_t)((PriorityGroupTmp - 7UL) + (uint32_t)(__NVIC_PRIO_BITS));
 80009dc:	f04f 0c00 	mov.w	ip, #0

  return (
           ((PreemptPriority & (uint32_t)((1UL << (PreemptPriorityBits)) - 1UL)) << SubPriorityBits) |
 80009e0:	f04f 33ff 	mov.w	r3, #4294967295	@ 0xffffffff
 80009e4:	fa03 f00e 	lsl.w	r0, r3, lr
 80009e8:	ea21 0100 	bic.w	r1, r1, r0
 80009ec:	fa01 f10c 	lsl.w	r1, r1, ip
           ((SubPriority     & (uint32_t)((1UL << (SubPriorityBits    )) - 1UL)))
 80009f0:	fa03 f30c 	lsl.w	r3, r3, ip
 80009f4:	ea22 0203 	bic.w	r2, r2, r3
         );
}
 80009f8:	ea41 0002 	orr.w	r0, r1, r2
 80009fc:	bd00      	pop	{pc}
	...

08000a00 <HAL_NVIC_SetPriorityGrouping>:
  reg_value  =  SCB->AIRCR;                                                   /* read old register configuration    */
 8000a00:	4a07      	ldr	r2, [pc, #28]	@ (8000a20 <HAL_NVIC_SetPriorityGrouping+0x20>)
 8000a02:	68d3      	ldr	r3, [r2, #12]
  reg_value &= ~((uint32_t)(SCB_AIRCR_VECTKEY_Msk | SCB_AIRCR_PRIGROUP_Msk)); /* clear bits to change               */
 8000a04:	f423 63e0 	bic.w	r3, r3, #1792	@ 0x700
 8000a08:	041b      	lsls	r3, r3, #16
 8000a0a:	0c1b      	lsrs	r3, r3, #16
                (PriorityGroupTmp << SCB_AIRCR_PRIGROUP_Pos)  );              /* Insert write key and priority group */
 8000a0c:	0200      	lsls	r0, r0, #8
 8000a0e:	f400 60e0 	and.w	r0, r0, #1792	@ 0x700
                ((uint32_t)0x5FAUL << SCB_AIRCR_VECTKEY_Pos) |
 8000a12:	4303      	orrs	r3, r0
  reg_value  =  (reg_value                                   |
 8000a14:	f043 63bf 	orr.w	r3, r3, #100139008	@ 0x5f80000
 8000a18:	f443 3300 	orr.w	r3, r3, #131072	@ 0x20000
  SCB->AIRCR =  reg_value;
 8000a1c:	60d3      	str	r3, [r2, #12]
  /* Check the parameters */
  assert_param(IS_NVIC_PRIORITY_GROUP(PriorityGroup));

  /* Set the PRIGROUP[10:8] bits according to the PriorityGroup parameter value */
  NVIC_SetPriorityGrouping(PriorityGroup);
}
 8000a1e:	4770      	bx	lr
 8000a20:	e000ed00 	.word	0xe000ed00

08000a24 <HAL_NVIC_SetPriority>:
  *         This parameter can be a value between 0 and 15
  *         A lower priority value indicates a higher priority.
  * @retval None
  */
void HAL_NVIC_SetPriority(IRQn_Type IRQn, uint32_t PreemptPriority, uint32_t SubPriority)
{
 8000a24:	b510      	push	{r4, lr}
 8000a26:	4604      	mov	r4, r0
  return ((uint32_t)((SCB->AIRCR & SCB_AIRCR_PRIGROUP_Msk) >> SCB_AIRCR_PRIGROUP_Pos));
 8000a28:	4b05      	ldr	r3, [pc, #20]	@ (8000a40 <HAL_NVIC_SetPriority+0x1c>)
 8000a2a:	68d8      	ldr	r0, [r3, #12]
  assert_param(IS_NVIC_SUB_PRIORITY(SubPriority));
  assert_param(IS_NVIC_PREEMPTION_PRIORITY(PreemptPriority));

  prioritygroup = NVIC_GetPriorityGrouping();

  NVIC_SetPriority(IRQn, NVIC_EncodePriority(prioritygroup, PreemptPriority, SubPriority));
 8000a2c:	f3c0 2002 	ubfx	r0, r0, #8, #3
 8000a30:	f7ff ffc2 	bl	80009b8 <NVIC_EncodePriority>
 8000a34:	4601      	mov	r1, r0
 8000a36:	4620      	mov	r0, r4
 8000a38:	f7ff ffaa 	bl	8000990 <__NVIC_SetPriority>
}
 8000a3c:	bd10      	pop	{r4, pc}
 8000a3e:	bf00      	nop
 8000a40:	e000ed00 	.word	0xe000ed00

08000a44 <HAL_SYSTICK_Config>:
           function <b>SysTick_Config</b> is not included. In this case, the file <b><i>device</i>.h</b>
           must contain a vendor-specific implementation of this function.
 */
__STATIC_INLINE uint32_t SysTick_Config(uint32_t ticks)
{
  if ((ticks - 1UL) > SysTick_LOAD_RELOAD_Msk)
 8000a44:	3801      	subs	r0, #1
 8000a46:	f1b0 7f80 	cmp.w	r0, #16777216	@ 0x1000000
 8000a4a:	d20b      	bcs.n	8000a64 <HAL_SYSTICK_Config+0x20>
  {
    return (1UL);                                                   /* Reload value impossible */
  }

  SysTick->LOAD  = (uint32_t)(ticks - 1UL);                         /* set reload register */
 8000a4c:	f04f 23e0 	mov.w	r3, #3758153728	@ 0xe000e000
 8000a50:	6158      	str	r0, [r3, #20]
    SCB->SHP[(((uint32_t)IRQn) & 0xFUL)-4UL] = (uint8_t)((priority << (8U - __NVIC_PRIO_BITS)) & (uint32_t)0xFFUL);
 8000a52:	4a05      	ldr	r2, [pc, #20]	@ (8000a68 <HAL_SYSTICK_Config+0x24>)
 8000a54:	21f0      	movs	r1, #240	@ 0xf0
 8000a56:	f882 1023 	strb.w	r1, [r2, #35]	@ 0x23
  NVIC_SetPriority (SysTick_IRQn, (1UL << __NVIC_PRIO_BITS) - 1UL); /* set Priority for Systick Interrupt */
  SysTick->VAL   = 0UL;                                             /* Load the SysTick Counter Value */
 8000a5a:	2000      	movs	r0, #0
 8000a5c:	6198      	str	r0, [r3, #24]
  SysTick->CTRL  = SysTick_CTRL_CLKSOURCE_Msk |
 8000a5e:	2207      	movs	r2, #7
 8000a60:	611a      	str	r2, [r3, #16]
                   SysTick_CTRL_TICKINT_Msk   |
                   SysTick_CTRL_ENABLE_Msk;                         /* Enable SysTick IRQ and SysTick Timer */
  return (0UL);                                                     /* Function successful */
 8000a62:	4770      	bx	lr
    return (1UL);                                                   /* Reload value impossible */
 8000a64:	2001      	movs	r0, #1
  *                  - 1  Function failed.
  */
uint32_t HAL_SYSTICK_Config(uint32_t TicksNumb)
{
   return SysTick_Config(TicksNumb);
}
 8000a66:	4770      	bx	lr
 8000a68:	e000ed00 	.word	0xe000ed00

08000a6c <HAL_GPIO_Init>:
  * @param  GPIO_Init pointer to a GPIO_InitTypeDef structure that contains
  *         the configuration information for the specified GPIO peripheral.
  * @retval None
  */
void HAL_GPIO_Init(GPIO_TypeDef  *GPIOx, GPIO_InitTypeDef *GPIO_Init)
{
 8000a6c:	b570      	push	{r4, r5, r6, lr}
 8000a6e:	b082      	sub	sp, #8
  uint32_t position = 0x00u;
 8000a70:	2300      	movs	r3, #0
  assert_param(IS_GPIO_ALL_INSTANCE(GPIOx));
  assert_param(IS_GPIO_PIN(GPIO_Init->Pin));
  assert_param(IS_GPIO_MODE(GPIO_Init->Mode));

  /* Configure the port pins */
  while (((GPIO_Init->Pin) >> position) != 0x00u)
 8000a72:	e074      	b.n	8000b5e <HAL_GPIO_Init+0xf2>
      {
        /* Check the Speed parameter */
        assert_param(IS_GPIO_SPEED(GPIO_Init->Speed));

        /* Configure the IO Speed */
        temp = GPIOx->OSPEEDR;
 8000a74:	6885      	ldr	r5, [r0, #8]
        temp &= ~(GPIO_OSPEEDR_OSPEED0 << (position * 2u));
 8000a76:	ea4f 0e43 	mov.w	lr, r3, lsl #1
 8000a7a:	2403      	movs	r4, #3
 8000a7c:	fa04 f40e 	lsl.w	r4, r4, lr
 8000a80:	ea25 0504 	bic.w	r5, r5, r4
        temp |= (GPIO_Init->Speed << (position * 2u));
 8000a84:	68cc      	ldr	r4, [r1, #12]
 8000a86:	fa04 f40e 	lsl.w	r4, r4, lr
 8000a8a:	432c      	orrs	r4, r5
        GPIOx->OSPEEDR = temp;
 8000a8c:	6084      	str	r4, [r0, #8]

        /* Configure the IO Output Type */
        temp = GPIOx->OTYPER;
 8000a8e:	6844      	ldr	r4, [r0, #4]
        temp &= ~(GPIO_OTYPER_OT0 << position) ;
 8000a90:	ea24 040c 	bic.w	r4, r4, ip
        temp |= (((GPIO_Init->Mode & OUTPUT_TYPE) >> OUTPUT_TYPE_Pos) << position);
 8000a94:	684d      	ldr	r5, [r1, #4]
 8000a96:	f3c5 1e00 	ubfx	lr, r5, #4, #1
 8000a9a:	fa0e fe03 	lsl.w	lr, lr, r3
 8000a9e:	ea4e 0404 	orr.w	r4, lr, r4
        GPIOx->OTYPER = temp;
 8000aa2:	6044      	str	r4, [r0, #4]
 8000aa4:	e070      	b.n	8000b88 <HAL_GPIO_Init+0x11c>

      /* In case of Analog mode, check if ADC control mode is selected */
      if((GPIO_Init->Mode & GPIO_MODE_ANALOG) == GPIO_MODE_ANALOG)
      {
        /* Configure the IO Output Type */
        temp = GPIOx->ASCR;
 8000aa6:	6ac4      	ldr	r4, [r0, #44]	@ 0x2c
        temp &= ~(GPIO_ASCR_ASC0 << position) ;
 8000aa8:	ea24 040c 	bic.w	r4, r4, ip
        temp |= (((GPIO_Init->Mode & GPIO_MODE_ANALOG_ADC_CONTROL) >> 3) << position);
 8000aac:	f3c5 0ec0 	ubfx	lr, r5, #3, #1
 8000ab0:	fa0e fe03 	lsl.w	lr, lr, r3
 8000ab4:	ea4e 0404 	orr.w	r4, lr, r4
        GPIOx->ASCR = temp;
 8000ab8:	62c4      	str	r4, [r0, #44]	@ 0x2c
 8000aba:	e06a      	b.n	8000b92 <HAL_GPIO_Init+0x126>
        /* Check the Alternate function parameters */
        assert_param(IS_GPIO_AF_INSTANCE(GPIOx));
        assert_param(IS_GPIO_AF(GPIO_Init->Alternate));

        /* Configure Alternate function mapped with the current IO */
        temp = GPIOx->AFR[position >> 3u];
 8000abc:	08dd      	lsrs	r5, r3, #3
 8000abe:	3508      	adds	r5, #8
 8000ac0:	f850 4025 	ldr.w	r4, [r0, r5, lsl #2]
        temp &= ~(0xFul << ((position & 0x07u) * 4u));
 8000ac4:	f003 0c07 	and.w	ip, r3, #7
 8000ac8:	ea4f 0c8c 	mov.w	ip, ip, lsl #2
 8000acc:	f04f 0e0f 	mov.w	lr, #15
 8000ad0:	fa0e fe0c 	lsl.w	lr, lr, ip
 8000ad4:	ea24 0e0e 	bic.w	lr, r4, lr
        temp |= ((GPIO_Init->Alternate) << ((position & 0x07u) * 4u));
 8000ad8:	690c      	ldr	r4, [r1, #16]
 8000ada:	fa04 f40c 	lsl.w	r4, r4, ip
 8000ade:	ea44 040e 	orr.w	r4, r4, lr
        GPIOx->AFR[position >> 3u] = temp;
 8000ae2:	f840 4025 	str.w	r4, [r0, r5, lsl #2]
 8000ae6:	e06f      	b.n	8000bc8 <HAL_GPIO_Init+0x15c>
        /* Enable SYSCFG Clock */
        __HAL_RCC_SYSCFG_CLK_ENABLE();

        temp = SYSCFG->EXTICR[position >> 2u];
        temp &= ~(0x0FuL << (4u * (position & 0x03u)));
        temp |= (GPIO_GET_INDEX(GPIOx) << (4u * (position & 0x03u)));
 8000ae8:	2406      	movs	r4, #6
 8000aea:	e000      	b.n	8000aee <HAL_GPIO_Init+0x82>
 8000aec:	2400      	movs	r4, #0
 8000aee:	fa04 f40e 	lsl.w	r4, r4, lr
 8000af2:	432c      	orrs	r4, r5
        SYSCFG->EXTICR[position >> 2u] = temp;
 8000af4:	f10c 0c02 	add.w	ip, ip, #2
 8000af8:	4d5f      	ldr	r5, [pc, #380]	@ (8000c78 <HAL_GPIO_Init+0x20c>)
 8000afa:	f845 402c 	str.w	r4, [r5, ip, lsl #2]

        /* Clear Rising Falling edge configuration */
        temp = EXTI->RTSR1;
 8000afe:	4c5f      	ldr	r4, [pc, #380]	@ (8000c7c <HAL_GPIO_Init+0x210>)
 8000b00:	68a4      	ldr	r4, [r4, #8]
        temp &= ~(iocurrent);
 8000b02:	ea6f 0c02 	mvn.w	ip, r2
 8000b06:	ea24 0502 	bic.w	r5, r4, r2
        if ((GPIO_Init->Mode & TRIGGER_RISING) != 0x00u)
 8000b0a:	684e      	ldr	r6, [r1, #4]
 8000b0c:	f416 1f80 	tst.w	r6, #1048576	@ 0x100000
 8000b10:	d001      	beq.n	8000b16 <HAL_GPIO_Init+0xaa>
        {
          temp |= iocurrent;
 8000b12:	ea42 0504 	orr.w	r5, r2, r4
        }
        EXTI->RTSR1 = temp;
 8000b16:	4c59      	ldr	r4, [pc, #356]	@ (8000c7c <HAL_GPIO_Init+0x210>)
 8000b18:	60a5      	str	r5, [r4, #8]

        temp = EXTI->FTSR1;
 8000b1a:	68e4      	ldr	r4, [r4, #12]
        temp &= ~(iocurrent);
 8000b1c:	ea0c 0504 	and.w	r5, ip, r4
        if ((GPIO_Init->Mode & TRIGGER_FALLING) != 0x00u)
 8000b20:	684e      	ldr	r6, [r1, #4]
 8000b22:	f416 1f00 	tst.w	r6, #2097152	@ 0x200000
 8000b26:	d001      	beq.n	8000b2c <HAL_GPIO_Init+0xc0>
        {
          temp |= iocurrent;
 8000b28:	ea42 0504 	orr.w	r5, r2, r4
        }
        EXTI->FTSR1 = temp;
 8000b2c:	4c53      	ldr	r4, [pc, #332]	@ (8000c7c <HAL_GPIO_Init+0x210>)
 8000b2e:	60e5      	str	r5, [r4, #12]

        /* Clear EXTI line configuration */
        temp = EXTI->EMR1;
 8000b30:	6864      	ldr	r4, [r4, #4]
        temp &= ~(iocurrent);
 8000b32:	ea0c 0504 	and.w	r5, ip, r4
        if ((GPIO_Init->Mode & EXTI_EVT) != 0x00u)
 8000b36:	684e      	ldr	r6, [r1, #4]
 8000b38:	f416 3f00 	tst.w	r6, #131072	@ 0x20000
 8000b3c:	d001      	beq.n	8000b42 <HAL_GPIO_Init+0xd6>
        {
          temp |= iocurrent;
 8000b3e:	ea42 0504 	orr.w	r5, r2, r4
        }
        EXTI->EMR1 = temp;
 8000b42:	4c4e      	ldr	r4, [pc, #312]	@ (8000c7c <HAL_GPIO_Init+0x210>)
 8000b44:	6065      	str	r5, [r4, #4]

        temp = EXTI->IMR1;
 8000b46:	6824      	ldr	r4, [r4, #0]
        temp &= ~(iocurrent);
 8000b48:	ea0c 0504 	and.w	r5, ip, r4
        if ((GPIO_Init->Mode & EXTI_IT) != 0x00u)
 8000b4c:	684e      	ldr	r6, [r1, #4]
 8000b4e:	f416 3f80 	tst.w	r6, #65536	@ 0x10000
 8000b52:	d001      	beq.n	8000b58 <HAL_GPIO_Init+0xec>
        {
          temp |= iocurrent;
 8000b54:	ea42 0504 	orr.w	r5, r2, r4
        }
        EXTI->IMR1 = temp;
 8000b58:	4a48      	ldr	r2, [pc, #288]	@ (8000c7c <HAL_GPIO_Init+0x210>)
 8000b5a:	6015      	str	r5, [r2, #0]
      }
    }

    position++;
 8000b5c:	3301      	adds	r3, #1
  while (((GPIO_Init->Pin) >> position) != 0x00u)
 8000b5e:	680a      	ldr	r2, [r1, #0]
 8000b60:	fa32 f403 	lsrs.w	r4, r2, r3
 8000b64:	f000 8086 	beq.w	8000c74 <HAL_GPIO_Init+0x208>
    iocurrent = (GPIO_Init->Pin) & (1uL << position);
 8000b68:	f04f 0c01 	mov.w	ip, #1
 8000b6c:	fa0c fc03 	lsl.w	ip, ip, r3
    if (iocurrent != 0x00u)
 8000b70:	ea1c 0202 	ands.w	r2, ip, r2
 8000b74:	d0f2      	beq.n	8000b5c <HAL_GPIO_Init+0xf0>
      if (((GPIO_Init->Mode & GPIO_MODE) == MODE_OUTPUT) || ((GPIO_Init->Mode & GPIO_MODE) == MODE_AF))
 8000b76:	684c      	ldr	r4, [r1, #4]
 8000b78:	f004 0e03 	and.w	lr, r4, #3
 8000b7c:	f10e 3eff 	add.w	lr, lr, #4294967295	@ 0xffffffff
 8000b80:	f1be 0f01 	cmp.w	lr, #1
 8000b84:	f67f af76 	bls.w	8000a74 <HAL_GPIO_Init+0x8>
      if((GPIO_Init->Mode & GPIO_MODE_ANALOG) == GPIO_MODE_ANALOG)
 8000b88:	684d      	ldr	r5, [r1, #4]
 8000b8a:	f005 0403 	and.w	r4, r5, #3
 8000b8e:	2c03      	cmp	r4, #3
 8000b90:	d089      	beq.n	8000aa6 <HAL_GPIO_Init+0x3a>
      if ((GPIO_Init->Mode & GPIO_MODE) != MODE_ANALOG)
 8000b92:	684c      	ldr	r4, [r1, #4]
 8000b94:	f004 0c03 	and.w	ip, r4, #3
 8000b98:	f1bc 0f03 	cmp.w	ip, #3
 8000b9c:	d00d      	beq.n	8000bba <HAL_GPIO_Init+0x14e>
        temp = GPIOx->PUPDR;
 8000b9e:	68c4      	ldr	r4, [r0, #12]
        temp &= ~(GPIO_PUPDR_PUPD0 << (position * 2U));
 8000ba0:	005d      	lsls	r5, r3, #1
 8000ba2:	f04f 0c03 	mov.w	ip, #3
 8000ba6:	fa0c fc05 	lsl.w	ip, ip, r5
 8000baa:	ea24 040c 	bic.w	r4, r4, ip
        temp |= ((GPIO_Init->Pull) << (position * 2U));
 8000bae:	688e      	ldr	r6, [r1, #8]
 8000bb0:	fa06 fc05 	lsl.w	ip, r6, r5
 8000bb4:	ea4c 0404 	orr.w	r4, ip, r4
        GPIOx->PUPDR = temp;
 8000bb8:	60c4      	str	r4, [r0, #12]
      if ((GPIO_Init->Mode & GPIO_MODE) == MODE_AF)
 8000bba:	684c      	ldr	r4, [r1, #4]
 8000bbc:	f004 0c03 	and.w	ip, r4, #3
 8000bc0:	f1bc 0f02 	cmp.w	ip, #2
 8000bc4:	f43f af7a 	beq.w	8000abc <HAL_GPIO_Init+0x50>
      temp = GPIOx->MODER;
 8000bc8:	6805      	ldr	r5, [r0, #0]
      temp &= ~(GPIO_MODER_MODE0 << (position * 2u));
 8000bca:	005c      	lsls	r4, r3, #1
 8000bcc:	f04f 0c03 	mov.w	ip, #3
 8000bd0:	fa0c fc04 	lsl.w	ip, ip, r4
 8000bd4:	ea25 0e0c 	bic.w	lr, r5, ip
      temp |= ((GPIO_Init->Mode & GPIO_MODE) << (position * 2u));
 8000bd8:	684d      	ldr	r5, [r1, #4]
 8000bda:	f005 0c03 	and.w	ip, r5, #3
 8000bde:	fa0c fc04 	lsl.w	ip, ip, r4
 8000be2:	ea4c 040e 	orr.w	r4, ip, lr
      GPIOx->MODER = temp;
 8000be6:	6004      	str	r4, [r0, #0]
      if ((GPIO_Init->Mode & EXTI_MODE) != 0x00u)
 8000be8:	684c      	ldr	r4, [r1, #4]
 8000bea:	f414 3f40 	tst.w	r4, #196608	@ 0x30000
 8000bee:	d0b5      	beq.n	8000b5c <HAL_GPIO_Init+0xf0>
        __HAL_RCC_SYSCFG_CLK_ENABLE();
 8000bf0:	4c23      	ldr	r4, [pc, #140]	@ (8000c80 <HAL_GPIO_Init+0x214>)
 8000bf2:	6e25      	ldr	r5, [r4, #96]	@ 0x60
 8000bf4:	f045 0501 	orr.w	r5, r5, #1
 8000bf8:	6625      	str	r5, [r4, #96]	@ 0x60
 8000bfa:	6e24      	ldr	r4, [r4, #96]	@ 0x60
 8000bfc:	f004 0401 	and.w	r4, r4, #1
 8000c00:	9401      	str	r4, [sp, #4]
 8000c02:	9c01      	ldr	r4, [sp, #4]
        temp = SYSCFG->EXTICR[position >> 2u];
 8000c04:	ea4f 0c93 	mov.w	ip, r3, lsr #2
 8000c08:	f10c 0502 	add.w	r5, ip, #2
 8000c0c:	4c1a      	ldr	r4, [pc, #104]	@ (8000c78 <HAL_GPIO_Init+0x20c>)
 8000c0e:	f854 5025 	ldr.w	r5, [r4, r5, lsl #2]
        temp &= ~(0x0FuL << (4u * (position & 0x03u)));
 8000c12:	f003 0e03 	and.w	lr, r3, #3
 8000c16:	ea4f 0e8e 	mov.w	lr, lr, lsl #2
 8000c1a:	240f      	movs	r4, #15
 8000c1c:	fa04 f40e 	lsl.w	r4, r4, lr
 8000c20:	ea25 0504 	bic.w	r5, r5, r4
        temp |= (GPIO_GET_INDEX(GPIOx) << (4u * (position & 0x03u)));
 8000c24:	f1b0 4f90 	cmp.w	r0, #1207959552	@ 0x48000000
 8000c28:	f43f af60 	beq.w	8000aec <HAL_GPIO_Init+0x80>
 8000c2c:	4c15      	ldr	r4, [pc, #84]	@ (8000c84 <HAL_GPIO_Init+0x218>)
 8000c2e:	42a0      	cmp	r0, r4
 8000c30:	d016      	beq.n	8000c60 <HAL_GPIO_Init+0x1f4>
 8000c32:	f504 6480 	add.w	r4, r4, #1024	@ 0x400
 8000c36:	42a0      	cmp	r0, r4
 8000c38:	d014      	beq.n	8000c64 <HAL_GPIO_Init+0x1f8>
 8000c3a:	f504 6480 	add.w	r4, r4, #1024	@ 0x400
 8000c3e:	42a0      	cmp	r0, r4
 8000c40:	d012      	beq.n	8000c68 <HAL_GPIO_Init+0x1fc>
 8000c42:	f504 6480 	add.w	r4, r4, #1024	@ 0x400
 8000c46:	42a0      	cmp	r0, r4
 8000c48:	d010      	beq.n	8000c6c <HAL_GPIO_Init+0x200>
 8000c4a:	f504 6480 	add.w	r4, r4, #1024	@ 0x400
 8000c4e:	42a0      	cmp	r0, r4
 8000c50:	d00e      	beq.n	8000c70 <HAL_GPIO_Init+0x204>
 8000c52:	f504 6480 	add.w	r4, r4, #1024	@ 0x400
 8000c56:	42a0      	cmp	r0, r4
 8000c58:	f43f af46 	beq.w	8000ae8 <HAL_GPIO_Init+0x7c>
 8000c5c:	2407      	movs	r4, #7
 8000c5e:	e746      	b.n	8000aee <HAL_GPIO_Init+0x82>
 8000c60:	2401      	movs	r4, #1
 8000c62:	e744      	b.n	8000aee <HAL_GPIO_Init+0x82>
 8000c64:	2402      	movs	r4, #2
 8000c66:	e742      	b.n	8000aee <HAL_GPIO_Init+0x82>
 8000c68:	2403      	movs	r4, #3
 8000c6a:	e740      	b.n	8000aee <HAL_GPIO_Init+0x82>
 8000c6c:	2404      	movs	r4, #4
 8000c6e:	e73e      	b.n	8000aee <HAL_GPIO_Init+0x82>
 8000c70:	2405      	movs	r4, #5
 8000c72:	e73c      	b.n	8000aee <HAL_GPIO_Init+0x82>
  }
}
 8000c74:	b002      	add	sp, #8
 8000c76:	bd70      	pop	{r4, r5, r6, pc}
 8000c78:	40010000 	.word	0x40010000
 8000c7c:	40010400 	.word	0x40010400
 8000c80:	40021000 	.word	0x40021000
 8000c84:	48000400 	.word	0x48000400

08000c88 <HAL_GPIO_WritePin>:
{
  /* Check the parameters */
  assert_param(IS_GPIO_PIN(GPIO_Pin));
  assert_param(IS_GPIO_PIN_ACTION(PinState));

  if(PinState != GPIO_PIN_RESET)
 8000c88:	b10a      	cbz	r2, 8000c8e <HAL_GPIO_WritePin+0x6>
  {
    GPIOx->BSRR = (uint32_t)GPIO_Pin;
 8000c8a:	6181      	str	r1, [r0, #24]
 8000c8c:	4770      	bx	lr
  }
  else
  {
    GPIOx->BRR = (uint32_t)GPIO_Pin;
 8000c8e:	6281      	str	r1, [r0, #40]	@ 0x28
  }
}
 8000c90:	4770      	bx	lr

08000c92 <HAL_GPIO_TogglePin>:

  /* Check the parameters */
  assert_param(IS_GPIO_PIN(GPIO_Pin));

  /* get current Output Data Register value */
  odr = GPIOx->ODR;
 8000c92:	6943      	ldr	r3, [r0, #20]

  /* Set selected pins that were at low level, and reset ones that were high */
  GPIOx->BSRR = ((odr & GPIO_Pin) << GPIO_NUMBER) | (~odr & GPIO_Pin);
 8000c94:	ea01 0203 	and.w	r2, r1, r3
 8000c98:	ea21 0103 	bic.w	r1, r1, r3
 8000c9c:	ea41 4102 	orr.w	r1, r1, r2, lsl #16
 8000ca0:	6181      	str	r1, [r0, #24]
}
 8000ca2:	4770      	bx	lr

08000ca4 <I2C_Flush_TXDR>:
  */
static void I2C_Flush_TXDR(I2C_HandleTypeDef *hi2c)
{
  /* If a pending TXIS flag is set */
  /* Write a dummy data in TXDR to clear it */
  if (__HAL_I2C_GET_FLAG(hi2c, I2C_FLAG_TXIS) != RESET)
 8000ca4:	6803      	ldr	r3, [r0, #0]
 8000ca6:	699a      	ldr	r2, [r3, #24]
 8000ca8:	f012 0f02 	tst.w	r2, #2
 8000cac:	d001      	beq.n	8000cb2 <I2C_Flush_TXDR+0xe>
  {
    hi2c->Instance->TXDR = 0x00U;
 8000cae:	2200      	movs	r2, #0
 8000cb0:	629a      	str	r2, [r3, #40]	@ 0x28
  }

  /* Flush TX register if not empty */
  if (__HAL_I2C_GET_FLAG(hi2c, I2C_FLAG_TXE) == RESET)
 8000cb2:	6803      	ldr	r3, [r0, #0]
 8000cb4:	699a      	ldr	r2, [r3, #24]
 8000cb6:	f012 0f01 	tst.w	r2, #1
 8000cba:	d103      	bne.n	8000cc4 <I2C_Flush_TXDR+0x20>
  {
    __HAL_I2C_CLEAR_FLAG(hi2c, I2C_FLAG_TXE);
 8000cbc:	699a      	ldr	r2, [r3, #24]
 8000cbe:	f042 0201 	orr.w	r2, r2, #1
 8000cc2:	619a      	str	r2, [r3, #24]
  }
}
 8000cc4:	4770      	bx	lr

08000cc6 <I2C_TransferConfig>:
  *     @arg @ref I2C_GENERATE_START_WRITE Generate Restart for write request.
  * @retval None
  */
static void I2C_TransferConfig(I2C_HandleTypeDef *hi2c, uint16_t DevAddress, uint8_t Size, uint32_t Mode,
                               uint32_t Request)
{
 8000cc6:	f8dd c000 	ldr.w	ip, [sp]
  assert_param(IS_I2C_ALL_INSTANCE(hi2c->Instance));
  assert_param(IS_TRANSFER_MODE(Mode));
  assert_param(IS_TRANSFER_REQUEST(Request));

  /* Declaration of tmp to prevent undefined behavior of volatile usage */
  tmp = ((uint32_t)(((uint32_t)DevAddress & I2C_CR2_SADD) | \
 8000cca:	f3c1 0109 	ubfx	r1, r1, #0, #10
 8000cce:	ea41 4102 	orr.w	r1, r1, r2, lsl #16
                    (((uint32_t)Size << I2C_CR2_NBYTES_Pos) & I2C_CR2_NBYTES) | \
 8000cd2:	4319      	orrs	r1, r3
  tmp = ((uint32_t)(((uint32_t)DevAddress & I2C_CR2_SADD) | \
 8000cd4:	ea41 010c 	orr.w	r1, r1, ip
 8000cd8:	f021 4100 	bic.w	r1, r1, #2147483648	@ 0x80000000
                    (uint32_t)Mode | (uint32_t)Request) & (~0x80000000U));

  /* update CR2 register */
  MODIFY_REG(hi2c->Instance->CR2, \
 8000cdc:	6802      	ldr	r2, [r0, #0]
 8000cde:	6853      	ldr	r3, [r2, #4]
 8000ce0:	ea4f 5c5c 	mov.w	ip, ip, lsr #21
 8000ce4:	f40c 6c80 	and.w	ip, ip, #1024	@ 0x400
 8000ce8:	f04c 7c7f 	orr.w	ip, ip, #66846720	@ 0x3fc0000
 8000cec:	f44c 3c58 	orr.w	ip, ip, #221184	@ 0x36000
 8000cf0:	f44c 7c7f 	orr.w	ip, ip, #1020	@ 0x3fc
 8000cf4:	f04c 0c03 	orr.w	ip, ip, #3
 8000cf8:	ea23 030c 	bic.w	r3, r3, ip
 8000cfc:	430b      	orrs	r3, r1
 8000cfe:	6053      	str	r3, [r2, #4]
             ((I2C_CR2_SADD | I2C_CR2_NBYTES | I2C_CR2_RELOAD | I2C_CR2_AUTOEND | \
               (I2C_CR2_RD_WRN & (uint32_t)(Request >> (31U - I2C_CR2_RD_WRN_Pos))) | \
               I2C_CR2_START | I2C_CR2_STOP)), tmp);
}
 8000d00:	4770      	bx	lr

08000d02 <I2C_IsErrorOccurred>:
{
 8000d02:	e92d 41f0 	stmdb	sp!, {r4, r5, r6, r7, r8, lr}
 8000d06:	4604      	mov	r4, r0
  uint32_t itflag   = hi2c->Instance->ISR;
 8000d08:	6803      	ldr	r3, [r0, #0]
 8000d0a:	699e      	ldr	r6, [r3, #24]
  if (HAL_IS_BIT_SET(itflag, I2C_FLAG_AF))
 8000d0c:	f016 0610 	ands.w	r6, r6, #16
 8000d10:	d07c      	beq.n	8000e0c <I2C_IsErrorOccurred+0x10a>
 8000d12:	460d      	mov	r5, r1
 8000d14:	4690      	mov	r8, r2
    __HAL_I2C_CLEAR_FLAG(hi2c, I2C_FLAG_AF);
 8000d16:	2210      	movs	r2, #16
 8000d18:	61da      	str	r2, [r3, #28]
  uint32_t error_code = 0;
 8000d1a:	2600      	movs	r6, #0
  HAL_StatusTypeDef status = HAL_OK;
 8000d1c:	4637      	mov	r7, r6
    while ((__HAL_I2C_GET_FLAG(hi2c, I2C_FLAG_STOPF) == RESET) && (status == HAL_OK))
 8000d1e:	6823      	ldr	r3, [r4, #0]
 8000d20:	6998      	ldr	r0, [r3, #24]
 8000d22:	f010 0f20 	tst.w	r0, #32
 8000d26:	d130      	bne.n	8000d8a <I2C_IsErrorOccurred+0x88>
 8000d28:	bb7f      	cbnz	r7, 8000d8a <I2C_IsErrorOccurred+0x88>
      if (Timeout != HAL_MAX_DELAY)
 8000d2a:	f1b5 3fff 	cmp.w	r5, #4294967295	@ 0xffffffff
 8000d2e:	d0f6      	beq.n	8000d1e <I2C_IsErrorOccurred+0x1c>
        if (((HAL_GetTick() - tickstart) > Timeout) || (Timeout == 0U))
 8000d30:	f7ff fe14 	bl	800095c <HAL_GetTick>
 8000d34:	4643      	mov	r3, r8
 8000d36:	1ac0      	subs	r0, r0, r3
 8000d38:	42a8      	cmp	r0, r5
 8000d3a:	d801      	bhi.n	8000d40 <I2C_IsErrorOccurred+0x3e>
 8000d3c:	2d00      	cmp	r5, #0
 8000d3e:	d1ee      	bne.n	8000d1e <I2C_IsErrorOccurred+0x1c>
          tmp1 = (uint32_t)(hi2c->Instance->CR2 & I2C_CR2_STOP);
 8000d40:	6821      	ldr	r1, [r4, #0]
 8000d42:	684b      	ldr	r3, [r1, #4]
 8000d44:	f403 4380 	and.w	r3, r3, #16384	@ 0x4000
          tmp2 = hi2c->Mode;
 8000d48:	f894 2042 	ldrb.w	r2, [r4, #66]	@ 0x42
 8000d4c:	b2d2      	uxtb	r2, r2
          if ((__HAL_I2C_GET_FLAG(hi2c, I2C_FLAG_BUSY) != RESET) && \
 8000d4e:	6988      	ldr	r0, [r1, #24]
 8000d50:	f410 4f00 	tst.w	r0, #32768	@ 0x8000
 8000d54:	d002      	beq.n	8000d5c <I2C_IsErrorOccurred+0x5a>
 8000d56:	b90b      	cbnz	r3, 8000d5c <I2C_IsErrorOccurred+0x5a>
              (tmp1 != I2C_CR2_STOP) && \
 8000d58:	2a20      	cmp	r2, #32
 8000d5a:	d10e      	bne.n	8000d7a <I2C_IsErrorOccurred+0x78>
          while (__HAL_I2C_GET_FLAG(hi2c, I2C_FLAG_STOPF) == RESET)
 8000d5c:	6823      	ldr	r3, [r4, #0]
 8000d5e:	699b      	ldr	r3, [r3, #24]
 8000d60:	f013 0f20 	tst.w	r3, #32
 8000d64:	d1db      	bne.n	8000d1e <I2C_IsErrorOccurred+0x1c>
            if ((HAL_GetTick() - tickstart) > I2C_TIMEOUT_STOPF)
 8000d66:	f7ff fdf9 	bl	800095c <HAL_GetTick>
 8000d6a:	4643      	mov	r3, r8
 8000d6c:	1ac0      	subs	r0, r0, r3
 8000d6e:	2819      	cmp	r0, #25
 8000d70:	d9f4      	bls.n	8000d5c <I2C_IsErrorOccurred+0x5a>
              error_code |= HAL_I2C_ERROR_TIMEOUT;
 8000d72:	f046 0620 	orr.w	r6, r6, #32
              status = HAL_ERROR;
 8000d76:	2701      	movs	r7, #1
              break;
 8000d78:	e7d1      	b.n	8000d1e <I2C_IsErrorOccurred+0x1c>
            hi2c->Instance->CR2 |= I2C_CR2_STOP;
 8000d7a:	684b      	ldr	r3, [r1, #4]
 8000d7c:	f443 4380 	orr.w	r3, r3, #16384	@ 0x4000
 8000d80:	604b      	str	r3, [r1, #4]
            tickstart = HAL_GetTick();
 8000d82:	f7ff fdeb 	bl	800095c <HAL_GetTick>
 8000d86:	4680      	mov	r8, r0
 8000d88:	e7e8      	b.n	8000d5c <I2C_IsErrorOccurred+0x5a>
    if (status == HAL_OK)
 8000d8a:	b90f      	cbnz	r7, 8000d90 <I2C_IsErrorOccurred+0x8e>
      __HAL_I2C_CLEAR_FLAG(hi2c, I2C_FLAG_STOPF);
 8000d8c:	2220      	movs	r2, #32
 8000d8e:	61da      	str	r2, [r3, #28]
    error_code |= HAL_I2C_ERROR_AF;
 8000d90:	f046 0604 	orr.w	r6, r6, #4
    status = HAL_ERROR;
 8000d94:	2501      	movs	r5, #1
  itflag = hi2c->Instance->ISR;
 8000d96:	6822      	ldr	r2, [r4, #0]
 8000d98:	6993      	ldr	r3, [r2, #24]
  if (HAL_IS_BIT_SET(itflag, I2C_FLAG_BERR))
 8000d9a:	f413 7f80 	tst.w	r3, #256	@ 0x100
 8000d9e:	d005      	beq.n	8000dac <I2C_IsErrorOccurred+0xaa>
    error_code |= HAL_I2C_ERROR_BERR;
 8000da0:	f046 0601 	orr.w	r6, r6, #1
    __HAL_I2C_CLEAR_FLAG(hi2c, I2C_FLAG_BERR);
 8000da4:	f44f 7180 	mov.w	r1, #256	@ 0x100
 8000da8:	61d1      	str	r1, [r2, #28]
    status = HAL_ERROR;
 8000daa:	2501      	movs	r5, #1
  if (HAL_IS_BIT_SET(itflag, I2C_FLAG_OVR))
 8000dac:	f413 6f80 	tst.w	r3, #1024	@ 0x400
 8000db0:	d006      	beq.n	8000dc0 <I2C_IsErrorOccurred+0xbe>
    error_code |= HAL_I2C_ERROR_OVR;
 8000db2:	f046 0608 	orr.w	r6, r6, #8
    __HAL_I2C_CLEAR_FLAG(hi2c, I2C_FLAG_OVR);
 8000db6:	6822      	ldr	r2, [r4, #0]
 8000db8:	f44f 6180 	mov.w	r1, #1024	@ 0x400
 8000dbc:	61d1      	str	r1, [r2, #28]
    status = HAL_ERROR;
 8000dbe:	2501      	movs	r5, #1
  if (HAL_IS_BIT_SET(itflag, I2C_FLAG_ARLO))
 8000dc0:	f413 7f00 	tst.w	r3, #512	@ 0x200
 8000dc4:	d024      	beq.n	8000e10 <I2C_IsErrorOccurred+0x10e>
    error_code |= HAL_I2C_ERROR_ARLO;
 8000dc6:	f046 0602 	orr.w	r6, r6, #2
    __HAL_I2C_CLEAR_FLAG(hi2c, I2C_FLAG_ARLO);
 8000dca:	6823      	ldr	r3, [r4, #0]
 8000dcc:	f44f 7200 	mov.w	r2, #512	@ 0x200
 8000dd0:	61da      	str	r2, [r3, #28]
    status = HAL_ERROR;
 8000dd2:	2501      	movs	r5, #1
    I2C_Flush_TXDR(hi2c);
 8000dd4:	4620      	mov	r0, r4
 8000dd6:	f7ff ff65 	bl	8000ca4 <I2C_Flush_TXDR>
    I2C_RESET_CR2(hi2c);
 8000dda:	6822      	ldr	r2, [r4, #0]
 8000ddc:	6853      	ldr	r3, [r2, #4]
 8000dde:	f023 73ff 	bic.w	r3, r3, #33423360	@ 0x1fe0000
 8000de2:	f423 338b 	bic.w	r3, r3, #71168	@ 0x11600
 8000de6:	f423 73ff 	bic.w	r3, r3, #510	@ 0x1fe
 8000dea:	f023 0301 	bic.w	r3, r3, #1
 8000dee:	6053      	str	r3, [r2, #4]
    hi2c->ErrorCode |= error_code;
 8000df0:	6c63      	ldr	r3, [r4, #68]	@ 0x44
 8000df2:	4333      	orrs	r3, r6
 8000df4:	6463      	str	r3, [r4, #68]	@ 0x44
    hi2c->State = HAL_I2C_STATE_READY;
 8000df6:	2320      	movs	r3, #32
 8000df8:	f884 3041 	strb.w	r3, [r4, #65]	@ 0x41
    hi2c->Mode = HAL_I2C_MODE_NONE;
 8000dfc:	2300      	movs	r3, #0
 8000dfe:	f884 3042 	strb.w	r3, [r4, #66]	@ 0x42
    __HAL_UNLOCK(hi2c);
 8000e02:	f884 3040 	strb.w	r3, [r4, #64]	@ 0x40
}
 8000e06:	4628      	mov	r0, r5
 8000e08:	e8bd 81f0 	ldmia.w	sp!, {r4, r5, r6, r7, r8, pc}
  HAL_StatusTypeDef status = HAL_OK;
 8000e0c:	2500      	movs	r5, #0
 8000e0e:	e7c2      	b.n	8000d96 <I2C_IsErrorOccurred+0x94>
  if (status != HAL_OK)
 8000e10:	2d00      	cmp	r5, #0
 8000e12:	d0f8      	beq.n	8000e06 <I2C_IsErrorOccurred+0x104>
 8000e14:	e7de      	b.n	8000dd4 <I2C_IsErrorOccurred+0xd2>

08000e16 <I2C_WaitOnTXISFlagUntilTimeout>:
{
 8000e16:	b570      	push	{r4, r5, r6, lr}
 8000e18:	4604      	mov	r4, r0
 8000e1a:	460d      	mov	r5, r1
 8000e1c:	4616      	mov	r6, r2
  while (__HAL_I2C_GET_FLAG(hi2c, I2C_FLAG_TXIS) == RESET)
 8000e1e:	6823      	ldr	r3, [r4, #0]
 8000e20:	699b      	ldr	r3, [r3, #24]
 8000e22:	f013 0f02 	tst.w	r3, #2
 8000e26:	d122      	bne.n	8000e6e <I2C_WaitOnTXISFlagUntilTimeout+0x58>
    if (I2C_IsErrorOccurred(hi2c, Timeout, Tickstart) != HAL_OK)
 8000e28:	4632      	mov	r2, r6
 8000e2a:	4629      	mov	r1, r5
 8000e2c:	4620      	mov	r0, r4
 8000e2e:	f7ff ff68 	bl	8000d02 <I2C_IsErrorOccurred>
 8000e32:	b9f0      	cbnz	r0, 8000e72 <I2C_WaitOnTXISFlagUntilTimeout+0x5c>
    if (Timeout != HAL_MAX_DELAY)
 8000e34:	f1b5 3fff 	cmp.w	r5, #4294967295	@ 0xffffffff
 8000e38:	d0f1      	beq.n	8000e1e <I2C_WaitOnTXISFlagUntilTimeout+0x8>
      if (((HAL_GetTick() - Tickstart) > Timeout) || (Timeout == 0U))
 8000e3a:	f7ff fd8f 	bl	800095c <HAL_GetTick>
 8000e3e:	1b80      	subs	r0, r0, r6
 8000e40:	42a8      	cmp	r0, r5
 8000e42:	d801      	bhi.n	8000e48 <I2C_WaitOnTXISFlagUntilTimeout+0x32>
 8000e44:	2d00      	cmp	r5, #0
 8000e46:	d1ea      	bne.n	8000e1e <I2C_WaitOnTXISFlagUntilTimeout+0x8>
        if (__HAL_I2C_GET_FLAG(hi2c, I2C_FLAG_TXIS) == RESET)
 8000e48:	6823      	ldr	r3, [r4, #0]
 8000e4a:	699b      	ldr	r3, [r3, #24]
 8000e4c:	f013 0f02 	tst.w	r3, #2
 8000e50:	d1e5      	bne.n	8000e1e <I2C_WaitOnTXISFlagUntilTimeout+0x8>
          hi2c->ErrorCode |= HAL_I2C_ERROR_TIMEOUT;
 8000e52:	6c63      	ldr	r3, [r4, #68]	@ 0x44
 8000e54:	f043 0320 	orr.w	r3, r3, #32
 8000e58:	6463      	str	r3, [r4, #68]	@ 0x44
          hi2c->State = HAL_I2C_STATE_READY;
 8000e5a:	2320      	movs	r3, #32
 8000e5c:	f884 3041 	strb.w	r3, [r4, #65]	@ 0x41
          hi2c->Mode = HAL_I2C_MODE_NONE;
 8000e60:	2300      	movs	r3, #0
 8000e62:	f884 3042 	strb.w	r3, [r4, #66]	@ 0x42
          __HAL_UNLOCK(hi2c);
 8000e66:	f884 3040 	strb.w	r3, [r4, #64]	@ 0x40
          return HAL_ERROR;
 8000e6a:	2001      	movs	r0, #1
 8000e6c:	e000      	b.n	8000e70 <I2C_WaitOnTXISFlagUntilTimeout+0x5a>
  return HAL_OK;
 8000e6e:	2000      	movs	r0, #0
}
 8000e70:	bd70      	pop	{r4, r5, r6, pc}
      return HAL_ERROR;
 8000e72:	2001      	movs	r0, #1
 8000e74:	e7fc      	b.n	8000e70 <I2C_WaitOnTXISFlagUntilTimeout+0x5a>

08000e76 <I2C_WaitOnFlagUntilTimeout>:
{
 8000e76:	e92d 41f0 	stmdb	sp!, {r4, r5, r6, r7, r8, lr}
 8000e7a:	4604      	mov	r4, r0
 8000e7c:	460f      	mov	r7, r1
 8000e7e:	4616      	mov	r6, r2
 8000e80:	461d      	mov	r5, r3
 8000e82:	f8dd 8018 	ldr.w	r8, [sp, #24]
  while (__HAL_I2C_GET_FLAG(hi2c, Flag) == Status)
 8000e86:	6823      	ldr	r3, [r4, #0]
 8000e88:	699b      	ldr	r3, [r3, #24]
 8000e8a:	ea37 0303 	bics.w	r3, r7, r3
 8000e8e:	bf0c      	ite	eq
 8000e90:	2301      	moveq	r3, #1
 8000e92:	2300      	movne	r3, #0
 8000e94:	42b3      	cmp	r3, r6
 8000e96:	d127      	bne.n	8000ee8 <I2C_WaitOnFlagUntilTimeout+0x72>
    if (I2C_IsErrorOccurred(hi2c, Timeout, Tickstart) != HAL_OK)
 8000e98:	4642      	mov	r2, r8
 8000e9a:	4629      	mov	r1, r5
 8000e9c:	4620      	mov	r0, r4
 8000e9e:	f7ff ff30 	bl	8000d02 <I2C_IsErrorOccurred>
 8000ea2:	bb20      	cbnz	r0, 8000eee <I2C_WaitOnFlagUntilTimeout+0x78>
    if (Timeout != HAL_MAX_DELAY)
 8000ea4:	f1b5 3fff 	cmp.w	r5, #4294967295	@ 0xffffffff
 8000ea8:	d0ed      	beq.n	8000e86 <I2C_WaitOnFlagUntilTimeout+0x10>
      if (((HAL_GetTick() - Tickstart) > Timeout) || (Timeout == 0U))
 8000eaa:	f7ff fd57 	bl	800095c <HAL_GetTick>
 8000eae:	eba0 0008 	sub.w	r0, r0, r8
 8000eb2:	42a8      	cmp	r0, r5
 8000eb4:	d801      	bhi.n	8000eba <I2C_WaitOnFlagUntilTimeout+0x44>
 8000eb6:	2d00      	cmp	r5, #0
 8000eb8:	d1e5      	bne.n	8000e86 <I2C_WaitOnFlagUntilTimeout+0x10>
        if (__HAL_I2C_GET_FLAG(hi2c, Flag) == Status)
 8000eba:	6823      	ldr	r3, [r4, #0]
 8000ebc:	699b      	ldr	r3, [r3, #24]
 8000ebe:	ea37 0303 	bics.w	r3, r7, r3
 8000ec2:	bf0c      	ite	eq
 8000ec4:	2301      	moveq	r3, #1
 8000ec6:	2300      	movne	r3, #0
 8000ec8:	42b3      	cmp	r3, r6
 8000eca:	d1dc      	bne.n	8000e86 <I2C_WaitOnFlagUntilTimeout+0x10>
          hi2c->ErrorCode |= HAL_I2C_ERROR_TIMEOUT;
 8000ecc:	6c63      	ldr	r3, [r4, #68]	@ 0x44
 8000ece:	f043 0320 	orr.w	r3, r3, #32
 8000ed2:	6463      	str	r3, [r4, #68]	@ 0x44
          hi2c->State = HAL_I2C_STATE_READY;
 8000ed4:	2320      	movs	r3, #32
 8000ed6:	f884 3041 	strb.w	r3, [r4, #65]	@ 0x41
          hi2c->Mode = HAL_I2C_MODE_NONE;
 8000eda:	2300      	movs	r3, #0
 8000edc:	f884 3042 	strb.w	r3, [r4, #66]	@ 0x42
          __HAL_UNLOCK(hi2c);
 8000ee0:	f884 3040 	strb.w	r3, [r4, #64]	@ 0x40
          return HAL_ERROR;
 8000ee4:	2001      	movs	r0, #1
 8000ee6:	e000      	b.n	8000eea <I2C_WaitOnFlagUntilTimeout+0x74>
  return HAL_OK;
 8000ee8:	2000      	movs	r0, #0
}
 8000eea:	e8bd 81f0 	ldmia.w	sp!, {r4, r5, r6, r7, r8, pc}
      return HAL_ERROR;
 8000eee:	2001      	movs	r0, #1
 8000ef0:	e7fb      	b.n	8000eea <I2C_WaitOnFlagUntilTimeout+0x74>
	...

08000ef4 <I2C_RequestMemoryWrite>:
{
 8000ef4:	b570      	push	{r4, r5, r6, lr}
 8000ef6:	b082      	sub	sp, #8
 8000ef8:	4604      	mov	r4, r0
 8000efa:	4616      	mov	r6, r2
 8000efc:	461d      	mov	r5, r3
  I2C_TransferConfig(hi2c, DevAddress, (uint8_t)MemAddSize, I2C_RELOAD_MODE, I2C_GENERATE_START_WRITE);
 8000efe:	4b18      	ldr	r3, [pc, #96]	@ (8000f60 <I2C_RequestMemoryWrite+0x6c>)
 8000f00:	9300      	str	r3, [sp, #0]
 8000f02:	f04f 7380 	mov.w	r3, #16777216	@ 0x1000000
 8000f06:	b2ea      	uxtb	r2, r5
 8000f08:	f7ff fedd 	bl	8000cc6 <I2C_TransferConfig>
  if (I2C_WaitOnTXISFlagUntilTimeout(hi2c, Timeout, Tickstart) != HAL_OK)
 8000f0c:	9a07      	ldr	r2, [sp, #28]
 8000f0e:	9906      	ldr	r1, [sp, #24]
 8000f10:	4620      	mov	r0, r4
 8000f12:	f7ff ff80 	bl	8000e16 <I2C_WaitOnTXISFlagUntilTimeout>
 8000f16:	b9e0      	cbnz	r0, 8000f52 <I2C_RequestMemoryWrite+0x5e>
  if (MemAddSize == I2C_MEMADD_SIZE_8BIT)
 8000f18:	2d01      	cmp	r5, #1
 8000f1a:	d10d      	bne.n	8000f38 <I2C_RequestMemoryWrite+0x44>
    hi2c->Instance->TXDR = I2C_MEM_ADD_LSB(MemAddress);
 8000f1c:	6823      	ldr	r3, [r4, #0]
 8000f1e:	b2f2      	uxtb	r2, r6
 8000f20:	629a      	str	r2, [r3, #40]	@ 0x28
  if (I2C_WaitOnFlagUntilTimeout(hi2c, I2C_FLAG_TCR, RESET, Timeout, Tickstart) != HAL_OK)
 8000f22:	9b07      	ldr	r3, [sp, #28]
 8000f24:	9300      	str	r3, [sp, #0]
 8000f26:	9b06      	ldr	r3, [sp, #24]
 8000f28:	2200      	movs	r2, #0
 8000f2a:	2180      	movs	r1, #128	@ 0x80
 8000f2c:	4620      	mov	r0, r4
 8000f2e:	f7ff ffa2 	bl	8000e76 <I2C_WaitOnFlagUntilTimeout>
 8000f32:	b990      	cbnz	r0, 8000f5a <I2C_RequestMemoryWrite+0x66>
}
 8000f34:	b002      	add	sp, #8
 8000f36:	bd70      	pop	{r4, r5, r6, pc}
    hi2c->Instance->TXDR = I2C_MEM_ADD_MSB(MemAddress);
 8000f38:	0a33      	lsrs	r3, r6, #8
 8000f3a:	6822      	ldr	r2, [r4, #0]
 8000f3c:	6293      	str	r3, [r2, #40]	@ 0x28
    if (I2C_WaitOnTXISFlagUntilTimeout(hi2c, Timeout, Tickstart) != HAL_OK)
 8000f3e:	9a07      	ldr	r2, [sp, #28]
 8000f40:	9906      	ldr	r1, [sp, #24]
 8000f42:	4620      	mov	r0, r4
 8000f44:	f7ff ff67 	bl	8000e16 <I2C_WaitOnTXISFlagUntilTimeout>
 8000f48:	b928      	cbnz	r0, 8000f56 <I2C_RequestMemoryWrite+0x62>
    hi2c->Instance->TXDR = I2C_MEM_ADD_LSB(MemAddress);
 8000f4a:	6823      	ldr	r3, [r4, #0]
 8000f4c:	b2f2      	uxtb	r2, r6
 8000f4e:	629a      	str	r2, [r3, #40]	@ 0x28
 8000f50:	e7e7      	b.n	8000f22 <I2C_RequestMemoryWrite+0x2e>
    return HAL_ERROR;
 8000f52:	2001      	movs	r0, #1
 8000f54:	e7ee      	b.n	8000f34 <I2C_RequestMemoryWrite+0x40>
      return HAL_ERROR;
 8000f56:	2001      	movs	r0, #1
 8000f58:	e7ec      	b.n	8000f34 <I2C_RequestMemoryWrite+0x40>
    return HAL_ERROR;
 8000f5a:	2001      	movs	r0, #1
 8000f5c:	e7ea      	b.n	8000f34 <I2C_RequestMemoryWrite+0x40>
 8000f5e:	bf00      	nop
 8000f60:	80002000 	.word	0x80002000

08000f64 <I2C_WaitOnSTOPFlagUntilTimeout>:
{
 8000f64:	b570      	push	{r4, r5, r6, lr}
 8000f66:	4604      	mov	r4, r0
 8000f68:	460d      	mov	r5, r1
 8000f6a:	4616      	mov	r6, r2
  while (__HAL_I2C_GET_FLAG(hi2c, I2C_FLAG_STOPF) == RESET)
 8000f6c:	e004      	b.n	8000f78 <I2C_WaitOnSTOPFlagUntilTimeout+0x14>
      if (__HAL_I2C_GET_FLAG(hi2c, I2C_FLAG_STOPF) == RESET)
 8000f6e:	6823      	ldr	r3, [r4, #0]
 8000f70:	699b      	ldr	r3, [r3, #24]
 8000f72:	f013 0f20 	tst.w	r3, #32
 8000f76:	d012      	beq.n	8000f9e <I2C_WaitOnSTOPFlagUntilTimeout+0x3a>
  while (__HAL_I2C_GET_FLAG(hi2c, I2C_FLAG_STOPF) == RESET)
 8000f78:	6823      	ldr	r3, [r4, #0]
 8000f7a:	699b      	ldr	r3, [r3, #24]
 8000f7c:	f013 0f20 	tst.w	r3, #32
 8000f80:	d11b      	bne.n	8000fba <I2C_WaitOnSTOPFlagUntilTimeout+0x56>
    if (I2C_IsErrorOccurred(hi2c, Timeout, Tickstart) != HAL_OK)
 8000f82:	4632      	mov	r2, r6
 8000f84:	4629      	mov	r1, r5
 8000f86:	4620      	mov	r0, r4
 8000f88:	f7ff febb 	bl	8000d02 <I2C_IsErrorOccurred>
 8000f8c:	b9b8      	cbnz	r0, 8000fbe <I2C_WaitOnSTOPFlagUntilTimeout+0x5a>
    if (((HAL_GetTick() - Tickstart) > Timeout) || (Timeout == 0U))
 8000f8e:	f7ff fce5 	bl	800095c <HAL_GetTick>
 8000f92:	1b80      	subs	r0, r0, r6
 8000f94:	42a8      	cmp	r0, r5
 8000f96:	d8ea      	bhi.n	8000f6e <I2C_WaitOnSTOPFlagUntilTimeout+0xa>
 8000f98:	2d00      	cmp	r5, #0
 8000f9a:	d1ed      	bne.n	8000f78 <I2C_WaitOnSTOPFlagUntilTimeout+0x14>
 8000f9c:	e7e7      	b.n	8000f6e <I2C_WaitOnSTOPFlagUntilTimeout+0xa>
        hi2c->ErrorCode |= HAL_I2C_ERROR_TIMEOUT;
 8000f9e:	6c63      	ldr	r3, [r4, #68]	@ 0x44
 8000fa0:	f043 0320 	orr.w	r3, r3, #32
 8000fa4:	6463      	str	r3, [r4, #68]	@ 0x44
        hi2c->State = HAL_I2C_STATE_READY;
 8000fa6:	2320      	movs	r3, #32
 8000fa8:	f884 3041 	strb.w	r3, [r4, #65]	@ 0x41
        hi2c->Mode = HAL_I2C_MODE_NONE;
 8000fac:	2300      	movs	r3, #0
 8000fae:	f884 3042 	strb.w	r3, [r4, #66]	@ 0x42
        __HAL_UNLOCK(hi2c);
 8000fb2:	f884 3040 	strb.w	r3, [r4, #64]	@ 0x40
        return HAL_ERROR;
 8000fb6:	2001      	movs	r0, #1
 8000fb8:	e000      	b.n	8000fbc <I2C_WaitOnSTOPFlagUntilTimeout+0x58>
  return HAL_OK;
 8000fba:	2000      	movs	r0, #0
}
 8000fbc:	bd70      	pop	{r4, r5, r6, pc}
      return HAL_ERROR;
 8000fbe:	2001      	movs	r0, #1
 8000fc0:	e7fc      	b.n	8000fbc <I2C_WaitOnSTOPFlagUntilTimeout+0x58>

08000fc2 <HAL_I2C_Init>:
  if (hi2c == NULL)
 8000fc2:	2800      	cmp	r0, #0
 8000fc4:	d05f      	beq.n	8001086 <HAL_I2C_Init+0xc4>
{
 8000fc6:	b510      	push	{r4, lr}
 8000fc8:	4604      	mov	r4, r0
  if (hi2c->State == HAL_I2C_STATE_RESET)
 8000fca:	f890 3041 	ldrb.w	r3, [r0, #65]	@ 0x41
 8000fce:	2b00      	cmp	r3, #0
 8000fd0:	d048      	beq.n	8001064 <HAL_I2C_Init+0xa2>
  hi2c->State = HAL_I2C_STATE_BUSY;
 8000fd2:	2324      	movs	r3, #36	@ 0x24
 8000fd4:	f884 3041 	strb.w	r3, [r4, #65]	@ 0x41
  __HAL_I2C_DISABLE(hi2c);
 8000fd8:	6822      	ldr	r2, [r4, #0]
 8000fda:	6813      	ldr	r3, [r2, #0]
 8000fdc:	f023 0301 	bic.w	r3, r3, #1
 8000fe0:	6013      	str	r3, [r2, #0]
  hi2c->Instance->TIMINGR = hi2c->Init.Timing & TIMING_CLEAR_MASK;
 8000fe2:	6863      	ldr	r3, [r4, #4]
 8000fe4:	6822      	ldr	r2, [r4, #0]
 8000fe6:	f023 6370 	bic.w	r3, r3, #251658240	@ 0xf000000
 8000fea:	6113      	str	r3, [r2, #16]
  hi2c->Instance->OAR1 &= ~I2C_OAR1_OA1EN;
 8000fec:	6822      	ldr	r2, [r4, #0]
 8000fee:	6893      	ldr	r3, [r2, #8]
 8000ff0:	f423 4300 	bic.w	r3, r3, #32768	@ 0x8000
 8000ff4:	6093      	str	r3, [r2, #8]
  if (hi2c->Init.AddressingMode == I2C_ADDRESSINGMODE_7BIT)
 8000ff6:	68e3      	ldr	r3, [r4, #12]
 8000ff8:	2b01      	cmp	r3, #1
 8000ffa:	d038      	beq.n	800106e <HAL_I2C_Init+0xac>
    hi2c->Instance->OAR1 = (I2C_OAR1_OA1EN | I2C_OAR1_OA1MODE | hi2c->Init.OwnAddress1);
 8000ffc:	68a3      	ldr	r3, [r4, #8]
 8000ffe:	6822      	ldr	r2, [r4, #0]
 8001000:	f443 4304 	orr.w	r3, r3, #33792	@ 0x8400
 8001004:	6093      	str	r3, [r2, #8]
  if (hi2c->Init.AddressingMode == I2C_ADDRESSINGMODE_10BIT)
 8001006:	68e3      	ldr	r3, [r4, #12]
 8001008:	2b02      	cmp	r3, #2
 800100a:	d036      	beq.n	800107a <HAL_I2C_Init+0xb8>
    CLEAR_BIT(hi2c->Instance->CR2, I2C_CR2_ADD10);
 800100c:	6822      	ldr	r2, [r4, #0]
 800100e:	6853      	ldr	r3, [r2, #4]
 8001010:	f423 6300 	bic.w	r3, r3, #2048	@ 0x800
 8001014:	6053      	str	r3, [r2, #4]
  hi2c->Instance->CR2 |= (I2C_CR2_AUTOEND | I2C_CR2_NACK);
 8001016:	6822      	ldr	r2, [r4, #0]
 8001018:	6853      	ldr	r3, [r2, #4]
 800101a:	f043 7300 	orr.w	r3, r3, #33554432	@ 0x2000000
 800101e:	f443 4300 	orr.w	r3, r3, #32768	@ 0x8000
 8001022:	6053      	str	r3, [r2, #4]
  hi2c->Instance->OAR2 &= ~I2C_DUALADDRESS_ENABLE;
 8001024:	6822      	ldr	r2, [r4, #0]
 8001026:	68d3      	ldr	r3, [r2, #12]
 8001028:	f423 4300 	bic.w	r3, r3, #32768	@ 0x8000
 800102c:	60d3      	str	r3, [r2, #12]
  hi2c->Instance->OAR2 = (hi2c->Init.DualAddressMode | hi2c->Init.OwnAddress2 | \
 800102e:	6923      	ldr	r3, [r4, #16]
 8001030:	6962      	ldr	r2, [r4, #20]
 8001032:	4313      	orrs	r3, r2
                          (hi2c->Init.OwnAddress2Masks << 8));
 8001034:	69a1      	ldr	r1, [r4, #24]
  hi2c->Instance->OAR2 = (hi2c->Init.DualAddressMode | hi2c->Init.OwnAddress2 | \
 8001036:	6822      	ldr	r2, [r4, #0]
 8001038:	ea43 2301 	orr.w	r3, r3, r1, lsl #8
 800103c:	60d3      	str	r3, [r2, #12]
  hi2c->Instance->CR1 = (hi2c->Init.GeneralCallMode | hi2c->Init.NoStretchMode);
 800103e:	69e3      	ldr	r3, [r4, #28]
 8001040:	6a21      	ldr	r1, [r4, #32]
 8001042:	6822      	ldr	r2, [r4, #0]
 8001044:	430b      	orrs	r3, r1
 8001046:	6013      	str	r3, [r2, #0]
  __HAL_I2C_ENABLE(hi2c);
 8001048:	6822      	ldr	r2, [r4, #0]
 800104a:	6813      	ldr	r3, [r2, #0]
 800104c:	f043 0301 	orr.w	r3, r3, #1
 8001050:	6013      	str	r3, [r2, #0]
  hi2c->ErrorCode = HAL_I2C_ERROR_NONE;
 8001052:	2000      	movs	r0, #0
 8001054:	6460      	str	r0, [r4, #68]	@ 0x44
  hi2c->State = HAL_I2C_STATE_READY;
 8001056:	2320      	movs	r3, #32
 8001058:	f884 3041 	strb.w	r3, [r4, #65]	@ 0x41
  hi2c->PreviousState = I2C_STATE_NONE;
 800105c:	6320      	str	r0, [r4, #48]	@ 0x30
  hi2c->Mode = HAL_I2C_MODE_NONE;
 800105e:	f884 0042 	strb.w	r0, [r4, #66]	@ 0x42
}
 8001062:	bd10      	pop	{r4, pc}
    hi2c->Lock = HAL_UNLOCKED;
 8001064:	f880 3040 	strb.w	r3, [r0, #64]	@ 0x40
    HAL_I2C_MspInit(hi2c);
 8001068:	f000 f94e 	bl	8001308 <HAL_I2C_MspInit>
 800106c:	e7b1      	b.n	8000fd2 <HAL_I2C_Init+0x10>
    hi2c->Instance->OAR1 = (I2C_OAR1_OA1EN | hi2c->Init.OwnAddress1);
 800106e:	68a3      	ldr	r3, [r4, #8]
 8001070:	6822      	ldr	r2, [r4, #0]
 8001072:	f443 4300 	orr.w	r3, r3, #32768	@ 0x8000
 8001076:	6093      	str	r3, [r2, #8]
 8001078:	e7c5      	b.n	8001006 <HAL_I2C_Init+0x44>
    SET_BIT(hi2c->Instance->CR2, I2C_CR2_ADD10);
 800107a:	6822      	ldr	r2, [r4, #0]
 800107c:	6853      	ldr	r3, [r2, #4]
 800107e:	f443 6300 	orr.w	r3, r3, #2048	@ 0x800
 8001082:	6053      	str	r3, [r2, #4]
 8001084:	e7c7      	b.n	8001016 <HAL_I2C_Init+0x54>
    return HAL_ERROR;
 8001086:	2001      	movs	r0, #1
}
 8001088:	4770      	bx	lr

0800108a <HAL_I2C_Mem_Write>:
{
 800108a:	e92d 43f0 	stmdb	sp!, {r4, r5, r6, r7, r8, r9, lr}
 800108e:	b083      	sub	sp, #12
 8001090:	460e      	mov	r6, r1
 8001092:	4698      	mov	r8, r3
 8001094:	f8bd 302c 	ldrh.w	r3, [sp, #44]	@ 0x2c
  if (hi2c->State == HAL_I2C_STATE_READY)
 8001098:	f890 1041 	ldrb.w	r1, [r0, #65]	@ 0x41
 800109c:	2920      	cmp	r1, #32
 800109e:	f040 80b7 	bne.w	8001210 <HAL_I2C_Mem_Write+0x186>
 80010a2:	4604      	mov	r4, r0
 80010a4:	4617      	mov	r7, r2
 80010a6:	4699      	mov	r9, r3
    if ((pData == NULL) || (Size == 0U))
 80010a8:	9a0a      	ldr	r2, [sp, #40]	@ 0x28
 80010aa:	b1ba      	cbz	r2, 80010dc <HAL_I2C_Mem_Write+0x52>
 80010ac:	b1b3      	cbz	r3, 80010dc <HAL_I2C_Mem_Write+0x52>
    __HAL_LOCK(hi2c);
 80010ae:	f890 3040 	ldrb.w	r3, [r0, #64]	@ 0x40
 80010b2:	2b01      	cmp	r3, #1
 80010b4:	f000 80b0 	beq.w	8001218 <HAL_I2C_Mem_Write+0x18e>
 80010b8:	f04f 0301 	mov.w	r3, #1
 80010bc:	f880 3040 	strb.w	r3, [r0, #64]	@ 0x40
    tickstart = HAL_GetTick();
 80010c0:	f7ff fc4c 	bl	800095c <HAL_GetTick>
 80010c4:	4605      	mov	r5, r0
    if (I2C_WaitOnFlagUntilTimeout(hi2c, I2C_FLAG_BUSY, SET, I2C_TIMEOUT_BUSY, tickstart) != HAL_OK)
 80010c6:	9000      	str	r0, [sp, #0]
 80010c8:	2319      	movs	r3, #25
 80010ca:	2201      	movs	r2, #1
 80010cc:	f44f 4100 	mov.w	r1, #32768	@ 0x8000
 80010d0:	4620      	mov	r0, r4
 80010d2:	f7ff fed0 	bl	8000e76 <I2C_WaitOnFlagUntilTimeout>
 80010d6:	b130      	cbz	r0, 80010e6 <HAL_I2C_Mem_Write+0x5c>
      return HAL_ERROR;
 80010d8:	2001      	movs	r0, #1
 80010da:	e09a      	b.n	8001212 <HAL_I2C_Mem_Write+0x188>
      hi2c->ErrorCode = HAL_I2C_ERROR_INVALID_PARAM;
 80010dc:	f44f 7300 	mov.w	r3, #512	@ 0x200
 80010e0:	6463      	str	r3, [r4, #68]	@ 0x44
      return  HAL_ERROR;
 80010e2:	2001      	movs	r0, #1
 80010e4:	e095      	b.n	8001212 <HAL_I2C_Mem_Write+0x188>
    hi2c->State     = HAL_I2C_STATE_BUSY_TX;
 80010e6:	2321      	movs	r3, #33	@ 0x21
 80010e8:	f884 3041 	strb.w	r3, [r4, #65]	@ 0x41
    hi2c->Mode      = HAL_I2C_MODE_MEM;
 80010ec:	2340      	movs	r3, #64	@ 0x40
 80010ee:	f884 3042 	strb.w	r3, [r4, #66]	@ 0x42
    hi2c->ErrorCode = HAL_I2C_ERROR_NONE;
 80010f2:	6460      	str	r0, [r4, #68]	@ 0x44
    hi2c->pBuffPtr  = pData;
 80010f4:	9a0a      	ldr	r2, [sp, #40]	@ 0x28
 80010f6:	6262      	str	r2, [r4, #36]	@ 0x24
    hi2c->XferCount = Size;
 80010f8:	f8a4 902a 	strh.w	r9, [r4, #42]	@ 0x2a
    hi2c->XferISR   = NULL;
 80010fc:	6360      	str	r0, [r4, #52]	@ 0x34
    if (I2C_RequestMemoryWrite(hi2c, DevAddress, MemAddress, MemAddSize, Timeout, tickstart) != HAL_OK)
 80010fe:	9501      	str	r5, [sp, #4]
 8001100:	9b0c      	ldr	r3, [sp, #48]	@ 0x30
 8001102:	9300      	str	r3, [sp, #0]
 8001104:	4643      	mov	r3, r8
 8001106:	463a      	mov	r2, r7
 8001108:	4631      	mov	r1, r6
 800110a:	4620      	mov	r0, r4
 800110c:	f7ff fef2 	bl	8000ef4 <I2C_RequestMemoryWrite>
 8001110:	b968      	cbnz	r0, 800112e <HAL_I2C_Mem_Write+0xa4>
    if (hi2c->XferCount > MAX_NBYTE_SIZE)
 8001112:	8d63      	ldrh	r3, [r4, #42]	@ 0x2a
 8001114:	b29b      	uxth	r3, r3
 8001116:	2bff      	cmp	r3, #255	@ 0xff
 8001118:	d90e      	bls.n	8001138 <HAL_I2C_Mem_Write+0xae>
      hi2c->XferSize = MAX_NBYTE_SIZE;
 800111a:	22ff      	movs	r2, #255	@ 0xff
 800111c:	8522      	strh	r2, [r4, #40]	@ 0x28
      I2C_TransferConfig(hi2c, DevAddress, (uint8_t)hi2c->XferSize, I2C_RELOAD_MODE, I2C_NO_STARTSTOP);
 800111e:	9000      	str	r0, [sp, #0]
 8001120:	f04f 7380 	mov.w	r3, #16777216	@ 0x1000000
 8001124:	4631      	mov	r1, r6
 8001126:	4620      	mov	r0, r4
 8001128:	f7ff fdcd 	bl	8000cc6 <I2C_TransferConfig>
 800112c:	e021      	b.n	8001172 <HAL_I2C_Mem_Write+0xe8>
      __HAL_UNLOCK(hi2c);
 800112e:	2300      	movs	r3, #0
 8001130:	f884 3040 	strb.w	r3, [r4, #64]	@ 0x40
      return HAL_ERROR;
 8001134:	2001      	movs	r0, #1
 8001136:	e06c      	b.n	8001212 <HAL_I2C_Mem_Write+0x188>
      hi2c->XferSize = hi2c->XferCount;
 8001138:	8d62      	ldrh	r2, [r4, #42]	@ 0x2a
 800113a:	b292      	uxth	r2, r2
 800113c:	8522      	strh	r2, [r4, #40]	@ 0x28
      I2C_TransferConfig(hi2c, DevAddress, (uint8_t)hi2c->XferSize, I2C_AUTOEND_MODE, I2C_NO_STARTSTOP);
 800113e:	2300      	movs	r3, #0
 8001140:	9300      	str	r3, [sp, #0]
 8001142:	f04f 7300 	mov.w	r3, #33554432	@ 0x2000000
 8001146:	b2d2      	uxtb	r2, r2
 8001148:	4631      	mov	r1, r6
 800114a:	4620      	mov	r0, r4
 800114c:	f7ff fdbb 	bl	8000cc6 <I2C_TransferConfig>
 8001150:	e00f      	b.n	8001172 <HAL_I2C_Mem_Write+0xe8>
          hi2c->XferSize = hi2c->XferCount;
 8001152:	8d62      	ldrh	r2, [r4, #42]	@ 0x2a
 8001154:	b292      	uxth	r2, r2
 8001156:	8522      	strh	r2, [r4, #40]	@ 0x28
          I2C_TransferConfig(hi2c, DevAddress, (uint8_t)hi2c->XferSize, I2C_AUTOEND_MODE,
 8001158:	2300      	movs	r3, #0
 800115a:	9300      	str	r3, [sp, #0]
 800115c:	f04f 7300 	mov.w	r3, #33554432	@ 0x2000000
 8001160:	b2d2      	uxtb	r2, r2
 8001162:	4631      	mov	r1, r6
 8001164:	4620      	mov	r0, r4
 8001166:	f7ff fdae 	bl	8000cc6 <I2C_TransferConfig>
    } while (hi2c->XferCount > 0U);
 800116a:	8d63      	ldrh	r3, [r4, #42]	@ 0x2a
 800116c:	b29b      	uxth	r3, r3
 800116e:	2b00      	cmp	r3, #0
 8001170:	d032      	beq.n	80011d8 <HAL_I2C_Mem_Write+0x14e>
      if (I2C_WaitOnTXISFlagUntilTimeout(hi2c, Timeout, tickstart) != HAL_OK)
 8001172:	462a      	mov	r2, r5
 8001174:	990c      	ldr	r1, [sp, #48]	@ 0x30
 8001176:	4620      	mov	r0, r4
 8001178:	f7ff fe4d 	bl	8000e16 <I2C_WaitOnTXISFlagUntilTimeout>
 800117c:	2800      	cmp	r0, #0
 800117e:	d14d      	bne.n	800121c <HAL_I2C_Mem_Write+0x192>
      hi2c->Instance->TXDR = *hi2c->pBuffPtr;
 8001180:	6a62      	ldr	r2, [r4, #36]	@ 0x24
 8001182:	6823      	ldr	r3, [r4, #0]
 8001184:	7812      	ldrb	r2, [r2, #0]
 8001186:	629a      	str	r2, [r3, #40]	@ 0x28
      hi2c->pBuffPtr++;
 8001188:	6a63      	ldr	r3, [r4, #36]	@ 0x24
 800118a:	3301      	adds	r3, #1
 800118c:	6263      	str	r3, [r4, #36]	@ 0x24
      hi2c->XferCount--;
 800118e:	8d63      	ldrh	r3, [r4, #42]	@ 0x2a
 8001190:	b29b      	uxth	r3, r3
 8001192:	3b01      	subs	r3, #1
 8001194:	b29b      	uxth	r3, r3
 8001196:	8563      	strh	r3, [r4, #42]	@ 0x2a
      hi2c->XferSize--;
 8001198:	8d23      	ldrh	r3, [r4, #40]	@ 0x28
 800119a:	3b01      	subs	r3, #1
 800119c:	b29b      	uxth	r3, r3
 800119e:	8523      	strh	r3, [r4, #40]	@ 0x28
      if ((hi2c->XferCount != 0U) && (hi2c->XferSize == 0U))
 80011a0:	8d62      	ldrh	r2, [r4, #42]	@ 0x2a
 80011a2:	b292      	uxth	r2, r2
 80011a4:	2a00      	cmp	r2, #0
 80011a6:	d0e0      	beq.n	800116a <HAL_I2C_Mem_Write+0xe0>
 80011a8:	2b00      	cmp	r3, #0
 80011aa:	d1de      	bne.n	800116a <HAL_I2C_Mem_Write+0xe0>
        if (I2C_WaitOnFlagUntilTimeout(hi2c, I2C_FLAG_TCR, RESET, Timeout, tickstart) != HAL_OK)
 80011ac:	9500      	str	r5, [sp, #0]
 80011ae:	9b0c      	ldr	r3, [sp, #48]	@ 0x30
 80011b0:	4602      	mov	r2, r0
 80011b2:	2180      	movs	r1, #128	@ 0x80
 80011b4:	4620      	mov	r0, r4
 80011b6:	f7ff fe5e 	bl	8000e76 <I2C_WaitOnFlagUntilTimeout>
 80011ba:	bb88      	cbnz	r0, 8001220 <HAL_I2C_Mem_Write+0x196>
        if (hi2c->XferCount > MAX_NBYTE_SIZE)
 80011bc:	8d63      	ldrh	r3, [r4, #42]	@ 0x2a
 80011be:	b29b      	uxth	r3, r3
 80011c0:	2bff      	cmp	r3, #255	@ 0xff
 80011c2:	d9c6      	bls.n	8001152 <HAL_I2C_Mem_Write+0xc8>
          hi2c->XferSize = MAX_NBYTE_SIZE;
 80011c4:	22ff      	movs	r2, #255	@ 0xff
 80011c6:	8522      	strh	r2, [r4, #40]	@ 0x28
          I2C_TransferConfig(hi2c, DevAddress, (uint8_t)hi2c->XferSize, I2C_RELOAD_MODE,
 80011c8:	9000      	str	r0, [sp, #0]
 80011ca:	f04f 7380 	mov.w	r3, #16777216	@ 0x1000000
 80011ce:	4631      	mov	r1, r6
 80011d0:	4620      	mov	r0, r4
 80011d2:	f7ff fd78 	bl	8000cc6 <I2C_TransferConfig>
 80011d6:	e7c8      	b.n	800116a <HAL_I2C_Mem_Write+0xe0>
    if (I2C_WaitOnSTOPFlagUntilTimeout(hi2c, Timeout, tickstart) != HAL_OK)
 80011d8:	462a      	mov	r2, r5
 80011da:	990c      	ldr	r1, [sp, #48]	@ 0x30
 80011dc:	4620      	mov	r0, r4
 80011de:	f7ff fec1 	bl	8000f64 <I2C_WaitOnSTOPFlagUntilTimeout>
 80011e2:	b9f8      	cbnz	r0, 8001224 <HAL_I2C_Mem_Write+0x19a>
    __HAL_I2C_CLEAR_FLAG(hi2c, I2C_FLAG_STOPF);
 80011e4:	6823      	ldr	r3, [r4, #0]
 80011e6:	2220      	movs	r2, #32
 80011e8:	61da      	str	r2, [r3, #28]
    I2C_RESET_CR2(hi2c);
 80011ea:	6821      	ldr	r1, [r4, #0]
 80011ec:	684b      	ldr	r3, [r1, #4]
 80011ee:	f023 73ff 	bic.w	r3, r3, #33423360	@ 0x1fe0000
 80011f2:	f423 338b 	bic.w	r3, r3, #71168	@ 0x11600
 80011f6:	f423 73ff 	bic.w	r3, r3, #510	@ 0x1fe
 80011fa:	f023 0301 	bic.w	r3, r3, #1
 80011fe:	604b      	str	r3, [r1, #4]
    hi2c->State = HAL_I2C_STATE_READY;
 8001200:	f884 2041 	strb.w	r2, [r4, #65]	@ 0x41
    hi2c->Mode  = HAL_I2C_MODE_NONE;
 8001204:	2300      	movs	r3, #0
 8001206:	f884 3042 	strb.w	r3, [r4, #66]	@ 0x42
    __HAL_UNLOCK(hi2c);
 800120a:	f884 3040 	strb.w	r3, [r4, #64]	@ 0x40
    return HAL_OK;
 800120e:	e000      	b.n	8001212 <HAL_I2C_Mem_Write+0x188>
    return HAL_BUSY;
 8001210:	2002      	movs	r0, #2
}
 8001212:	b003      	add	sp, #12
 8001214:	e8bd 83f0 	ldmia.w	sp!, {r4, r5, r6, r7, r8, r9, pc}
    __HAL_LOCK(hi2c);
 8001218:	2002      	movs	r0, #2
 800121a:	e7fa      	b.n	8001212 <HAL_I2C_Mem_Write+0x188>
        return HAL_ERROR;
 800121c:	2001      	movs	r0, #1
 800121e:	e7f8      	b.n	8001212 <HAL_I2C_Mem_Write+0x188>
          return HAL_ERROR;
 8001220:	2001      	movs	r0, #1
 8001222:	e7f6      	b.n	8001212 <HAL_I2C_Mem_Write+0x188>
      return HAL_ERROR;
 8001224:	2001      	movs	r0, #1
 8001226:	e7f4      	b.n	8001212 <HAL_I2C_Mem_Write+0x188>

08001228 <HAL_I2CEx_ConfigAnalogFilter>:
  *                the configuration information for the specified I2Cx peripheral.
  * @param  AnalogFilter New state of the Analog filter.
  * @retval HAL status
  */
HAL_StatusTypeDef HAL_I2CEx_ConfigAnalogFilter(I2C_HandleTypeDef *hi2c, uint32_t AnalogFilter)
{
 8001228:	4603      	mov	r3, r0
  /* Check the parameters */
  assert_param(IS_I2C_ALL_INSTANCE(hi2c->Instance));
  assert_param(IS_I2C_ANALOG_FILTER(AnalogFilter));

  if (hi2c->State == HAL_I2C_STATE_READY)
 800122a:	f890 2041 	ldrb.w	r2, [r0, #65]	@ 0x41
 800122e:	2a20      	cmp	r2, #32
 8001230:	d123      	bne.n	800127a <HAL_I2CEx_ConfigAnalogFilter+0x52>
  {
    /* Process Locked */
    __HAL_LOCK(hi2c);
 8001232:	f890 2040 	ldrb.w	r2, [r0, #64]	@ 0x40
 8001236:	2a01      	cmp	r2, #1
 8001238:	d021      	beq.n	800127e <HAL_I2CEx_ConfigAnalogFilter+0x56>
 800123a:	2201      	movs	r2, #1
 800123c:	f880 2040 	strb.w	r2, [r0, #64]	@ 0x40

    hi2c->State = HAL_I2C_STATE_BUSY;
 8001240:	2224      	movs	r2, #36	@ 0x24
 8001242:	f880 2041 	strb.w	r2, [r0, #65]	@ 0x41

    /* Disable the selected I2C peripheral */
    __HAL_I2C_DISABLE(hi2c);
 8001246:	6800      	ldr	r0, [r0, #0]
 8001248:	6802      	ldr	r2, [r0, #0]
 800124a:	f022 0201 	bic.w	r2, r2, #1
 800124e:	6002      	str	r2, [r0, #0]

    /* Reset I2Cx ANOFF bit */
    hi2c->Instance->CR1 &= ~(I2C_CR1_ANFOFF);
 8001250:	6818      	ldr	r0, [r3, #0]
 8001252:	6802      	ldr	r2, [r0, #0]
 8001254:	f422 5280 	bic.w	r2, r2, #4096	@ 0x1000
 8001258:	6002      	str	r2, [r0, #0]

    /* Set analog filter bit*/
    hi2c->Instance->CR1 |= AnalogFilter;
 800125a:	6818      	ldr	r0, [r3, #0]
 800125c:	6802      	ldr	r2, [r0, #0]
 800125e:	430a      	orrs	r2, r1
 8001260:	6002      	str	r2, [r0, #0]

    __HAL_I2C_ENABLE(hi2c);
 8001262:	6819      	ldr	r1, [r3, #0]
 8001264:	680a      	ldr	r2, [r1, #0]
 8001266:	f042 0201 	orr.w	r2, r2, #1
 800126a:	600a      	str	r2, [r1, #0]

    hi2c->State = HAL_I2C_STATE_READY;
 800126c:	2220      	movs	r2, #32
 800126e:	f883 2041 	strb.w	r2, [r3, #65]	@ 0x41

    /* Process Unlocked */
    __HAL_UNLOCK(hi2c);
 8001272:	2000      	movs	r0, #0
 8001274:	f883 0040 	strb.w	r0, [r3, #64]	@ 0x40

    return HAL_OK;
 8001278:	4770      	bx	lr
  }
  else
  {
    return HAL_BUSY;
 800127a:	2002      	movs	r0, #2
 800127c:	4770      	bx	lr
    __HAL_LOCK(hi2c);
 800127e:	2002      	movs	r0, #2
  }
}
 8001280:	4770      	bx	lr

08001282 <HAL_I2CEx_ConfigDigitalFilter>:
  *                the configuration information for the specified I2Cx peripheral.
  * @param  DigitalFilter Coefficient of digital noise filter between Min_Data=0x00 and Max_Data=0x0F.
  * @retval HAL status
  */
HAL_StatusTypeDef HAL_I2CEx_ConfigDigitalFilter(I2C_HandleTypeDef *hi2c, uint32_t DigitalFilter)
{
 8001282:	4603      	mov	r3, r0

  /* Check the parameters */
  assert_param(IS_I2C_ALL_INSTANCE(hi2c->Instance));
  assert_param(IS_I2C_DIGITAL_FILTER(DigitalFilter));

  if (hi2c->State == HAL_I2C_STATE_READY)
 8001284:	f890 2041 	ldrb.w	r2, [r0, #65]	@ 0x41
 8001288:	2a20      	cmp	r2, #32
 800128a:	d121      	bne.n	80012d0 <HAL_I2CEx_ConfigDigitalFilter+0x4e>
  {
    /* Process Locked */
    __HAL_LOCK(hi2c);
 800128c:	f890 2040 	ldrb.w	r2, [r0, #64]	@ 0x40
 8001290:	2a01      	cmp	r2, #1
 8001292:	d01f      	beq.n	80012d4 <HAL_I2CEx_ConfigDigitalFilter+0x52>
 8001294:	2201      	movs	r2, #1
 8001296:	f880 2040 	strb.w	r2, [r0, #64]	@ 0x40

    hi2c->State = HAL_I2C_STATE_BUSY;
 800129a:	2224      	movs	r2, #36	@ 0x24
 800129c:	f880 2041 	strb.w	r2, [r0, #65]	@ 0x41

    /* Disable the selected I2C peripheral */
    __HAL_I2C_DISABLE(hi2c);
 80012a0:	6800      	ldr	r0, [r0, #0]
 80012a2:	6802      	ldr	r2, [r0, #0]
 80012a4:	f022 0201 	bic.w	r2, r2, #1
 80012a8:	6002      	str	r2, [r0, #0]

    /* Get the old register value */
    tmpreg = hi2c->Instance->CR1;
 80012aa:	6818      	ldr	r0, [r3, #0]
 80012ac:	6802      	ldr	r2, [r0, #0]

    /* Reset I2Cx DNF bits [11:8] */
    tmpreg &= ~(I2C_CR1_DNF);
 80012ae:	f422 6270 	bic.w	r2, r2, #3840	@ 0xf00

    /* Set I2Cx DNF coefficient */
    tmpreg |= DigitalFilter << 8U;
 80012b2:	ea42 2201 	orr.w	r2, r2, r1, lsl #8

    /* Store the new register value */
    hi2c->Instance->CR1 = tmpreg;
 80012b6:	6002      	str	r2, [r0, #0]

    __HAL_I2C_ENABLE(hi2c);
 80012b8:	6819      	ldr	r1, [r3, #0]
 80012ba:	680a      	ldr	r2, [r1, #0]
 80012bc:	f042 0201 	orr.w	r2, r2, #1
 80012c0:	600a      	str	r2, [r1, #0]

    hi2c->State = HAL_I2C_STATE_READY;
 80012c2:	2220      	movs	r2, #32
 80012c4:	f883 2041 	strb.w	r2, [r3, #65]	@ 0x41

    /* Process Unlocked */
    __HAL_UNLOCK(hi2c);
 80012c8:	2000      	movs	r0, #0
 80012ca:	f883 0040 	strb.w	r0, [r3, #64]	@ 0x40

    return HAL_OK;
 80012ce:	4770      	bx	lr
  }
  else
  {
    return HAL_BUSY;
 80012d0:	2002      	movs	r0, #2
 80012d2:	4770      	bx	lr
    __HAL_LOCK(hi2c);
 80012d4:	2002      	movs	r0, #2
  }
}
 80012d6:	4770      	bx	lr

080012d8 <HAL_MspInit>:
/* USER CODE END 0 */
/**
  * Initializes the Global MSP.
  */
void HAL_MspInit(void)
{
 80012d8:	b082      	sub	sp, #8

  /* USER CODE BEGIN MspInit 0 */

  /* USER CODE END MspInit 0 */

  __HAL_RCC_SYSCFG_CLK_ENABLE();
 80012da:	4b0a      	ldr	r3, [pc, #40]	@ (8001304 <HAL_MspInit+0x2c>)
 80012dc:	6e1a      	ldr	r2, [r3, #96]	@ 0x60
 80012de:	f042 0201 	orr.w	r2, r2, #1
 80012e2:	661a      	str	r2, [r3, #96]	@ 0x60
 80012e4:	6e1a      	ldr	r2, [r3, #96]	@ 0x60
 80012e6:	f002 0201 	and.w	r2, r2, #1
 80012ea:	9200      	str	r2, [sp, #0]
 80012ec:	9a00      	ldr	r2, [sp, #0]
  __HAL_RCC_PWR_CLK_ENABLE();
 80012ee:	6d9a      	ldr	r2, [r3, #88]	@ 0x58
 80012f0:	f042 5280 	orr.w	r2, r2, #268435456	@ 0x10000000
 80012f4:	659a      	str	r2, [r3, #88]	@ 0x58
 80012f6:	6d9b      	ldr	r3, [r3, #88]	@ 0x58
 80012f8:	f003 5380 	and.w	r3, r3, #268435456	@ 0x10000000
 80012fc:	9301      	str	r3, [sp, #4]
 80012fe:	9b01      	ldr	r3, [sp, #4]
  /* System interrupt init*/

  /* USER CODE BEGIN MspInit 1 */

  /* USER CODE END MspInit 1 */
}
 8001300:	b002      	add	sp, #8
 8001302:	4770      	bx	lr
 8001304:	40021000 	.word	0x40021000

08001308 <HAL_I2C_MspInit>:
  * This function configures the hardware resources used in this example
  * @param hi2c: I2C handle pointer
  * @retval None
  */
void HAL_I2C_MspInit(I2C_HandleTypeDef* hi2c)
{
 8001308:	b510      	push	{r4, lr}
 800130a:	b0aa      	sub	sp, #168	@ 0xa8
 800130c:	4604      	mov	r4, r0
  GPIO_InitTypeDef GPIO_InitStruct = {0};
 800130e:	2100      	movs	r1, #0
 8001310:	9125      	str	r1, [sp, #148]	@ 0x94
 8001312:	9126      	str	r1, [sp, #152]	@ 0x98
 8001314:	9127      	str	r1, [sp, #156]	@ 0x9c
 8001316:	9128      	str	r1, [sp, #160]	@ 0xa0
 8001318:	9129      	str	r1, [sp, #164]	@ 0xa4
  RCC_PeriphCLKInitTypeDef PeriphClkInit = {0};
 800131a:	2288      	movs	r2, #136	@ 0x88
 800131c:	a803      	add	r0, sp, #12
 800131e:	f001 ff1e 	bl	800315e <memset>
  if(hi2c->Instance==I2C2)
 8001322:	6822      	ldr	r2, [r4, #0]
 8001324:	4b18      	ldr	r3, [pc, #96]	@ (8001388 <HAL_I2C_MspInit+0x80>)
 8001326:	429a      	cmp	r2, r3
 8001328:	d001      	beq.n	800132e <HAL_I2C_MspInit+0x26>

    /* USER CODE END I2C2_MspInit 1 */

  }

}
 800132a:	b02a      	add	sp, #168	@ 0xa8
 800132c:	bd10      	pop	{r4, pc}
    PeriphClkInit.PeriphClockSelection = RCC_PERIPHCLK_I2C2;
 800132e:	2380      	movs	r3, #128	@ 0x80
 8001330:	9303      	str	r3, [sp, #12]
    if (HAL_RCCEx_PeriphCLKConfig(&PeriphClkInit) != HAL_OK)
 8001332:	a803      	add	r0, sp, #12
 8001334:	f000 ffb2 	bl	800229c <HAL_RCCEx_PeriphCLKConfig>
 8001338:	bb10      	cbnz	r0, 8001380 <HAL_I2C_MspInit+0x78>
    __HAL_RCC_GPIOB_CLK_ENABLE();
 800133a:	4c14      	ldr	r4, [pc, #80]	@ (800138c <HAL_I2C_MspInit+0x84>)
 800133c:	6ce3      	ldr	r3, [r4, #76]	@ 0x4c
 800133e:	f043 0302 	orr.w	r3, r3, #2
 8001342:	64e3      	str	r3, [r4, #76]	@ 0x4c
 8001344:	6ce3      	ldr	r3, [r4, #76]	@ 0x4c
 8001346:	f003 0302 	and.w	r3, r3, #2
 800134a:	9301      	str	r3, [sp, #4]
 800134c:	9b01      	ldr	r3, [sp, #4]
    GPIO_InitStruct.Pin = GPIO_PIN_13|GPIO_PIN_14;
 800134e:	f44f 43c0 	mov.w	r3, #24576	@ 0x6000
 8001352:	9325      	str	r3, [sp, #148]	@ 0x94
    GPIO_InitStruct.Mode = GPIO_MODE_AF_OD;
 8001354:	2312      	movs	r3, #18
 8001356:	9326      	str	r3, [sp, #152]	@ 0x98
    GPIO_InitStruct.Pull = GPIO_NOPULL;
 8001358:	2300      	movs	r3, #0
 800135a:	9327      	str	r3, [sp, #156]	@ 0x9c
    GPIO_InitStruct.Speed = GPIO_SPEED_FREQ_VERY_HIGH;
 800135c:	2303      	movs	r3, #3
 800135e:	9328      	str	r3, [sp, #160]	@ 0xa0
    GPIO_InitStruct.Alternate = GPIO_AF4_I2C2;
 8001360:	2304      	movs	r3, #4
 8001362:	9329      	str	r3, [sp, #164]	@ 0xa4
    HAL_GPIO_Init(GPIOB, &GPIO_InitStruct);
 8001364:	a925      	add	r1, sp, #148	@ 0x94
 8001366:	480a      	ldr	r0, [pc, #40]	@ (8001390 <HAL_I2C_MspInit+0x88>)
 8001368:	f7ff fb80 	bl	8000a6c <HAL_GPIO_Init>
    __HAL_RCC_I2C2_CLK_ENABLE();
 800136c:	6da3      	ldr	r3, [r4, #88]	@ 0x58
 800136e:	f443 0380 	orr.w	r3, r3, #4194304	@ 0x400000
 8001372:	65a3      	str	r3, [r4, #88]	@ 0x58
 8001374:	6da3      	ldr	r3, [r4, #88]	@ 0x58
 8001376:	f403 0380 	and.w	r3, r3, #4194304	@ 0x400000
 800137a:	9302      	str	r3, [sp, #8]
 800137c:	9b02      	ldr	r3, [sp, #8]
}
 800137e:	e7d4      	b.n	800132a <HAL_I2C_MspInit+0x22>
      Error_Handler();
 8001380:	f7fe ffb2 	bl	80002e8 <Error_Handler>
 8001384:	e7d9      	b.n	800133a <HAL_I2C_MspInit+0x32>
 8001386:	bf00      	nop
 8001388:	40005800 	.word	0x40005800
 800138c:	40021000 	.word	0x40021000
 8001390:	48000400 	.word	0x48000400

08001394 <HAL_UART_MspInit>:
  * This function configures the hardware resources used in this example
  * @param huart: UART handle pointer
  * @retval None
  */
void HAL_UART_MspInit(UART_HandleTypeDef* huart)
{
 8001394:	b510      	push	{r4, lr}
 8001396:	b0ae      	sub	sp, #184	@ 0xb8
 8001398:	4604      	mov	r4, r0
  GPIO_InitTypeDef GPIO_InitStruct = {0};
 800139a:	2100      	movs	r1, #0
 800139c:	9129      	str	r1, [sp, #164]	@ 0xa4
 800139e:	912a      	str	r1, [sp, #168]	@ 0xa8
 80013a0:	912b      	str	r1, [sp, #172]	@ 0xac
 80013a2:	912c      	str	r1, [sp, #176]	@ 0xb0
 80013a4:	912d      	str	r1, [sp, #180]	@ 0xb4
  RCC_PeriphCLKInitTypeDef PeriphClkInit = {0};
 80013a6:	2288      	movs	r2, #136	@ 0x88
 80013a8:	a807      	add	r0, sp, #28
 80013aa:	f001 fed8 	bl	800315e <memset>
  if(huart->Instance==LPUART1)
 80013ae:	6823      	ldr	r3, [r4, #0]
 80013b0:	4a45      	ldr	r2, [pc, #276]	@ (80014c8 <HAL_UART_MspInit+0x134>)
 80013b2:	4293      	cmp	r3, r2
 80013b4:	d007      	beq.n	80013c6 <HAL_UART_MspInit+0x32>

    /* USER CODE BEGIN LPUART1_MspInit 1 */

    /* USER CODE END LPUART1_MspInit 1 */
  }
  else if(huart->Instance==USART2)
 80013b6:	4a45      	ldr	r2, [pc, #276]	@ (80014cc <HAL_UART_MspInit+0x138>)
 80013b8:	4293      	cmp	r3, r2
 80013ba:	d02e      	beq.n	800141a <HAL_UART_MspInit+0x86>

    /* USER CODE BEGIN USART2_MspInit 1 */

    /* USER CODE END USART2_MspInit 1 */
  }
  else if(huart->Instance==USART3)
 80013bc:	4a44      	ldr	r2, [pc, #272]	@ (80014d0 <HAL_UART_MspInit+0x13c>)
 80013be:	4293      	cmp	r3, r2
 80013c0:	d057      	beq.n	8001472 <HAL_UART_MspInit+0xde>
    /* USER CODE BEGIN USART3_MspInit 1 */

    /* USER CODE END USART3_MspInit 1 */
  }

}
 80013c2:	b02e      	add	sp, #184	@ 0xb8
 80013c4:	bd10      	pop	{r4, pc}
    PeriphClkInit.PeriphClockSelection = RCC_PERIPHCLK_LPUART1;
 80013c6:	2320      	movs	r3, #32
 80013c8:	9307      	str	r3, [sp, #28]
    if (HAL_RCCEx_PeriphCLKConfig(&PeriphClkInit) != HAL_OK)
 80013ca:	a807      	add	r0, sp, #28
 80013cc:	f000 ff66 	bl	800229c <HAL_RCCEx_PeriphCLKConfig>
 80013d0:	bb00      	cbnz	r0, 8001414 <HAL_UART_MspInit+0x80>
    __HAL_RCC_LPUART1_CLK_ENABLE();
 80013d2:	4b40      	ldr	r3, [pc, #256]	@ (80014d4 <HAL_UART_MspInit+0x140>)
 80013d4:	6dda      	ldr	r2, [r3, #92]	@ 0x5c
 80013d6:	f042 0201 	orr.w	r2, r2, #1
 80013da:	65da      	str	r2, [r3, #92]	@ 0x5c
 80013dc:	6dda      	ldr	r2, [r3, #92]	@ 0x5c
 80013de:	f002 0201 	and.w	r2, r2, #1
 80013e2:	9201      	str	r2, [sp, #4]
 80013e4:	9a01      	ldr	r2, [sp, #4]
    __HAL_RCC_GPIOC_CLK_ENABLE();
 80013e6:	6cda      	ldr	r2, [r3, #76]	@ 0x4c
 80013e8:	f042 0204 	orr.w	r2, r2, #4
 80013ec:	64da      	str	r2, [r3, #76]	@ 0x4c
 80013ee:	6cdb      	ldr	r3, [r3, #76]	@ 0x4c
 80013f0:	f003 0304 	and.w	r3, r3, #4
 80013f4:	9302      	str	r3, [sp, #8]
 80013f6:	9b02      	ldr	r3, [sp, #8]
    GPIO_InitStruct.Pin = L0_LPUART1_RX_Pin|L0_LPUART1_TX_Pin;
 80013f8:	2303      	movs	r3, #3
 80013fa:	9329      	str	r3, [sp, #164]	@ 0xa4
    GPIO_InitStruct.Mode = GPIO_MODE_AF_PP;
 80013fc:	2202      	movs	r2, #2
 80013fe:	922a      	str	r2, [sp, #168]	@ 0xa8
    GPIO_InitStruct.Pull = GPIO_NOPULL;
 8001400:	2200      	movs	r2, #0
 8001402:	922b      	str	r2, [sp, #172]	@ 0xac
    GPIO_InitStruct.Speed = GPIO_SPEED_FREQ_VERY_HIGH;
 8001404:	932c      	str	r3, [sp, #176]	@ 0xb0
    GPIO_InitStruct.Alternate = GPIO_AF8_LPUART1;
 8001406:	2308      	movs	r3, #8
 8001408:	932d      	str	r3, [sp, #180]	@ 0xb4
    HAL_GPIO_Init(GPIOC, &GPIO_InitStruct);
 800140a:	a929      	add	r1, sp, #164	@ 0xa4
 800140c:	4832      	ldr	r0, [pc, #200]	@ (80014d8 <HAL_UART_MspInit+0x144>)
 800140e:	f7ff fb2d 	bl	8000a6c <HAL_GPIO_Init>
 8001412:	e7d6      	b.n	80013c2 <HAL_UART_MspInit+0x2e>
      Error_Handler();
 8001414:	f7fe ff68 	bl	80002e8 <Error_Handler>
 8001418:	e7db      	b.n	80013d2 <HAL_UART_MspInit+0x3e>
    PeriphClkInit.PeriphClockSelection = RCC_PERIPHCLK_USART2;
 800141a:	2302      	movs	r3, #2
 800141c:	9307      	str	r3, [sp, #28]
    if (HAL_RCCEx_PeriphCLKConfig(&PeriphClkInit) != HAL_OK)
 800141e:	a807      	add	r0, sp, #28
 8001420:	f000 ff3c 	bl	800229c <HAL_RCCEx_PeriphCLKConfig>
 8001424:	bb10      	cbnz	r0, 800146c <HAL_UART_MspInit+0xd8>
    __HAL_RCC_USART2_CLK_ENABLE();
 8001426:	4b2b      	ldr	r3, [pc, #172]	@ (80014d4 <HAL_UART_MspInit+0x140>)
 8001428:	6d9a      	ldr	r2, [r3, #88]	@ 0x58
 800142a:	f442 3200 	orr.w	r2, r2, #131072	@ 0x20000
 800142e:	659a      	str	r2, [r3, #88]	@ 0x58
 8001430:	6d9a      	ldr	r2, [r3, #88]	@ 0x58
 8001432:	f402 3200 	and.w	r2, r2, #131072	@ 0x20000
 8001436:	9203      	str	r2, [sp, #12]
 8001438:	9a03      	ldr	r2, [sp, #12]
    __HAL_RCC_GPIOA_CLK_ENABLE();
 800143a:	6cda      	ldr	r2, [r3, #76]	@ 0x4c
 800143c:	f042 0201 	orr.w	r2, r2, #1
 8001440:	64da      	str	r2, [r3, #76]	@ 0x4c
 8001442:	6cdb      	ldr	r3, [r3, #76]	@ 0x4c
 8001444:	f003 0301 	and.w	r3, r3, #1
 8001448:	9304      	str	r3, [sp, #16]
 800144a:	9b04      	ldr	r3, [sp, #16]
    GPIO_InitStruct.Pin = Wi_USART2_CTS_Pin|Wi_USART2_RTS_Pin|Wi_USART2_TX_Pin|Wi_USART2_RX_Pin;
 800144c:	230f      	movs	r3, #15
 800144e:	9329      	str	r3, [sp, #164]	@ 0xa4
    GPIO_InitStruct.Mode = GPIO_MODE_AF_PP;
 8001450:	2302      	movs	r3, #2
 8001452:	932a      	str	r3, [sp, #168]	@ 0xa8
    GPIO_InitStruct.Pull = GPIO_NOPULL;
 8001454:	2300      	movs	r3, #0
 8001456:	932b      	str	r3, [sp, #172]	@ 0xac
    GPIO_InitStruct.Speed = GPIO_SPEED_FREQ_VERY_HIGH;
 8001458:	2303      	movs	r3, #3
 800145a:	932c      	str	r3, [sp, #176]	@ 0xb0
    GPIO_InitStruct.Alternate = GPIO_AF7_USART2;
 800145c:	2307      	movs	r3, #7
 800145e:	932d      	str	r3, [sp, #180]	@ 0xb4
    HAL_GPIO_Init(GPIOA, &GPIO_InitStruct);
 8001460:	a929      	add	r1, sp, #164	@ 0xa4
 8001462:	f04f 4090 	mov.w	r0, #1207959552	@ 0x48000000
 8001466:	f7ff fb01 	bl	8000a6c <HAL_GPIO_Init>
 800146a:	e7aa      	b.n	80013c2 <HAL_UART_MspInit+0x2e>
      Error_Handler();
 800146c:	f7fe ff3c 	bl	80002e8 <Error_Handler>
 8001470:	e7d9      	b.n	8001426 <HAL_UART_MspInit+0x92>
    PeriphClkInit.PeriphClockSelection = RCC_PERIPHCLK_USART3;
 8001472:	2304      	movs	r3, #4
 8001474:	9307      	str	r3, [sp, #28]
    if (HAL_RCCEx_PeriphCLKConfig(&PeriphClkInit) != HAL_OK)
 8001476:	a807      	add	r0, sp, #28
 8001478:	f000 ff10 	bl	800229c <HAL_RCCEx_PeriphCLKConfig>
 800147c:	bb08      	cbnz	r0, 80014c2 <HAL_UART_MspInit+0x12e>
    __HAL_RCC_USART3_CLK_ENABLE();
 800147e:	4b15      	ldr	r3, [pc, #84]	@ (80014d4 <HAL_UART_MspInit+0x140>)
 8001480:	6d9a      	ldr	r2, [r3, #88]	@ 0x58
 8001482:	f442 2280 	orr.w	r2, r2, #262144	@ 0x40000
 8001486:	659a      	str	r2, [r3, #88]	@ 0x58
 8001488:	6d9a      	ldr	r2, [r3, #88]	@ 0x58
 800148a:	f402 2280 	and.w	r2, r2, #262144	@ 0x40000
 800148e:	9205      	str	r2, [sp, #20]
 8001490:	9a05      	ldr	r2, [sp, #20]
    __HAL_RCC_GPIOC_CLK_ENABLE();
 8001492:	6cda      	ldr	r2, [r3, #76]	@ 0x4c
 8001494:	f042 0204 	orr.w	r2, r2, #4
 8001498:	64da      	str	r2, [r3, #76]	@ 0x4c
 800149a:	6cdb      	ldr	r3, [r3, #76]	@ 0x4c
 800149c:	f003 0304 	and.w	r3, r3, #4
 80014a0:	9306      	str	r3, [sp, #24]
 80014a2:	9b06      	ldr	r3, [sp, #24]
    GPIO_InitStruct.Pin = Wi_USART3_TX_Pin|Wi_USART3_RX_Pin;
 80014a4:	2330      	movs	r3, #48	@ 0x30
 80014a6:	9329      	str	r3, [sp, #164]	@ 0xa4
    GPIO_InitStruct.Mode = GPIO_MODE_AF_PP;
 80014a8:	2302      	movs	r3, #2
 80014aa:	932a      	str	r3, [sp, #168]	@ 0xa8
    GPIO_InitStruct.Pull = GPIO_NOPULL;
 80014ac:	2300      	movs	r3, #0
 80014ae:	932b      	str	r3, [sp, #172]	@ 0xac
    GPIO_InitStruct.Speed = GPIO_SPEED_FREQ_VERY_HIGH;
 80014b0:	2303      	movs	r3, #3
 80014b2:	932c      	str	r3, [sp, #176]	@ 0xb0
    GPIO_InitStruct.Alternate = GPIO_AF7_USART3;
 80014b4:	2307      	movs	r3, #7
 80014b6:	932d      	str	r3, [sp, #180]	@ 0xb4
    HAL_GPIO_Init(GPIOC, &GPIO_InitStruct);
 80014b8:	a929      	add	r1, sp, #164	@ 0xa4
 80014ba:	4807      	ldr	r0, [pc, #28]	@ (80014d8 <HAL_UART_MspInit+0x144>)
 80014bc:	f7ff fad6 	bl	8000a6c <HAL_GPIO_Init>
}
 80014c0:	e77f      	b.n	80013c2 <HAL_UART_MspInit+0x2e>
      Error_Handler();
 80014c2:	f7fe ff11 	bl	80002e8 <Error_Handler>
 80014c6:	e7da      	b.n	800147e <HAL_UART_MspInit+0xea>
 80014c8:	40008000 	.word	0x40008000
 80014cc:	40004400 	.word	0x40004400
 80014d0:	40004800 	.word	0x40004800
 80014d4:	40021000 	.word	0x40021000
 80014d8:	48000800 	.word	0x48000800

080014dc <HAL_RTC_MspInit>:
  * This function configures the hardware resources used in this example
  * @param hrtc: RTC handle pointer
  * @retval None
  */
void HAL_RTC_MspInit(RTC_HandleTypeDef* hrtc)
{
 80014dc:	b510      	push	{r4, lr}
 80014de:	b0a2      	sub	sp, #136	@ 0x88
 80014e0:	4604      	mov	r4, r0
  RCC_PeriphCLKInitTypeDef PeriphClkInit = {0};
 80014e2:	2288      	movs	r2, #136	@ 0x88
 80014e4:	2100      	movs	r1, #0
 80014e6:	4668      	mov	r0, sp
 80014e8:	f001 fe39 	bl	800315e <memset>
  if(hrtc->Instance==RTC)
 80014ec:	6822      	ldr	r2, [r4, #0]
 80014ee:	4b0d      	ldr	r3, [pc, #52]	@ (8001524 <HAL_RTC_MspInit+0x48>)
 80014f0:	429a      	cmp	r2, r3
 80014f2:	d001      	beq.n	80014f8 <HAL_RTC_MspInit+0x1c>

    /* USER CODE END RTC_MspInit 1 */

  }

}
 80014f4:	b022      	add	sp, #136	@ 0x88
 80014f6:	bd10      	pop	{r4, pc}
    PeriphClkInit.PeriphClockSelection = RCC_PERIPHCLK_RTC;
 80014f8:	f44f 3300 	mov.w	r3, #131072	@ 0x20000
 80014fc:	9300      	str	r3, [sp, #0]
    PeriphClkInit.RTCClockSelection = RCC_RTCCLKSOURCE_LSI;
 80014fe:	f44f 7300 	mov.w	r3, #512	@ 0x200
 8001502:	9321      	str	r3, [sp, #132]	@ 0x84
    if (HAL_RCCEx_PeriphCLKConfig(&PeriphClkInit) != HAL_OK)
 8001504:	4668      	mov	r0, sp
 8001506:	f000 fec9 	bl	800229c <HAL_RCCEx_PeriphCLKConfig>
 800150a:	b938      	cbnz	r0, 800151c <HAL_RTC_MspInit+0x40>
    __HAL_RCC_RTC_ENABLE();
 800150c:	4a06      	ldr	r2, [pc, #24]	@ (8001528 <HAL_RTC_MspInit+0x4c>)
 800150e:	f8d2 3090 	ldr.w	r3, [r2, #144]	@ 0x90
 8001512:	f443 4300 	orr.w	r3, r3, #32768	@ 0x8000
 8001516:	f8c2 3090 	str.w	r3, [r2, #144]	@ 0x90
}
 800151a:	e7eb      	b.n	80014f4 <HAL_RTC_MspInit+0x18>
      Error_Handler();
 800151c:	f7fe fee4 	bl	80002e8 <Error_Handler>
 8001520:	e7f4      	b.n	800150c <HAL_RTC_MspInit+0x30>
 8001522:	bf00      	nop
 8001524:	40002800 	.word	0x40002800
 8001528:	40021000 	.word	0x40021000

0800152c <HAL_SPI_MspInit>:
  * This function configures the hardware resources used in this example
  * @param hspi: SPI handle pointer
  * @retval None
  */
void HAL_SPI_MspInit(SPI_HandleTypeDef* hspi)
{
 800152c:	b500      	push	{lr}
 800152e:	b089      	sub	sp, #36	@ 0x24
  GPIO_InitTypeDef GPIO_InitStruct = {0};
 8001530:	2300      	movs	r3, #0
 8001532:	9303      	str	r3, [sp, #12]
 8001534:	9304      	str	r3, [sp, #16]
 8001536:	9305      	str	r3, [sp, #20]
 8001538:	9306      	str	r3, [sp, #24]
 800153a:	9307      	str	r3, [sp, #28]
  if(hspi->Instance==SPI1)
 800153c:	6802      	ldr	r2, [r0, #0]
 800153e:	4b13      	ldr	r3, [pc, #76]	@ (800158c <HAL_SPI_MspInit+0x60>)
 8001540:	429a      	cmp	r2, r3
 8001542:	d001      	beq.n	8001548 <HAL_SPI_MspInit+0x1c>

    /* USER CODE END SPI1_MspInit 1 */

  }

}
 8001544:	b009      	add	sp, #36	@ 0x24
 8001546:	bd00      	pop	{pc}
    __HAL_RCC_SPI1_CLK_ENABLE();
 8001548:	f503 4360 	add.w	r3, r3, #57344	@ 0xe000
 800154c:	6e1a      	ldr	r2, [r3, #96]	@ 0x60
 800154e:	f442 5280 	orr.w	r2, r2, #4096	@ 0x1000
 8001552:	661a      	str	r2, [r3, #96]	@ 0x60
 8001554:	6e1a      	ldr	r2, [r3, #96]	@ 0x60
 8001556:	f402 5280 	and.w	r2, r2, #4096	@ 0x1000
 800155a:	9201      	str	r2, [sp, #4]
 800155c:	9a01      	ldr	r2, [sp, #4]
    __HAL_RCC_GPIOA_CLK_ENABLE();
 800155e:	6cda      	ldr	r2, [r3, #76]	@ 0x4c
 8001560:	f042 0201 	orr.w	r2, r2, #1
 8001564:	64da      	str	r2, [r3, #76]	@ 0x4c
 8001566:	6cdb      	ldr	r3, [r3, #76]	@ 0x4c
 8001568:	f003 0301 	and.w	r3, r3, #1
 800156c:	9302      	str	r3, [sp, #8]
 800156e:	9b02      	ldr	r3, [sp, #8]
    GPIO_InitStruct.Pin = GPIO_PIN_4|SD_SPI1_SCK_Pin|SD_SPI1_MISO_Pin|SD_SPI1_MOSI_Pin;
 8001570:	23f0      	movs	r3, #240	@ 0xf0
 8001572:	9303      	str	r3, [sp, #12]
    GPIO_InitStruct.Mode = GPIO_MODE_AF_PP;
 8001574:	2302      	movs	r3, #2
 8001576:	9304      	str	r3, [sp, #16]
    GPIO_InitStruct.Speed = GPIO_SPEED_FREQ_VERY_HIGH;
 8001578:	2303      	movs	r3, #3
 800157a:	9306      	str	r3, [sp, #24]
    GPIO_InitStruct.Alternate = GPIO_AF5_SPI1;
 800157c:	2305      	movs	r3, #5
 800157e:	9307      	str	r3, [sp, #28]
    HAL_GPIO_Init(GPIOA, &GPIO_InitStruct);
 8001580:	a903      	add	r1, sp, #12
 8001582:	f04f 4090 	mov.w	r0, #1207959552	@ 0x48000000
 8001586:	f7ff fa71 	bl	8000a6c <HAL_GPIO_Init>
}
 800158a:	e7db      	b.n	8001544 <HAL_SPI_MspInit+0x18>
 800158c:	40013000 	.word	0x40013000

08001590 <HAL_PWREx_GetVoltageRange>:
    else
    {
      return PWR_REGULATOR_VOLTAGE_SCALE1_BOOST;
    }
#else
  return  (PWR->CR1 & PWR_CR1_VOS);
 8001590:	4b02      	ldr	r3, [pc, #8]	@ (800159c <HAL_PWREx_GetVoltageRange+0xc>)
 8001592:	6818      	ldr	r0, [r3, #0]
#endif
}
 8001594:	f400 60c0 	and.w	r0, r0, #1536	@ 0x600
 8001598:	4770      	bx	lr
 800159a:	bf00      	nop
 800159c:	40007000 	.word	0x40007000

080015a0 <HAL_PWREx_ControlVoltageScaling>:
  }

#else

  /* If Set Range 1 */
  if (VoltageScaling == PWR_REGULATOR_VOLTAGE_SCALE1)
 80015a0:	f5b0 7f00 	cmp.w	r0, #512	@ 0x200
 80015a4:	d00f      	beq.n	80015c6 <HAL_PWREx_ControlVoltageScaling+0x26>
      }
    }
  }
  else
  {
    if (READ_BIT(PWR->CR1, PWR_CR1_VOS) != PWR_REGULATOR_VOLTAGE_SCALE2)
 80015a6:	4b1f      	ldr	r3, [pc, #124]	@ (8001624 <HAL_PWREx_ControlVoltageScaling+0x84>)
 80015a8:	681b      	ldr	r3, [r3, #0]
 80015aa:	f403 63c0 	and.w	r3, r3, #1536	@ 0x600
 80015ae:	f5b3 6f80 	cmp.w	r3, #1024	@ 0x400
 80015b2:	d034      	beq.n	800161e <HAL_PWREx_ControlVoltageScaling+0x7e>
    {
      /* Set Range 2 */
      MODIFY_REG(PWR->CR1, PWR_CR1_VOS, PWR_REGULATOR_VOLTAGE_SCALE2);
 80015b4:	4a1b      	ldr	r2, [pc, #108]	@ (8001624 <HAL_PWREx_ControlVoltageScaling+0x84>)
 80015b6:	6813      	ldr	r3, [r2, #0]
 80015b8:	f423 63c0 	bic.w	r3, r3, #1536	@ 0x600
 80015bc:	f443 6380 	orr.w	r3, r3, #1024	@ 0x400
 80015c0:	6013      	str	r3, [r2, #0]
      /* No need to wait for VOSF to be cleared for this transition */
    }
  }
#endif

  return HAL_OK;
 80015c2:	2000      	movs	r0, #0
 80015c4:	4770      	bx	lr
    if (READ_BIT(PWR->CR1, PWR_CR1_VOS) != PWR_REGULATOR_VOLTAGE_SCALE1)
 80015c6:	4b17      	ldr	r3, [pc, #92]	@ (8001624 <HAL_PWREx_ControlVoltageScaling+0x84>)
 80015c8:	681b      	ldr	r3, [r3, #0]
 80015ca:	f403 63c0 	and.w	r3, r3, #1536	@ 0x600
 80015ce:	f5b3 7f00 	cmp.w	r3, #512	@ 0x200
 80015d2:	d020      	beq.n	8001616 <HAL_PWREx_ControlVoltageScaling+0x76>
      MODIFY_REG(PWR->CR1, PWR_CR1_VOS, PWR_REGULATOR_VOLTAGE_SCALE1);
 80015d4:	4a13      	ldr	r2, [pc, #76]	@ (8001624 <HAL_PWREx_ControlVoltageScaling+0x84>)
 80015d6:	6813      	ldr	r3, [r2, #0]
 80015d8:	f423 63c0 	bic.w	r3, r3, #1536	@ 0x600
 80015dc:	f443 7300 	orr.w	r3, r3, #512	@ 0x200
 80015e0:	6013      	str	r3, [r2, #0]
      wait_loop_index = ((PWR_FLAG_SETTING_DELAY_US * SystemCoreClock) / 1000000U) + 1U;
 80015e2:	4b11      	ldr	r3, [pc, #68]	@ (8001628 <HAL_PWREx_ControlVoltageScaling+0x88>)
 80015e4:	681b      	ldr	r3, [r3, #0]
 80015e6:	2232      	movs	r2, #50	@ 0x32
 80015e8:	fb02 f303 	mul.w	r3, r2, r3
 80015ec:	4a0f      	ldr	r2, [pc, #60]	@ (800162c <HAL_PWREx_ControlVoltageScaling+0x8c>)
 80015ee:	fba2 2303 	umull	r2, r3, r2, r3
 80015f2:	0c9b      	lsrs	r3, r3, #18
 80015f4:	3301      	adds	r3, #1
      while ((HAL_IS_BIT_SET(PWR->SR2, PWR_SR2_VOSF)) && (wait_loop_index != 0U))
 80015f6:	e000      	b.n	80015fa <HAL_PWREx_ControlVoltageScaling+0x5a>
        wait_loop_index--;
 80015f8:	3b01      	subs	r3, #1
      while ((HAL_IS_BIT_SET(PWR->SR2, PWR_SR2_VOSF)) && (wait_loop_index != 0U))
 80015fa:	4a0a      	ldr	r2, [pc, #40]	@ (8001624 <HAL_PWREx_ControlVoltageScaling+0x84>)
 80015fc:	6952      	ldr	r2, [r2, #20]
 80015fe:	f412 6f80 	tst.w	r2, #1024	@ 0x400
 8001602:	d001      	beq.n	8001608 <HAL_PWREx_ControlVoltageScaling+0x68>
 8001604:	2b00      	cmp	r3, #0
 8001606:	d1f7      	bne.n	80015f8 <HAL_PWREx_ControlVoltageScaling+0x58>
      if (HAL_IS_BIT_SET(PWR->SR2, PWR_SR2_VOSF))
 8001608:	4b06      	ldr	r3, [pc, #24]	@ (8001624 <HAL_PWREx_ControlVoltageScaling+0x84>)
 800160a:	695b      	ldr	r3, [r3, #20]
 800160c:	f413 6f80 	tst.w	r3, #1024	@ 0x400
 8001610:	d103      	bne.n	800161a <HAL_PWREx_ControlVoltageScaling+0x7a>
  return HAL_OK;
 8001612:	2000      	movs	r0, #0
 8001614:	4770      	bx	lr
 8001616:	2000      	movs	r0, #0
 8001618:	4770      	bx	lr
        return HAL_TIMEOUT;
 800161a:	2003      	movs	r0, #3
 800161c:	4770      	bx	lr
  return HAL_OK;
 800161e:	2000      	movs	r0, #0
}
 8001620:	4770      	bx	lr
 8001622:	bf00      	nop
 8001624:	40007000 	.word	0x40007000
 8001628:	20000008 	.word	0x20000008
 800162c:	431bde83 	.word	0x431bde83

08001630 <RCC_SetFlashLatencyFromMSIRange>:
            voltage range.
  * @param  msirange  MSI range value from RCC_MSIRANGE_0 to RCC_MSIRANGE_11
  * @retval HAL status
  */
static HAL_StatusTypeDef RCC_SetFlashLatencyFromMSIRange(uint32_t msirange)
{
 8001630:	b530      	push	{r4, r5, lr}
 8001632:	b083      	sub	sp, #12
 8001634:	4605      	mov	r5, r0
  uint32_t vos;
  uint32_t latency = FLASH_LATENCY_0;  /* default value 0WS */

  if(__HAL_RCC_PWR_IS_CLK_ENABLED())
 8001636:	4b20      	ldr	r3, [pc, #128]	@ (80016b8 <RCC_SetFlashLatencyFromMSIRange+0x88>)
 8001638:	6d9b      	ldr	r3, [r3, #88]	@ 0x58
 800163a:	f013 5f80 	tst.w	r3, #268435456	@ 0x10000000
 800163e:	d00b      	beq.n	8001658 <RCC_SetFlashLatencyFromMSIRange+0x28>
  {
    vos = HAL_PWREx_GetVoltageRange();
 8001640:	f7ff ffa6 	bl	8001590 <HAL_PWREx_GetVoltageRange>
    __HAL_RCC_PWR_CLK_ENABLE();
    vos = HAL_PWREx_GetVoltageRange();
    __HAL_RCC_PWR_CLK_DISABLE();
  }

  if(vos == PWR_REGULATOR_VOLTAGE_SCALE1)
 8001644:	f5b0 7f00 	cmp.w	r0, #512	@ 0x200
 8001648:	d017      	beq.n	800167a <RCC_SetFlashLatencyFromMSIRange+0x4a>
        latency = FLASH_LATENCY_1; /* 1WS */
      }
      /* else MSI < 8Mhz default FLASH_LATENCY_0 0WS */
    }
#else
    if(msirange > RCC_MSIRANGE_8)
 800164a:	2d80      	cmp	r5, #128	@ 0x80
 800164c:	d81f      	bhi.n	800168e <RCC_SetFlashLatencyFromMSIRange+0x5e>
      /* MSI > 16Mhz */
      latency = FLASH_LATENCY_3; /* 3WS */
    }
    else
    {
      if(msirange == RCC_MSIRANGE_8)
 800164e:	d02d      	beq.n	80016ac <RCC_SetFlashLatencyFromMSIRange+0x7c>
      {
        /* MSI 16Mhz */
        latency = FLASH_LATENCY_2; /* 2WS */
      }
      else if(msirange == RCC_MSIRANGE_7)
 8001650:	2d70      	cmp	r5, #112	@ 0x70
 8001652:	d02d      	beq.n	80016b0 <RCC_SetFlashLatencyFromMSIRange+0x80>
  uint32_t latency = FLASH_LATENCY_0;  /* default value 0WS */
 8001654:	2100      	movs	r1, #0
 8001656:	e01b      	b.n	8001690 <RCC_SetFlashLatencyFromMSIRange+0x60>
    __HAL_RCC_PWR_CLK_ENABLE();
 8001658:	4c17      	ldr	r4, [pc, #92]	@ (80016b8 <RCC_SetFlashLatencyFromMSIRange+0x88>)
 800165a:	6da3      	ldr	r3, [r4, #88]	@ 0x58
 800165c:	f043 5380 	orr.w	r3, r3, #268435456	@ 0x10000000
 8001660:	65a3      	str	r3, [r4, #88]	@ 0x58
 8001662:	6da3      	ldr	r3, [r4, #88]	@ 0x58
 8001664:	f003 5380 	and.w	r3, r3, #268435456	@ 0x10000000
 8001668:	9301      	str	r3, [sp, #4]
 800166a:	9b01      	ldr	r3, [sp, #4]
    vos = HAL_PWREx_GetVoltageRange();
 800166c:	f7ff ff90 	bl	8001590 <HAL_PWREx_GetVoltageRange>
    __HAL_RCC_PWR_CLK_DISABLE();
 8001670:	6da3      	ldr	r3, [r4, #88]	@ 0x58
 8001672:	f023 5380 	bic.w	r3, r3, #268435456	@ 0x10000000
 8001676:	65a3      	str	r3, [r4, #88]	@ 0x58
 8001678:	e7e4      	b.n	8001644 <RCC_SetFlashLatencyFromMSIRange+0x14>
    if(msirange > RCC_MSIRANGE_8)
 800167a:	2d80      	cmp	r5, #128	@ 0x80
 800167c:	d903      	bls.n	8001686 <RCC_SetFlashLatencyFromMSIRange+0x56>
      if(msirange > RCC_MSIRANGE_10)
 800167e:	2da0      	cmp	r5, #160	@ 0xa0
 8001680:	d903      	bls.n	800168a <RCC_SetFlashLatencyFromMSIRange+0x5a>
        latency = FLASH_LATENCY_2; /* 2WS */
 8001682:	2102      	movs	r1, #2
 8001684:	e004      	b.n	8001690 <RCC_SetFlashLatencyFromMSIRange+0x60>
  uint32_t latency = FLASH_LATENCY_0;  /* default value 0WS */
 8001686:	2100      	movs	r1, #0
 8001688:	e002      	b.n	8001690 <RCC_SetFlashLatencyFromMSIRange+0x60>
        latency = FLASH_LATENCY_1; /* 1WS */
 800168a:	2101      	movs	r1, #1
 800168c:	e000      	b.n	8001690 <RCC_SetFlashLatencyFromMSIRange+0x60>
      latency = FLASH_LATENCY_3; /* 3WS */
 800168e:	2103      	movs	r1, #3
      }
    }
#endif
  }

  __HAL_FLASH_SET_LATENCY(latency);
 8001690:	4a0a      	ldr	r2, [pc, #40]	@ (80016bc <RCC_SetFlashLatencyFromMSIRange+0x8c>)
 8001692:	6813      	ldr	r3, [r2, #0]
 8001694:	f023 0307 	bic.w	r3, r3, #7
 8001698:	430b      	orrs	r3, r1
 800169a:	6013      	str	r3, [r2, #0]

  /* Check that the new number of wait states is taken into account to access the Flash
     memory by reading the FLASH_ACR register */
  if(__HAL_FLASH_GET_LATENCY() != latency)
 800169c:	6813      	ldr	r3, [r2, #0]
 800169e:	f003 0307 	and.w	r3, r3, #7
 80016a2:	428b      	cmp	r3, r1
 80016a4:	d106      	bne.n	80016b4 <RCC_SetFlashLatencyFromMSIRange+0x84>
  {
    return HAL_ERROR;
  }

  return HAL_OK;
 80016a6:	2000      	movs	r0, #0
}
 80016a8:	b003      	add	sp, #12
 80016aa:	bd30      	pop	{r4, r5, pc}
        latency = FLASH_LATENCY_2; /* 2WS */
 80016ac:	2102      	movs	r1, #2
 80016ae:	e7ef      	b.n	8001690 <RCC_SetFlashLatencyFromMSIRange+0x60>
        latency = FLASH_LATENCY_1; /* 1WS */
 80016b0:	2101      	movs	r1, #1
 80016b2:	e7ed      	b.n	8001690 <RCC_SetFlashLatencyFromMSIRange+0x60>
    return HAL_ERROR;
 80016b4:	2001      	movs	r0, #1
 80016b6:	e7f7      	b.n	80016a8 <RCC_SetFlashLatencyFromMSIRange+0x78>
 80016b8:	40021000 	.word	0x40021000
 80016bc:	40022000 	.word	0x40022000

080016c0 <HAL_RCC_MCOConfig>:
{
 80016c0:	b570      	push	{r4, r5, r6, lr}
 80016c2:	b086      	sub	sp, #24
 80016c4:	460e      	mov	r6, r1
 80016c6:	4615      	mov	r5, r2
  __MCO1_CLK_ENABLE();
 80016c8:	4c10      	ldr	r4, [pc, #64]	@ (800170c <HAL_RCC_MCOConfig+0x4c>)
 80016ca:	6ce3      	ldr	r3, [r4, #76]	@ 0x4c
 80016cc:	f043 0301 	orr.w	r3, r3, #1
 80016d0:	64e3      	str	r3, [r4, #76]	@ 0x4c
 80016d2:	6ce3      	ldr	r3, [r4, #76]	@ 0x4c
 80016d4:	f003 0301 	and.w	r3, r3, #1
 80016d8:	9300      	str	r3, [sp, #0]
 80016da:	9b00      	ldr	r3, [sp, #0]
  GPIO_InitStruct.Pin = MCO1_PIN;
 80016dc:	f44f 7380 	mov.w	r3, #256	@ 0x100
 80016e0:	9301      	str	r3, [sp, #4]
  GPIO_InitStruct.Mode = GPIO_MODE_AF_PP;
 80016e2:	2302      	movs	r3, #2
 80016e4:	9302      	str	r3, [sp, #8]
  GPIO_InitStruct.Speed = GPIO_SPEED_FREQ_HIGH;
 80016e6:	9304      	str	r3, [sp, #16]
  GPIO_InitStruct.Pull = GPIO_NOPULL;
 80016e8:	2300      	movs	r3, #0
 80016ea:	9303      	str	r3, [sp, #12]
  GPIO_InitStruct.Alternate = GPIO_AF0_MCO;
 80016ec:	9305      	str	r3, [sp, #20]
  HAL_GPIO_Init(MCO1_GPIO_PORT, &GPIO_InitStruct);
 80016ee:	a901      	add	r1, sp, #4
 80016f0:	f04f 4090 	mov.w	r0, #1207959552	@ 0x48000000
 80016f4:	f7ff f9ba 	bl	8000a6c <HAL_GPIO_Init>
  MODIFY_REG(RCC->CFGR, (RCC_CFGR_MCOSEL | RCC_CFGR_MCOPRE), (RCC_MCOSource | RCC_MCODiv ));
 80016f8:	68a3      	ldr	r3, [r4, #8]
 80016fa:	f023 43ee 	bic.w	r3, r3, #1996488704	@ 0x77000000
 80016fe:	4632      	mov	r2, r6
 8001700:	432a      	orrs	r2, r5
 8001702:	431a      	orrs	r2, r3
 8001704:	60a2      	str	r2, [r4, #8]
}
 8001706:	b006      	add	sp, #24
 8001708:	bd70      	pop	{r4, r5, r6, pc}
 800170a:	bf00      	nop
 800170c:	40021000 	.word	0x40021000

08001710 <HAL_RCC_GetSysClockFreq>:
  sysclk_source = __HAL_RCC_GET_SYSCLK_SOURCE();
 8001710:	4a25      	ldr	r2, [pc, #148]	@ (80017a8 <HAL_RCC_GetSysClockFreq+0x98>)
 8001712:	6893      	ldr	r3, [r2, #8]
  pll_oscsource = __HAL_RCC_GET_PLL_OSCSOURCE();
 8001714:	68d2      	ldr	r2, [r2, #12]
 8001716:	f002 0203 	and.w	r2, r2, #3
  if((sysclk_source == RCC_CFGR_SWS_MSI) ||
 800171a:	f013 030c 	ands.w	r3, r3, #12
 800171e:	d009      	beq.n	8001734 <HAL_RCC_GetSysClockFreq+0x24>
 8001720:	2b0c      	cmp	r3, #12
 8001722:	d005      	beq.n	8001730 <HAL_RCC_GetSysClockFreq+0x20>
  else if(sysclk_source == RCC_CFGR_SWS_HSI)
 8001724:	2b04      	cmp	r3, #4
 8001726:	d03b      	beq.n	80017a0 <HAL_RCC_GetSysClockFreq+0x90>
  else if(sysclk_source == RCC_CFGR_SWS_HSE)
 8001728:	2b08      	cmp	r3, #8
 800172a:	d03b      	beq.n	80017a4 <HAL_RCC_GetSysClockFreq+0x94>
  uint32_t msirange = 0U, sysclockfreq = 0U;
 800172c:	2000      	movs	r0, #0
 800172e:	e00f      	b.n	8001750 <HAL_RCC_GetSysClockFreq+0x40>
     ((sysclk_source == RCC_CFGR_SWS_PLL) && (pll_oscsource == RCC_PLLSOURCE_MSI)))
 8001730:	2a01      	cmp	r2, #1
 8001732:	d1f7      	bne.n	8001724 <HAL_RCC_GetSysClockFreq+0x14>
    if(READ_BIT(RCC->CR, RCC_CR_MSIRGSEL) == 0U)
 8001734:	4a1c      	ldr	r2, [pc, #112]	@ (80017a8 <HAL_RCC_GetSysClockFreq+0x98>)
 8001736:	6812      	ldr	r2, [r2, #0]
 8001738:	f012 0f08 	tst.w	r2, #8
 800173c:	d10c      	bne.n	8001758 <HAL_RCC_GetSysClockFreq+0x48>
      msirange = READ_BIT(RCC->CSR, RCC_CSR_MSISRANGE) >> RCC_CSR_MSISRANGE_Pos;
 800173e:	4a1a      	ldr	r2, [pc, #104]	@ (80017a8 <HAL_RCC_GetSysClockFreq+0x98>)
 8001740:	f8d2 2094 	ldr.w	r2, [r2, #148]	@ 0x94
 8001744:	f3c2 2203 	ubfx	r2, r2, #8, #4
    msirange = MSIRangeTable[msirange];
 8001748:	4918      	ldr	r1, [pc, #96]	@ (80017ac <HAL_RCC_GetSysClockFreq+0x9c>)
 800174a:	f851 0022 	ldr.w	r0, [r1, r2, lsl #2]
    if(sysclk_source == RCC_CFGR_SWS_MSI)
 800174e:	b113      	cbz	r3, 8001756 <HAL_RCC_GetSysClockFreq+0x46>
  if(sysclk_source == RCC_CFGR_SWS_PLL)
 8001750:	2b0c      	cmp	r3, #12
 8001752:	d006      	beq.n	8001762 <HAL_RCC_GetSysClockFreq+0x52>
 8001754:	2000      	movs	r0, #0
}
 8001756:	4770      	bx	lr
      msirange = READ_BIT(RCC->CR, RCC_CR_MSIRANGE) >> RCC_CR_MSIRANGE_Pos;
 8001758:	4a13      	ldr	r2, [pc, #76]	@ (80017a8 <HAL_RCC_GetSysClockFreq+0x98>)
 800175a:	6812      	ldr	r2, [r2, #0]
 800175c:	f3c2 1203 	ubfx	r2, r2, #4, #4
 8001760:	e7f2      	b.n	8001748 <HAL_RCC_GetSysClockFreq+0x38>
    pllsource = READ_BIT(RCC->PLLCFGR, RCC_PLLCFGR_PLLSRC);
 8001762:	4b11      	ldr	r3, [pc, #68]	@ (80017a8 <HAL_RCC_GetSysClockFreq+0x98>)
 8001764:	68db      	ldr	r3, [r3, #12]
 8001766:	f003 0303 	and.w	r3, r3, #3
    switch (pllsource)
 800176a:	2b02      	cmp	r3, #2
 800176c:	d016      	beq.n	800179c <HAL_RCC_GetSysClockFreq+0x8c>
 800176e:	2b03      	cmp	r3, #3
 8001770:	d100      	bne.n	8001774 <HAL_RCC_GetSysClockFreq+0x64>
      pllvco = HSE_VALUE;
 8001772:	480f      	ldr	r0, [pc, #60]	@ (80017b0 <HAL_RCC_GetSysClockFreq+0xa0>)
    pllm = (READ_BIT(RCC->PLLCFGR, RCC_PLLCFGR_PLLM) >> RCC_PLLCFGR_PLLM_Pos) + 1U ;
 8001774:	490c      	ldr	r1, [pc, #48]	@ (80017a8 <HAL_RCC_GetSysClockFreq+0x98>)
 8001776:	68ca      	ldr	r2, [r1, #12]
 8001778:	f3c2 1202 	ubfx	r2, r2, #4, #3
 800177c:	3201      	adds	r2, #1
    pllvco = (pllvco * (READ_BIT(RCC->PLLCFGR, RCC_PLLCFGR_PLLN) >> RCC_PLLCFGR_PLLN_Pos)) / pllm;
 800177e:	68cb      	ldr	r3, [r1, #12]
 8001780:	f3c3 2306 	ubfx	r3, r3, #8, #7
 8001784:	fb00 f303 	mul.w	r3, r0, r3
 8001788:	fbb3 f3f2 	udiv	r3, r3, r2
    pllr = ((READ_BIT(RCC->PLLCFGR, RCC_PLLCFGR_PLLR) >> RCC_PLLCFGR_PLLR_Pos) + 1U ) * 2U;
 800178c:	68c8      	ldr	r0, [r1, #12]
 800178e:	f3c0 6041 	ubfx	r0, r0, #25, #2
 8001792:	3001      	adds	r0, #1
 8001794:	0040      	lsls	r0, r0, #1
    sysclockfreq = pllvco / pllr;
 8001796:	fbb3 f0f0 	udiv	r0, r3, r0
 800179a:	4770      	bx	lr
    switch (pllsource)
 800179c:	4805      	ldr	r0, [pc, #20]	@ (80017b4 <HAL_RCC_GetSysClockFreq+0xa4>)
 800179e:	e7e9      	b.n	8001774 <HAL_RCC_GetSysClockFreq+0x64>
    sysclockfreq = HSI_VALUE;
 80017a0:	4804      	ldr	r0, [pc, #16]	@ (80017b4 <HAL_RCC_GetSysClockFreq+0xa4>)
 80017a2:	4770      	bx	lr
    sysclockfreq = HSE_VALUE;
 80017a4:	4802      	ldr	r0, [pc, #8]	@ (80017b0 <HAL_RCC_GetSysClockFreq+0xa0>)
 80017a6:	4770      	bx	lr
 80017a8:	40021000 	.word	0x40021000
 80017ac:	08004fd4 	.word	0x08004fd4
 80017b0:	00b71b00 	.word	0x00b71b00
 80017b4:	00f42400 	.word	0x00f42400

080017b8 <HAL_RCC_OscConfig>:
  if(RCC_OscInitStruct == NULL)
 80017b8:	2800      	cmp	r0, #0
 80017ba:	f000 82f3 	beq.w	8001da4 <HAL_RCC_OscConfig+0x5ec>
{
 80017be:	b5f0      	push	{r4, r5, r6, r7, lr}
 80017c0:	b083      	sub	sp, #12
 80017c2:	4604      	mov	r4, r0
  sysclk_source = __HAL_RCC_GET_SYSCLK_SOURCE();
 80017c4:	4b96      	ldr	r3, [pc, #600]	@ (8001a20 <HAL_RCC_OscConfig+0x268>)
 80017c6:	689d      	ldr	r5, [r3, #8]
 80017c8:	f005 050c 	and.w	r5, r5, #12
  pll_config = __HAL_RCC_GET_PLL_OSCSOURCE();
 80017cc:	68db      	ldr	r3, [r3, #12]
 80017ce:	f003 0303 	and.w	r3, r3, #3
 80017d2:	461e      	mov	r6, r3
  if(((RCC_OscInitStruct->OscillatorType) & RCC_OSCILLATORTYPE_MSI) == RCC_OSCILLATORTYPE_MSI)
 80017d4:	6803      	ldr	r3, [r0, #0]
 80017d6:	f013 0f10 	tst.w	r3, #16
 80017da:	d05a      	beq.n	8001892 <HAL_RCC_OscConfig+0xda>
    if((sysclk_source == RCC_CFGR_SWS_MSI) ||
 80017dc:	b1e5      	cbz	r5, 8001818 <HAL_RCC_OscConfig+0x60>
 80017de:	2d0c      	cmp	r5, #12
 80017e0:	d018      	beq.n	8001814 <HAL_RCC_OscConfig+0x5c>
      if(RCC_OscInitStruct->MSIState != RCC_MSI_OFF)
 80017e2:	69a3      	ldr	r3, [r4, #24]
 80017e4:	2b00      	cmp	r3, #0
 80017e6:	f000 80bb 	beq.w	8001960 <HAL_RCC_OscConfig+0x1a8>
        __HAL_RCC_MSI_ENABLE();
 80017ea:	4a8d      	ldr	r2, [pc, #564]	@ (8001a20 <HAL_RCC_OscConfig+0x268>)
 80017ec:	6813      	ldr	r3, [r2, #0]
 80017ee:	f043 0301 	orr.w	r3, r3, #1
 80017f2:	6013      	str	r3, [r2, #0]
        tickstart = HAL_GetTick();
 80017f4:	f7ff f8b2 	bl	800095c <HAL_GetTick>
 80017f8:	4607      	mov	r7, r0
        while(READ_BIT(RCC->CR, RCC_CR_MSIRDY) == 0U)
 80017fa:	4b89      	ldr	r3, [pc, #548]	@ (8001a20 <HAL_RCC_OscConfig+0x268>)
 80017fc:	681b      	ldr	r3, [r3, #0]
 80017fe:	f013 0f02 	tst.w	r3, #2
 8001802:	f040 809a 	bne.w	800193a <HAL_RCC_OscConfig+0x182>
          if((HAL_GetTick() - tickstart) > MSI_TIMEOUT_VALUE)
 8001806:	f7ff f8a9 	bl	800095c <HAL_GetTick>
 800180a:	1bc0      	subs	r0, r0, r7
 800180c:	2802      	cmp	r0, #2
 800180e:	d9f4      	bls.n	80017fa <HAL_RCC_OscConfig+0x42>
            return HAL_TIMEOUT;
 8001810:	2003      	movs	r0, #3
 8001812:	e2d2      	b.n	8001dba <HAL_RCC_OscConfig+0x602>
       ((sysclk_source == RCC_CFGR_SWS_PLL) && (pll_config == RCC_PLLSOURCE_MSI)))
 8001814:	2e01      	cmp	r6, #1
 8001816:	d1e4      	bne.n	80017e2 <HAL_RCC_OscConfig+0x2a>
      if((READ_BIT(RCC->CR, RCC_CR_MSIRDY) != 0U) && (RCC_OscInitStruct->MSIState == RCC_MSI_OFF))
 8001818:	4b81      	ldr	r3, [pc, #516]	@ (8001a20 <HAL_RCC_OscConfig+0x268>)
 800181a:	681b      	ldr	r3, [r3, #0]
 800181c:	f013 0f02 	tst.w	r3, #2
 8001820:	d003      	beq.n	800182a <HAL_RCC_OscConfig+0x72>
 8001822:	69a3      	ldr	r3, [r4, #24]
 8001824:	2b00      	cmp	r3, #0
 8001826:	f000 82bf 	beq.w	8001da8 <HAL_RCC_OscConfig+0x5f0>
        if(RCC_OscInitStruct->MSIClockRange > __HAL_RCC_GET_MSI_RANGE())
 800182a:	6a20      	ldr	r0, [r4, #32]
 800182c:	4b7c      	ldr	r3, [pc, #496]	@ (8001a20 <HAL_RCC_OscConfig+0x268>)
 800182e:	681b      	ldr	r3, [r3, #0]
 8001830:	f013 0f08 	tst.w	r3, #8
 8001834:	d05b      	beq.n	80018ee <HAL_RCC_OscConfig+0x136>
 8001836:	4b7a      	ldr	r3, [pc, #488]	@ (8001a20 <HAL_RCC_OscConfig+0x268>)
 8001838:	681b      	ldr	r3, [r3, #0]
 800183a:	f003 03f0 	and.w	r3, r3, #240	@ 0xf0
 800183e:	4298      	cmp	r0, r3
 8001840:	d85c      	bhi.n	80018fc <HAL_RCC_OscConfig+0x144>
          __HAL_RCC_MSI_RANGE_CONFIG(RCC_OscInitStruct->MSIClockRange);
 8001842:	4b77      	ldr	r3, [pc, #476]	@ (8001a20 <HAL_RCC_OscConfig+0x268>)
 8001844:	681a      	ldr	r2, [r3, #0]
 8001846:	f042 0208 	orr.w	r2, r2, #8
 800184a:	601a      	str	r2, [r3, #0]
 800184c:	681a      	ldr	r2, [r3, #0]
 800184e:	f022 02f0 	bic.w	r2, r2, #240	@ 0xf0
 8001852:	6a21      	ldr	r1, [r4, #32]
 8001854:	430a      	orrs	r2, r1
 8001856:	601a      	str	r2, [r3, #0]
          __HAL_RCC_MSI_CALIBRATIONVALUE_ADJUST(RCC_OscInitStruct->MSICalibrationValue);
 8001858:	685a      	ldr	r2, [r3, #4]
 800185a:	f422 427f 	bic.w	r2, r2, #65280	@ 0xff00
 800185e:	69e1      	ldr	r1, [r4, #28]
 8001860:	ea42 2201 	orr.w	r2, r2, r1, lsl #8
 8001864:	605a      	str	r2, [r3, #4]
          if(sysclk_source == RCC_CFGR_SWS_MSI)
 8001866:	2d00      	cmp	r5, #0
 8001868:	d060      	beq.n	800192c <HAL_RCC_OscConfig+0x174>
        SystemCoreClock = HAL_RCC_GetSysClockFreq() >> (AHBPrescTable[READ_BIT(RCC->CFGR, RCC_CFGR_HPRE) >> RCC_CFGR_HPRE_Pos] & 0x1FU);
 800186a:	f7ff ff51 	bl	8001710 <HAL_RCC_GetSysClockFreq>
 800186e:	4b6c      	ldr	r3, [pc, #432]	@ (8001a20 <HAL_RCC_OscConfig+0x268>)
 8001870:	689b      	ldr	r3, [r3, #8]
 8001872:	f3c3 1303 	ubfx	r3, r3, #4, #4
 8001876:	4a6b      	ldr	r2, [pc, #428]	@ (8001a24 <HAL_RCC_OscConfig+0x26c>)
 8001878:	5cd3      	ldrb	r3, [r2, r3]
 800187a:	f003 031f 	and.w	r3, r3, #31
 800187e:	40d8      	lsrs	r0, r3
 8001880:	4b69      	ldr	r3, [pc, #420]	@ (8001a28 <HAL_RCC_OscConfig+0x270>)
 8001882:	6018      	str	r0, [r3, #0]
        status = HAL_InitTick(uwTickPrio);
 8001884:	4b69      	ldr	r3, [pc, #420]	@ (8001a2c <HAL_RCC_OscConfig+0x274>)
 8001886:	6818      	ldr	r0, [r3, #0]
 8001888:	f7ff f824 	bl	80008d4 <HAL_InitTick>
        if(status != HAL_OK)
 800188c:	2800      	cmp	r0, #0
 800188e:	f040 8294 	bne.w	8001dba <HAL_RCC_OscConfig+0x602>
  if(((RCC_OscInitStruct->OscillatorType) & RCC_OSCILLATORTYPE_HSE) == RCC_OSCILLATORTYPE_HSE)
 8001892:	6823      	ldr	r3, [r4, #0]
 8001894:	f013 0f01 	tst.w	r3, #1
 8001898:	f000 8081 	beq.w	800199e <HAL_RCC_OscConfig+0x1e6>
    if((sysclk_source == RCC_CFGR_SWS_HSE) ||
 800189c:	2d08      	cmp	r5, #8
 800189e:	d075      	beq.n	800198c <HAL_RCC_OscConfig+0x1d4>
 80018a0:	2d0c      	cmp	r5, #12
 80018a2:	d071      	beq.n	8001988 <HAL_RCC_OscConfig+0x1d0>
      __HAL_RCC_HSE_CONFIG(RCC_OscInitStruct->HSEState);
 80018a4:	6863      	ldr	r3, [r4, #4]
 80018a6:	f5b3 3f80 	cmp.w	r3, #65536	@ 0x10000
 80018aa:	f000 8097 	beq.w	80019dc <HAL_RCC_OscConfig+0x224>
 80018ae:	f5b3 2fa0 	cmp.w	r3, #327680	@ 0x50000
 80018b2:	f000 8099 	beq.w	80019e8 <HAL_RCC_OscConfig+0x230>
 80018b6:	4b5a      	ldr	r3, [pc, #360]	@ (8001a20 <HAL_RCC_OscConfig+0x268>)
 80018b8:	681a      	ldr	r2, [r3, #0]
 80018ba:	f422 3280 	bic.w	r2, r2, #65536	@ 0x10000
 80018be:	601a      	str	r2, [r3, #0]
 80018c0:	681a      	ldr	r2, [r3, #0]
 80018c2:	f422 2280 	bic.w	r2, r2, #262144	@ 0x40000
 80018c6:	601a      	str	r2, [r3, #0]
      if(RCC_OscInitStruct->HSEState != RCC_HSE_OFF)
 80018c8:	6863      	ldr	r3, [r4, #4]
 80018ca:	2b00      	cmp	r3, #0
 80018cc:	f000 8099 	beq.w	8001a02 <HAL_RCC_OscConfig+0x24a>
        tickstart = HAL_GetTick();
 80018d0:	f7ff f844 	bl	800095c <HAL_GetTick>
 80018d4:	4607      	mov	r7, r0
        while(READ_BIT(RCC->CR, RCC_CR_HSERDY) == 0U)
 80018d6:	4b52      	ldr	r3, [pc, #328]	@ (8001a20 <HAL_RCC_OscConfig+0x268>)
 80018d8:	681b      	ldr	r3, [r3, #0]
 80018da:	f413 3f00 	tst.w	r3, #131072	@ 0x20000
 80018de:	d15e      	bne.n	800199e <HAL_RCC_OscConfig+0x1e6>
          if((HAL_GetTick() - tickstart) > HSE_TIMEOUT_VALUE)
 80018e0:	f7ff f83c 	bl	800095c <HAL_GetTick>
 80018e4:	1bc0      	subs	r0, r0, r7
 80018e6:	2864      	cmp	r0, #100	@ 0x64
 80018e8:	d9f5      	bls.n	80018d6 <HAL_RCC_OscConfig+0x11e>
            return HAL_TIMEOUT;
 80018ea:	2003      	movs	r0, #3
 80018ec:	e265      	b.n	8001dba <HAL_RCC_OscConfig+0x602>
        if(RCC_OscInitStruct->MSIClockRange > __HAL_RCC_GET_MSI_RANGE())
 80018ee:	4b4c      	ldr	r3, [pc, #304]	@ (8001a20 <HAL_RCC_OscConfig+0x268>)
 80018f0:	f8d3 3094 	ldr.w	r3, [r3, #148]	@ 0x94
 80018f4:	091b      	lsrs	r3, r3, #4
 80018f6:	f003 03f0 	and.w	r3, r3, #240	@ 0xf0
 80018fa:	e7a0      	b.n	800183e <HAL_RCC_OscConfig+0x86>
          if(RCC_SetFlashLatencyFromMSIRange(RCC_OscInitStruct->MSIClockRange) != HAL_OK)
 80018fc:	f7ff fe98 	bl	8001630 <RCC_SetFlashLatencyFromMSIRange>
 8001900:	2800      	cmp	r0, #0
 8001902:	f040 8253 	bne.w	8001dac <HAL_RCC_OscConfig+0x5f4>
          __HAL_RCC_MSI_RANGE_CONFIG(RCC_OscInitStruct->MSIClockRange);
 8001906:	4b46      	ldr	r3, [pc, #280]	@ (8001a20 <HAL_RCC_OscConfig+0x268>)
 8001908:	681a      	ldr	r2, [r3, #0]
 800190a:	f042 0208 	orr.w	r2, r2, #8
 800190e:	601a      	str	r2, [r3, #0]
 8001910:	681a      	ldr	r2, [r3, #0]
 8001912:	f022 02f0 	bic.w	r2, r2, #240	@ 0xf0
 8001916:	6a21      	ldr	r1, [r4, #32]
 8001918:	430a      	orrs	r2, r1
 800191a:	601a      	str	r2, [r3, #0]
          __HAL_RCC_MSI_CALIBRATIONVALUE_ADJUST(RCC_OscInitStruct->MSICalibrationValue);
 800191c:	685a      	ldr	r2, [r3, #4]
 800191e:	f422 427f 	bic.w	r2, r2, #65280	@ 0xff00
 8001922:	69e1      	ldr	r1, [r4, #28]
 8001924:	ea42 2201 	orr.w	r2, r2, r1, lsl #8
 8001928:	605a      	str	r2, [r3, #4]
 800192a:	e79e      	b.n	800186a <HAL_RCC_OscConfig+0xb2>
            if(RCC_SetFlashLatencyFromMSIRange(RCC_OscInitStruct->MSIClockRange) != HAL_OK)
 800192c:	6a20      	ldr	r0, [r4, #32]
 800192e:	f7ff fe7f 	bl	8001630 <RCC_SetFlashLatencyFromMSIRange>
 8001932:	2800      	cmp	r0, #0
 8001934:	d099      	beq.n	800186a <HAL_RCC_OscConfig+0xb2>
              return HAL_ERROR;
 8001936:	2001      	movs	r0, #1
 8001938:	e23f      	b.n	8001dba <HAL_RCC_OscConfig+0x602>
        __HAL_RCC_MSI_RANGE_CONFIG(RCC_OscInitStruct->MSIClockRange);
 800193a:	4b39      	ldr	r3, [pc, #228]	@ (8001a20 <HAL_RCC_OscConfig+0x268>)
 800193c:	681a      	ldr	r2, [r3, #0]
 800193e:	f042 0208 	orr.w	r2, r2, #8
 8001942:	601a      	str	r2, [r3, #0]
 8001944:	681a      	ldr	r2, [r3, #0]
 8001946:	f022 02f0 	bic.w	r2, r2, #240	@ 0xf0
 800194a:	6a21      	ldr	r1, [r4, #32]
 800194c:	430a      	orrs	r2, r1
 800194e:	601a      	str	r2, [r3, #0]
        __HAL_RCC_MSI_CALIBRATIONVALUE_ADJUST(RCC_OscInitStruct->MSICalibrationValue);
 8001950:	685a      	ldr	r2, [r3, #4]
 8001952:	f422 427f 	bic.w	r2, r2, #65280	@ 0xff00
 8001956:	69e1      	ldr	r1, [r4, #28]
 8001958:	ea42 2201 	orr.w	r2, r2, r1, lsl #8
 800195c:	605a      	str	r2, [r3, #4]
 800195e:	e798      	b.n	8001892 <HAL_RCC_OscConfig+0xda>
        __HAL_RCC_MSI_DISABLE();
 8001960:	4a2f      	ldr	r2, [pc, #188]	@ (8001a20 <HAL_RCC_OscConfig+0x268>)
 8001962:	6813      	ldr	r3, [r2, #0]
 8001964:	f023 0301 	bic.w	r3, r3, #1
 8001968:	6013      	str	r3, [r2, #0]
        tickstart = HAL_GetTick();
 800196a:	f7fe fff7 	bl	800095c <HAL_GetTick>
 800196e:	4607      	mov	r7, r0
        while(READ_BIT(RCC->CR, RCC_CR_MSIRDY) != 0U)
 8001970:	4b2b      	ldr	r3, [pc, #172]	@ (8001a20 <HAL_RCC_OscConfig+0x268>)
 8001972:	681b      	ldr	r3, [r3, #0]
 8001974:	f013 0f02 	tst.w	r3, #2
 8001978:	d08b      	beq.n	8001892 <HAL_RCC_OscConfig+0xda>
          if((HAL_GetTick() - tickstart) > MSI_TIMEOUT_VALUE)
 800197a:	f7fe ffef 	bl	800095c <HAL_GetTick>
 800197e:	1bc0      	subs	r0, r0, r7
 8001980:	2802      	cmp	r0, #2
 8001982:	d9f5      	bls.n	8001970 <HAL_RCC_OscConfig+0x1b8>
            return HAL_TIMEOUT;
 8001984:	2003      	movs	r0, #3
 8001986:	e218      	b.n	8001dba <HAL_RCC_OscConfig+0x602>
       ((sysclk_source == RCC_CFGR_SWS_PLL) && (pll_config == RCC_PLLSOURCE_HSE)))
 8001988:	2e03      	cmp	r6, #3
 800198a:	d18b      	bne.n	80018a4 <HAL_RCC_OscConfig+0xec>
      if((READ_BIT(RCC->CR, RCC_CR_HSERDY) != 0U) && (RCC_OscInitStruct->HSEState == RCC_HSE_OFF))
 800198c:	4b24      	ldr	r3, [pc, #144]	@ (8001a20 <HAL_RCC_OscConfig+0x268>)
 800198e:	681b      	ldr	r3, [r3, #0]
 8001990:	f413 3f00 	tst.w	r3, #131072	@ 0x20000
 8001994:	d003      	beq.n	800199e <HAL_RCC_OscConfig+0x1e6>
 8001996:	6863      	ldr	r3, [r4, #4]
 8001998:	2b00      	cmp	r3, #0
 800199a:	f000 8209 	beq.w	8001db0 <HAL_RCC_OscConfig+0x5f8>
  if(((RCC_OscInitStruct->OscillatorType) & RCC_OSCILLATORTYPE_HSI) == RCC_OSCILLATORTYPE_HSI)
 800199e:	6823      	ldr	r3, [r4, #0]
 80019a0:	f013 0f02 	tst.w	r3, #2
 80019a4:	d057      	beq.n	8001a56 <HAL_RCC_OscConfig+0x29e>
    if((sysclk_source == RCC_CFGR_SWS_HSI) ||
 80019a6:	2d04      	cmp	r5, #4
 80019a8:	d044      	beq.n	8001a34 <HAL_RCC_OscConfig+0x27c>
 80019aa:	2d0c      	cmp	r5, #12
 80019ac:	d040      	beq.n	8001a30 <HAL_RCC_OscConfig+0x278>
      if(RCC_OscInitStruct->HSIState != RCC_HSI_OFF)
 80019ae:	68e3      	ldr	r3, [r4, #12]
 80019b0:	2b00      	cmp	r3, #0
 80019b2:	d076      	beq.n	8001aa2 <HAL_RCC_OscConfig+0x2ea>
        __HAL_RCC_HSI_ENABLE();
 80019b4:	4a1a      	ldr	r2, [pc, #104]	@ (8001a20 <HAL_RCC_OscConfig+0x268>)
 80019b6:	6813      	ldr	r3, [r2, #0]
 80019b8:	f443 7380 	orr.w	r3, r3, #256	@ 0x100
 80019bc:	6013      	str	r3, [r2, #0]
        tickstart = HAL_GetTick();
 80019be:	f7fe ffcd 	bl	800095c <HAL_GetTick>
 80019c2:	4606      	mov	r6, r0
        while(READ_BIT(RCC->CR, RCC_CR_HSIRDY) == 0U)
 80019c4:	4b16      	ldr	r3, [pc, #88]	@ (8001a20 <HAL_RCC_OscConfig+0x268>)
 80019c6:	681b      	ldr	r3, [r3, #0]
 80019c8:	f413 6f80 	tst.w	r3, #1024	@ 0x400
 80019cc:	d160      	bne.n	8001a90 <HAL_RCC_OscConfig+0x2d8>
          if((HAL_GetTick() - tickstart) > HSI_TIMEOUT_VALUE)
 80019ce:	f7fe ffc5 	bl	800095c <HAL_GetTick>
 80019d2:	1b80      	subs	r0, r0, r6
 80019d4:	2802      	cmp	r0, #2
 80019d6:	d9f5      	bls.n	80019c4 <HAL_RCC_OscConfig+0x20c>
            return HAL_TIMEOUT;
 80019d8:	2003      	movs	r0, #3
 80019da:	e1ee      	b.n	8001dba <HAL_RCC_OscConfig+0x602>
      __HAL_RCC_HSE_CONFIG(RCC_OscInitStruct->HSEState);
 80019dc:	4a10      	ldr	r2, [pc, #64]	@ (8001a20 <HAL_RCC_OscConfig+0x268>)
 80019de:	6813      	ldr	r3, [r2, #0]
 80019e0:	f443 3380 	orr.w	r3, r3, #65536	@ 0x10000
 80019e4:	6013      	str	r3, [r2, #0]
 80019e6:	e76f      	b.n	80018c8 <HAL_RCC_OscConfig+0x110>
 80019e8:	f103 4380 	add.w	r3, r3, #1073741824	@ 0x40000000
 80019ec:	f5a3 333c 	sub.w	r3, r3, #192512	@ 0x2f000
 80019f0:	681a      	ldr	r2, [r3, #0]
 80019f2:	f442 2280 	orr.w	r2, r2, #262144	@ 0x40000
 80019f6:	601a      	str	r2, [r3, #0]
 80019f8:	681a      	ldr	r2, [r3, #0]
 80019fa:	f442 3280 	orr.w	r2, r2, #65536	@ 0x10000
 80019fe:	601a      	str	r2, [r3, #0]
 8001a00:	e762      	b.n	80018c8 <HAL_RCC_OscConfig+0x110>
        tickstart = HAL_GetTick();
 8001a02:	f7fe ffab 	bl	800095c <HAL_GetTick>
 8001a06:	4607      	mov	r7, r0
        while(READ_BIT(RCC->CR, RCC_CR_HSERDY) != 0U)
 8001a08:	4b05      	ldr	r3, [pc, #20]	@ (8001a20 <HAL_RCC_OscConfig+0x268>)
 8001a0a:	681b      	ldr	r3, [r3, #0]
 8001a0c:	f413 3f00 	tst.w	r3, #131072	@ 0x20000
 8001a10:	d0c5      	beq.n	800199e <HAL_RCC_OscConfig+0x1e6>
          if((HAL_GetTick() - tickstart) > HSE_TIMEOUT_VALUE)
 8001a12:	f7fe ffa3 	bl	800095c <HAL_GetTick>
 8001a16:	1bc0      	subs	r0, r0, r7
 8001a18:	2864      	cmp	r0, #100	@ 0x64
 8001a1a:	d9f5      	bls.n	8001a08 <HAL_RCC_OscConfig+0x250>
            return HAL_TIMEOUT;
 8001a1c:	2003      	movs	r0, #3
 8001a1e:	e1cc      	b.n	8001dba <HAL_RCC_OscConfig+0x602>
 8001a20:	40021000 	.word	0x40021000
 8001a24:	0800500c 	.word	0x0800500c
 8001a28:	20000008 	.word	0x20000008
 8001a2c:	20000004 	.word	0x20000004
       ((sysclk_source == RCC_CFGR_SWS_PLL) && (pll_config == RCC_PLLSOURCE_HSI)))
 8001a30:	2e02      	cmp	r6, #2
 8001a32:	d1bc      	bne.n	80019ae <HAL_RCC_OscConfig+0x1f6>
      if((READ_BIT(RCC->CR, RCC_CR_HSIRDY) != 0U) && (RCC_OscInitStruct->HSIState == RCC_HSI_OFF))
 8001a34:	4ba4      	ldr	r3, [pc, #656]	@ (8001cc8 <HAL_RCC_OscConfig+0x510>)
 8001a36:	681b      	ldr	r3, [r3, #0]
 8001a38:	f413 6f80 	tst.w	r3, #1024	@ 0x400
 8001a3c:	d003      	beq.n	8001a46 <HAL_RCC_OscConfig+0x28e>
 8001a3e:	68e3      	ldr	r3, [r4, #12]
 8001a40:	2b00      	cmp	r3, #0
 8001a42:	f000 81b7 	beq.w	8001db4 <HAL_RCC_OscConfig+0x5fc>
        __HAL_RCC_HSI_CALIBRATIONVALUE_ADJUST(RCC_OscInitStruct->HSICalibrationValue);
 8001a46:	4aa0      	ldr	r2, [pc, #640]	@ (8001cc8 <HAL_RCC_OscConfig+0x510>)
 8001a48:	6853      	ldr	r3, [r2, #4]
 8001a4a:	f023 53f8 	bic.w	r3, r3, #520093696	@ 0x1f000000
 8001a4e:	6921      	ldr	r1, [r4, #16]
 8001a50:	ea43 6301 	orr.w	r3, r3, r1, lsl #24
 8001a54:	6053      	str	r3, [r2, #4]
  if(((RCC_OscInitStruct->OscillatorType) & RCC_OSCILLATORTYPE_LSI) == RCC_OSCILLATORTYPE_LSI)
 8001a56:	6823      	ldr	r3, [r4, #0]
 8001a58:	f013 0f08 	tst.w	r3, #8
 8001a5c:	d04c      	beq.n	8001af8 <HAL_RCC_OscConfig+0x340>
    if(RCC_OscInitStruct->LSIState != RCC_LSI_OFF)
 8001a5e:	6963      	ldr	r3, [r4, #20]
 8001a60:	b39b      	cbz	r3, 8001aca <HAL_RCC_OscConfig+0x312>
      __HAL_RCC_LSI_ENABLE();
 8001a62:	4a99      	ldr	r2, [pc, #612]	@ (8001cc8 <HAL_RCC_OscConfig+0x510>)
 8001a64:	f8d2 3094 	ldr.w	r3, [r2, #148]	@ 0x94
 8001a68:	f043 0301 	orr.w	r3, r3, #1
 8001a6c:	f8c2 3094 	str.w	r3, [r2, #148]	@ 0x94
      tickstart = HAL_GetTick();
 8001a70:	f7fe ff74 	bl	800095c <HAL_GetTick>
 8001a74:	4606      	mov	r6, r0
      while(READ_BIT(RCC->CSR, RCC_CSR_LSIRDY) == 0U)
 8001a76:	4b94      	ldr	r3, [pc, #592]	@ (8001cc8 <HAL_RCC_OscConfig+0x510>)
 8001a78:	f8d3 3094 	ldr.w	r3, [r3, #148]	@ 0x94
 8001a7c:	f013 0f02 	tst.w	r3, #2
 8001a80:	d13a      	bne.n	8001af8 <HAL_RCC_OscConfig+0x340>
        if((HAL_GetTick() - tickstart) > LSI_TIMEOUT_VALUE)
 8001a82:	f7fe ff6b 	bl	800095c <HAL_GetTick>
 8001a86:	1b80      	subs	r0, r0, r6
 8001a88:	2802      	cmp	r0, #2
 8001a8a:	d9f4      	bls.n	8001a76 <HAL_RCC_OscConfig+0x2be>
          return HAL_TIMEOUT;
 8001a8c:	2003      	movs	r0, #3
 8001a8e:	e194      	b.n	8001dba <HAL_RCC_OscConfig+0x602>
        __HAL_RCC_HSI_CALIBRATIONVALUE_ADJUST(RCC_OscInitStruct->HSICalibrationValue);
 8001a90:	4a8d      	ldr	r2, [pc, #564]	@ (8001cc8 <HAL_RCC_OscConfig+0x510>)
 8001a92:	6853      	ldr	r3, [r2, #4]
 8001a94:	f023 53f8 	bic.w	r3, r3, #520093696	@ 0x1f000000
 8001a98:	6921      	ldr	r1, [r4, #16]
 8001a9a:	ea43 6301 	orr.w	r3, r3, r1, lsl #24
 8001a9e:	6053      	str	r3, [r2, #4]
 8001aa0:	e7d9      	b.n	8001a56 <HAL_RCC_OscConfig+0x29e>
        __HAL_RCC_HSI_DISABLE();
 8001aa2:	4a89      	ldr	r2, [pc, #548]	@ (8001cc8 <HAL_RCC_OscConfig+0x510>)
 8001aa4:	6813      	ldr	r3, [r2, #0]
 8001aa6:	f423 7380 	bic.w	r3, r3, #256	@ 0x100
 8001aaa:	6013      	str	r3, [r2, #0]
        tickstart = HAL_GetTick();
 8001aac:	f7fe ff56 	bl	800095c <HAL_GetTick>
 8001ab0:	4606      	mov	r6, r0
        while(READ_BIT(RCC->CR, RCC_CR_HSIRDY) != 0U)
 8001ab2:	4b85      	ldr	r3, [pc, #532]	@ (8001cc8 <HAL_RCC_OscConfig+0x510>)
 8001ab4:	681b      	ldr	r3, [r3, #0]
 8001ab6:	f413 6f80 	tst.w	r3, #1024	@ 0x400
 8001aba:	d0cc      	beq.n	8001a56 <HAL_RCC_OscConfig+0x29e>
          if((HAL_GetTick() - tickstart) > HSI_TIMEOUT_VALUE)
 8001abc:	f7fe ff4e 	bl	800095c <HAL_GetTick>
 8001ac0:	1b80      	subs	r0, r0, r6
 8001ac2:	2802      	cmp	r0, #2
 8001ac4:	d9f5      	bls.n	8001ab2 <HAL_RCC_OscConfig+0x2fa>
            return HAL_TIMEOUT;
 8001ac6:	2003      	movs	r0, #3
 8001ac8:	e177      	b.n	8001dba <HAL_RCC_OscConfig+0x602>
      __HAL_RCC_LSI_DISABLE();
 8001aca:	4a7f      	ldr	r2, [pc, #508]	@ (8001cc8 <HAL_RCC_OscConfig+0x510>)
 8001acc:	f8d2 3094 	ldr.w	r3, [r2, #148]	@ 0x94
 8001ad0:	f023 0301 	bic.w	r3, r3, #1
 8001ad4:	f8c2 3094 	str.w	r3, [r2, #148]	@ 0x94
      tickstart = HAL_GetTick();
 8001ad8:	f7fe ff40 	bl	800095c <HAL_GetTick>
 8001adc:	4606      	mov	r6, r0
      while(READ_BIT(RCC->CSR, RCC_CSR_LSIRDY) != 0U)
 8001ade:	4b7a      	ldr	r3, [pc, #488]	@ (8001cc8 <HAL_RCC_OscConfig+0x510>)
 8001ae0:	f8d3 3094 	ldr.w	r3, [r3, #148]	@ 0x94
 8001ae4:	f013 0f02 	tst.w	r3, #2
 8001ae8:	d006      	beq.n	8001af8 <HAL_RCC_OscConfig+0x340>
        if((HAL_GetTick() - tickstart) > LSI_TIMEOUT_VALUE)
 8001aea:	f7fe ff37 	bl	800095c <HAL_GetTick>
 8001aee:	1b80      	subs	r0, r0, r6
 8001af0:	2802      	cmp	r0, #2
 8001af2:	d9f4      	bls.n	8001ade <HAL_RCC_OscConfig+0x326>
          return HAL_TIMEOUT;
 8001af4:	2003      	movs	r0, #3
 8001af6:	e160      	b.n	8001dba <HAL_RCC_OscConfig+0x602>
  if(((RCC_OscInitStruct->OscillatorType) & RCC_OSCILLATORTYPE_LSE) == RCC_OSCILLATORTYPE_LSE)
 8001af8:	6823      	ldr	r3, [r4, #0]
 8001afa:	f013 0f04 	tst.w	r3, #4
 8001afe:	d07c      	beq.n	8001bfa <HAL_RCC_OscConfig+0x442>
    if(HAL_IS_BIT_CLR(RCC->APB1ENR1, RCC_APB1ENR1_PWREN))
 8001b00:	4b71      	ldr	r3, [pc, #452]	@ (8001cc8 <HAL_RCC_OscConfig+0x510>)
 8001b02:	6d9b      	ldr	r3, [r3, #88]	@ 0x58
 8001b04:	f013 5f80 	tst.w	r3, #268435456	@ 0x10000000
 8001b08:	d137      	bne.n	8001b7a <HAL_RCC_OscConfig+0x3c2>
      __HAL_RCC_PWR_CLK_ENABLE();
 8001b0a:	4b6f      	ldr	r3, [pc, #444]	@ (8001cc8 <HAL_RCC_OscConfig+0x510>)
 8001b0c:	6d9a      	ldr	r2, [r3, #88]	@ 0x58
 8001b0e:	f042 5280 	orr.w	r2, r2, #268435456	@ 0x10000000
 8001b12:	659a      	str	r2, [r3, #88]	@ 0x58
 8001b14:	6d9b      	ldr	r3, [r3, #88]	@ 0x58
 8001b16:	f003 5380 	and.w	r3, r3, #268435456	@ 0x10000000
 8001b1a:	9301      	str	r3, [sp, #4]
 8001b1c:	9b01      	ldr	r3, [sp, #4]
      pwrclkchanged = SET;
 8001b1e:	2301      	movs	r3, #1
 8001b20:	461f      	mov	r7, r3
    if(HAL_IS_BIT_CLR(PWR->CR1, PWR_CR1_DBP))
 8001b22:	4b6a      	ldr	r3, [pc, #424]	@ (8001ccc <HAL_RCC_OscConfig+0x514>)
 8001b24:	681b      	ldr	r3, [r3, #0]
 8001b26:	f413 7f80 	tst.w	r3, #256	@ 0x100
 8001b2a:	d029      	beq.n	8001b80 <HAL_RCC_OscConfig+0x3c8>
    __HAL_RCC_LSE_CONFIG(RCC_OscInitStruct->LSEState);
 8001b2c:	68a3      	ldr	r3, [r4, #8]
 8001b2e:	2b01      	cmp	r3, #1
 8001b30:	d03a      	beq.n	8001ba8 <HAL_RCC_OscConfig+0x3f0>
 8001b32:	2b05      	cmp	r3, #5
 8001b34:	d040      	beq.n	8001bb8 <HAL_RCC_OscConfig+0x400>
 8001b36:	4b64      	ldr	r3, [pc, #400]	@ (8001cc8 <HAL_RCC_OscConfig+0x510>)
 8001b38:	f8d3 2090 	ldr.w	r2, [r3, #144]	@ 0x90
 8001b3c:	f022 0201 	bic.w	r2, r2, #1
 8001b40:	f8c3 2090 	str.w	r2, [r3, #144]	@ 0x90
 8001b44:	f8d3 2090 	ldr.w	r2, [r3, #144]	@ 0x90
 8001b48:	f022 0204 	bic.w	r2, r2, #4
 8001b4c:	f8c3 2090 	str.w	r2, [r3, #144]	@ 0x90
    if(RCC_OscInitStruct->LSEState != RCC_LSE_OFF)
 8001b50:	68a3      	ldr	r3, [r4, #8]
 8001b52:	2b00      	cmp	r3, #0
 8001b54:	d03e      	beq.n	8001bd4 <HAL_RCC_OscConfig+0x41c>
      tickstart = HAL_GetTick();
 8001b56:	f7fe ff01 	bl	800095c <HAL_GetTick>
 8001b5a:	4606      	mov	r6, r0
      while(READ_BIT(RCC->BDCR, RCC_BDCR_LSERDY) == 0U)
 8001b5c:	4b5a      	ldr	r3, [pc, #360]	@ (8001cc8 <HAL_RCC_OscConfig+0x510>)
 8001b5e:	f8d3 3090 	ldr.w	r3, [r3, #144]	@ 0x90
 8001b62:	f013 0f02 	tst.w	r3, #2
 8001b66:	d147      	bne.n	8001bf8 <HAL_RCC_OscConfig+0x440>
        if((HAL_GetTick() - tickstart) > RCC_LSE_TIMEOUT_VALUE)
 8001b68:	f7fe fef8 	bl	800095c <HAL_GetTick>
 8001b6c:	1b80      	subs	r0, r0, r6
 8001b6e:	f241 3388 	movw	r3, #5000	@ 0x1388
 8001b72:	4298      	cmp	r0, r3
 8001b74:	d9f2      	bls.n	8001b5c <HAL_RCC_OscConfig+0x3a4>
          return HAL_TIMEOUT;
 8001b76:	2003      	movs	r0, #3
 8001b78:	e11f      	b.n	8001dba <HAL_RCC_OscConfig+0x602>
    FlagStatus       pwrclkchanged = RESET;
 8001b7a:	2300      	movs	r3, #0
 8001b7c:	461f      	mov	r7, r3
 8001b7e:	e7d0      	b.n	8001b22 <HAL_RCC_OscConfig+0x36a>
      SET_BIT(PWR->CR1, PWR_CR1_DBP);
 8001b80:	4a52      	ldr	r2, [pc, #328]	@ (8001ccc <HAL_RCC_OscConfig+0x514>)
 8001b82:	6813      	ldr	r3, [r2, #0]
 8001b84:	f443 7380 	orr.w	r3, r3, #256	@ 0x100
 8001b88:	6013      	str	r3, [r2, #0]
      tickstart = HAL_GetTick();
 8001b8a:	f7fe fee7 	bl	800095c <HAL_GetTick>
 8001b8e:	4606      	mov	r6, r0
      while(HAL_IS_BIT_CLR(PWR->CR1, PWR_CR1_DBP))
 8001b90:	4b4e      	ldr	r3, [pc, #312]	@ (8001ccc <HAL_RCC_OscConfig+0x514>)
 8001b92:	681b      	ldr	r3, [r3, #0]
 8001b94:	f413 7f80 	tst.w	r3, #256	@ 0x100
 8001b98:	d1c8      	bne.n	8001b2c <HAL_RCC_OscConfig+0x374>
        if((HAL_GetTick() - tickstart) > RCC_DBP_TIMEOUT_VALUE)
 8001b9a:	f7fe fedf 	bl	800095c <HAL_GetTick>
 8001b9e:	1b80      	subs	r0, r0, r6
 8001ba0:	2802      	cmp	r0, #2
 8001ba2:	d9f5      	bls.n	8001b90 <HAL_RCC_OscConfig+0x3d8>
          return HAL_TIMEOUT;
 8001ba4:	2003      	movs	r0, #3
 8001ba6:	e108      	b.n	8001dba <HAL_RCC_OscConfig+0x602>
    __HAL_RCC_LSE_CONFIG(RCC_OscInitStruct->LSEState);
 8001ba8:	4a47      	ldr	r2, [pc, #284]	@ (8001cc8 <HAL_RCC_OscConfig+0x510>)
 8001baa:	f8d2 3090 	ldr.w	r3, [r2, #144]	@ 0x90
 8001bae:	f043 0301 	orr.w	r3, r3, #1
 8001bb2:	f8c2 3090 	str.w	r3, [r2, #144]	@ 0x90
 8001bb6:	e7cb      	b.n	8001b50 <HAL_RCC_OscConfig+0x398>
 8001bb8:	4b43      	ldr	r3, [pc, #268]	@ (8001cc8 <HAL_RCC_OscConfig+0x510>)
 8001bba:	f8d3 2090 	ldr.w	r2, [r3, #144]	@ 0x90
 8001bbe:	f042 0204 	orr.w	r2, r2, #4
 8001bc2:	f8c3 2090 	str.w	r2, [r3, #144]	@ 0x90
 8001bc6:	f8d3 2090 	ldr.w	r2, [r3, #144]	@ 0x90
 8001bca:	f042 0201 	orr.w	r2, r2, #1
 8001bce:	f8c3 2090 	str.w	r2, [r3, #144]	@ 0x90
 8001bd2:	e7bd      	b.n	8001b50 <HAL_RCC_OscConfig+0x398>
      tickstart = HAL_GetTick();
 8001bd4:	f7fe fec2 	bl	800095c <HAL_GetTick>
 8001bd8:	4606      	mov	r6, r0
      while(READ_BIT(RCC->BDCR, RCC_BDCR_LSERDY) != 0U)
 8001bda:	4b3b      	ldr	r3, [pc, #236]	@ (8001cc8 <HAL_RCC_OscConfig+0x510>)
 8001bdc:	f8d3 3090 	ldr.w	r3, [r3, #144]	@ 0x90
 8001be0:	f013 0f02 	tst.w	r3, #2
 8001be4:	d008      	beq.n	8001bf8 <HAL_RCC_OscConfig+0x440>
        if((HAL_GetTick() - tickstart) > RCC_LSE_TIMEOUT_VALUE)
 8001be6:	f7fe feb9 	bl	800095c <HAL_GetTick>
 8001bea:	1b80      	subs	r0, r0, r6
 8001bec:	f241 3388 	movw	r3, #5000	@ 0x1388
 8001bf0:	4298      	cmp	r0, r3
 8001bf2:	d9f2      	bls.n	8001bda <HAL_RCC_OscConfig+0x422>
          return HAL_TIMEOUT;
 8001bf4:	2003      	movs	r0, #3
 8001bf6:	e0e0      	b.n	8001dba <HAL_RCC_OscConfig+0x602>
    if(pwrclkchanged == SET)
 8001bf8:	b9ef      	cbnz	r7, 8001c36 <HAL_RCC_OscConfig+0x47e>
  if(RCC_OscInitStruct->PLL.PLLState != RCC_PLL_NONE)
 8001bfa:	6aa3      	ldr	r3, [r4, #40]	@ 0x28
 8001bfc:	2b00      	cmp	r3, #0
 8001bfe:	f000 80db 	beq.w	8001db8 <HAL_RCC_OscConfig+0x600>
    if(RCC_OscInitStruct->PLL.PLLState == RCC_PLL_ON)
 8001c02:	2b02      	cmp	r3, #2
 8001c04:	d01d      	beq.n	8001c42 <HAL_RCC_OscConfig+0x48a>
      if(sysclk_source != RCC_CFGR_SWS_PLL)
 8001c06:	2d0c      	cmp	r5, #12
 8001c08:	f000 80dd 	beq.w	8001dc6 <HAL_RCC_OscConfig+0x60e>
        __HAL_RCC_PLL_DISABLE();
 8001c0c:	4a2e      	ldr	r2, [pc, #184]	@ (8001cc8 <HAL_RCC_OscConfig+0x510>)
 8001c0e:	6813      	ldr	r3, [r2, #0]
 8001c10:	f023 7380 	bic.w	r3, r3, #16777216	@ 0x1000000
 8001c14:	6013      	str	r3, [r2, #0]
        tickstart = HAL_GetTick();
 8001c16:	f7fe fea1 	bl	800095c <HAL_GetTick>
 8001c1a:	4604      	mov	r4, r0
        while(READ_BIT(RCC->CR, RCC_CR_PLLRDY) != 0U)
 8001c1c:	4b2a      	ldr	r3, [pc, #168]	@ (8001cc8 <HAL_RCC_OscConfig+0x510>)
 8001c1e:	681b      	ldr	r3, [r3, #0]
 8001c20:	f013 7f00 	tst.w	r3, #33554432	@ 0x2000000
 8001c24:	f000 80b7 	beq.w	8001d96 <HAL_RCC_OscConfig+0x5de>
          if((HAL_GetTick() - tickstart) > PLL_TIMEOUT_VALUE)
 8001c28:	f7fe fe98 	bl	800095c <HAL_GetTick>
 8001c2c:	1b00      	subs	r0, r0, r4
 8001c2e:	2802      	cmp	r0, #2
 8001c30:	d9f4      	bls.n	8001c1c <HAL_RCC_OscConfig+0x464>
            return HAL_TIMEOUT;
 8001c32:	2003      	movs	r0, #3
 8001c34:	e0c1      	b.n	8001dba <HAL_RCC_OscConfig+0x602>
      __HAL_RCC_PWR_CLK_DISABLE();
 8001c36:	4a24      	ldr	r2, [pc, #144]	@ (8001cc8 <HAL_RCC_OscConfig+0x510>)
 8001c38:	6d93      	ldr	r3, [r2, #88]	@ 0x58
 8001c3a:	f023 5380 	bic.w	r3, r3, #268435456	@ 0x10000000
 8001c3e:	6593      	str	r3, [r2, #88]	@ 0x58
 8001c40:	e7db      	b.n	8001bfa <HAL_RCC_OscConfig+0x442>
      pll_config = RCC->PLLCFGR;
 8001c42:	4b21      	ldr	r3, [pc, #132]	@ (8001cc8 <HAL_RCC_OscConfig+0x510>)
 8001c44:	68db      	ldr	r3, [r3, #12]
      if((READ_BIT(pll_config, RCC_PLLCFGR_PLLSRC)  != RCC_OscInitStruct->PLL.PLLSource) ||
 8001c46:	f003 0103 	and.w	r1, r3, #3
 8001c4a:	6ae2      	ldr	r2, [r4, #44]	@ 0x2c
 8001c4c:	4291      	cmp	r1, r2
 8001c4e:	d00f      	beq.n	8001c70 <HAL_RCC_OscConfig+0x4b8>
        if(sysclk_source != RCC_CFGR_SWS_PLL)
 8001c50:	2d0c      	cmp	r5, #12
 8001c52:	f000 80b4 	beq.w	8001dbe <HAL_RCC_OscConfig+0x606>
          if((READ_BIT(RCC->CR, RCC_CR_PLLSAI1ON) != 0U)
 8001c56:	4b1c      	ldr	r3, [pc, #112]	@ (8001cc8 <HAL_RCC_OscConfig+0x510>)
 8001c58:	681b      	ldr	r3, [r3, #0]
 8001c5a:	f013 6f80 	tst.w	r3, #67108864	@ 0x4000000
 8001c5e:	f040 80b0 	bne.w	8001dc2 <HAL_RCC_OscConfig+0x60a>
             || (READ_BIT(RCC->CR, RCC_CR_PLLSAI2ON) != 0U)
 8001c62:	4b19      	ldr	r3, [pc, #100]	@ (8001cc8 <HAL_RCC_OscConfig+0x510>)
 8001c64:	681b      	ldr	r3, [r3, #0]
 8001c66:	f013 5f80 	tst.w	r3, #268435456	@ 0x10000000
 8001c6a:	d031      	beq.n	8001cd0 <HAL_RCC_OscConfig+0x518>
            return HAL_ERROR;
 8001c6c:	2001      	movs	r0, #1
 8001c6e:	e0a4      	b.n	8001dba <HAL_RCC_OscConfig+0x602>
         (READ_BIT(pll_config, RCC_PLLCFGR_PLLM)    != ((RCC_OscInitStruct->PLL.PLLM - 1U) << RCC_PLLCFGR_PLLM_Pos)) ||
 8001c70:	f003 0270 	and.w	r2, r3, #112	@ 0x70
 8001c74:	6b21      	ldr	r1, [r4, #48]	@ 0x30
 8001c76:	3901      	subs	r1, #1
      if((READ_BIT(pll_config, RCC_PLLCFGR_PLLSRC)  != RCC_OscInitStruct->PLL.PLLSource) ||
 8001c78:	ebb2 1f01 	cmp.w	r2, r1, lsl #4
 8001c7c:	d1e8      	bne.n	8001c50 <HAL_RCC_OscConfig+0x498>
         (READ_BIT(pll_config, RCC_PLLCFGR_PLLN)    != (RCC_OscInitStruct->PLL.PLLN << RCC_PLLCFGR_PLLN_Pos)) ||
 8001c7e:	f403 42fe 	and.w	r2, r3, #32512	@ 0x7f00
 8001c82:	6b61      	ldr	r1, [r4, #52]	@ 0x34
         (READ_BIT(pll_config, RCC_PLLCFGR_PLLM)    != ((RCC_OscInitStruct->PLL.PLLM - 1U) << RCC_PLLCFGR_PLLM_Pos)) ||
 8001c84:	ebb2 2f01 	cmp.w	r2, r1, lsl #8
 8001c88:	d1e2      	bne.n	8001c50 <HAL_RCC_OscConfig+0x498>
         (READ_BIT(pll_config, RCC_PLLCFGR_PLLP)    != ((RCC_OscInitStruct->PLL.PLLP == RCC_PLLP_DIV7) ? 0U : 1U)) ||
 8001c8a:	f403 3100 	and.w	r1, r3, #131072	@ 0x20000
 8001c8e:	6ba2      	ldr	r2, [r4, #56]	@ 0x38
 8001c90:	3a07      	subs	r2, #7
 8001c92:	bf18      	it	ne
 8001c94:	2201      	movne	r2, #1
         (READ_BIT(pll_config, RCC_PLLCFGR_PLLN)    != (RCC_OscInitStruct->PLL.PLLN << RCC_PLLCFGR_PLLN_Pos)) ||
 8001c96:	4291      	cmp	r1, r2
 8001c98:	d1da      	bne.n	8001c50 <HAL_RCC_OscConfig+0x498>
         (READ_BIT(pll_config, RCC_PLLCFGR_PLLQ)    != ((((RCC_OscInitStruct->PLL.PLLQ) >> 1U) - 1U) << RCC_PLLCFGR_PLLQ_Pos)) ||
 8001c9a:	f403 01c0 	and.w	r1, r3, #6291456	@ 0x600000
 8001c9e:	6be2      	ldr	r2, [r4, #60]	@ 0x3c
 8001ca0:	0852      	lsrs	r2, r2, #1
 8001ca2:	3a01      	subs	r2, #1
         (READ_BIT(pll_config, RCC_PLLCFGR_PLLP)    != ((RCC_OscInitStruct->PLL.PLLP == RCC_PLLP_DIV7) ? 0U : 1U)) ||
 8001ca4:	ebb1 5f42 	cmp.w	r1, r2, lsl #21
 8001ca8:	d1d2      	bne.n	8001c50 <HAL_RCC_OscConfig+0x498>
         (READ_BIT(pll_config, RCC_PLLCFGR_PLLR)    != ((((RCC_OscInitStruct->PLL.PLLR) >> 1U) - 1U) << RCC_PLLCFGR_PLLR_Pos)))
 8001caa:	f003 63c0 	and.w	r3, r3, #100663296	@ 0x6000000
 8001cae:	6c22      	ldr	r2, [r4, #64]	@ 0x40
 8001cb0:	0852      	lsrs	r2, r2, #1
 8001cb2:	3a01      	subs	r2, #1
         (READ_BIT(pll_config, RCC_PLLCFGR_PLLQ)    != ((((RCC_OscInitStruct->PLL.PLLQ) >> 1U) - 1U) << RCC_PLLCFGR_PLLQ_Pos)) ||
 8001cb4:	ebb3 6f42 	cmp.w	r3, r2, lsl #25
 8001cb8:	d1ca      	bne.n	8001c50 <HAL_RCC_OscConfig+0x498>
        if(READ_BIT(RCC->CR, RCC_CR_PLLRDY) == 0U)
 8001cba:	4b03      	ldr	r3, [pc, #12]	@ (8001cc8 <HAL_RCC_OscConfig+0x510>)
 8001cbc:	681b      	ldr	r3, [r3, #0]
 8001cbe:	f013 7f00 	tst.w	r3, #33554432	@ 0x2000000
 8001cc2:	d04e      	beq.n	8001d62 <HAL_RCC_OscConfig+0x5aa>
  return HAL_OK;
 8001cc4:	2000      	movs	r0, #0
 8001cc6:	e078      	b.n	8001dba <HAL_RCC_OscConfig+0x602>
 8001cc8:	40021000 	.word	0x40021000
 8001ccc:	40007000 	.word	0x40007000
            __HAL_RCC_PLL_DISABLE();
 8001cd0:	4a3e      	ldr	r2, [pc, #248]	@ (8001dcc <HAL_RCC_OscConfig+0x614>)
 8001cd2:	6813      	ldr	r3, [r2, #0]
 8001cd4:	f023 7380 	bic.w	r3, r3, #16777216	@ 0x1000000
 8001cd8:	6013      	str	r3, [r2, #0]
            tickstart = HAL_GetTick();
 8001cda:	f7fe fe3f 	bl	800095c <HAL_GetTick>
 8001cde:	4605      	mov	r5, r0
            while(READ_BIT(RCC->CR, RCC_CR_PLLRDY) != 0U)
 8001ce0:	4b3a      	ldr	r3, [pc, #232]	@ (8001dcc <HAL_RCC_OscConfig+0x614>)
 8001ce2:	681b      	ldr	r3, [r3, #0]
 8001ce4:	f013 7f00 	tst.w	r3, #33554432	@ 0x2000000
 8001ce8:	d006      	beq.n	8001cf8 <HAL_RCC_OscConfig+0x540>
              if((HAL_GetTick() - tickstart) > PLL_TIMEOUT_VALUE)
 8001cea:	f7fe fe37 	bl	800095c <HAL_GetTick>
 8001cee:	1b40      	subs	r0, r0, r5
 8001cf0:	2802      	cmp	r0, #2
 8001cf2:	d9f5      	bls.n	8001ce0 <HAL_RCC_OscConfig+0x528>
                return HAL_TIMEOUT;
 8001cf4:	2003      	movs	r0, #3
 8001cf6:	e060      	b.n	8001dba <HAL_RCC_OscConfig+0x602>
            __HAL_RCC_PLL_CONFIG(RCC_OscInitStruct->PLL.PLLSource,
 8001cf8:	4a34      	ldr	r2, [pc, #208]	@ (8001dcc <HAL_RCC_OscConfig+0x614>)
 8001cfa:	68d3      	ldr	r3, [r2, #12]
 8001cfc:	4934      	ldr	r1, [pc, #208]	@ (8001dd0 <HAL_RCC_OscConfig+0x618>)
 8001cfe:	4019      	ands	r1, r3
 8001d00:	6ae3      	ldr	r3, [r4, #44]	@ 0x2c
 8001d02:	6b20      	ldr	r0, [r4, #48]	@ 0x30
 8001d04:	3801      	subs	r0, #1
 8001d06:	ea43 1300 	orr.w	r3, r3, r0, lsl #4
 8001d0a:	6b60      	ldr	r0, [r4, #52]	@ 0x34
 8001d0c:	ea43 2300 	orr.w	r3, r3, r0, lsl #8
 8001d10:	6be0      	ldr	r0, [r4, #60]	@ 0x3c
 8001d12:	0840      	lsrs	r0, r0, #1
 8001d14:	3801      	subs	r0, #1
 8001d16:	ea43 5340 	orr.w	r3, r3, r0, lsl #21
 8001d1a:	6c20      	ldr	r0, [r4, #64]	@ 0x40
 8001d1c:	0840      	lsrs	r0, r0, #1
 8001d1e:	3801      	subs	r0, #1
 8001d20:	ea43 6340 	orr.w	r3, r3, r0, lsl #25
 8001d24:	6ba0      	ldr	r0, [r4, #56]	@ 0x38
 8001d26:	0900      	lsrs	r0, r0, #4
 8001d28:	ea43 4340 	orr.w	r3, r3, r0, lsl #17
 8001d2c:	4319      	orrs	r1, r3
 8001d2e:	60d1      	str	r1, [r2, #12]
            __HAL_RCC_PLL_ENABLE();
 8001d30:	6813      	ldr	r3, [r2, #0]
 8001d32:	f043 7380 	orr.w	r3, r3, #16777216	@ 0x1000000
 8001d36:	6013      	str	r3, [r2, #0]
            __HAL_RCC_PLLCLKOUT_ENABLE(RCC_PLL_SYSCLK);
 8001d38:	68d3      	ldr	r3, [r2, #12]
 8001d3a:	f043 7380 	orr.w	r3, r3, #16777216	@ 0x1000000
 8001d3e:	60d3      	str	r3, [r2, #12]
            tickstart = HAL_GetTick();
 8001d40:	f7fe fe0c 	bl	800095c <HAL_GetTick>
 8001d44:	4604      	mov	r4, r0
            while(READ_BIT(RCC->CR, RCC_CR_PLLRDY) == 0U)
 8001d46:	4b21      	ldr	r3, [pc, #132]	@ (8001dcc <HAL_RCC_OscConfig+0x614>)
 8001d48:	681b      	ldr	r3, [r3, #0]
 8001d4a:	f013 7f00 	tst.w	r3, #33554432	@ 0x2000000
 8001d4e:	d106      	bne.n	8001d5e <HAL_RCC_OscConfig+0x5a6>
              if((HAL_GetTick() - tickstart) > PLL_TIMEOUT_VALUE)
 8001d50:	f7fe fe04 	bl	800095c <HAL_GetTick>
 8001d54:	1b00      	subs	r0, r0, r4
 8001d56:	2802      	cmp	r0, #2
 8001d58:	d9f5      	bls.n	8001d46 <HAL_RCC_OscConfig+0x58e>
                return HAL_TIMEOUT;
 8001d5a:	2003      	movs	r0, #3
 8001d5c:	e02d      	b.n	8001dba <HAL_RCC_OscConfig+0x602>
  return HAL_OK;
 8001d5e:	2000      	movs	r0, #0
 8001d60:	e02b      	b.n	8001dba <HAL_RCC_OscConfig+0x602>
          __HAL_RCC_PLL_ENABLE();
 8001d62:	4b1a      	ldr	r3, [pc, #104]	@ (8001dcc <HAL_RCC_OscConfig+0x614>)
 8001d64:	681a      	ldr	r2, [r3, #0]
 8001d66:	f042 7280 	orr.w	r2, r2, #16777216	@ 0x1000000
 8001d6a:	601a      	str	r2, [r3, #0]
          __HAL_RCC_PLLCLKOUT_ENABLE(RCC_PLL_SYSCLK);
 8001d6c:	68da      	ldr	r2, [r3, #12]
 8001d6e:	f042 7280 	orr.w	r2, r2, #16777216	@ 0x1000000
 8001d72:	60da      	str	r2, [r3, #12]
          tickstart = HAL_GetTick();
 8001d74:	f7fe fdf2 	bl	800095c <HAL_GetTick>
 8001d78:	4604      	mov	r4, r0
          while(READ_BIT(RCC->CR, RCC_CR_PLLRDY) == 0U)
 8001d7a:	4b14      	ldr	r3, [pc, #80]	@ (8001dcc <HAL_RCC_OscConfig+0x614>)
 8001d7c:	681b      	ldr	r3, [r3, #0]
 8001d7e:	f013 7f00 	tst.w	r3, #33554432	@ 0x2000000
 8001d82:	d106      	bne.n	8001d92 <HAL_RCC_OscConfig+0x5da>
            if((HAL_GetTick() - tickstart) > PLL_TIMEOUT_VALUE)
 8001d84:	f7fe fdea 	bl	800095c <HAL_GetTick>
 8001d88:	1b03      	subs	r3, r0, r4
 8001d8a:	2b02      	cmp	r3, #2
 8001d8c:	d9f5      	bls.n	8001d7a <HAL_RCC_OscConfig+0x5c2>
              return HAL_TIMEOUT;
 8001d8e:	2003      	movs	r0, #3
 8001d90:	e013      	b.n	8001dba <HAL_RCC_OscConfig+0x602>
  return HAL_OK;
 8001d92:	2000      	movs	r0, #0
 8001d94:	e011      	b.n	8001dba <HAL_RCC_OscConfig+0x602>
        RCC->PLLCFGR &= ~(RCC_PLLCFGR_PLLSRC | RCC_PLL_SYSCLK | RCC_PLL_48M1CLK | RCC_PLL_SAI3CLK);
 8001d96:	4a0d      	ldr	r2, [pc, #52]	@ (8001dcc <HAL_RCC_OscConfig+0x614>)
 8001d98:	68d1      	ldr	r1, [r2, #12]
 8001d9a:	4b0e      	ldr	r3, [pc, #56]	@ (8001dd4 <HAL_RCC_OscConfig+0x61c>)
 8001d9c:	400b      	ands	r3, r1
 8001d9e:	60d3      	str	r3, [r2, #12]
  return HAL_OK;
 8001da0:	2000      	movs	r0, #0
 8001da2:	e00a      	b.n	8001dba <HAL_RCC_OscConfig+0x602>
    return HAL_ERROR;
 8001da4:	2001      	movs	r0, #1
}
 8001da6:	4770      	bx	lr
        return HAL_ERROR;
 8001da8:	2001      	movs	r0, #1
 8001daa:	e006      	b.n	8001dba <HAL_RCC_OscConfig+0x602>
            return HAL_ERROR;
 8001dac:	2001      	movs	r0, #1
 8001dae:	e004      	b.n	8001dba <HAL_RCC_OscConfig+0x602>
        return HAL_ERROR;
 8001db0:	2001      	movs	r0, #1
 8001db2:	e002      	b.n	8001dba <HAL_RCC_OscConfig+0x602>
        return HAL_ERROR;
 8001db4:	2001      	movs	r0, #1
 8001db6:	e000      	b.n	8001dba <HAL_RCC_OscConfig+0x602>
  return HAL_OK;
 8001db8:	4618      	mov	r0, r3
}
 8001dba:	b003      	add	sp, #12
 8001dbc:	bdf0      	pop	{r4, r5, r6, r7, pc}
          return HAL_ERROR;
 8001dbe:	2001      	movs	r0, #1
 8001dc0:	e7fb      	b.n	8001dba <HAL_RCC_OscConfig+0x602>
            return HAL_ERROR;
 8001dc2:	2001      	movs	r0, #1
 8001dc4:	e7f9      	b.n	8001dba <HAL_RCC_OscConfig+0x602>
        return HAL_ERROR;
 8001dc6:	2001      	movs	r0, #1
 8001dc8:	e7f7      	b.n	8001dba <HAL_RCC_OscConfig+0x602>
 8001dca:	bf00      	nop
 8001dcc:	40021000 	.word	0x40021000
 8001dd0:	f99d808c 	.word	0xf99d808c
 8001dd4:	feeefffc 	.word	0xfeeefffc

08001dd8 <HAL_RCC_ClockConfig>:
  if(RCC_ClkInitStruct == NULL)
 8001dd8:	2800      	cmp	r0, #0
 8001dda:	f000 80af 	beq.w	8001f3c <HAL_RCC_ClockConfig+0x164>
{
 8001dde:	b570      	push	{r4, r5, r6, lr}
 8001de0:	460d      	mov	r5, r1
 8001de2:	4604      	mov	r4, r0
  if(FLatency > __HAL_FLASH_GET_LATENCY())
 8001de4:	4b59      	ldr	r3, [pc, #356]	@ (8001f4c <HAL_RCC_ClockConfig+0x174>)
 8001de6:	681b      	ldr	r3, [r3, #0]
 8001de8:	f003 0307 	and.w	r3, r3, #7
 8001dec:	428b      	cmp	r3, r1
 8001dee:	d20b      	bcs.n	8001e08 <HAL_RCC_ClockConfig+0x30>
    __HAL_FLASH_SET_LATENCY(FLatency);
 8001df0:	4a56      	ldr	r2, [pc, #344]	@ (8001f4c <HAL_RCC_ClockConfig+0x174>)
 8001df2:	6813      	ldr	r3, [r2, #0]
 8001df4:	f023 0307 	bic.w	r3, r3, #7
 8001df8:	430b      	orrs	r3, r1
 8001dfa:	6013      	str	r3, [r2, #0]
    if(__HAL_FLASH_GET_LATENCY() != FLatency)
 8001dfc:	6813      	ldr	r3, [r2, #0]
 8001dfe:	f003 0307 	and.w	r3, r3, #7
 8001e02:	428b      	cmp	r3, r1
 8001e04:	f040 809c 	bne.w	8001f40 <HAL_RCC_ClockConfig+0x168>
  if(((RCC_ClkInitStruct->ClockType) & RCC_CLOCKTYPE_HCLK) == RCC_CLOCKTYPE_HCLK)
 8001e08:	6823      	ldr	r3, [r4, #0]
 8001e0a:	f013 0f02 	tst.w	r3, #2
 8001e0e:	d00c      	beq.n	8001e2a <HAL_RCC_ClockConfig+0x52>
    if(RCC_ClkInitStruct->AHBCLKDivider > READ_BIT(RCC->CFGR, RCC_CFGR_HPRE))
 8001e10:	68a2      	ldr	r2, [r4, #8]
 8001e12:	4b4f      	ldr	r3, [pc, #316]	@ (8001f50 <HAL_RCC_ClockConfig+0x178>)
 8001e14:	689b      	ldr	r3, [r3, #8]
 8001e16:	f003 03f0 	and.w	r3, r3, #240	@ 0xf0
 8001e1a:	429a      	cmp	r2, r3
 8001e1c:	d905      	bls.n	8001e2a <HAL_RCC_ClockConfig+0x52>
      MODIFY_REG(RCC->CFGR, RCC_CFGR_HPRE, RCC_ClkInitStruct->AHBCLKDivider);
 8001e1e:	494c      	ldr	r1, [pc, #304]	@ (8001f50 <HAL_RCC_ClockConfig+0x178>)
 8001e20:	688b      	ldr	r3, [r1, #8]
 8001e22:	f023 03f0 	bic.w	r3, r3, #240	@ 0xf0
 8001e26:	431a      	orrs	r2, r3
 8001e28:	608a      	str	r2, [r1, #8]
  if(((RCC_ClkInitStruct->ClockType) & RCC_CLOCKTYPE_SYSCLK) == RCC_CLOCKTYPE_SYSCLK)
 8001e2a:	6823      	ldr	r3, [r4, #0]
 8001e2c:	f013 0f01 	tst.w	r3, #1
 8001e30:	d039      	beq.n	8001ea6 <HAL_RCC_ClockConfig+0xce>
    if(RCC_ClkInitStruct->SYSCLKSource == RCC_SYSCLKSOURCE_PLLCLK)
 8001e32:	6863      	ldr	r3, [r4, #4]
 8001e34:	2b03      	cmp	r3, #3
 8001e36:	d009      	beq.n	8001e4c <HAL_RCC_ClockConfig+0x74>
      if(RCC_ClkInitStruct->SYSCLKSource == RCC_SYSCLKSOURCE_HSE)
 8001e38:	2b02      	cmp	r3, #2
 8001e3a:	d026      	beq.n	8001e8a <HAL_RCC_ClockConfig+0xb2>
      else if(RCC_ClkInitStruct->SYSCLKSource == RCC_SYSCLKSOURCE_MSI)
 8001e3c:	bb63      	cbnz	r3, 8001e98 <HAL_RCC_ClockConfig+0xc0>
        if(READ_BIT(RCC->CR, RCC_CR_MSIRDY) == 0U)
 8001e3e:	4a44      	ldr	r2, [pc, #272]	@ (8001f50 <HAL_RCC_ClockConfig+0x178>)
 8001e40:	6812      	ldr	r2, [r2, #0]
 8001e42:	f012 0f02 	tst.w	r2, #2
 8001e46:	d106      	bne.n	8001e56 <HAL_RCC_ClockConfig+0x7e>
          return HAL_ERROR;
 8001e48:	2001      	movs	r0, #1
 8001e4a:	e076      	b.n	8001f3a <HAL_RCC_ClockConfig+0x162>
      if(READ_BIT(RCC->CR, RCC_CR_PLLRDY) == 0U)
 8001e4c:	4a40      	ldr	r2, [pc, #256]	@ (8001f50 <HAL_RCC_ClockConfig+0x178>)
 8001e4e:	6812      	ldr	r2, [r2, #0]
 8001e50:	f012 7f00 	tst.w	r2, #33554432	@ 0x2000000
 8001e54:	d076      	beq.n	8001f44 <HAL_RCC_ClockConfig+0x16c>
    MODIFY_REG(RCC->CFGR, RCC_CFGR_SW, RCC_ClkInitStruct->SYSCLKSource);
 8001e56:	493e      	ldr	r1, [pc, #248]	@ (8001f50 <HAL_RCC_ClockConfig+0x178>)
 8001e58:	688a      	ldr	r2, [r1, #8]
 8001e5a:	f022 0203 	bic.w	r2, r2, #3
 8001e5e:	4313      	orrs	r3, r2
 8001e60:	608b      	str	r3, [r1, #8]
    tickstart = HAL_GetTick();
 8001e62:	f7fe fd7b 	bl	800095c <HAL_GetTick>
 8001e66:	4606      	mov	r6, r0
    while(__HAL_RCC_GET_SYSCLK_SOURCE() != (RCC_ClkInitStruct->SYSCLKSource << RCC_CFGR_SWS_Pos))
 8001e68:	4b39      	ldr	r3, [pc, #228]	@ (8001f50 <HAL_RCC_ClockConfig+0x178>)
 8001e6a:	689b      	ldr	r3, [r3, #8]
 8001e6c:	f003 030c 	and.w	r3, r3, #12
 8001e70:	6862      	ldr	r2, [r4, #4]
 8001e72:	ebb3 0f82 	cmp.w	r3, r2, lsl #2
 8001e76:	d016      	beq.n	8001ea6 <HAL_RCC_ClockConfig+0xce>
      if((HAL_GetTick() - tickstart) > CLOCKSWITCH_TIMEOUT_VALUE)
 8001e78:	f7fe fd70 	bl	800095c <HAL_GetTick>
 8001e7c:	1b80      	subs	r0, r0, r6
 8001e7e:	f241 3388 	movw	r3, #5000	@ 0x1388
 8001e82:	4298      	cmp	r0, r3
 8001e84:	d9f0      	bls.n	8001e68 <HAL_RCC_ClockConfig+0x90>
        return HAL_TIMEOUT;
 8001e86:	2003      	movs	r0, #3
 8001e88:	e057      	b.n	8001f3a <HAL_RCC_ClockConfig+0x162>
        if(READ_BIT(RCC->CR, RCC_CR_HSERDY) == 0U)
 8001e8a:	4a31      	ldr	r2, [pc, #196]	@ (8001f50 <HAL_RCC_ClockConfig+0x178>)
 8001e8c:	6812      	ldr	r2, [r2, #0]
 8001e8e:	f412 3f00 	tst.w	r2, #131072	@ 0x20000
 8001e92:	d1e0      	bne.n	8001e56 <HAL_RCC_ClockConfig+0x7e>
          return HAL_ERROR;
 8001e94:	2001      	movs	r0, #1
 8001e96:	e050      	b.n	8001f3a <HAL_RCC_ClockConfig+0x162>
        if(READ_BIT(RCC->CR, RCC_CR_HSIRDY) == 0U)
 8001e98:	4a2d      	ldr	r2, [pc, #180]	@ (8001f50 <HAL_RCC_ClockConfig+0x178>)
 8001e9a:	6812      	ldr	r2, [r2, #0]
 8001e9c:	f412 6f80 	tst.w	r2, #1024	@ 0x400
 8001ea0:	d1d9      	bne.n	8001e56 <HAL_RCC_ClockConfig+0x7e>
          return HAL_ERROR;
 8001ea2:	2001      	movs	r0, #1
 8001ea4:	e049      	b.n	8001f3a <HAL_RCC_ClockConfig+0x162>
  if(((RCC_ClkInitStruct->ClockType) & RCC_CLOCKTYPE_HCLK) == RCC_CLOCKTYPE_HCLK)
 8001ea6:	6823      	ldr	r3, [r4, #0]
 8001ea8:	f013 0f02 	tst.w	r3, #2
 8001eac:	d00c      	beq.n	8001ec8 <HAL_RCC_ClockConfig+0xf0>
    if(RCC_ClkInitStruct->AHBCLKDivider < READ_BIT(RCC->CFGR, RCC_CFGR_HPRE))
 8001eae:	68a2      	ldr	r2, [r4, #8]
 8001eb0:	4b27      	ldr	r3, [pc, #156]	@ (8001f50 <HAL_RCC_ClockConfig+0x178>)
 8001eb2:	689b      	ldr	r3, [r3, #8]
 8001eb4:	f003 03f0 	and.w	r3, r3, #240	@ 0xf0
 8001eb8:	429a      	cmp	r2, r3
 8001eba:	d205      	bcs.n	8001ec8 <HAL_RCC_ClockConfig+0xf0>
      MODIFY_REG(RCC->CFGR, RCC_CFGR_HPRE, RCC_ClkInitStruct->AHBCLKDivider);
 8001ebc:	4924      	ldr	r1, [pc, #144]	@ (8001f50 <HAL_RCC_ClockConfig+0x178>)
 8001ebe:	688b      	ldr	r3, [r1, #8]
 8001ec0:	f023 03f0 	bic.w	r3, r3, #240	@ 0xf0
 8001ec4:	431a      	orrs	r2, r3
 8001ec6:	608a      	str	r2, [r1, #8]
  if(FLatency < __HAL_FLASH_GET_LATENCY())
 8001ec8:	4b20      	ldr	r3, [pc, #128]	@ (8001f4c <HAL_RCC_ClockConfig+0x174>)
 8001eca:	681b      	ldr	r3, [r3, #0]
 8001ecc:	f003 0307 	and.w	r3, r3, #7
 8001ed0:	42ab      	cmp	r3, r5
 8001ed2:	d90a      	bls.n	8001eea <HAL_RCC_ClockConfig+0x112>
    __HAL_FLASH_SET_LATENCY(FLatency);
 8001ed4:	4a1d      	ldr	r2, [pc, #116]	@ (8001f4c <HAL_RCC_ClockConfig+0x174>)
 8001ed6:	6813      	ldr	r3, [r2, #0]
 8001ed8:	f023 0307 	bic.w	r3, r3, #7
 8001edc:	432b      	orrs	r3, r5
 8001ede:	6013      	str	r3, [r2, #0]
    if(__HAL_FLASH_GET_LATENCY() != FLatency)
 8001ee0:	6813      	ldr	r3, [r2, #0]
 8001ee2:	f003 0307 	and.w	r3, r3, #7
 8001ee6:	42ab      	cmp	r3, r5
 8001ee8:	d12e      	bne.n	8001f48 <HAL_RCC_ClockConfig+0x170>
  if(((RCC_ClkInitStruct->ClockType) & RCC_CLOCKTYPE_PCLK1) == RCC_CLOCKTYPE_PCLK1)
 8001eea:	6823      	ldr	r3, [r4, #0]
 8001eec:	f013 0f04 	tst.w	r3, #4
 8001ef0:	d006      	beq.n	8001f00 <HAL_RCC_ClockConfig+0x128>
    MODIFY_REG(RCC->CFGR, RCC_CFGR_PPRE1, RCC_ClkInitStruct->APB1CLKDivider);
 8001ef2:	4a17      	ldr	r2, [pc, #92]	@ (8001f50 <HAL_RCC_ClockConfig+0x178>)
 8001ef4:	6893      	ldr	r3, [r2, #8]
 8001ef6:	f423 63e0 	bic.w	r3, r3, #1792	@ 0x700
 8001efa:	68e1      	ldr	r1, [r4, #12]
 8001efc:	430b      	orrs	r3, r1
 8001efe:	6093      	str	r3, [r2, #8]
  if(((RCC_ClkInitStruct->ClockType) & RCC_CLOCKTYPE_PCLK2) == RCC_CLOCKTYPE_PCLK2)
 8001f00:	6823      	ldr	r3, [r4, #0]
 8001f02:	f013 0f08 	tst.w	r3, #8
 8001f06:	d007      	beq.n	8001f18 <HAL_RCC_ClockConfig+0x140>
    MODIFY_REG(RCC->CFGR, RCC_CFGR_PPRE2, ((RCC_ClkInitStruct->APB2CLKDivider) << 3U));
 8001f08:	4a11      	ldr	r2, [pc, #68]	@ (8001f50 <HAL_RCC_ClockConfig+0x178>)
 8001f0a:	6893      	ldr	r3, [r2, #8]
 8001f0c:	f423 5360 	bic.w	r3, r3, #14336	@ 0x3800
 8001f10:	6921      	ldr	r1, [r4, #16]
 8001f12:	ea43 03c1 	orr.w	r3, r3, r1, lsl #3
 8001f16:	6093      	str	r3, [r2, #8]
  SystemCoreClock = HAL_RCC_GetSysClockFreq() >> (AHBPrescTable[READ_BIT(RCC->CFGR, RCC_CFGR_HPRE) >> RCC_CFGR_HPRE_Pos] & 0x1FU);
 8001f18:	f7ff fbfa 	bl	8001710 <HAL_RCC_GetSysClockFreq>
 8001f1c:	4b0c      	ldr	r3, [pc, #48]	@ (8001f50 <HAL_RCC_ClockConfig+0x178>)
 8001f1e:	689b      	ldr	r3, [r3, #8]
 8001f20:	f3c3 1303 	ubfx	r3, r3, #4, #4
 8001f24:	4a0b      	ldr	r2, [pc, #44]	@ (8001f54 <HAL_RCC_ClockConfig+0x17c>)
 8001f26:	5cd3      	ldrb	r3, [r2, r3]
 8001f28:	f003 031f 	and.w	r3, r3, #31
 8001f2c:	40d8      	lsrs	r0, r3
 8001f2e:	4b0a      	ldr	r3, [pc, #40]	@ (8001f58 <HAL_RCC_ClockConfig+0x180>)
 8001f30:	6018      	str	r0, [r3, #0]
  status = HAL_InitTick(uwTickPrio);
 8001f32:	4b0a      	ldr	r3, [pc, #40]	@ (8001f5c <HAL_RCC_ClockConfig+0x184>)
 8001f34:	6818      	ldr	r0, [r3, #0]
 8001f36:	f7fe fccd 	bl	80008d4 <HAL_InitTick>
}
 8001f3a:	bd70      	pop	{r4, r5, r6, pc}
    return HAL_ERROR;
 8001f3c:	2001      	movs	r0, #1
}
 8001f3e:	4770      	bx	lr
      return HAL_ERROR;
 8001f40:	2001      	movs	r0, #1
 8001f42:	e7fa      	b.n	8001f3a <HAL_RCC_ClockConfig+0x162>
        return HAL_ERROR;
 8001f44:	2001      	movs	r0, #1
 8001f46:	e7f8      	b.n	8001f3a <HAL_RCC_ClockConfig+0x162>
      return HAL_ERROR;
 8001f48:	2001      	movs	r0, #1
 8001f4a:	e7f6      	b.n	8001f3a <HAL_RCC_ClockConfig+0x162>
 8001f4c:	40022000 	.word	0x40022000
 8001f50:	40021000 	.word	0x40021000
 8001f54:	0800500c 	.word	0x0800500c
 8001f58:	20000008 	.word	0x20000008
 8001f5c:	20000004 	.word	0x20000004

08001f60 <HAL_RCC_GetHCLKFreq>:
}
 8001f60:	4b01      	ldr	r3, [pc, #4]	@ (8001f68 <HAL_RCC_GetHCLKFreq+0x8>)
 8001f62:	6818      	ldr	r0, [r3, #0]
 8001f64:	4770      	bx	lr
 8001f66:	bf00      	nop
 8001f68:	20000008 	.word	0x20000008

08001f6c <HAL_RCC_GetPCLK1Freq>:
{
 8001f6c:	b508      	push	{r3, lr}
  return (HAL_RCC_GetHCLKFreq() >> (APBPrescTable[READ_BIT(RCC->CFGR, RCC_CFGR_PPRE1) >> RCC_CFGR_PPRE1_Pos] & 0x1FU));
 8001f6e:	f7ff fff7 	bl	8001f60 <HAL_RCC_GetHCLKFreq>
 8001f72:	4b05      	ldr	r3, [pc, #20]	@ (8001f88 <HAL_RCC_GetPCLK1Freq+0x1c>)
 8001f74:	689b      	ldr	r3, [r3, #8]
 8001f76:	f3c3 2302 	ubfx	r3, r3, #8, #3
 8001f7a:	4a04      	ldr	r2, [pc, #16]	@ (8001f8c <HAL_RCC_GetPCLK1Freq+0x20>)
 8001f7c:	5cd3      	ldrb	r3, [r2, r3]
 8001f7e:	f003 031f 	and.w	r3, r3, #31
}
 8001f82:	40d8      	lsrs	r0, r3
 8001f84:	bd08      	pop	{r3, pc}
 8001f86:	bf00      	nop
 8001f88:	40021000 	.word	0x40021000
 8001f8c:	08005004 	.word	0x08005004

08001f90 <HAL_RCC_GetPCLK2Freq>:
{
 8001f90:	b508      	push	{r3, lr}
  return (HAL_RCC_GetHCLKFreq()>> (APBPrescTable[READ_BIT(RCC->CFGR, RCC_CFGR_PPRE2) >> RCC_CFGR_PPRE2_Pos] & 0x1FU));
 8001f92:	f7ff ffe5 	bl	8001f60 <HAL_RCC_GetHCLKFreq>
 8001f96:	4b05      	ldr	r3, [pc, #20]	@ (8001fac <HAL_RCC_GetPCLK2Freq+0x1c>)
 8001f98:	689b      	ldr	r3, [r3, #8]
 8001f9a:	f3c3 23c2 	ubfx	r3, r3, #11, #3
 8001f9e:	4a04      	ldr	r2, [pc, #16]	@ (8001fb0 <HAL_RCC_GetPCLK2Freq+0x20>)
 8001fa0:	5cd3      	ldrb	r3, [r2, r3]
 8001fa2:	f003 031f 	and.w	r3, r3, #31
}
 8001fa6:	40d8      	lsrs	r0, r3
 8001fa8:	bd08      	pop	{r3, pc}
 8001faa:	bf00      	nop
 8001fac:	40021000 	.word	0x40021000
 8001fb0:	08005004 	.word	0x08005004

08001fb4 <RCCEx_PLLSAI1_Config>:
  * @note   PLLSAI1 is temporary disable to apply new parameters
  *
  * @retval HAL status
  */
static HAL_StatusTypeDef RCCEx_PLLSAI1_Config(RCC_PLLSAI1InitTypeDef *PllSai1, uint32_t Divider)
{
 8001fb4:	b5f8      	push	{r3, r4, r5, r6, r7, lr}
 8001fb6:	4604      	mov	r4, r0
 8001fb8:	460f      	mov	r7, r1
  assert_param(IS_RCC_PLLSAI1M_VALUE(PllSai1->PLLSAI1M));
  assert_param(IS_RCC_PLLSAI1N_VALUE(PllSai1->PLLSAI1N));
  assert_param(IS_RCC_PLLSAI1CLOCKOUT_VALUE(PllSai1->PLLSAI1ClockOut));

  /* Check that PLLSAI1 clock source and divider M can be applied */
  if(__HAL_RCC_GET_PLL_OSCSOURCE() != RCC_PLLSOURCE_NONE)
 8001fba:	4b5f      	ldr	r3, [pc, #380]	@ (8002138 <RCCEx_PLLSAI1_Config+0x184>)
 8001fbc:	68db      	ldr	r3, [r3, #12]
 8001fbe:	f013 0f03 	tst.w	r3, #3
 8001fc2:	d01b      	beq.n	8001ffc <RCCEx_PLLSAI1_Config+0x48>
  {
    /* PLL clock source and divider M already set, check that no request for change  */
    if((__HAL_RCC_GET_PLL_OSCSOURCE() != PllSai1->PLLSAI1Source)
 8001fc4:	4b5c      	ldr	r3, [pc, #368]	@ (8002138 <RCCEx_PLLSAI1_Config+0x184>)
 8001fc6:	68db      	ldr	r3, [r3, #12]
 8001fc8:	f003 0303 	and.w	r3, r3, #3
 8001fcc:	6802      	ldr	r2, [r0, #0]
 8001fce:	4293      	cmp	r3, r2
 8001fd0:	d003      	beq.n	8001fda <RCCEx_PLLSAI1_Config+0x26>
       ||
       (((READ_BIT(RCC->PLLCFGR, RCC_PLLCFGR_PLLM) >> RCC_PLLCFGR_PLLM_Pos) + 1U) != PllSai1->PLLSAI1M)
#endif
      )
    {
      status = HAL_ERROR;
 8001fd2:	2301      	movs	r3, #1
 8001fd4:	461d      	mov	r5, r3
      }
    }
  }

  return status;
}
 8001fd6:	4628      	mov	r0, r5
 8001fd8:	bdf8      	pop	{r3, r4, r5, r6, r7, pc}
       ||
 8001fda:	2a00      	cmp	r2, #0
 8001fdc:	f000 80a5 	beq.w	800212a <RCCEx_PLLSAI1_Config+0x176>
       (((READ_BIT(RCC->PLLCFGR, RCC_PLLCFGR_PLLM) >> RCC_PLLCFGR_PLLM_Pos) + 1U) != PllSai1->PLLSAI1M)
 8001fe0:	4b55      	ldr	r3, [pc, #340]	@ (8002138 <RCCEx_PLLSAI1_Config+0x184>)
 8001fe2:	68db      	ldr	r3, [r3, #12]
 8001fe4:	f3c3 1302 	ubfx	r3, r3, #4, #3
 8001fe8:	3301      	adds	r3, #1
 8001fea:	6842      	ldr	r2, [r0, #4]
       ||
 8001fec:	4293      	cmp	r3, r2
 8001fee:	d002      	beq.n	8001ff6 <RCCEx_PLLSAI1_Config+0x42>
      status = HAL_ERROR;
 8001ff0:	2301      	movs	r3, #1
 8001ff2:	461d      	mov	r5, r3
 8001ff4:	e7ef      	b.n	8001fd6 <RCCEx_PLLSAI1_Config+0x22>
  HAL_StatusTypeDef status = HAL_OK;
 8001ff6:	2300      	movs	r3, #0
 8001ff8:	461d      	mov	r5, r3
 8001ffa:	e01a      	b.n	8002032 <RCCEx_PLLSAI1_Config+0x7e>
    switch(PllSai1->PLLSAI1Source)
 8001ffc:	6803      	ldr	r3, [r0, #0]
 8001ffe:	2b02      	cmp	r3, #2
 8002000:	d059      	beq.n	80020b6 <RCCEx_PLLSAI1_Config+0x102>
 8002002:	2b03      	cmp	r3, #3
 8002004:	d05f      	beq.n	80020c6 <RCCEx_PLLSAI1_Config+0x112>
 8002006:	2b01      	cmp	r3, #1
 8002008:	f040 8092 	bne.w	8002130 <RCCEx_PLLSAI1_Config+0x17c>
      if(HAL_IS_BIT_CLR(RCC->CR, RCC_CR_MSIRDY))
 800200c:	4a4a      	ldr	r2, [pc, #296]	@ (8002138 <RCCEx_PLLSAI1_Config+0x184>)
 800200e:	6812      	ldr	r2, [r2, #0]
 8002010:	f012 0f02 	tst.w	r2, #2
 8002014:	d064      	beq.n	80020e0 <RCCEx_PLLSAI1_Config+0x12c>
      MODIFY_REG(RCC->PLLCFGR, RCC_PLLCFGR_PLLSRC | RCC_PLLCFGR_PLLM, PllSai1->PLLSAI1Source | (PllSai1->PLLSAI1M - 1U) << RCC_PLLCFGR_PLLM_Pos);
 8002016:	4848      	ldr	r0, [pc, #288]	@ (8002138 <RCCEx_PLLSAI1_Config+0x184>)
 8002018:	68c2      	ldr	r2, [r0, #12]
 800201a:	f022 0273 	bic.w	r2, r2, #115	@ 0x73
 800201e:	6861      	ldr	r1, [r4, #4]
 8002020:	3901      	subs	r1, #1
 8002022:	ea43 1301 	orr.w	r3, r3, r1, lsl #4
 8002026:	4313      	orrs	r3, r2
 8002028:	60c3      	str	r3, [r0, #12]
 800202a:	2300      	movs	r3, #0
 800202c:	461d      	mov	r5, r3
  if(status == HAL_OK)
 800202e:	2d00      	cmp	r5, #0
 8002030:	d1d1      	bne.n	8001fd6 <RCCEx_PLLSAI1_Config+0x22>
    __HAL_RCC_PLLSAI1_DISABLE();
 8002032:	4a41      	ldr	r2, [pc, #260]	@ (8002138 <RCCEx_PLLSAI1_Config+0x184>)
 8002034:	6813      	ldr	r3, [r2, #0]
 8002036:	f023 6380 	bic.w	r3, r3, #67108864	@ 0x4000000
 800203a:	6013      	str	r3, [r2, #0]
    tickstart = HAL_GetTick();
 800203c:	f7fe fc8e 	bl	800095c <HAL_GetTick>
 8002040:	4606      	mov	r6, r0
    while(READ_BIT(RCC->CR, RCC_CR_PLLSAI1RDY) != 0U)
 8002042:	4b3d      	ldr	r3, [pc, #244]	@ (8002138 <RCCEx_PLLSAI1_Config+0x184>)
 8002044:	681b      	ldr	r3, [r3, #0]
 8002046:	f013 6f00 	tst.w	r3, #134217728	@ 0x8000000
 800204a:	d006      	beq.n	800205a <RCCEx_PLLSAI1_Config+0xa6>
      if((HAL_GetTick() - tickstart) > PLLSAI1_TIMEOUT_VALUE)
 800204c:	f7fe fc86 	bl	800095c <HAL_GetTick>
 8002050:	1b83      	subs	r3, r0, r6
 8002052:	2b02      	cmp	r3, #2
 8002054:	d9f5      	bls.n	8002042 <RCCEx_PLLSAI1_Config+0x8e>
        status = HAL_TIMEOUT;
 8002056:	2303      	movs	r3, #3
 8002058:	461d      	mov	r5, r3
    if(status == HAL_OK)
 800205a:	2d00      	cmp	r5, #0
 800205c:	d1bb      	bne.n	8001fd6 <RCCEx_PLLSAI1_Config+0x22>
      if(Divider == DIVIDER_P_UPDATE)
 800205e:	2f00      	cmp	r7, #0
 8002060:	d141      	bne.n	80020e6 <RCCEx_PLLSAI1_Config+0x132>
        MODIFY_REG(RCC->PLLSAI1CFGR,
 8002062:	4935      	ldr	r1, [pc, #212]	@ (8002138 <RCCEx_PLLSAI1_Config+0x184>)
 8002064:	690b      	ldr	r3, [r1, #16]
 8002066:	f423 331f 	bic.w	r3, r3, #162816	@ 0x27c00
 800206a:	f423 7340 	bic.w	r3, r3, #768	@ 0x300
 800206e:	68a0      	ldr	r0, [r4, #8]
 8002070:	68e2      	ldr	r2, [r4, #12]
 8002072:	0912      	lsrs	r2, r2, #4
 8002074:	0452      	lsls	r2, r2, #17
 8002076:	ea42 2200 	orr.w	r2, r2, r0, lsl #8
 800207a:	4313      	orrs	r3, r2
 800207c:	610b      	str	r3, [r1, #16]
      __HAL_RCC_PLLSAI1_ENABLE();
 800207e:	4a2e      	ldr	r2, [pc, #184]	@ (8002138 <RCCEx_PLLSAI1_Config+0x184>)
 8002080:	6813      	ldr	r3, [r2, #0]
 8002082:	f043 6380 	orr.w	r3, r3, #67108864	@ 0x4000000
 8002086:	6013      	str	r3, [r2, #0]
      tickstart = HAL_GetTick();
 8002088:	f7fe fc68 	bl	800095c <HAL_GetTick>
 800208c:	4606      	mov	r6, r0
      while(READ_BIT(RCC->CR, RCC_CR_PLLSAI1RDY) == 0U)
 800208e:	4b2a      	ldr	r3, [pc, #168]	@ (8002138 <RCCEx_PLLSAI1_Config+0x184>)
 8002090:	681b      	ldr	r3, [r3, #0]
 8002092:	f013 6f00 	tst.w	r3, #134217728	@ 0x8000000
 8002096:	d106      	bne.n	80020a6 <RCCEx_PLLSAI1_Config+0xf2>
        if((HAL_GetTick() - tickstart) > PLLSAI1_TIMEOUT_VALUE)
 8002098:	f7fe fc60 	bl	800095c <HAL_GetTick>
 800209c:	1b80      	subs	r0, r0, r6
 800209e:	2802      	cmp	r0, #2
 80020a0:	d9f5      	bls.n	800208e <RCCEx_PLLSAI1_Config+0xda>
          status = HAL_TIMEOUT;
 80020a2:	2303      	movs	r3, #3
 80020a4:	461d      	mov	r5, r3
      if(status == HAL_OK)
 80020a6:	2d00      	cmp	r5, #0
 80020a8:	d195      	bne.n	8001fd6 <RCCEx_PLLSAI1_Config+0x22>
        __HAL_RCC_PLLSAI1CLKOUT_ENABLE(PllSai1->PLLSAI1ClockOut);
 80020aa:	4a23      	ldr	r2, [pc, #140]	@ (8002138 <RCCEx_PLLSAI1_Config+0x184>)
 80020ac:	6913      	ldr	r3, [r2, #16]
 80020ae:	69a1      	ldr	r1, [r4, #24]
 80020b0:	430b      	orrs	r3, r1
 80020b2:	6113      	str	r3, [r2, #16]
 80020b4:	e78f      	b.n	8001fd6 <RCCEx_PLLSAI1_Config+0x22>
      if(HAL_IS_BIT_CLR(RCC->CR, RCC_CR_HSIRDY))
 80020b6:	4a20      	ldr	r2, [pc, #128]	@ (8002138 <RCCEx_PLLSAI1_Config+0x184>)
 80020b8:	6812      	ldr	r2, [r2, #0]
 80020ba:	f412 6f80 	tst.w	r2, #1024	@ 0x400
 80020be:	d1aa      	bne.n	8002016 <RCCEx_PLLSAI1_Config+0x62>
 80020c0:	2301      	movs	r3, #1
 80020c2:	461d      	mov	r5, r3
 80020c4:	e787      	b.n	8001fd6 <RCCEx_PLLSAI1_Config+0x22>
      if(HAL_IS_BIT_CLR(RCC->CR, RCC_CR_HSERDY))
 80020c6:	4a1c      	ldr	r2, [pc, #112]	@ (8002138 <RCCEx_PLLSAI1_Config+0x184>)
 80020c8:	6812      	ldr	r2, [r2, #0]
 80020ca:	f412 3f00 	tst.w	r2, #131072	@ 0x20000
 80020ce:	d1a2      	bne.n	8002016 <RCCEx_PLLSAI1_Config+0x62>
        if(HAL_IS_BIT_CLR(RCC->CR, RCC_CR_HSEBYP))
 80020d0:	4a19      	ldr	r2, [pc, #100]	@ (8002138 <RCCEx_PLLSAI1_Config+0x184>)
 80020d2:	6812      	ldr	r2, [r2, #0]
 80020d4:	f412 2f80 	tst.w	r2, #262144	@ 0x40000
 80020d8:	d19d      	bne.n	8002016 <RCCEx_PLLSAI1_Config+0x62>
 80020da:	2301      	movs	r3, #1
 80020dc:	461d      	mov	r5, r3
 80020de:	e77a      	b.n	8001fd6 <RCCEx_PLLSAI1_Config+0x22>
        status = HAL_ERROR;
 80020e0:	2301      	movs	r3, #1
 80020e2:	461d      	mov	r5, r3
 80020e4:	e7a3      	b.n	800202e <RCCEx_PLLSAI1_Config+0x7a>
      else if(Divider == DIVIDER_Q_UPDATE)
 80020e6:	2f01      	cmp	r7, #1
 80020e8:	d00f      	beq.n	800210a <RCCEx_PLLSAI1_Config+0x156>
        MODIFY_REG(RCC->PLLSAI1CFGR,
 80020ea:	4813      	ldr	r0, [pc, #76]	@ (8002138 <RCCEx_PLLSAI1_Config+0x184>)
 80020ec:	6902      	ldr	r2, [r0, #16]
 80020ee:	f022 62c0 	bic.w	r2, r2, #100663296	@ 0x6000000
 80020f2:	f422 42fe 	bic.w	r2, r2, #32512	@ 0x7f00
 80020f6:	68a1      	ldr	r1, [r4, #8]
 80020f8:	6963      	ldr	r3, [r4, #20]
 80020fa:	085b      	lsrs	r3, r3, #1
 80020fc:	3b01      	subs	r3, #1
 80020fe:	065b      	lsls	r3, r3, #25
 8002100:	ea43 2301 	orr.w	r3, r3, r1, lsl #8
 8002104:	431a      	orrs	r2, r3
 8002106:	6102      	str	r2, [r0, #16]
 8002108:	e7b9      	b.n	800207e <RCCEx_PLLSAI1_Config+0xca>
        MODIFY_REG(RCC->PLLSAI1CFGR,
 800210a:	480b      	ldr	r0, [pc, #44]	@ (8002138 <RCCEx_PLLSAI1_Config+0x184>)
 800210c:	6902      	ldr	r2, [r0, #16]
 800210e:	f422 02c0 	bic.w	r2, r2, #6291456	@ 0x600000
 8002112:	f422 42fe 	bic.w	r2, r2, #32512	@ 0x7f00
 8002116:	68a1      	ldr	r1, [r4, #8]
 8002118:	6923      	ldr	r3, [r4, #16]
 800211a:	085b      	lsrs	r3, r3, #1
 800211c:	3b01      	subs	r3, #1
 800211e:	055b      	lsls	r3, r3, #21
 8002120:	ea43 2301 	orr.w	r3, r3, r1, lsl #8
 8002124:	431a      	orrs	r2, r3
 8002126:	6102      	str	r2, [r0, #16]
 8002128:	e7a9      	b.n	800207e <RCCEx_PLLSAI1_Config+0xca>
      status = HAL_ERROR;
 800212a:	2301      	movs	r3, #1
 800212c:	461d      	mov	r5, r3
 800212e:	e752      	b.n	8001fd6 <RCCEx_PLLSAI1_Config+0x22>
    switch(PllSai1->PLLSAI1Source)
 8002130:	2301      	movs	r3, #1
 8002132:	461d      	mov	r5, r3
 8002134:	e74f      	b.n	8001fd6 <RCCEx_PLLSAI1_Config+0x22>
 8002136:	bf00      	nop
 8002138:	40021000 	.word	0x40021000

0800213c <RCCEx_PLLSAI2_Config>:
  * @note   PLLSAI2 is temporary disable to apply new parameters
  *
  * @retval HAL status
  */
static HAL_StatusTypeDef RCCEx_PLLSAI2_Config(RCC_PLLSAI2InitTypeDef *PllSai2, uint32_t Divider)
{
 800213c:	b5f8      	push	{r3, r4, r5, r6, r7, lr}
 800213e:	4604      	mov	r4, r0
 8002140:	460f      	mov	r7, r1
  assert_param(IS_RCC_PLLSAI2M_VALUE(PllSai2->PLLSAI2M));
  assert_param(IS_RCC_PLLSAI2N_VALUE(PllSai2->PLLSAI2N));
  assert_param(IS_RCC_PLLSAI2CLOCKOUT_VALUE(PllSai2->PLLSAI2ClockOut));

  /* Check that PLLSAI2 clock source and divider M can be applied */
  if(__HAL_RCC_GET_PLL_OSCSOURCE() != RCC_PLLSOURCE_NONE)
 8002142:	4b55      	ldr	r3, [pc, #340]	@ (8002298 <RCCEx_PLLSAI2_Config+0x15c>)
 8002144:	68db      	ldr	r3, [r3, #12]
 8002146:	f013 0f03 	tst.w	r3, #3
 800214a:	d01b      	beq.n	8002184 <RCCEx_PLLSAI2_Config+0x48>
  {
    /* PLL clock source and divider M already set, check that no request for change  */
    if((__HAL_RCC_GET_PLL_OSCSOURCE() != PllSai2->PLLSAI2Source)
 800214c:	4b52      	ldr	r3, [pc, #328]	@ (8002298 <RCCEx_PLLSAI2_Config+0x15c>)
 800214e:	68db      	ldr	r3, [r3, #12]
 8002150:	f003 0303 	and.w	r3, r3, #3
 8002154:	6802      	ldr	r2, [r0, #0]
 8002156:	4293      	cmp	r3, r2
 8002158:	d003      	beq.n	8002162 <RCCEx_PLLSAI2_Config+0x26>
       ||
       (((READ_BIT(RCC->PLLCFGR, RCC_PLLCFGR_PLLM) >> RCC_PLLCFGR_PLLM_Pos) + 1U) != PllSai2->PLLSAI2M)
#endif
      )
    {
      status = HAL_ERROR;
 800215a:	2301      	movs	r3, #1
 800215c:	461d      	mov	r5, r3
      }
    }
  }

  return status;
}
 800215e:	4628      	mov	r0, r5
 8002160:	bdf8      	pop	{r3, r4, r5, r6, r7, pc}
       ||
 8002162:	2a00      	cmp	r2, #0
 8002164:	f000 8092 	beq.w	800228c <RCCEx_PLLSAI2_Config+0x150>
       (((READ_BIT(RCC->PLLCFGR, RCC_PLLCFGR_PLLM) >> RCC_PLLCFGR_PLLM_Pos) + 1U) != PllSai2->PLLSAI2M)
 8002168:	4b4b      	ldr	r3, [pc, #300]	@ (8002298 <RCCEx_PLLSAI2_Config+0x15c>)
 800216a:	68db      	ldr	r3, [r3, #12]
 800216c:	f3c3 1302 	ubfx	r3, r3, #4, #3
 8002170:	3301      	adds	r3, #1
 8002172:	6842      	ldr	r2, [r0, #4]
       ||
 8002174:	4293      	cmp	r3, r2
 8002176:	d002      	beq.n	800217e <RCCEx_PLLSAI2_Config+0x42>
      status = HAL_ERROR;
 8002178:	2301      	movs	r3, #1
 800217a:	461d      	mov	r5, r3
 800217c:	e7ef      	b.n	800215e <RCCEx_PLLSAI2_Config+0x22>
  HAL_StatusTypeDef status = HAL_OK;
 800217e:	2300      	movs	r3, #0
 8002180:	461d      	mov	r5, r3
 8002182:	e019      	b.n	80021b8 <RCCEx_PLLSAI2_Config+0x7c>
    switch(PllSai2->PLLSAI2Source)
 8002184:	6803      	ldr	r3, [r0, #0]
 8002186:	2b02      	cmp	r3, #2
 8002188:	d058      	beq.n	800223c <RCCEx_PLLSAI2_Config+0x100>
 800218a:	2b03      	cmp	r3, #3
 800218c:	d05e      	beq.n	800224c <RCCEx_PLLSAI2_Config+0x110>
 800218e:	2b01      	cmp	r3, #1
 8002190:	d17f      	bne.n	8002292 <RCCEx_PLLSAI2_Config+0x156>
      if(HAL_IS_BIT_CLR(RCC->CR, RCC_CR_MSIRDY))
 8002192:	4a41      	ldr	r2, [pc, #260]	@ (8002298 <RCCEx_PLLSAI2_Config+0x15c>)
 8002194:	6812      	ldr	r2, [r2, #0]
 8002196:	f012 0f02 	tst.w	r2, #2
 800219a:	d064      	beq.n	8002266 <RCCEx_PLLSAI2_Config+0x12a>
      MODIFY_REG(RCC->PLLCFGR, RCC_PLLCFGR_PLLSRC | RCC_PLLCFGR_PLLM, PllSai2->PLLSAI2Source | (PllSai2->PLLSAI2M - 1U) << RCC_PLLCFGR_PLLM_Pos);
 800219c:	483e      	ldr	r0, [pc, #248]	@ (8002298 <RCCEx_PLLSAI2_Config+0x15c>)
 800219e:	68c2      	ldr	r2, [r0, #12]
 80021a0:	f022 0273 	bic.w	r2, r2, #115	@ 0x73
 80021a4:	6861      	ldr	r1, [r4, #4]
 80021a6:	3901      	subs	r1, #1
 80021a8:	ea43 1301 	orr.w	r3, r3, r1, lsl #4
 80021ac:	4313      	orrs	r3, r2
 80021ae:	60c3      	str	r3, [r0, #12]
 80021b0:	2300      	movs	r3, #0
 80021b2:	461d      	mov	r5, r3
  if(status == HAL_OK)
 80021b4:	2d00      	cmp	r5, #0
 80021b6:	d1d2      	bne.n	800215e <RCCEx_PLLSAI2_Config+0x22>
    __HAL_RCC_PLLSAI2_DISABLE();
 80021b8:	4a37      	ldr	r2, [pc, #220]	@ (8002298 <RCCEx_PLLSAI2_Config+0x15c>)
 80021ba:	6813      	ldr	r3, [r2, #0]
 80021bc:	f023 5380 	bic.w	r3, r3, #268435456	@ 0x10000000
 80021c0:	6013      	str	r3, [r2, #0]
    tickstart = HAL_GetTick();
 80021c2:	f7fe fbcb 	bl	800095c <HAL_GetTick>
 80021c6:	4606      	mov	r6, r0
    while(READ_BIT(RCC->CR, RCC_CR_PLLSAI2RDY) != 0U)
 80021c8:	4b33      	ldr	r3, [pc, #204]	@ (8002298 <RCCEx_PLLSAI2_Config+0x15c>)
 80021ca:	681b      	ldr	r3, [r3, #0]
 80021cc:	f013 5f00 	tst.w	r3, #536870912	@ 0x20000000
 80021d0:	d006      	beq.n	80021e0 <RCCEx_PLLSAI2_Config+0xa4>
      if((HAL_GetTick() - tickstart) > PLLSAI2_TIMEOUT_VALUE)
 80021d2:	f7fe fbc3 	bl	800095c <HAL_GetTick>
 80021d6:	1b83      	subs	r3, r0, r6
 80021d8:	2b02      	cmp	r3, #2
 80021da:	d9f5      	bls.n	80021c8 <RCCEx_PLLSAI2_Config+0x8c>
        status = HAL_TIMEOUT;
 80021dc:	2303      	movs	r3, #3
 80021de:	461d      	mov	r5, r3
    if(status == HAL_OK)
 80021e0:	2d00      	cmp	r5, #0
 80021e2:	d1bc      	bne.n	800215e <RCCEx_PLLSAI2_Config+0x22>
      if(Divider == DIVIDER_P_UPDATE)
 80021e4:	2f00      	cmp	r7, #0
 80021e6:	d141      	bne.n	800226c <RCCEx_PLLSAI2_Config+0x130>
        MODIFY_REG(RCC->PLLSAI2CFGR,
 80021e8:	492b      	ldr	r1, [pc, #172]	@ (8002298 <RCCEx_PLLSAI2_Config+0x15c>)
 80021ea:	694b      	ldr	r3, [r1, #20]
 80021ec:	f423 331f 	bic.w	r3, r3, #162816	@ 0x27c00
 80021f0:	f423 7340 	bic.w	r3, r3, #768	@ 0x300
 80021f4:	68a0      	ldr	r0, [r4, #8]
 80021f6:	68e2      	ldr	r2, [r4, #12]
 80021f8:	0912      	lsrs	r2, r2, #4
 80021fa:	0452      	lsls	r2, r2, #17
 80021fc:	ea42 2200 	orr.w	r2, r2, r0, lsl #8
 8002200:	4313      	orrs	r3, r2
 8002202:	614b      	str	r3, [r1, #20]
      __HAL_RCC_PLLSAI2_ENABLE();
 8002204:	4a24      	ldr	r2, [pc, #144]	@ (8002298 <RCCEx_PLLSAI2_Config+0x15c>)
 8002206:	6813      	ldr	r3, [r2, #0]
 8002208:	f043 5380 	orr.w	r3, r3, #268435456	@ 0x10000000
 800220c:	6013      	str	r3, [r2, #0]
      tickstart = HAL_GetTick();
 800220e:	f7fe fba5 	bl	800095c <HAL_GetTick>
 8002212:	4606      	mov	r6, r0
      while(READ_BIT(RCC->CR, RCC_CR_PLLSAI2RDY) == 0U)
 8002214:	4b20      	ldr	r3, [pc, #128]	@ (8002298 <RCCEx_PLLSAI2_Config+0x15c>)
 8002216:	681b      	ldr	r3, [r3, #0]
 8002218:	f013 5f00 	tst.w	r3, #536870912	@ 0x20000000
 800221c:	d106      	bne.n	800222c <RCCEx_PLLSAI2_Config+0xf0>
        if((HAL_GetTick() - tickstart) > PLLSAI2_TIMEOUT_VALUE)
 800221e:	f7fe fb9d 	bl	800095c <HAL_GetTick>
 8002222:	1b80      	subs	r0, r0, r6
 8002224:	2802      	cmp	r0, #2
 8002226:	d9f5      	bls.n	8002214 <RCCEx_PLLSAI2_Config+0xd8>
          status = HAL_TIMEOUT;
 8002228:	2303      	movs	r3, #3
 800222a:	461d      	mov	r5, r3
      if(status == HAL_OK)
 800222c:	2d00      	cmp	r5, #0
 800222e:	d196      	bne.n	800215e <RCCEx_PLLSAI2_Config+0x22>
        __HAL_RCC_PLLSAI2CLKOUT_ENABLE(PllSai2->PLLSAI2ClockOut);
 8002230:	4a19      	ldr	r2, [pc, #100]	@ (8002298 <RCCEx_PLLSAI2_Config+0x15c>)
 8002232:	6953      	ldr	r3, [r2, #20]
 8002234:	6961      	ldr	r1, [r4, #20]
 8002236:	430b      	orrs	r3, r1
 8002238:	6153      	str	r3, [r2, #20]
 800223a:	e790      	b.n	800215e <RCCEx_PLLSAI2_Config+0x22>
      if(HAL_IS_BIT_CLR(RCC->CR, RCC_CR_HSIRDY))
 800223c:	4a16      	ldr	r2, [pc, #88]	@ (8002298 <RCCEx_PLLSAI2_Config+0x15c>)
 800223e:	6812      	ldr	r2, [r2, #0]
 8002240:	f412 6f80 	tst.w	r2, #1024	@ 0x400
 8002244:	d1aa      	bne.n	800219c <RCCEx_PLLSAI2_Config+0x60>
 8002246:	2301      	movs	r3, #1
 8002248:	461d      	mov	r5, r3
 800224a:	e788      	b.n	800215e <RCCEx_PLLSAI2_Config+0x22>
      if(HAL_IS_BIT_CLR(RCC->CR, RCC_CR_HSERDY))
 800224c:	4a12      	ldr	r2, [pc, #72]	@ (8002298 <RCCEx_PLLSAI2_Config+0x15c>)
 800224e:	6812      	ldr	r2, [r2, #0]
 8002250:	f412 3f00 	tst.w	r2, #131072	@ 0x20000
 8002254:	d1a2      	bne.n	800219c <RCCEx_PLLSAI2_Config+0x60>
        if(HAL_IS_BIT_CLR(RCC->CR, RCC_CR_HSEBYP))
 8002256:	4a10      	ldr	r2, [pc, #64]	@ (8002298 <RCCEx_PLLSAI2_Config+0x15c>)
 8002258:	6812      	ldr	r2, [r2, #0]
 800225a:	f412 2f80 	tst.w	r2, #262144	@ 0x40000
 800225e:	d19d      	bne.n	800219c <RCCEx_PLLSAI2_Config+0x60>
 8002260:	2301      	movs	r3, #1
 8002262:	461d      	mov	r5, r3
 8002264:	e77b      	b.n	800215e <RCCEx_PLLSAI2_Config+0x22>
        status = HAL_ERROR;
 8002266:	2301      	movs	r3, #1
 8002268:	461d      	mov	r5, r3
 800226a:	e7a3      	b.n	80021b4 <RCCEx_PLLSAI2_Config+0x78>
        MODIFY_REG(RCC->PLLSAI2CFGR,
 800226c:	480a      	ldr	r0, [pc, #40]	@ (8002298 <RCCEx_PLLSAI2_Config+0x15c>)
 800226e:	6942      	ldr	r2, [r0, #20]
 8002270:	f022 62c0 	bic.w	r2, r2, #100663296	@ 0x6000000
 8002274:	f422 42fe 	bic.w	r2, r2, #32512	@ 0x7f00
 8002278:	68a1      	ldr	r1, [r4, #8]
 800227a:	6923      	ldr	r3, [r4, #16]
 800227c:	085b      	lsrs	r3, r3, #1
 800227e:	3b01      	subs	r3, #1
 8002280:	065b      	lsls	r3, r3, #25
 8002282:	ea43 2301 	orr.w	r3, r3, r1, lsl #8
 8002286:	431a      	orrs	r2, r3
 8002288:	6142      	str	r2, [r0, #20]
 800228a:	e7bb      	b.n	8002204 <RCCEx_PLLSAI2_Config+0xc8>
      status = HAL_ERROR;
 800228c:	2301      	movs	r3, #1
 800228e:	461d      	mov	r5, r3
 8002290:	e765      	b.n	800215e <RCCEx_PLLSAI2_Config+0x22>
    switch(PllSai2->PLLSAI2Source)
 8002292:	2301      	movs	r3, #1
 8002294:	461d      	mov	r5, r3
 8002296:	e762      	b.n	800215e <RCCEx_PLLSAI2_Config+0x22>
 8002298:	40021000 	.word	0x40021000

0800229c <HAL_RCCEx_PeriphCLKConfig>:
{
 800229c:	e92d 41f0 	stmdb	sp!, {r4, r5, r6, r7, r8, lr}
 80022a0:	b082      	sub	sp, #8
 80022a2:	4604      	mov	r4, r0
  if((((PeriphClkInit->PeriphClockSelection) & RCC_PERIPHCLK_SAI1) == RCC_PERIPHCLK_SAI1))
 80022a4:	6803      	ldr	r3, [r0, #0]
 80022a6:	f413 6f00 	tst.w	r3, #2048	@ 0x800
 80022aa:	d038      	beq.n	800231e <HAL_RCCEx_PeriphCLKConfig+0x82>
    switch(PeriphClkInit->Sai1ClockSelection)
 80022ac:	6e43      	ldr	r3, [r0, #100]	@ 0x64
 80022ae:	f5b3 0f00 	cmp.w	r3, #8388608	@ 0x800000
 80022b2:	d018      	beq.n	80022e6 <HAL_RCCEx_PeriphCLKConfig+0x4a>
 80022b4:	d80d      	bhi.n	80022d2 <HAL_RCCEx_PeriphCLKConfig+0x36>
 80022b6:	b34b      	cbz	r3, 800230c <HAL_RCCEx_PeriphCLKConfig+0x70>
 80022b8:	f5b3 0f80 	cmp.w	r3, #4194304	@ 0x400000
 80022bc:	d105      	bne.n	80022ca <HAL_RCCEx_PeriphCLKConfig+0x2e>
      ret = RCCEx_PLLSAI2_Config(&(PeriphClkInit->PLLSAI2), DIVIDER_P_UPDATE);
 80022be:	2100      	movs	r1, #0
 80022c0:	3020      	adds	r0, #32
 80022c2:	f7ff ff3b 	bl	800213c <RCCEx_PLLSAI2_Config>
 80022c6:	4606      	mov	r6, r0
      break;
 80022c8:	e025      	b.n	8002316 <HAL_RCCEx_PeriphCLKConfig+0x7a>
    switch(PeriphClkInit->Sai1ClockSelection)
 80022ca:	2301      	movs	r3, #1
 80022cc:	461f      	mov	r7, r3
 80022ce:	461e      	mov	r6, r3
 80022d0:	e028      	b.n	8002324 <HAL_RCCEx_PeriphCLKConfig+0x88>
 80022d2:	f5b3 0f40 	cmp.w	r3, #12582912	@ 0xc00000
 80022d6:	d102      	bne.n	80022de <HAL_RCCEx_PeriphCLKConfig+0x42>
 80022d8:	2300      	movs	r3, #0
 80022da:	461e      	mov	r6, r3
 80022dc:	e00a      	b.n	80022f4 <HAL_RCCEx_PeriphCLKConfig+0x58>
 80022de:	2301      	movs	r3, #1
 80022e0:	461f      	mov	r7, r3
 80022e2:	461e      	mov	r6, r3
 80022e4:	e01e      	b.n	8002324 <HAL_RCCEx_PeriphCLKConfig+0x88>
      __HAL_RCC_PLLCLKOUT_ENABLE(RCC_PLL_SAI3CLK);
 80022e6:	4a64      	ldr	r2, [pc, #400]	@ (8002478 <HAL_RCCEx_PeriphCLKConfig+0x1dc>)
 80022e8:	68d3      	ldr	r3, [r2, #12]
 80022ea:	f443 3380 	orr.w	r3, r3, #65536	@ 0x10000
 80022ee:	60d3      	str	r3, [r2, #12]
  HAL_StatusTypeDef ret = HAL_OK;      /* Intermediate status */
 80022f0:	2300      	movs	r3, #0
 80022f2:	461e      	mov	r6, r3
      __HAL_RCC_SAI1_CONFIG(PeriphClkInit->Sai1ClockSelection);
 80022f4:	4a60      	ldr	r2, [pc, #384]	@ (8002478 <HAL_RCCEx_PeriphCLKConfig+0x1dc>)
 80022f6:	f8d2 3088 	ldr.w	r3, [r2, #136]	@ 0x88
 80022fa:	f423 0340 	bic.w	r3, r3, #12582912	@ 0xc00000
 80022fe:	6e61      	ldr	r1, [r4, #100]	@ 0x64
 8002300:	430b      	orrs	r3, r1
 8002302:	f8c2 3088 	str.w	r3, [r2, #136]	@ 0x88
  HAL_StatusTypeDef status = HAL_OK;   /* Final status */
 8002306:	2300      	movs	r3, #0
 8002308:	461f      	mov	r7, r3
 800230a:	e00b      	b.n	8002324 <HAL_RCCEx_PeriphCLKConfig+0x88>
      ret = RCCEx_PLLSAI1_Config(&(PeriphClkInit->PLLSAI1), DIVIDER_P_UPDATE);
 800230c:	4619      	mov	r1, r3
 800230e:	3004      	adds	r0, #4
 8002310:	f7ff fe50 	bl	8001fb4 <RCCEx_PLLSAI1_Config>
 8002314:	4606      	mov	r6, r0
    if(ret == HAL_OK)
 8002316:	2e00      	cmp	r6, #0
 8002318:	d0ec      	beq.n	80022f4 <HAL_RCCEx_PeriphCLKConfig+0x58>
      status = ret;
 800231a:	4637      	mov	r7, r6
 800231c:	e002      	b.n	8002324 <HAL_RCCEx_PeriphCLKConfig+0x88>
  HAL_StatusTypeDef status = HAL_OK;   /* Final status */
 800231e:	2300      	movs	r3, #0
 8002320:	461f      	mov	r7, r3
  HAL_StatusTypeDef ret = HAL_OK;      /* Intermediate status */
 8002322:	461e      	mov	r6, r3
  if((((PeriphClkInit->PeriphClockSelection) & RCC_PERIPHCLK_SAI2) == RCC_PERIPHCLK_SAI2))
 8002324:	6823      	ldr	r3, [r4, #0]
 8002326:	f413 5f80 	tst.w	r3, #4096	@ 0x1000
 800232a:	d032      	beq.n	8002392 <HAL_RCCEx_PeriphCLKConfig+0xf6>
    switch(PeriphClkInit->Sai2ClockSelection)
 800232c:	6ea3      	ldr	r3, [r4, #104]	@ 0x68
 800232e:	f1b3 7f00 	cmp.w	r3, #33554432	@ 0x2000000
 8002332:	d021      	beq.n	8002378 <HAL_RCCEx_PeriphCLKConfig+0xdc>
 8002334:	d80e      	bhi.n	8002354 <HAL_RCCEx_PeriphCLKConfig+0xb8>
 8002336:	b32b      	cbz	r3, 8002384 <HAL_RCCEx_PeriphCLKConfig+0xe8>
 8002338:	f1b3 7f80 	cmp.w	r3, #16777216	@ 0x1000000
 800233c:	d106      	bne.n	800234c <HAL_RCCEx_PeriphCLKConfig+0xb0>
      ret = RCCEx_PLLSAI2_Config(&(PeriphClkInit->PLLSAI2), DIVIDER_P_UPDATE);
 800233e:	2100      	movs	r1, #0
 8002340:	f104 0020 	add.w	r0, r4, #32
 8002344:	f7ff fefa 	bl	800213c <RCCEx_PLLSAI2_Config>
 8002348:	4606      	mov	r6, r0
      break;
 800234a:	e006      	b.n	800235a <HAL_RCCEx_PeriphCLKConfig+0xbe>
    switch(PeriphClkInit->Sai2ClockSelection)
 800234c:	2301      	movs	r3, #1
 800234e:	461f      	mov	r7, r3
 8002350:	461e      	mov	r6, r3
 8002352:	e01e      	b.n	8002392 <HAL_RCCEx_PeriphCLKConfig+0xf6>
 8002354:	f1b3 7f40 	cmp.w	r3, #50331648	@ 0x3000000
 8002358:	d10a      	bne.n	8002370 <HAL_RCCEx_PeriphCLKConfig+0xd4>
    if(ret == HAL_OK)
 800235a:	b9ce      	cbnz	r6, 8002390 <HAL_RCCEx_PeriphCLKConfig+0xf4>
      __HAL_RCC_SAI2_CONFIG(PeriphClkInit->Sai2ClockSelection);
 800235c:	4a46      	ldr	r2, [pc, #280]	@ (8002478 <HAL_RCCEx_PeriphCLKConfig+0x1dc>)
 800235e:	f8d2 3088 	ldr.w	r3, [r2, #136]	@ 0x88
 8002362:	f023 7340 	bic.w	r3, r3, #50331648	@ 0x3000000
 8002366:	6ea1      	ldr	r1, [r4, #104]	@ 0x68
 8002368:	430b      	orrs	r3, r1
 800236a:	f8c2 3088 	str.w	r3, [r2, #136]	@ 0x88
 800236e:	e010      	b.n	8002392 <HAL_RCCEx_PeriphCLKConfig+0xf6>
    switch(PeriphClkInit->Sai2ClockSelection)
 8002370:	2301      	movs	r3, #1
 8002372:	461f      	mov	r7, r3
 8002374:	461e      	mov	r6, r3
 8002376:	e00c      	b.n	8002392 <HAL_RCCEx_PeriphCLKConfig+0xf6>
      __HAL_RCC_PLLCLKOUT_ENABLE(RCC_PLL_SAI3CLK);
 8002378:	4a3f      	ldr	r2, [pc, #252]	@ (8002478 <HAL_RCCEx_PeriphCLKConfig+0x1dc>)
 800237a:	68d3      	ldr	r3, [r2, #12]
 800237c:	f443 3380 	orr.w	r3, r3, #65536	@ 0x10000
 8002380:	60d3      	str	r3, [r2, #12]
      break;
 8002382:	e7ea      	b.n	800235a <HAL_RCCEx_PeriphCLKConfig+0xbe>
      ret = RCCEx_PLLSAI1_Config(&(PeriphClkInit->PLLSAI1), DIVIDER_P_UPDATE);
 8002384:	4619      	mov	r1, r3
 8002386:	1d20      	adds	r0, r4, #4
 8002388:	f7ff fe14 	bl	8001fb4 <RCCEx_PLLSAI1_Config>
 800238c:	4606      	mov	r6, r0
      break;
 800238e:	e7e4      	b.n	800235a <HAL_RCCEx_PeriphCLKConfig+0xbe>
      status = ret;
 8002390:	4637      	mov	r7, r6
  if((PeriphClkInit->PeriphClockSelection & RCC_PERIPHCLK_RTC) == RCC_PERIPHCLK_RTC)
 8002392:	6823      	ldr	r3, [r4, #0]
 8002394:	f413 3f00 	tst.w	r3, #131072	@ 0x20000
 8002398:	d077      	beq.n	800248a <HAL_RCCEx_PeriphCLKConfig+0x1ee>
    if(__HAL_RCC_PWR_IS_CLK_DISABLED() != 0U)
 800239a:	4b37      	ldr	r3, [pc, #220]	@ (8002478 <HAL_RCCEx_PeriphCLKConfig+0x1dc>)
 800239c:	6d9b      	ldr	r3, [r3, #88]	@ 0x58
 800239e:	f013 5f80 	tst.w	r3, #268435456	@ 0x10000000
 80023a2:	d152      	bne.n	800244a <HAL_RCCEx_PeriphCLKConfig+0x1ae>
      __HAL_RCC_PWR_CLK_ENABLE();
 80023a4:	4b34      	ldr	r3, [pc, #208]	@ (8002478 <HAL_RCCEx_PeriphCLKConfig+0x1dc>)
 80023a6:	6d9a      	ldr	r2, [r3, #88]	@ 0x58
 80023a8:	f042 5280 	orr.w	r2, r2, #268435456	@ 0x10000000
 80023ac:	659a      	str	r2, [r3, #88]	@ 0x58
 80023ae:	6d9b      	ldr	r3, [r3, #88]	@ 0x58
 80023b0:	f003 5380 	and.w	r3, r3, #268435456	@ 0x10000000
 80023b4:	9301      	str	r3, [sp, #4]
 80023b6:	9b01      	ldr	r3, [sp, #4]
      pwrclkchanged = SET;
 80023b8:	2301      	movs	r3, #1
 80023ba:	4698      	mov	r8, r3
    SET_BIT(PWR->CR1, PWR_CR1_DBP);
 80023bc:	4a2f      	ldr	r2, [pc, #188]	@ (800247c <HAL_RCCEx_PeriphCLKConfig+0x1e0>)
 80023be:	6813      	ldr	r3, [r2, #0]
 80023c0:	f443 7380 	orr.w	r3, r3, #256	@ 0x100
 80023c4:	6013      	str	r3, [r2, #0]
    tickstart = HAL_GetTick();
 80023c6:	f7fe fac9 	bl	800095c <HAL_GetTick>
 80023ca:	4605      	mov	r5, r0
    while(READ_BIT(PWR->CR1, PWR_CR1_DBP) == 0U)
 80023cc:	4b2b      	ldr	r3, [pc, #172]	@ (800247c <HAL_RCCEx_PeriphCLKConfig+0x1e0>)
 80023ce:	681b      	ldr	r3, [r3, #0]
 80023d0:	f413 7f80 	tst.w	r3, #256	@ 0x100
 80023d4:	d106      	bne.n	80023e4 <HAL_RCCEx_PeriphCLKConfig+0x148>
      if((HAL_GetTick() - tickstart) > RCC_DBP_TIMEOUT_VALUE)
 80023d6:	f7fe fac1 	bl	800095c <HAL_GetTick>
 80023da:	1b40      	subs	r0, r0, r5
 80023dc:	2802      	cmp	r0, #2
 80023de:	d9f5      	bls.n	80023cc <HAL_RCCEx_PeriphCLKConfig+0x130>
        ret = HAL_TIMEOUT;
 80023e0:	2303      	movs	r3, #3
 80023e2:	461e      	mov	r6, r3
    if(ret == HAL_OK)
 80023e4:	2e00      	cmp	r6, #0
 80023e6:	d14b      	bne.n	8002480 <HAL_RCCEx_PeriphCLKConfig+0x1e4>
      tmpregister = READ_BIT(RCC->BDCR, RCC_BDCR_RTCSEL);
 80023e8:	f106 4380 	add.w	r3, r6, #1073741824	@ 0x40000000
 80023ec:	f503 3304 	add.w	r3, r3, #135168	@ 0x21000
 80023f0:	f8d3 3090 	ldr.w	r3, [r3, #144]	@ 0x90
      if((tmpregister != RCC_RTCCLKSOURCE_NONE) && (tmpregister != PeriphClkInit->RTCClockSelection))
 80023f4:	f413 7340 	ands.w	r3, r3, #768	@ 0x300
 80023f8:	d019      	beq.n	800242e <HAL_RCCEx_PeriphCLKConfig+0x192>
 80023fa:	f8d4 2084 	ldr.w	r2, [r4, #132]	@ 0x84
 80023fe:	429a      	cmp	r2, r3
 8002400:	d012      	beq.n	8002428 <HAL_RCCEx_PeriphCLKConfig+0x18c>
        tmpregister = READ_BIT(RCC->BDCR, ~(RCC_BDCR_RTCSEL));
 8002402:	4a1d      	ldr	r2, [pc, #116]	@ (8002478 <HAL_RCCEx_PeriphCLKConfig+0x1dc>)
 8002404:	f8d2 3090 	ldr.w	r3, [r2, #144]	@ 0x90
 8002408:	f423 7340 	bic.w	r3, r3, #768	@ 0x300
        __HAL_RCC_BACKUPRESET_FORCE();
 800240c:	f8d2 1090 	ldr.w	r1, [r2, #144]	@ 0x90
 8002410:	f441 3180 	orr.w	r1, r1, #65536	@ 0x10000
 8002414:	f8c2 1090 	str.w	r1, [r2, #144]	@ 0x90
        __HAL_RCC_BACKUPRESET_RELEASE();
 8002418:	f8d2 1090 	ldr.w	r1, [r2, #144]	@ 0x90
 800241c:	f421 3180 	bic.w	r1, r1, #65536	@ 0x10000
 8002420:	f8c2 1090 	str.w	r1, [r2, #144]	@ 0x90
        RCC->BDCR = tmpregister;
 8002424:	f8c2 3090 	str.w	r3, [r2, #144]	@ 0x90
      if (HAL_IS_BIT_SET(tmpregister, RCC_BDCR_LSEON))
 8002428:	f013 0f01 	tst.w	r3, #1
 800242c:	d110      	bne.n	8002450 <HAL_RCCEx_PeriphCLKConfig+0x1b4>
      if(ret == HAL_OK)
 800242e:	2e00      	cmp	r6, #0
 8002430:	f040 8129 	bne.w	8002686 <HAL_RCCEx_PeriphCLKConfig+0x3ea>
        __HAL_RCC_RTC_CONFIG(PeriphClkInit->RTCClockSelection);
 8002434:	4a10      	ldr	r2, [pc, #64]	@ (8002478 <HAL_RCCEx_PeriphCLKConfig+0x1dc>)
 8002436:	f8d2 3090 	ldr.w	r3, [r2, #144]	@ 0x90
 800243a:	f423 7340 	bic.w	r3, r3, #768	@ 0x300
 800243e:	f8d4 1084 	ldr.w	r1, [r4, #132]	@ 0x84
 8002442:	430b      	orrs	r3, r1
 8002444:	f8c2 3090 	str.w	r3, [r2, #144]	@ 0x90
 8002448:	e01b      	b.n	8002482 <HAL_RCCEx_PeriphCLKConfig+0x1e6>
    FlagStatus       pwrclkchanged = RESET;
 800244a:	2300      	movs	r3, #0
 800244c:	4698      	mov	r8, r3
 800244e:	e7b5      	b.n	80023bc <HAL_RCCEx_PeriphCLKConfig+0x120>
        tickstart = HAL_GetTick();
 8002450:	f7fe fa84 	bl	800095c <HAL_GetTick>
 8002454:	4605      	mov	r5, r0
        while(READ_BIT(RCC->BDCR, RCC_BDCR_LSERDY) == 0U)
 8002456:	4b08      	ldr	r3, [pc, #32]	@ (8002478 <HAL_RCCEx_PeriphCLKConfig+0x1dc>)
 8002458:	f8d3 3090 	ldr.w	r3, [r3, #144]	@ 0x90
 800245c:	f013 0f02 	tst.w	r3, #2
 8002460:	d1e5      	bne.n	800242e <HAL_RCCEx_PeriphCLKConfig+0x192>
          if((HAL_GetTick() - tickstart) > RCC_LSE_TIMEOUT_VALUE)
 8002462:	f7fe fa7b 	bl	800095c <HAL_GetTick>
 8002466:	1b40      	subs	r0, r0, r5
 8002468:	f241 3388 	movw	r3, #5000	@ 0x1388
 800246c:	4298      	cmp	r0, r3
 800246e:	d9f2      	bls.n	8002456 <HAL_RCCEx_PeriphCLKConfig+0x1ba>
            ret = HAL_TIMEOUT;
 8002470:	2303      	movs	r3, #3
 8002472:	461e      	mov	r6, r3
 8002474:	e7db      	b.n	800242e <HAL_RCCEx_PeriphCLKConfig+0x192>
 8002476:	bf00      	nop
 8002478:	40021000 	.word	0x40021000
 800247c:	40007000 	.word	0x40007000
      status = ret;
 8002480:	4637      	mov	r7, r6
    if(pwrclkchanged == SET)
 8002482:	4643      	mov	r3, r8
 8002484:	2b00      	cmp	r3, #0
 8002486:	f040 8100 	bne.w	800268a <HAL_RCCEx_PeriphCLKConfig+0x3ee>
  if(((PeriphClkInit->PeriphClockSelection) & RCC_PERIPHCLK_USART1) == RCC_PERIPHCLK_USART1)
 800248a:	6823      	ldr	r3, [r4, #0]
 800248c:	f013 0f01 	tst.w	r3, #1
 8002490:	d008      	beq.n	80024a4 <HAL_RCCEx_PeriphCLKConfig+0x208>
    __HAL_RCC_USART1_CONFIG(PeriphClkInit->Usart1ClockSelection);
 8002492:	4a9d      	ldr	r2, [pc, #628]	@ (8002708 <HAL_RCCEx_PeriphCLKConfig+0x46c>)
 8002494:	f8d2 3088 	ldr.w	r3, [r2, #136]	@ 0x88
 8002498:	f023 0303 	bic.w	r3, r3, #3
 800249c:	6ba1      	ldr	r1, [r4, #56]	@ 0x38
 800249e:	430b      	orrs	r3, r1
 80024a0:	f8c2 3088 	str.w	r3, [r2, #136]	@ 0x88
  if(((PeriphClkInit->PeriphClockSelection) & RCC_PERIPHCLK_USART2) == RCC_PERIPHCLK_USART2)
 80024a4:	6823      	ldr	r3, [r4, #0]
 80024a6:	f013 0f02 	tst.w	r3, #2
 80024aa:	d008      	beq.n	80024be <HAL_RCCEx_PeriphCLKConfig+0x222>
    __HAL_RCC_USART2_CONFIG(PeriphClkInit->Usart2ClockSelection);
 80024ac:	4a96      	ldr	r2, [pc, #600]	@ (8002708 <HAL_RCCEx_PeriphCLKConfig+0x46c>)
 80024ae:	f8d2 3088 	ldr.w	r3, [r2, #136]	@ 0x88
 80024b2:	f023 030c 	bic.w	r3, r3, #12
 80024b6:	6be1      	ldr	r1, [r4, #60]	@ 0x3c
 80024b8:	430b      	orrs	r3, r1
 80024ba:	f8c2 3088 	str.w	r3, [r2, #136]	@ 0x88
  if(((PeriphClkInit->PeriphClockSelection) & RCC_PERIPHCLK_USART3) == RCC_PERIPHCLK_USART3)
 80024be:	6823      	ldr	r3, [r4, #0]
 80024c0:	f013 0f04 	tst.w	r3, #4
 80024c4:	d008      	beq.n	80024d8 <HAL_RCCEx_PeriphCLKConfig+0x23c>
    __HAL_RCC_USART3_CONFIG(PeriphClkInit->Usart3ClockSelection);
 80024c6:	4a90      	ldr	r2, [pc, #576]	@ (8002708 <HAL_RCCEx_PeriphCLKConfig+0x46c>)
 80024c8:	f8d2 3088 	ldr.w	r3, [r2, #136]	@ 0x88
 80024cc:	f023 0330 	bic.w	r3, r3, #48	@ 0x30
 80024d0:	6c21      	ldr	r1, [r4, #64]	@ 0x40
 80024d2:	430b      	orrs	r3, r1
 80024d4:	f8c2 3088 	str.w	r3, [r2, #136]	@ 0x88
  if(((PeriphClkInit->PeriphClockSelection) & RCC_PERIPHCLK_UART4) == RCC_PERIPHCLK_UART4)
 80024d8:	6823      	ldr	r3, [r4, #0]
 80024da:	f013 0f08 	tst.w	r3, #8
 80024de:	d008      	beq.n	80024f2 <HAL_RCCEx_PeriphCLKConfig+0x256>
    __HAL_RCC_UART4_CONFIG(PeriphClkInit->Uart4ClockSelection);
 80024e0:	4a89      	ldr	r2, [pc, #548]	@ (8002708 <HAL_RCCEx_PeriphCLKConfig+0x46c>)
 80024e2:	f8d2 3088 	ldr.w	r3, [r2, #136]	@ 0x88
 80024e6:	f023 03c0 	bic.w	r3, r3, #192	@ 0xc0
 80024ea:	6c61      	ldr	r1, [r4, #68]	@ 0x44
 80024ec:	430b      	orrs	r3, r1
 80024ee:	f8c2 3088 	str.w	r3, [r2, #136]	@ 0x88
  if(((PeriphClkInit->PeriphClockSelection) & RCC_PERIPHCLK_UART5) == RCC_PERIPHCLK_UART5)
 80024f2:	6823      	ldr	r3, [r4, #0]
 80024f4:	f013 0f10 	tst.w	r3, #16
 80024f8:	d008      	beq.n	800250c <HAL_RCCEx_PeriphCLKConfig+0x270>
    __HAL_RCC_UART5_CONFIG(PeriphClkInit->Uart5ClockSelection);
 80024fa:	4a83      	ldr	r2, [pc, #524]	@ (8002708 <HAL_RCCEx_PeriphCLKConfig+0x46c>)
 80024fc:	f8d2 3088 	ldr.w	r3, [r2, #136]	@ 0x88
 8002500:	f423 7340 	bic.w	r3, r3, #768	@ 0x300
 8002504:	6ca1      	ldr	r1, [r4, #72]	@ 0x48
 8002506:	430b      	orrs	r3, r1
 8002508:	f8c2 3088 	str.w	r3, [r2, #136]	@ 0x88
  if(((PeriphClkInit->PeriphClockSelection) & RCC_PERIPHCLK_LPUART1) == RCC_PERIPHCLK_LPUART1)
 800250c:	6823      	ldr	r3, [r4, #0]
 800250e:	f013 0f20 	tst.w	r3, #32
 8002512:	d008      	beq.n	8002526 <HAL_RCCEx_PeriphCLKConfig+0x28a>
    __HAL_RCC_LPUART1_CONFIG(PeriphClkInit->Lpuart1ClockSelection);
 8002514:	4a7c      	ldr	r2, [pc, #496]	@ (8002708 <HAL_RCCEx_PeriphCLKConfig+0x46c>)
 8002516:	f8d2 3088 	ldr.w	r3, [r2, #136]	@ 0x88
 800251a:	f423 6340 	bic.w	r3, r3, #3072	@ 0xc00
 800251e:	6ce1      	ldr	r1, [r4, #76]	@ 0x4c
 8002520:	430b      	orrs	r3, r1
 8002522:	f8c2 3088 	str.w	r3, [r2, #136]	@ 0x88
  if(((PeriphClkInit->PeriphClockSelection) & RCC_PERIPHCLK_LPTIM1) == (RCC_PERIPHCLK_LPTIM1))
 8002526:	6823      	ldr	r3, [r4, #0]
 8002528:	f413 7f00 	tst.w	r3, #512	@ 0x200
 800252c:	d008      	beq.n	8002540 <HAL_RCCEx_PeriphCLKConfig+0x2a4>
    __HAL_RCC_LPTIM1_CONFIG(PeriphClkInit->Lptim1ClockSelection);
 800252e:	4a76      	ldr	r2, [pc, #472]	@ (8002708 <HAL_RCCEx_PeriphCLKConfig+0x46c>)
 8002530:	f8d2 3088 	ldr.w	r3, [r2, #136]	@ 0x88
 8002534:	f423 2340 	bic.w	r3, r3, #786432	@ 0xc0000
 8002538:	6de1      	ldr	r1, [r4, #92]	@ 0x5c
 800253a:	430b      	orrs	r3, r1
 800253c:	f8c2 3088 	str.w	r3, [r2, #136]	@ 0x88
  if(((PeriphClkInit->PeriphClockSelection) & RCC_PERIPHCLK_LPTIM2) == (RCC_PERIPHCLK_LPTIM2))
 8002540:	6823      	ldr	r3, [r4, #0]
 8002542:	f413 6f80 	tst.w	r3, #1024	@ 0x400
 8002546:	d008      	beq.n	800255a <HAL_RCCEx_PeriphCLKConfig+0x2be>
    __HAL_RCC_LPTIM2_CONFIG(PeriphClkInit->Lptim2ClockSelection);
 8002548:	4a6f      	ldr	r2, [pc, #444]	@ (8002708 <HAL_RCCEx_PeriphCLKConfig+0x46c>)
 800254a:	f8d2 3088 	ldr.w	r3, [r2, #136]	@ 0x88
 800254e:	f423 1340 	bic.w	r3, r3, #3145728	@ 0x300000
 8002552:	6e21      	ldr	r1, [r4, #96]	@ 0x60
 8002554:	430b      	orrs	r3, r1
 8002556:	f8c2 3088 	str.w	r3, [r2, #136]	@ 0x88
  if(((PeriphClkInit->PeriphClockSelection) & RCC_PERIPHCLK_I2C1) == RCC_PERIPHCLK_I2C1)
 800255a:	6823      	ldr	r3, [r4, #0]
 800255c:	f013 0f40 	tst.w	r3, #64	@ 0x40
 8002560:	d008      	beq.n	8002574 <HAL_RCCEx_PeriphCLKConfig+0x2d8>
    __HAL_RCC_I2C1_CONFIG(PeriphClkInit->I2c1ClockSelection);
 8002562:	4a69      	ldr	r2, [pc, #420]	@ (8002708 <HAL_RCCEx_PeriphCLKConfig+0x46c>)
 8002564:	f8d2 3088 	ldr.w	r3, [r2, #136]	@ 0x88
 8002568:	f423 5340 	bic.w	r3, r3, #12288	@ 0x3000
 800256c:	6d21      	ldr	r1, [r4, #80]	@ 0x50
 800256e:	430b      	orrs	r3, r1
 8002570:	f8c2 3088 	str.w	r3, [r2, #136]	@ 0x88
  if(((PeriphClkInit->PeriphClockSelection) & RCC_PERIPHCLK_I2C2) == RCC_PERIPHCLK_I2C2)
 8002574:	6823      	ldr	r3, [r4, #0]
 8002576:	f013 0f80 	tst.w	r3, #128	@ 0x80
 800257a:	d008      	beq.n	800258e <HAL_RCCEx_PeriphCLKConfig+0x2f2>
    __HAL_RCC_I2C2_CONFIG(PeriphClkInit->I2c2ClockSelection);
 800257c:	4a62      	ldr	r2, [pc, #392]	@ (8002708 <HAL_RCCEx_PeriphCLKConfig+0x46c>)
 800257e:	f8d2 3088 	ldr.w	r3, [r2, #136]	@ 0x88
 8002582:	f423 4340 	bic.w	r3, r3, #49152	@ 0xc000
 8002586:	6d61      	ldr	r1, [r4, #84]	@ 0x54
 8002588:	430b      	orrs	r3, r1
 800258a:	f8c2 3088 	str.w	r3, [r2, #136]	@ 0x88
  if(((PeriphClkInit->PeriphClockSelection) & RCC_PERIPHCLK_I2C3) == RCC_PERIPHCLK_I2C3)
 800258e:	6823      	ldr	r3, [r4, #0]
 8002590:	f413 7f80 	tst.w	r3, #256	@ 0x100
 8002594:	d008      	beq.n	80025a8 <HAL_RCCEx_PeriphCLKConfig+0x30c>
    __HAL_RCC_I2C3_CONFIG(PeriphClkInit->I2c3ClockSelection);
 8002596:	4a5c      	ldr	r2, [pc, #368]	@ (8002708 <HAL_RCCEx_PeriphCLKConfig+0x46c>)
 8002598:	f8d2 3088 	ldr.w	r3, [r2, #136]	@ 0x88
 800259c:	f423 3340 	bic.w	r3, r3, #196608	@ 0x30000
 80025a0:	6da1      	ldr	r1, [r4, #88]	@ 0x58
 80025a2:	430b      	orrs	r3, r1
 80025a4:	f8c2 3088 	str.w	r3, [r2, #136]	@ 0x88
  if(((PeriphClkInit->PeriphClockSelection) & RCC_PERIPHCLK_USB) == (RCC_PERIPHCLK_USB))
 80025a8:	6823      	ldr	r3, [r4, #0]
 80025aa:	f413 5f00 	tst.w	r3, #8192	@ 0x2000
 80025ae:	d00f      	beq.n	80025d0 <HAL_RCCEx_PeriphCLKConfig+0x334>
    __HAL_RCC_USB_CONFIG(PeriphClkInit->UsbClockSelection);
 80025b0:	4a55      	ldr	r2, [pc, #340]	@ (8002708 <HAL_RCCEx_PeriphCLKConfig+0x46c>)
 80025b2:	f8d2 3088 	ldr.w	r3, [r2, #136]	@ 0x88
 80025b6:	f023 6340 	bic.w	r3, r3, #201326592	@ 0xc000000
 80025ba:	6ee1      	ldr	r1, [r4, #108]	@ 0x6c
 80025bc:	430b      	orrs	r3, r1
 80025be:	f8c2 3088 	str.w	r3, [r2, #136]	@ 0x88
    if(PeriphClkInit->UsbClockSelection == RCC_USBCLKSOURCE_PLL)
 80025c2:	6ee3      	ldr	r3, [r4, #108]	@ 0x6c
 80025c4:	f1b3 6f00 	cmp.w	r3, #134217728	@ 0x8000000
 80025c8:	d065      	beq.n	8002696 <HAL_RCCEx_PeriphCLKConfig+0x3fa>
      if(PeriphClkInit->UsbClockSelection == RCC_USBCLKSOURCE_PLLSAI1)
 80025ca:	f1b3 6f80 	cmp.w	r3, #67108864	@ 0x4000000
 80025ce:	d067      	beq.n	80026a0 <HAL_RCCEx_PeriphCLKConfig+0x404>
  if(((PeriphClkInit->PeriphClockSelection) & RCC_PERIPHCLK_SDMMC1) == (RCC_PERIPHCLK_SDMMC1))
 80025d0:	6823      	ldr	r3, [r4, #0]
 80025d2:	f413 2f00 	tst.w	r3, #524288	@ 0x80000
 80025d6:	d00f      	beq.n	80025f8 <HAL_RCCEx_PeriphCLKConfig+0x35c>
    __HAL_RCC_SDMMC1_CONFIG(PeriphClkInit->Sdmmc1ClockSelection);
 80025d8:	4a4b      	ldr	r2, [pc, #300]	@ (8002708 <HAL_RCCEx_PeriphCLKConfig+0x46c>)
 80025da:	f8d2 3088 	ldr.w	r3, [r2, #136]	@ 0x88
 80025de:	f023 6340 	bic.w	r3, r3, #201326592	@ 0xc000000
 80025e2:	6f21      	ldr	r1, [r4, #112]	@ 0x70
 80025e4:	430b      	orrs	r3, r1
 80025e6:	f8c2 3088 	str.w	r3, [r2, #136]	@ 0x88
    if(PeriphClkInit->Sdmmc1ClockSelection == RCC_SDMMC1CLKSOURCE_PLL)   /* PLL "Q" ? */
 80025ea:	6f23      	ldr	r3, [r4, #112]	@ 0x70
 80025ec:	f1b3 6f00 	cmp.w	r3, #134217728	@ 0x8000000
 80025f0:	d05e      	beq.n	80026b0 <HAL_RCCEx_PeriphCLKConfig+0x414>
    else if(PeriphClkInit->Sdmmc1ClockSelection == RCC_SDMMC1CLKSOURCE_PLLSAI1)
 80025f2:	f1b3 6f80 	cmp.w	r3, #67108864	@ 0x4000000
 80025f6:	d060      	beq.n	80026ba <HAL_RCCEx_PeriphCLKConfig+0x41e>
  if(((PeriphClkInit->PeriphClockSelection) & RCC_PERIPHCLK_RNG) == (RCC_PERIPHCLK_RNG))
 80025f8:	6823      	ldr	r3, [r4, #0]
 80025fa:	f413 2f80 	tst.w	r3, #262144	@ 0x40000
 80025fe:	d00f      	beq.n	8002620 <HAL_RCCEx_PeriphCLKConfig+0x384>
    __HAL_RCC_RNG_CONFIG(PeriphClkInit->RngClockSelection);
 8002600:	4a41      	ldr	r2, [pc, #260]	@ (8002708 <HAL_RCCEx_PeriphCLKConfig+0x46c>)
 8002602:	f8d2 3088 	ldr.w	r3, [r2, #136]	@ 0x88
 8002606:	f023 6340 	bic.w	r3, r3, #201326592	@ 0xc000000
 800260a:	6f61      	ldr	r1, [r4, #116]	@ 0x74
 800260c:	430b      	orrs	r3, r1
 800260e:	f8c2 3088 	str.w	r3, [r2, #136]	@ 0x88
    if(PeriphClkInit->RngClockSelection == RCC_RNGCLKSOURCE_PLL)
 8002612:	6f63      	ldr	r3, [r4, #116]	@ 0x74
 8002614:	f1b3 6f00 	cmp.w	r3, #134217728	@ 0x8000000
 8002618:	d057      	beq.n	80026ca <HAL_RCCEx_PeriphCLKConfig+0x42e>
    else if(PeriphClkInit->RngClockSelection == RCC_RNGCLKSOURCE_PLLSAI1)
 800261a:	f1b3 6f80 	cmp.w	r3, #67108864	@ 0x4000000
 800261e:	d059      	beq.n	80026d4 <HAL_RCCEx_PeriphCLKConfig+0x438>
  if(((PeriphClkInit->PeriphClockSelection) & RCC_PERIPHCLK_ADC) == RCC_PERIPHCLK_ADC)
 8002620:	6823      	ldr	r3, [r4, #0]
 8002622:	f413 4f80 	tst.w	r3, #16384	@ 0x4000
 8002626:	d00f      	beq.n	8002648 <HAL_RCCEx_PeriphCLKConfig+0x3ac>
    __HAL_RCC_ADC_CONFIG(PeriphClkInit->AdcClockSelection);
 8002628:	4a37      	ldr	r2, [pc, #220]	@ (8002708 <HAL_RCCEx_PeriphCLKConfig+0x46c>)
 800262a:	f8d2 3088 	ldr.w	r3, [r2, #136]	@ 0x88
 800262e:	f023 5340 	bic.w	r3, r3, #805306368	@ 0x30000000
 8002632:	6fa1      	ldr	r1, [r4, #120]	@ 0x78
 8002634:	430b      	orrs	r3, r1
 8002636:	f8c2 3088 	str.w	r3, [r2, #136]	@ 0x88
    if(PeriphClkInit->AdcClockSelection == RCC_ADCCLKSOURCE_PLLSAI1)
 800263a:	6fa3      	ldr	r3, [r4, #120]	@ 0x78
 800263c:	f1b3 5f80 	cmp.w	r3, #268435456	@ 0x10000000
 8002640:	d050      	beq.n	80026e4 <HAL_RCCEx_PeriphCLKConfig+0x448>
    else if(PeriphClkInit->AdcClockSelection == RCC_ADCCLKSOURCE_PLLSAI2)
 8002642:	f1b3 5f00 	cmp.w	r3, #536870912	@ 0x20000000
 8002646:	d055      	beq.n	80026f4 <HAL_RCCEx_PeriphCLKConfig+0x458>
  if(((PeriphClkInit->PeriphClockSelection) & RCC_PERIPHCLK_SWPMI1) == RCC_PERIPHCLK_SWPMI1)
 8002648:	6823      	ldr	r3, [r4, #0]
 800264a:	f413 4f00 	tst.w	r3, #32768	@ 0x8000
 800264e:	d008      	beq.n	8002662 <HAL_RCCEx_PeriphCLKConfig+0x3c6>
    __HAL_RCC_SWPMI1_CONFIG(PeriphClkInit->Swpmi1ClockSelection);
 8002650:	4a2d      	ldr	r2, [pc, #180]	@ (8002708 <HAL_RCCEx_PeriphCLKConfig+0x46c>)
 8002652:	f8d2 3088 	ldr.w	r3, [r2, #136]	@ 0x88
 8002656:	f023 4380 	bic.w	r3, r3, #1073741824	@ 0x40000000
 800265a:	6fe1      	ldr	r1, [r4, #124]	@ 0x7c
 800265c:	430b      	orrs	r3, r1
 800265e:	f8c2 3088 	str.w	r3, [r2, #136]	@ 0x88
  if(((PeriphClkInit->PeriphClockSelection) & RCC_PERIPHCLK_DFSDM1) == RCC_PERIPHCLK_DFSDM1)
 8002662:	6823      	ldr	r3, [r4, #0]
 8002664:	f413 3f80 	tst.w	r3, #65536	@ 0x10000
 8002668:	d009      	beq.n	800267e <HAL_RCCEx_PeriphCLKConfig+0x3e2>
    __HAL_RCC_DFSDM1_CONFIG(PeriphClkInit->Dfsdm1ClockSelection);
 800266a:	4a27      	ldr	r2, [pc, #156]	@ (8002708 <HAL_RCCEx_PeriphCLKConfig+0x46c>)
 800266c:	f8d2 3088 	ldr.w	r3, [r2, #136]	@ 0x88
 8002670:	f023 4300 	bic.w	r3, r3, #2147483648	@ 0x80000000
 8002674:	f8d4 1080 	ldr.w	r1, [r4, #128]	@ 0x80
 8002678:	430b      	orrs	r3, r1
 800267a:	f8c2 3088 	str.w	r3, [r2, #136]	@ 0x88
}
 800267e:	4638      	mov	r0, r7
 8002680:	b002      	add	sp, #8
 8002682:	e8bd 81f0 	ldmia.w	sp!, {r4, r5, r6, r7, r8, pc}
        status = ret;
 8002686:	4637      	mov	r7, r6
 8002688:	e6fb      	b.n	8002482 <HAL_RCCEx_PeriphCLKConfig+0x1e6>
      __HAL_RCC_PWR_CLK_DISABLE();
 800268a:	4a1f      	ldr	r2, [pc, #124]	@ (8002708 <HAL_RCCEx_PeriphCLKConfig+0x46c>)
 800268c:	6d93      	ldr	r3, [r2, #88]	@ 0x58
 800268e:	f023 5380 	bic.w	r3, r3, #268435456	@ 0x10000000
 8002692:	6593      	str	r3, [r2, #88]	@ 0x58
 8002694:	e6f9      	b.n	800248a <HAL_RCCEx_PeriphCLKConfig+0x1ee>
      __HAL_RCC_PLLCLKOUT_ENABLE(RCC_PLL_48M1CLK);
 8002696:	68d3      	ldr	r3, [r2, #12]
 8002698:	f443 1380 	orr.w	r3, r3, #1048576	@ 0x100000
 800269c:	60d3      	str	r3, [r2, #12]
 800269e:	e797      	b.n	80025d0 <HAL_RCCEx_PeriphCLKConfig+0x334>
        ret = RCCEx_PLLSAI1_Config(&(PeriphClkInit->PLLSAI1), DIVIDER_Q_UPDATE);
 80026a0:	2101      	movs	r1, #1
 80026a2:	1d20      	adds	r0, r4, #4
 80026a4:	f7ff fc86 	bl	8001fb4 <RCCEx_PLLSAI1_Config>
        if(ret != HAL_OK)
 80026a8:	2800      	cmp	r0, #0
 80026aa:	d091      	beq.n	80025d0 <HAL_RCCEx_PeriphCLKConfig+0x334>
          status = ret;
 80026ac:	4607      	mov	r7, r0
 80026ae:	e78f      	b.n	80025d0 <HAL_RCCEx_PeriphCLKConfig+0x334>
      __HAL_RCC_PLLCLKOUT_ENABLE(RCC_PLL_48M1CLK);
 80026b0:	68d3      	ldr	r3, [r2, #12]
 80026b2:	f443 1380 	orr.w	r3, r3, #1048576	@ 0x100000
 80026b6:	60d3      	str	r3, [r2, #12]
 80026b8:	e79e      	b.n	80025f8 <HAL_RCCEx_PeriphCLKConfig+0x35c>
      ret = RCCEx_PLLSAI1_Config(&(PeriphClkInit->PLLSAI1), DIVIDER_Q_UPDATE);
 80026ba:	2101      	movs	r1, #1
 80026bc:	1d20      	adds	r0, r4, #4
 80026be:	f7ff fc79 	bl	8001fb4 <RCCEx_PLLSAI1_Config>
      if(ret != HAL_OK)
 80026c2:	2800      	cmp	r0, #0
 80026c4:	d098      	beq.n	80025f8 <HAL_RCCEx_PeriphCLKConfig+0x35c>
        status = ret;
 80026c6:	4607      	mov	r7, r0
 80026c8:	e796      	b.n	80025f8 <HAL_RCCEx_PeriphCLKConfig+0x35c>
      __HAL_RCC_PLLCLKOUT_ENABLE(RCC_PLL_48M1CLK);
 80026ca:	68d3      	ldr	r3, [r2, #12]
 80026cc:	f443 1380 	orr.w	r3, r3, #1048576	@ 0x100000
 80026d0:	60d3      	str	r3, [r2, #12]
 80026d2:	e7a5      	b.n	8002620 <HAL_RCCEx_PeriphCLKConfig+0x384>
      ret = RCCEx_PLLSAI1_Config(&(PeriphClkInit->PLLSAI1), DIVIDER_Q_UPDATE);
 80026d4:	2101      	movs	r1, #1
 80026d6:	1d20      	adds	r0, r4, #4
 80026d8:	f7ff fc6c 	bl	8001fb4 <RCCEx_PLLSAI1_Config>
      if(ret != HAL_OK)
 80026dc:	2800      	cmp	r0, #0
 80026de:	d09f      	beq.n	8002620 <HAL_RCCEx_PeriphCLKConfig+0x384>
        status = ret;
 80026e0:	4607      	mov	r7, r0
 80026e2:	e79d      	b.n	8002620 <HAL_RCCEx_PeriphCLKConfig+0x384>
      ret = RCCEx_PLLSAI1_Config(&(PeriphClkInit->PLLSAI1), DIVIDER_R_UPDATE);
 80026e4:	2102      	movs	r1, #2
 80026e6:	1d20      	adds	r0, r4, #4
 80026e8:	f7ff fc64 	bl	8001fb4 <RCCEx_PLLSAI1_Config>
      if(ret != HAL_OK)
 80026ec:	2800      	cmp	r0, #0
 80026ee:	d0ab      	beq.n	8002648 <HAL_RCCEx_PeriphCLKConfig+0x3ac>
        status = ret;
 80026f0:	4607      	mov	r7, r0
 80026f2:	e7a9      	b.n	8002648 <HAL_RCCEx_PeriphCLKConfig+0x3ac>
      ret = RCCEx_PLLSAI2_Config(&(PeriphClkInit->PLLSAI2), DIVIDER_R_UPDATE);
 80026f4:	2102      	movs	r1, #2
 80026f6:	f104 0020 	add.w	r0, r4, #32
 80026fa:	f7ff fd1f 	bl	800213c <RCCEx_PLLSAI2_Config>
      if(ret != HAL_OK)
 80026fe:	2800      	cmp	r0, #0
 8002700:	d0a2      	beq.n	8002648 <HAL_RCCEx_PeriphCLKConfig+0x3ac>
        status = ret;
 8002702:	4607      	mov	r7, r0
 8002704:	e7a0      	b.n	8002648 <HAL_RCCEx_PeriphCLKConfig+0x3ac>
 8002706:	bf00      	nop
 8002708:	40021000 	.word	0x40021000

0800270c <HAL_RTC_WaitForSynchro>:
  *         correctly copied into the RTC_TR and RTC_DR shadow registers.
  * @param  hrtc RTC handle
  * @retval HAL status
  */
HAL_StatusTypeDef HAL_RTC_WaitForSynchro(RTC_HandleTypeDef *hrtc)
{
 800270c:	b538      	push	{r3, r4, r5, lr}
 800270e:	4604      	mov	r4, r0
#elif defined (STM32L4P5xx) || defined (STM32L4Q5xx)
  /* Clear RSF flag (use a read-modify-write sequence to preserve the other read-write bits) */
  hrtc->Instance->ICSR &= (uint32_t)RTC_RSF_MASK;
#else
  /* Clear RSF flag, keep reserved bits at reset values (setting other flags has no effect) */
  hrtc->Instance->ISR = ((uint32_t)(RTC_RSF_MASK & RTC_ISR_RESERVED_MASK));
 8002710:	6803      	ldr	r3, [r0, #0]
 8002712:	4a0a      	ldr	r2, [pc, #40]	@ (800273c <HAL_RTC_WaitForSynchro+0x30>)
 8002714:	60da      	str	r2, [r3, #12]
#endif

  tickstart = HAL_GetTick();
 8002716:	f7fe f921 	bl	800095c <HAL_GetTick>
 800271a:	4605      	mov	r5, r0

  /* Wait the registers to be synchronised */
#if defined(STM32L412xx) || defined(STM32L422xx) || defined (STM32L4P5xx) || defined (STM32L4Q5xx)
  while ((hrtc->Instance->ICSR & RTC_ICSR_RSF) == 0U)
#else
  while ((hrtc->Instance->ISR & RTC_ISR_RSF) == 0U)
 800271c:	6823      	ldr	r3, [r4, #0]
 800271e:	68db      	ldr	r3, [r3, #12]
 8002720:	f013 0f20 	tst.w	r3, #32
 8002724:	d107      	bne.n	8002736 <HAL_RTC_WaitForSynchro+0x2a>
#endif
  {
    if ((HAL_GetTick() - tickstart) > RTC_TIMEOUT_VALUE)
 8002726:	f7fe f919 	bl	800095c <HAL_GetTick>
 800272a:	1b40      	subs	r0, r0, r5
 800272c:	f5b0 7f7a 	cmp.w	r0, #1000	@ 0x3e8
 8002730:	d9f4      	bls.n	800271c <HAL_RTC_WaitForSynchro+0x10>
    {
      return HAL_TIMEOUT;
 8002732:	2003      	movs	r0, #3
 8002734:	e000      	b.n	8002738 <HAL_RTC_WaitForSynchro+0x2c>
    }
  }

  return HAL_OK;
 8002736:	2000      	movs	r0, #0
}
 8002738:	bd38      	pop	{r3, r4, r5, pc}
 800273a:	bf00      	nop
 800273c:	0003ff5f 	.word	0x0003ff5f

08002740 <RTC_EnterInitMode>:
  *         __HAL_RTC_WRITEPROTECTION_DISABLE() before calling this function.
  * @param  hrtc RTC handle
  * @retval HAL status
  */
HAL_StatusTypeDef RTC_EnterInitMode(RTC_HandleTypeDef *hrtc)
{
 8002740:	b570      	push	{r4, r5, r6, lr}
        hrtc->State = HAL_RTC_STATE_TIMEOUT;
      }
    }
  }
#else /* #if defined(STM32L412xx) || defined(STM32L422xx) || defined (STM32L4P5xx) || defined (STM32L4Q5xx) */
  if ((hrtc->Instance->ISR & RTC_ISR_INITF) == 0U)
 8002742:	6803      	ldr	r3, [r0, #0]
 8002744:	68da      	ldr	r2, [r3, #12]
 8002746:	f012 0f40 	tst.w	r2, #64	@ 0x40
 800274a:	d002      	beq.n	8002752 <RTC_EnterInitMode+0x12>
  HAL_StatusTypeDef status = HAL_OK;
 800274c:	2500      	movs	r5, #0
    }
  }
#endif /* #if defined(STM32L412xx) || defined(STM32L422xx) || defined (STM32L4P5xx) || defined (STM32L4Q5xx) */

  return status;
}
 800274e:	4628      	mov	r0, r5
 8002750:	bd70      	pop	{r4, r5, r6, pc}
 8002752:	4604      	mov	r4, r0
    hrtc->Instance->ISR = (uint32_t)RTC_INIT_MASK;
 8002754:	f04f 32ff 	mov.w	r2, #4294967295	@ 0xffffffff
 8002758:	60da      	str	r2, [r3, #12]
    tickstart = HAL_GetTick();
 800275a:	f7fe f8ff 	bl	800095c <HAL_GetTick>
 800275e:	4606      	mov	r6, r0
  HAL_StatusTypeDef status = HAL_OK;
 8002760:	2500      	movs	r5, #0
    while ((READ_BIT(hrtc->Instance->ISR, RTC_ISR_INITF) == 0U) && (status != HAL_TIMEOUT))
 8002762:	6823      	ldr	r3, [r4, #0]
 8002764:	68db      	ldr	r3, [r3, #12]
 8002766:	f013 0f40 	tst.w	r3, #64	@ 0x40
 800276a:	d1f0      	bne.n	800274e <RTC_EnterInitMode+0xe>
 800276c:	2d03      	cmp	r5, #3
 800276e:	d0ee      	beq.n	800274e <RTC_EnterInitMode+0xe>
      if ((HAL_GetTick()  - tickstart) > RTC_TIMEOUT_VALUE)
 8002770:	f7fe f8f4 	bl	800095c <HAL_GetTick>
 8002774:	1b83      	subs	r3, r0, r6
 8002776:	f5b3 7f7a 	cmp.w	r3, #1000	@ 0x3e8
 800277a:	d9f2      	bls.n	8002762 <RTC_EnterInitMode+0x22>
        hrtc->State = HAL_RTC_STATE_TIMEOUT;
 800277c:	2503      	movs	r5, #3
 800277e:	f884 5021 	strb.w	r5, [r4, #33]	@ 0x21
 8002782:	e7ee      	b.n	8002762 <RTC_EnterInitMode+0x22>

08002784 <RTC_ExitInitMode>:
  * @brief  Exit the RTC Initialization mode.
  * @param  hrtc RTC handle
  * @retval HAL status
  */
HAL_StatusTypeDef RTC_ExitInitMode(RTC_HandleTypeDef *hrtc)
{
 8002784:	b510      	push	{r4, lr}
 8002786:	4604      	mov	r4, r0
  /* Exit Initialization mode */
#if defined(STM32L412xx) || defined(STM32L422xx) || defined(STM32L4P5xx) || defined(STM32L4Q5xx)
  CLEAR_BIT(RTC->ICSR, RTC_ICSR_INIT);
#else
  /* Exit Initialization mode */
  CLEAR_BIT(RTC->ISR, RTC_ISR_INIT);
 8002788:	4b10      	ldr	r3, [pc, #64]	@ (80027cc <RTC_ExitInitMode+0x48>)
 800278a:	68da      	ldr	r2, [r3, #12]
 800278c:	f022 0280 	bic.w	r2, r2, #128	@ 0x80
 8002790:	60da      	str	r2, [r3, #12]
#endif

  /* If CR_BYPSHAD bit = 0, wait for synchro */
  if (READ_BIT(RTC->CR, RTC_CR_BYPSHAD) == 0U)
 8002792:	689b      	ldr	r3, [r3, #8]
 8002794:	f013 0f20 	tst.w	r3, #32
 8002798:	d106      	bne.n	80027a8 <RTC_ExitInitMode+0x24>
  {
    if (HAL_RTC_WaitForSynchro(hrtc) != HAL_OK)
 800279a:	f7ff ffb7 	bl	800270c <HAL_RTC_WaitForSynchro>
 800279e:	b198      	cbz	r0, 80027c8 <RTC_ExitInitMode+0x44>
    {
      hrtc->State = HAL_RTC_STATE_TIMEOUT;
 80027a0:	2003      	movs	r0, #3
 80027a2:	f884 0021 	strb.w	r0, [r4, #33]	@ 0x21
      status = HAL_TIMEOUT;
 80027a6:	e00f      	b.n	80027c8 <RTC_ExitInitMode+0x44>
    }
  }
  else /* WA 2.9.6 Calendar initialization may fail in case of consecutive INIT mode entry */
  {
    /* Clear BYPSHAD bit */
    CLEAR_BIT(RTC->CR, RTC_CR_BYPSHAD);
 80027a8:	4a08      	ldr	r2, [pc, #32]	@ (80027cc <RTC_ExitInitMode+0x48>)
 80027aa:	6893      	ldr	r3, [r2, #8]
 80027ac:	f023 0320 	bic.w	r3, r3, #32
 80027b0:	6093      	str	r3, [r2, #8]
    if (HAL_RTC_WaitForSynchro(hrtc) != HAL_OK)
 80027b2:	f7ff ffab 	bl	800270c <HAL_RTC_WaitForSynchro>
 80027b6:	b110      	cbz	r0, 80027be <RTC_ExitInitMode+0x3a>
    {
      hrtc->State = HAL_RTC_STATE_TIMEOUT;
 80027b8:	2003      	movs	r0, #3
 80027ba:	f884 0021 	strb.w	r0, [r4, #33]	@ 0x21
      status = HAL_TIMEOUT;
    }
    /* Restore BYPSHAD bit */
    SET_BIT(RTC->CR, RTC_CR_BYPSHAD);
 80027be:	4a03      	ldr	r2, [pc, #12]	@ (80027cc <RTC_ExitInitMode+0x48>)
 80027c0:	6893      	ldr	r3, [r2, #8]
 80027c2:	f043 0320 	orr.w	r3, r3, #32
 80027c6:	6093      	str	r3, [r2, #8]
  }

  return status;
}
 80027c8:	bd10      	pop	{r4, pc}
 80027ca:	bf00      	nop
 80027cc:	40002800 	.word	0x40002800

080027d0 <HAL_RTC_Init>:
  if (hrtc != NULL)
 80027d0:	2800      	cmp	r0, #0
 80027d2:	d04e      	beq.n	8002872 <HAL_RTC_Init+0xa2>
{
 80027d4:	b538      	push	{r3, r4, r5, lr}
 80027d6:	4604      	mov	r4, r0
    if (hrtc->State == HAL_RTC_STATE_RESET)
 80027d8:	f890 3021 	ldrb.w	r3, [r0, #33]	@ 0x21
 80027dc:	b163      	cbz	r3, 80027f8 <HAL_RTC_Init+0x28>
    hrtc->State = HAL_RTC_STATE_BUSY;
 80027de:	2302      	movs	r3, #2
 80027e0:	f884 3021 	strb.w	r3, [r4, #33]	@ 0x21
    if (__HAL_RTC_IS_CALENDAR_INITIALIZED(hrtc) == 0U)
 80027e4:	6823      	ldr	r3, [r4, #0]
 80027e6:	68da      	ldr	r2, [r3, #12]
 80027e8:	f012 0f10 	tst.w	r2, #16
 80027ec:	d009      	beq.n	8002802 <HAL_RTC_Init+0x32>
      status = HAL_OK;
 80027ee:	2000      	movs	r0, #0
        hrtc->State = HAL_RTC_STATE_READY;
 80027f0:	2301      	movs	r3, #1
 80027f2:	f884 3021 	strb.w	r3, [r4, #33]	@ 0x21
}
 80027f6:	bd38      	pop	{r3, r4, r5, pc}
      hrtc->Lock = HAL_UNLOCKED;
 80027f8:	f880 3020 	strb.w	r3, [r0, #32]
      HAL_RTC_MspInit(hrtc);
 80027fc:	f7fe fe6e 	bl	80014dc <HAL_RTC_MspInit>
 8002800:	e7ed      	b.n	80027de <HAL_RTC_Init+0xe>
      __HAL_RTC_WRITEPROTECTION_DISABLE(hrtc);
 8002802:	22ca      	movs	r2, #202	@ 0xca
 8002804:	625a      	str	r2, [r3, #36]	@ 0x24
 8002806:	6823      	ldr	r3, [r4, #0]
 8002808:	2253      	movs	r2, #83	@ 0x53
 800280a:	625a      	str	r2, [r3, #36]	@ 0x24
      status = RTC_EnterInitMode(hrtc);
 800280c:	4620      	mov	r0, r4
 800280e:	f7ff ff97 	bl	8002740 <RTC_EnterInitMode>
      if (status == HAL_OK)
 8002812:	b9c0      	cbnz	r0, 8002846 <HAL_RTC_Init+0x76>
        hrtc->Instance->CR &= ~(RTC_CR_FMT | RTC_CR_OSEL | RTC_CR_POL);
 8002814:	6822      	ldr	r2, [r4, #0]
 8002816:	6893      	ldr	r3, [r2, #8]
 8002818:	f423 03e0 	bic.w	r3, r3, #7340032	@ 0x700000
 800281c:	f023 0340 	bic.w	r3, r3, #64	@ 0x40
 8002820:	6093      	str	r3, [r2, #8]
        hrtc->Instance->CR |= (hrtc->Init.HourFormat | hrtc->Init.OutPut | hrtc->Init.OutPutPolarity);
 8002822:	6821      	ldr	r1, [r4, #0]
 8002824:	688a      	ldr	r2, [r1, #8]
 8002826:	6863      	ldr	r3, [r4, #4]
 8002828:	6920      	ldr	r0, [r4, #16]
 800282a:	4303      	orrs	r3, r0
 800282c:	69a0      	ldr	r0, [r4, #24]
 800282e:	4303      	orrs	r3, r0
 8002830:	4313      	orrs	r3, r2
 8002832:	608b      	str	r3, [r1, #8]
        hrtc->Instance->PRER = (hrtc->Init.SynchPrediv);
 8002834:	6823      	ldr	r3, [r4, #0]
 8002836:	68e2      	ldr	r2, [r4, #12]
 8002838:	611a      	str	r2, [r3, #16]
        hrtc->Instance->PRER |= (hrtc->Init.AsynchPrediv << RTC_PRER_PREDIV_A_Pos);
 800283a:	6822      	ldr	r2, [r4, #0]
 800283c:	6913      	ldr	r3, [r2, #16]
 800283e:	68a1      	ldr	r1, [r4, #8]
 8002840:	ea43 4301 	orr.w	r3, r3, r1, lsl #16
 8002844:	6113      	str	r3, [r2, #16]
      status = RTC_ExitInitMode(hrtc);
 8002846:	4620      	mov	r0, r4
 8002848:	f7ff ff9c 	bl	8002784 <RTC_ExitInitMode>
      if (status == HAL_OK)
 800284c:	b958      	cbnz	r0, 8002866 <HAL_RTC_Init+0x96>
        hrtc->Instance->OR &= ~(RTC_OR_ALARMOUTTYPE | RTC_OR_OUT_RMP);
 800284e:	6822      	ldr	r2, [r4, #0]
 8002850:	6cd3      	ldr	r3, [r2, #76]	@ 0x4c
 8002852:	f023 0303 	bic.w	r3, r3, #3
 8002856:	64d3      	str	r3, [r2, #76]	@ 0x4c
        hrtc->Instance->OR |= (hrtc->Init.OutPutType | hrtc->Init.OutPutRemap);
 8002858:	6821      	ldr	r1, [r4, #0]
 800285a:	6ccb      	ldr	r3, [r1, #76]	@ 0x4c
 800285c:	69e2      	ldr	r2, [r4, #28]
 800285e:	6965      	ldr	r5, [r4, #20]
 8002860:	432a      	orrs	r2, r5
 8002862:	4313      	orrs	r3, r2
 8002864:	64cb      	str	r3, [r1, #76]	@ 0x4c
      __HAL_RTC_WRITEPROTECTION_ENABLE(hrtc);
 8002866:	6823      	ldr	r3, [r4, #0]
 8002868:	22ff      	movs	r2, #255	@ 0xff
 800286a:	625a      	str	r2, [r3, #36]	@ 0x24
    if (status == HAL_OK)
 800286c:	2800      	cmp	r0, #0
 800286e:	d1c2      	bne.n	80027f6 <HAL_RTC_Init+0x26>
 8002870:	e7be      	b.n	80027f0 <HAL_RTC_Init+0x20>
  HAL_StatusTypeDef status = HAL_ERROR;
 8002872:	2001      	movs	r0, #1
}
 8002874:	4770      	bx	lr

08002876 <RTC_ByteToBcd2>:
  * @param  Value Byte to be converted
  * @retval Converted byte
  */
uint8_t RTC_ByteToBcd2(uint8_t Value)
{
  uint32_t bcdhigh = 0U;
 8002876:	2300      	movs	r3, #0
  uint8_t temp = Value;

  while (temp >= 10U)
 8002878:	e002      	b.n	8002880 <RTC_ByteToBcd2+0xa>
  {
    bcdhigh++;
 800287a:	3301      	adds	r3, #1
    temp -= 10U;
 800287c:	380a      	subs	r0, #10
 800287e:	b2c0      	uxtb	r0, r0
  while (temp >= 10U)
 8002880:	2809      	cmp	r0, #9
 8002882:	d8fa      	bhi.n	800287a <RTC_ByteToBcd2+0x4>
  }

  return ((uint8_t)(bcdhigh << 4U) | temp);
 8002884:	011b      	lsls	r3, r3, #4
 8002886:	b2db      	uxtb	r3, r3
}
 8002888:	4318      	orrs	r0, r3
 800288a:	4770      	bx	lr

0800288c <HAL_RTC_SetTime>:
  __HAL_LOCK(hrtc);
 800288c:	f890 3020 	ldrb.w	r3, [r0, #32]
 8002890:	2b01      	cmp	r3, #1
 8002892:	d061      	beq.n	8002958 <HAL_RTC_SetTime+0xcc>
{
 8002894:	b570      	push	{r4, r5, r6, lr}
 8002896:	4604      	mov	r4, r0
 8002898:	460d      	mov	r5, r1
 800289a:	4616      	mov	r6, r2
  __HAL_LOCK(hrtc);
 800289c:	2301      	movs	r3, #1
 800289e:	f880 3020 	strb.w	r3, [r0, #32]
  hrtc->State = HAL_RTC_STATE_BUSY;
 80028a2:	2302      	movs	r3, #2
 80028a4:	f880 3021 	strb.w	r3, [r0, #33]	@ 0x21
  __HAL_RTC_WRITEPROTECTION_DISABLE(hrtc);
 80028a8:	6803      	ldr	r3, [r0, #0]
 80028aa:	22ca      	movs	r2, #202	@ 0xca
 80028ac:	625a      	str	r2, [r3, #36]	@ 0x24
 80028ae:	6803      	ldr	r3, [r0, #0]
 80028b0:	2253      	movs	r2, #83	@ 0x53
 80028b2:	625a      	str	r2, [r3, #36]	@ 0x24
  status = RTC_EnterInitMode(hrtc);
 80028b4:	f7ff ff44 	bl	8002740 <RTC_EnterInitMode>
  if (status == HAL_OK)
 80028b8:	2800      	cmp	r0, #0
 80028ba:	d130      	bne.n	800291e <HAL_RTC_SetTime+0x92>
    if (Format == RTC_FORMAT_BIN)
 80028bc:	2e00      	cmp	r6, #0
 80028be:	d139      	bne.n	8002934 <HAL_RTC_SetTime+0xa8>
      if ((hrtc->Instance->CR & RTC_CR_FMT) != 0U)
 80028c0:	6823      	ldr	r3, [r4, #0]
 80028c2:	689b      	ldr	r3, [r3, #8]
 80028c4:	f013 0f40 	tst.w	r3, #64	@ 0x40
 80028c8:	d101      	bne.n	80028ce <HAL_RTC_SetTime+0x42>
        sTime->TimeFormat = 0x00U;
 80028ca:	2300      	movs	r3, #0
 80028cc:	70eb      	strb	r3, [r5, #3]
      tmpreg = (uint32_t)(((uint32_t)RTC_ByteToBcd2(sTime->Hours) << RTC_TR_HU_Pos) | \
 80028ce:	7828      	ldrb	r0, [r5, #0]
 80028d0:	f7ff ffd1 	bl	8002876 <RTC_ByteToBcd2>
 80028d4:	0403      	lsls	r3, r0, #16
 80028d6:	461e      	mov	r6, r3
                          ((uint32_t)RTC_ByteToBcd2(sTime->Minutes) << RTC_TR_MNU_Pos) | \
 80028d8:	7868      	ldrb	r0, [r5, #1]
 80028da:	f7ff ffcc 	bl	8002876 <RTC_ByteToBcd2>
      tmpreg = (uint32_t)(((uint32_t)RTC_ByteToBcd2(sTime->Hours) << RTC_TR_HU_Pos) | \
 80028de:	ea46 2300 	orr.w	r3, r6, r0, lsl #8
 80028e2:	461e      	mov	r6, r3
                          ((uint32_t)RTC_ByteToBcd2(sTime->Seconds) << RTC_TR_SU_Pos) | \
 80028e4:	78a8      	ldrb	r0, [r5, #2]
 80028e6:	f7ff ffc6 	bl	8002876 <RTC_ByteToBcd2>
                          ((uint32_t)RTC_ByteToBcd2(sTime->Minutes) << RTC_TR_MNU_Pos) | \
 80028ea:	4633      	mov	r3, r6
 80028ec:	4303      	orrs	r3, r0
                          (((uint32_t)sTime->TimeFormat) << RTC_TR_PM_Pos));
 80028ee:	78ea      	ldrb	r2, [r5, #3]
      tmpreg = (uint32_t)(((uint32_t)RTC_ByteToBcd2(sTime->Hours) << RTC_TR_HU_Pos) | \
 80028f0:	ea43 5382 	orr.w	r3, r3, r2, lsl #22
    hrtc->Instance->TR = (uint32_t)(tmpreg & RTC_TR_RESERVED_MASK);
 80028f4:	6822      	ldr	r2, [r4, #0]
 80028f6:	f003 337f 	and.w	r3, r3, #2139062143	@ 0x7f7f7f7f
 80028fa:	f023 43fe 	bic.w	r3, r3, #2130706432	@ 0x7f000000
 80028fe:	6013      	str	r3, [r2, #0]
    hrtc->Instance->CR &= ((uint32_t)~RTC_CR_BKP);
 8002900:	6822      	ldr	r2, [r4, #0]
 8002902:	6893      	ldr	r3, [r2, #8]
 8002904:	f423 2380 	bic.w	r3, r3, #262144	@ 0x40000
 8002908:	6093      	str	r3, [r2, #8]
    hrtc->Instance->CR |= (uint32_t)(sTime->DayLightSaving | sTime->StoreOperation);
 800290a:	6821      	ldr	r1, [r4, #0]
 800290c:	688b      	ldr	r3, [r1, #8]
 800290e:	68ea      	ldr	r2, [r5, #12]
 8002910:	6928      	ldr	r0, [r5, #16]
 8002912:	4302      	orrs	r2, r0
 8002914:	4313      	orrs	r3, r2
 8002916:	608b      	str	r3, [r1, #8]
    status = RTC_ExitInitMode(hrtc);
 8002918:	4620      	mov	r0, r4
 800291a:	f7ff ff33 	bl	8002784 <RTC_ExitInitMode>
  __HAL_RTC_WRITEPROTECTION_ENABLE(hrtc);
 800291e:	6823      	ldr	r3, [r4, #0]
 8002920:	22ff      	movs	r2, #255	@ 0xff
 8002922:	625a      	str	r2, [r3, #36]	@ 0x24
  if (status == HAL_OK)
 8002924:	b910      	cbnz	r0, 800292c <HAL_RTC_SetTime+0xa0>
    hrtc->State = HAL_RTC_STATE_READY;
 8002926:	2301      	movs	r3, #1
 8002928:	f884 3021 	strb.w	r3, [r4, #33]	@ 0x21
  __HAL_UNLOCK(hrtc);
 800292c:	2300      	movs	r3, #0
 800292e:	f884 3020 	strb.w	r3, [r4, #32]
}
 8002932:	bd70      	pop	{r4, r5, r6, pc}
      if ((hrtc->Instance->CR & RTC_CR_FMT) != 0U)
 8002934:	6823      	ldr	r3, [r4, #0]
 8002936:	689b      	ldr	r3, [r3, #8]
 8002938:	f013 0f40 	tst.w	r3, #64	@ 0x40
 800293c:	d101      	bne.n	8002942 <HAL_RTC_SetTime+0xb6>
        sTime->TimeFormat = 0x00U;
 800293e:	2300      	movs	r3, #0
 8002940:	70eb      	strb	r3, [r5, #3]
      tmpreg = (((uint32_t)(sTime->Hours) << RTC_TR_HU_Pos) | \
 8002942:	782a      	ldrb	r2, [r5, #0]
                ((uint32_t)(sTime->Minutes) << RTC_TR_MNU_Pos) | \
 8002944:	786b      	ldrb	r3, [r5, #1]
 8002946:	021b      	lsls	r3, r3, #8
      tmpreg = (((uint32_t)(sTime->Hours) << RTC_TR_HU_Pos) | \
 8002948:	ea43 4302 	orr.w	r3, r3, r2, lsl #16
                ((uint32_t)(sTime->Seconds) << RTC_TR_SU_Pos) | \
 800294c:	78aa      	ldrb	r2, [r5, #2]
                ((uint32_t)(sTime->Minutes) << RTC_TR_MNU_Pos) | \
 800294e:	4313      	orrs	r3, r2
                ((uint32_t)(sTime->TimeFormat) << RTC_TR_PM_Pos));
 8002950:	78ea      	ldrb	r2, [r5, #3]
      tmpreg = (((uint32_t)(sTime->Hours) << RTC_TR_HU_Pos) | \
 8002952:	ea43 5382 	orr.w	r3, r3, r2, lsl #22
 8002956:	e7cd      	b.n	80028f4 <HAL_RTC_SetTime+0x68>
  __HAL_LOCK(hrtc);
 8002958:	2002      	movs	r0, #2
}
 800295a:	4770      	bx	lr

0800295c <HAL_RTC_SetDate>:
  __HAL_LOCK(hrtc);
 800295c:	f890 3020 	ldrb.w	r3, [r0, #32]
 8002960:	2b01      	cmp	r3, #1
 8002962:	d04d      	beq.n	8002a00 <HAL_RTC_SetDate+0xa4>
{
 8002964:	b570      	push	{r4, r5, r6, lr}
 8002966:	4604      	mov	r4, r0
 8002968:	460d      	mov	r5, r1
  __HAL_LOCK(hrtc);
 800296a:	2301      	movs	r3, #1
 800296c:	f880 3020 	strb.w	r3, [r0, #32]
  hrtc->State = HAL_RTC_STATE_BUSY;
 8002970:	2302      	movs	r3, #2
 8002972:	f880 3021 	strb.w	r3, [r0, #33]	@ 0x21
  if ((Format == RTC_FORMAT_BIN) && ((sDate->Month & 0x10U) == 0x10U))
 8002976:	b1f2      	cbz	r2, 80029b6 <HAL_RTC_SetDate+0x5a>
    datetmpreg = ((((uint32_t)sDate->Year) << RTC_DR_YU_Pos) | \
 8002978:	78ca      	ldrb	r2, [r1, #3]
                  (((uint32_t)sDate->Month) << RTC_DR_MU_Pos) | \
 800297a:	784b      	ldrb	r3, [r1, #1]
 800297c:	021b      	lsls	r3, r3, #8
    datetmpreg = ((((uint32_t)sDate->Year) << RTC_DR_YU_Pos) | \
 800297e:	ea43 4302 	orr.w	r3, r3, r2, lsl #16
                  (((uint32_t)sDate->Date) << RTC_DR_DU_Pos) | \
 8002982:	788a      	ldrb	r2, [r1, #2]
                  (((uint32_t)sDate->Month) << RTC_DR_MU_Pos) | \
 8002984:	4313      	orrs	r3, r2
                  (((uint32_t)sDate->WeekDay) << RTC_DR_WDU_Pos));
 8002986:	780a      	ldrb	r2, [r1, #0]
    datetmpreg = ((((uint32_t)sDate->Year) << RTC_DR_YU_Pos) | \
 8002988:	ea43 3542 	orr.w	r5, r3, r2, lsl #13
  __HAL_RTC_WRITEPROTECTION_DISABLE(hrtc);
 800298c:	6823      	ldr	r3, [r4, #0]
 800298e:	22ca      	movs	r2, #202	@ 0xca
 8002990:	625a      	str	r2, [r3, #36]	@ 0x24
 8002992:	6823      	ldr	r3, [r4, #0]
 8002994:	2253      	movs	r2, #83	@ 0x53
 8002996:	625a      	str	r2, [r3, #36]	@ 0x24
  status = RTC_EnterInitMode(hrtc);
 8002998:	4620      	mov	r0, r4
 800299a:	f7ff fed1 	bl	8002740 <RTC_EnterInitMode>
  if (status == HAL_OK)
 800299e:	b328      	cbz	r0, 80029ec <HAL_RTC_SetDate+0x90>
  __HAL_RTC_WRITEPROTECTION_ENABLE(hrtc);
 80029a0:	6823      	ldr	r3, [r4, #0]
 80029a2:	22ff      	movs	r2, #255	@ 0xff
 80029a4:	625a      	str	r2, [r3, #36]	@ 0x24
  if (status == HAL_OK)
 80029a6:	b910      	cbnz	r0, 80029ae <HAL_RTC_SetDate+0x52>
    hrtc->State = HAL_RTC_STATE_READY ;
 80029a8:	2301      	movs	r3, #1
 80029aa:	f884 3021 	strb.w	r3, [r4, #33]	@ 0x21
  __HAL_UNLOCK(hrtc);
 80029ae:	2300      	movs	r3, #0
 80029b0:	f884 3020 	strb.w	r3, [r4, #32]
}
 80029b4:	bd70      	pop	{r4, r5, r6, pc}
  if ((Format == RTC_FORMAT_BIN) && ((sDate->Month & 0x10U) == 0x10U))
 80029b6:	784b      	ldrb	r3, [r1, #1]
 80029b8:	f013 0f10 	tst.w	r3, #16
 80029bc:	d003      	beq.n	80029c6 <HAL_RTC_SetDate+0x6a>
    sDate->Month = (uint8_t)((sDate->Month & (uint8_t)~(0x10U)) + (uint8_t)0x0AU);
 80029be:	f003 03ef 	and.w	r3, r3, #239	@ 0xef
 80029c2:	330a      	adds	r3, #10
 80029c4:	704b      	strb	r3, [r1, #1]
    datetmpreg = (((uint32_t)RTC_ByteToBcd2(sDate->Year) << RTC_DR_YU_Pos) | \
 80029c6:	78e8      	ldrb	r0, [r5, #3]
 80029c8:	f7ff ff55 	bl	8002876 <RTC_ByteToBcd2>
 80029cc:	0403      	lsls	r3, r0, #16
 80029ce:	461e      	mov	r6, r3
                  ((uint32_t)RTC_ByteToBcd2(sDate->Month) << RTC_DR_MU_Pos) | \
 80029d0:	7868      	ldrb	r0, [r5, #1]
 80029d2:	f7ff ff50 	bl	8002876 <RTC_ByteToBcd2>
    datetmpreg = (((uint32_t)RTC_ByteToBcd2(sDate->Year) << RTC_DR_YU_Pos) | \
 80029d6:	ea46 2300 	orr.w	r3, r6, r0, lsl #8
 80029da:	461e      	mov	r6, r3
                  ((uint32_t)RTC_ByteToBcd2(sDate->Date) << RTC_DR_DU_Pos) | \
 80029dc:	78a8      	ldrb	r0, [r5, #2]
 80029de:	f7ff ff4a 	bl	8002876 <RTC_ByteToBcd2>
                  ((uint32_t)RTC_ByteToBcd2(sDate->Month) << RTC_DR_MU_Pos) | \
 80029e2:	4330      	orrs	r0, r6
                  ((uint32_t)sDate->WeekDay << RTC_DR_WDU_Pos));
 80029e4:	782b      	ldrb	r3, [r5, #0]
    datetmpreg = (((uint32_t)RTC_ByteToBcd2(sDate->Year) << RTC_DR_YU_Pos) | \
 80029e6:	ea40 3543 	orr.w	r5, r0, r3, lsl #13
 80029ea:	e7cf      	b.n	800298c <HAL_RTC_SetDate+0x30>
    hrtc->Instance->DR = (uint32_t)(datetmpreg & RTC_DR_RESERVED_MASK);
 80029ec:	6822      	ldr	r2, [r4, #0]
 80029ee:	f025 437f 	bic.w	r3, r5, #4278190080	@ 0xff000000
 80029f2:	f023 03c0 	bic.w	r3, r3, #192	@ 0xc0
 80029f6:	6053      	str	r3, [r2, #4]
    status = RTC_ExitInitMode(hrtc);
 80029f8:	4620      	mov	r0, r4
 80029fa:	f7ff fec3 	bl	8002784 <RTC_ExitInitMode>
 80029fe:	e7cf      	b.n	80029a0 <HAL_RTC_SetDate+0x44>
  __HAL_LOCK(hrtc);
 8002a00:	2002      	movs	r0, #2
}
 8002a02:	4770      	bx	lr

08002a04 <HAL_SPI_Init>:
HAL_StatusTypeDef HAL_SPI_Init(SPI_HandleTypeDef *hspi)
{
  uint32_t frxth;

  /* Check the SPI handle allocation */
  if (hspi == NULL)
 8002a04:	2800      	cmp	r0, #0
 8002a06:	d06a      	beq.n	8002ade <HAL_SPI_Init+0xda>
{
 8002a08:	b510      	push	{r4, lr}
 8002a0a:	4604      	mov	r4, r0
  assert_param(IS_SPI_NSS(hspi->Init.NSS));
  assert_param(IS_SPI_NSSP(hspi->Init.NSSPMode));
  assert_param(IS_SPI_BAUDRATE_PRESCALER(hspi->Init.BaudRatePrescaler));
  assert_param(IS_SPI_FIRST_BIT(hspi->Init.FirstBit));
  assert_param(IS_SPI_TIMODE(hspi->Init.TIMode));
  if (hspi->Init.TIMode == SPI_TIMODE_DISABLE)
 8002a0c:	6a43      	ldr	r3, [r0, #36]	@ 0x24
 8002a0e:	b933      	cbnz	r3, 8002a1e <HAL_SPI_Init+0x1a>
  {
    assert_param(IS_SPI_CPOL(hspi->Init.CLKPolarity));
    assert_param(IS_SPI_CPHA(hspi->Init.CLKPhase));

    if (hspi->Init.Mode == SPI_MODE_MASTER)
 8002a10:	6843      	ldr	r3, [r0, #4]
 8002a12:	f5b3 7f82 	cmp.w	r3, #260	@ 0x104
 8002a16:	d005      	beq.n	8002a24 <HAL_SPI_Init+0x20>
      assert_param(IS_SPI_BAUDRATE_PRESCALER(hspi->Init.BaudRatePrescaler));
    }
    else
    {
      /* Baudrate prescaler not use in Motoraola Slave mode. force to default value */
      hspi->Init.BaudRatePrescaler = SPI_BAUDRATEPRESCALER_2;
 8002a18:	2300      	movs	r3, #0
 8002a1a:	61c3      	str	r3, [r0, #28]
 8002a1c:	e002      	b.n	8002a24 <HAL_SPI_Init+0x20>
  else
  {
    assert_param(IS_SPI_BAUDRATE_PRESCALER(hspi->Init.BaudRatePrescaler));

    /* Force polarity and phase to TI protocaol requirements */
    hspi->Init.CLKPolarity = SPI_POLARITY_LOW;
 8002a1e:	2300      	movs	r3, #0
 8002a20:	6103      	str	r3, [r0, #16]
    hspi->Init.CLKPhase    = SPI_PHASE_1EDGE;
 8002a22:	6143      	str	r3, [r0, #20]
  {
    assert_param(IS_SPI_CRC_POLYNOMIAL(hspi->Init.CRCPolynomial));
    assert_param(IS_SPI_CRC_LENGTH(hspi->Init.CRCLength));
  }
#else
  hspi->Init.CRCCalculation = SPI_CRCCALCULATION_DISABLE;
 8002a24:	2300      	movs	r3, #0
 8002a26:	62a3      	str	r3, [r4, #40]	@ 0x28
#endif /* USE_SPI_CRC */

  if (hspi->State == HAL_SPI_STATE_RESET)
 8002a28:	f894 305d 	ldrb.w	r3, [r4, #93]	@ 0x5d
 8002a2c:	2b00      	cmp	r3, #0
 8002a2e:	d04d      	beq.n	8002acc <HAL_SPI_Init+0xc8>
    /* Init the low level hardware : GPIO, CLOCK, NVIC... */
    HAL_SPI_MspInit(hspi);
#endif /* USE_HAL_SPI_REGISTER_CALLBACKS */
  }

  hspi->State = HAL_SPI_STATE_BUSY;
 8002a30:	2302      	movs	r3, #2
 8002a32:	f884 305d 	strb.w	r3, [r4, #93]	@ 0x5d

  /* Disable the selected SPI peripheral */
  __HAL_SPI_DISABLE(hspi);
 8002a36:	6822      	ldr	r2, [r4, #0]
 8002a38:	6813      	ldr	r3, [r2, #0]
 8002a3a:	f023 0340 	bic.w	r3, r3, #64	@ 0x40
 8002a3e:	6013      	str	r3, [r2, #0]

  /* Align by default the rs fifo threshold on the data size */
  if (hspi->Init.DataSize > SPI_DATASIZE_8BIT)
 8002a40:	68e3      	ldr	r3, [r4, #12]
 8002a42:	f5b3 6fe0 	cmp.w	r3, #1792	@ 0x700
 8002a46:	d947      	bls.n	8002ad8 <HAL_SPI_Init+0xd4>
  {
    frxth = SPI_RXFIFO_THRESHOLD_HF;
 8002a48:	2200      	movs	r2, #0
  {
    frxth = SPI_RXFIFO_THRESHOLD_QF;
  }

  /* CRC calculation is valid only for 16Bit and 8 Bit */
  if ((hspi->Init.DataSize != SPI_DATASIZE_16BIT) && (hspi->Init.DataSize != SPI_DATASIZE_8BIT))
 8002a4a:	f5b3 6f70 	cmp.w	r3, #3840	@ 0xf00
 8002a4e:	d004      	beq.n	8002a5a <HAL_SPI_Init+0x56>
 8002a50:	f5b3 6fe0 	cmp.w	r3, #1792	@ 0x700
 8002a54:	d001      	beq.n	8002a5a <HAL_SPI_Init+0x56>
  {
    /* CRC must be disabled */
    hspi->Init.CRCCalculation = SPI_CRCCALCULATION_DISABLE;
 8002a56:	2300      	movs	r3, #0
 8002a58:	62a3      	str	r3, [r4, #40]	@ 0x28
  }

  /*----------------------- SPIx CR1 & CR2 Configuration ---------------------*/
  /* Configure : SPI Mode, Communication Mode, Clock polarity and phase, NSS management,
  Communication speed, First bit and CRC calculation state */
  WRITE_REG(hspi->Instance->CR1, ((hspi->Init.Mode & (SPI_CR1_MSTR | SPI_CR1_SSI)) |
 8002a5a:	6863      	ldr	r3, [r4, #4]
 8002a5c:	f403 7382 	and.w	r3, r3, #260	@ 0x104
 8002a60:	68a1      	ldr	r1, [r4, #8]
 8002a62:	f401 4104 	and.w	r1, r1, #33792	@ 0x8400
 8002a66:	430b      	orrs	r3, r1
 8002a68:	6921      	ldr	r1, [r4, #16]
 8002a6a:	f001 0102 	and.w	r1, r1, #2
 8002a6e:	430b      	orrs	r3, r1
 8002a70:	6961      	ldr	r1, [r4, #20]
 8002a72:	f001 0101 	and.w	r1, r1, #1
 8002a76:	430b      	orrs	r3, r1
 8002a78:	69a1      	ldr	r1, [r4, #24]
 8002a7a:	f401 7100 	and.w	r1, r1, #512	@ 0x200
 8002a7e:	430b      	orrs	r3, r1
 8002a80:	69e1      	ldr	r1, [r4, #28]
 8002a82:	f001 0138 	and.w	r1, r1, #56	@ 0x38
 8002a86:	430b      	orrs	r3, r1
 8002a88:	6a21      	ldr	r1, [r4, #32]
 8002a8a:	f001 0180 	and.w	r1, r1, #128	@ 0x80
 8002a8e:	430b      	orrs	r3, r1
 8002a90:	6aa1      	ldr	r1, [r4, #40]	@ 0x28
 8002a92:	f401 5100 	and.w	r1, r1, #8192	@ 0x2000
 8002a96:	6820      	ldr	r0, [r4, #0]
 8002a98:	430b      	orrs	r3, r1
 8002a9a:	6003      	str	r3, [r0, #0]
    }
  }
#endif /* USE_SPI_CRC */

  /* Configure : NSS management, TI Mode, NSS Pulse, Data size and Rx Fifo threshold */
  WRITE_REG(hspi->Instance->CR2, (((hspi->Init.NSS >> 16U) & SPI_CR2_SSOE) |
 8002a9c:	8b63      	ldrh	r3, [r4, #26]
 8002a9e:	f003 0304 	and.w	r3, r3, #4
 8002aa2:	6a61      	ldr	r1, [r4, #36]	@ 0x24
 8002aa4:	f001 0110 	and.w	r1, r1, #16
 8002aa8:	430b      	orrs	r3, r1
 8002aaa:	6b61      	ldr	r1, [r4, #52]	@ 0x34
 8002aac:	f001 0108 	and.w	r1, r1, #8
 8002ab0:	430b      	orrs	r3, r1
 8002ab2:	68e1      	ldr	r1, [r4, #12]
 8002ab4:	f401 6170 	and.w	r1, r1, #3840	@ 0xf00
 8002ab8:	430b      	orrs	r3, r1
 8002aba:	6821      	ldr	r1, [r4, #0]
 8002abc:	4313      	orrs	r3, r2
 8002abe:	604b      	str	r3, [r1, #4]
#if defined(SPI_I2SCFGR_I2SMOD)
  /* Activate the SPI mode (Make sure that I2SMOD bit in I2SCFGR register is reset) */
  CLEAR_BIT(hspi->Instance->I2SCFGR, SPI_I2SCFGR_I2SMOD);
#endif /* SPI_I2SCFGR_I2SMOD */

  hspi->ErrorCode = HAL_SPI_ERROR_NONE;
 8002ac0:	2000      	movs	r0, #0
 8002ac2:	6620      	str	r0, [r4, #96]	@ 0x60
  hspi->State     = HAL_SPI_STATE_READY;
 8002ac4:	2301      	movs	r3, #1
 8002ac6:	f884 305d 	strb.w	r3, [r4, #93]	@ 0x5d

  return HAL_OK;
}
 8002aca:	bd10      	pop	{r4, pc}
    hspi->Lock = HAL_UNLOCKED;
 8002acc:	f884 305c 	strb.w	r3, [r4, #92]	@ 0x5c
    HAL_SPI_MspInit(hspi);
 8002ad0:	4620      	mov	r0, r4
 8002ad2:	f7fe fd2b 	bl	800152c <HAL_SPI_MspInit>
 8002ad6:	e7ab      	b.n	8002a30 <HAL_SPI_Init+0x2c>
    frxth = SPI_RXFIFO_THRESHOLD_QF;
 8002ad8:	f44f 5280 	mov.w	r2, #4096	@ 0x1000
 8002adc:	e7b5      	b.n	8002a4a <HAL_SPI_Init+0x46>
    return HAL_ERROR;
 8002ade:	2001      	movs	r0, #1
}
 8002ae0:	4770      	bx	lr

08002ae2 <UART_EndRxTransfer>:
  /* Disable RXNE, PE and ERR (Frame error, noise error, overrun error) interrupts */
#if defined(USART_CR1_FIFOEN)
  ATOMIC_CLEAR_BIT(huart->Instance->CR1, (USART_CR1_RXNEIE_RXFNEIE | USART_CR1_PEIE));
  ATOMIC_CLEAR_BIT(huart->Instance->CR3, (USART_CR3_EIE | USART_CR3_RXFTIE));
#else
  ATOMIC_CLEAR_BIT(huart->Instance->CR1, (USART_CR1_RXNEIE | USART_CR1_PEIE));
 8002ae2:	6802      	ldr	r2, [r0, #0]
 */
__STATIC_FORCEINLINE uint32_t __LDREXW(volatile uint32_t *addr)
{
    uint32_t result;

   __ASM volatile ("ldrex %0, %1" : "=r" (result) : "Q" (*addr) );
 8002ae4:	e852 3f00 	ldrex	r3, [r2]
 8002ae8:	f423 7390 	bic.w	r3, r3, #288	@ 0x120
 */
__STATIC_FORCEINLINE uint32_t __STREXW(uint32_t value, volatile uint32_t *addr)
{
   uint32_t result;

   __ASM volatile ("strex %0, %2, %1" : "=&r" (result), "=Q" (*addr) : "r" (value) );
 8002aec:	e842 3100 	strex	r1, r3, [r2]
 8002af0:	2900      	cmp	r1, #0
 8002af2:	d1f6      	bne.n	8002ae2 <UART_EndRxTransfer>
  ATOMIC_CLEAR_BIT(huart->Instance->CR3, USART_CR3_EIE);
 8002af4:	6802      	ldr	r2, [r0, #0]
   __ASM volatile ("ldrex %0, %1" : "=r" (result) : "Q" (*addr) );
 8002af6:	f102 0308 	add.w	r3, r2, #8
 8002afa:	e853 3f00 	ldrex	r3, [r3]
 8002afe:	f023 0301 	bic.w	r3, r3, #1
   __ASM volatile ("strex %0, %2, %1" : "=&r" (result), "=Q" (*addr) : "r" (value) );
 8002b02:	3208      	adds	r2, #8
 8002b04:	e842 3100 	strex	r1, r3, [r2]
 8002b08:	2900      	cmp	r1, #0
 8002b0a:	d1f3      	bne.n	8002af4 <UART_EndRxTransfer+0x12>
#endif /* USART_CR1_FIFOEN */

  /* In case of reception waiting for IDLE event, disable also the IDLE IE interrupt source */
  if (huart->ReceptionType == HAL_UART_RECEPTION_TOIDLE)
 8002b0c:	6e03      	ldr	r3, [r0, #96]	@ 0x60
 8002b0e:	2b01      	cmp	r3, #1
 8002b10:	d006      	beq.n	8002b20 <UART_EndRxTransfer+0x3e>
  {
    ATOMIC_CLEAR_BIT(huart->Instance->CR1, USART_CR1_IDLEIE);
  }

  /* At end of Rx process, restore huart->RxState to Ready */
  huart->RxState = HAL_UART_STATE_READY;
 8002b12:	2320      	movs	r3, #32
 8002b14:	f8c0 3080 	str.w	r3, [r0, #128]	@ 0x80
  huart->ReceptionType = HAL_UART_RECEPTION_STANDARD;
 8002b18:	2300      	movs	r3, #0
 8002b1a:	6603      	str	r3, [r0, #96]	@ 0x60

  /* Reset RxIsr function pointer */
  huart->RxISR = NULL;
 8002b1c:	6683      	str	r3, [r0, #104]	@ 0x68
}
 8002b1e:	4770      	bx	lr
    ATOMIC_CLEAR_BIT(huart->Instance->CR1, USART_CR1_IDLEIE);
 8002b20:	6802      	ldr	r2, [r0, #0]
   __ASM volatile ("ldrex %0, %1" : "=r" (result) : "Q" (*addr) );
 8002b22:	e852 3f00 	ldrex	r3, [r2]
 8002b26:	f023 0310 	bic.w	r3, r3, #16
   __ASM volatile ("strex %0, %2, %1" : "=&r" (result), "=Q" (*addr) : "r" (value) );
 8002b2a:	e842 3100 	strex	r1, r3, [r2]
 8002b2e:	2900      	cmp	r1, #0
 8002b30:	d1f6      	bne.n	8002b20 <UART_EndRxTransfer+0x3e>
 8002b32:	e7ee      	b.n	8002b12 <UART_EndRxTransfer+0x30>

08002b34 <UART_SetConfig>:
{
 8002b34:	b510      	push	{r4, lr}
 8002b36:	4604      	mov	r4, r0
  tmpreg = (uint32_t)huart->Init.WordLength | huart->Init.Parity | huart->Init.Mode | huart->Init.OverSampling ;
 8002b38:	6883      	ldr	r3, [r0, #8]
 8002b3a:	6902      	ldr	r2, [r0, #16]
 8002b3c:	4313      	orrs	r3, r2
 8002b3e:	6942      	ldr	r2, [r0, #20]
 8002b40:	4313      	orrs	r3, r2
 8002b42:	69c2      	ldr	r2, [r0, #28]
 8002b44:	4313      	orrs	r3, r2
  MODIFY_REG(huart->Instance->CR1, USART_CR1_FIELDS, tmpreg);
 8002b46:	6801      	ldr	r1, [r0, #0]
 8002b48:	6808      	ldr	r0, [r1, #0]
 8002b4a:	4a91      	ldr	r2, [pc, #580]	@ (8002d90 <UART_SetConfig+0x25c>)
 8002b4c:	4002      	ands	r2, r0
 8002b4e:	431a      	orrs	r2, r3
 8002b50:	600a      	str	r2, [r1, #0]
  MODIFY_REG(huart->Instance->CR2, USART_CR2_STOP, huart->Init.StopBits);
 8002b52:	6822      	ldr	r2, [r4, #0]
 8002b54:	6853      	ldr	r3, [r2, #4]
 8002b56:	f423 5340 	bic.w	r3, r3, #12288	@ 0x3000
 8002b5a:	68e1      	ldr	r1, [r4, #12]
 8002b5c:	430b      	orrs	r3, r1
 8002b5e:	6053      	str	r3, [r2, #4]
  tmpreg = (uint32_t)huart->Init.HwFlowCtl;
 8002b60:	69a1      	ldr	r1, [r4, #24]
  if (!(UART_INSTANCE_LOWPOWER(huart)))
 8002b62:	6822      	ldr	r2, [r4, #0]
 8002b64:	4b8b      	ldr	r3, [pc, #556]	@ (8002d94 <UART_SetConfig+0x260>)
 8002b66:	429a      	cmp	r2, r3
 8002b68:	d001      	beq.n	8002b6e <UART_SetConfig+0x3a>
    tmpreg |= huart->Init.OneBitSampling;
 8002b6a:	6a23      	ldr	r3, [r4, #32]
 8002b6c:	4319      	orrs	r1, r3
  MODIFY_REG(huart->Instance->CR3, USART_CR3_FIELDS, tmpreg);
 8002b6e:	6893      	ldr	r3, [r2, #8]
 8002b70:	f423 6330 	bic.w	r3, r3, #2816	@ 0xb00
 8002b74:	430b      	orrs	r3, r1
 8002b76:	6093      	str	r3, [r2, #8]
  UART_GETCLOCKSOURCE(huart, clocksource);
 8002b78:	6823      	ldr	r3, [r4, #0]
 8002b7a:	4a87      	ldr	r2, [pc, #540]	@ (8002d98 <UART_SetConfig+0x264>)
 8002b7c:	4293      	cmp	r3, r2
 8002b7e:	d026      	beq.n	8002bce <UART_SetConfig+0x9a>
 8002b80:	4a86      	ldr	r2, [pc, #536]	@ (8002d9c <UART_SetConfig+0x268>)
 8002b82:	4293      	cmp	r3, r2
 8002b84:	d036      	beq.n	8002bf4 <UART_SetConfig+0xc0>
 8002b86:	4a86      	ldr	r2, [pc, #536]	@ (8002da0 <UART_SetConfig+0x26c>)
 8002b88:	4293      	cmp	r3, r2
 8002b8a:	d046      	beq.n	8002c1a <UART_SetConfig+0xe6>
 8002b8c:	4a85      	ldr	r2, [pc, #532]	@ (8002da4 <UART_SetConfig+0x270>)
 8002b8e:	4293      	cmp	r3, r2
 8002b90:	d056      	beq.n	8002c40 <UART_SetConfig+0x10c>
 8002b92:	4a85      	ldr	r2, [pc, #532]	@ (8002da8 <UART_SetConfig+0x274>)
 8002b94:	4293      	cmp	r3, r2
 8002b96:	d066      	beq.n	8002c66 <UART_SetConfig+0x132>
 8002b98:	4a7e      	ldr	r2, [pc, #504]	@ (8002d94 <UART_SetConfig+0x260>)
 8002b9a:	4293      	cmp	r3, r2
 8002b9c:	d079      	beq.n	8002c92 <UART_SetConfig+0x15e>
 8002b9e:	2210      	movs	r2, #16
  if (UART_INSTANCE_LOWPOWER(huart))
 8002ba0:	497c      	ldr	r1, [pc, #496]	@ (8002d94 <UART_SetConfig+0x260>)
 8002ba2:	428b      	cmp	r3, r1
 8002ba4:	f000 80b0 	beq.w	8002d08 <UART_SetConfig+0x1d4>
  else if (huart->Init.OverSampling == UART_OVERSAMPLING_8)
 8002ba8:	69e0      	ldr	r0, [r4, #28]
 8002baa:	f5b0 4f00 	cmp.w	r0, #32768	@ 0x8000
 8002bae:	f000 80de 	beq.w	8002d6e <UART_SetConfig+0x23a>
    switch (clocksource)
 8002bb2:	2a02      	cmp	r2, #2
 8002bb4:	f000 813f 	beq.w	8002e36 <UART_SetConfig+0x302>
 8002bb8:	f240 811a 	bls.w	8002df0 <UART_SetConfig+0x2bc>
 8002bbc:	2a04      	cmp	r2, #4
 8002bbe:	f000 8137 	beq.w	8002e30 <UART_SetConfig+0x2fc>
 8002bc2:	2a08      	cmp	r2, #8
 8002bc4:	f040 811c 	bne.w	8002e00 <UART_SetConfig+0x2cc>
        pclk = (uint32_t) LSE_VALUE;
 8002bc8:	f44f 4000 	mov.w	r0, #32768	@ 0x8000
 8002bcc:	e11d      	b.n	8002e0a <UART_SetConfig+0x2d6>
  UART_GETCLOCKSOURCE(huart, clocksource);
 8002bce:	f502 4258 	add.w	r2, r2, #55296	@ 0xd800
 8002bd2:	f8d2 2088 	ldr.w	r2, [r2, #136]	@ 0x88
 8002bd6:	f002 0203 	and.w	r2, r2, #3
 8002bda:	2a02      	cmp	r2, #2
 8002bdc:	d070      	beq.n	8002cc0 <UART_SetConfig+0x18c>
 8002bde:	d805      	bhi.n	8002bec <UART_SetConfig+0xb8>
 8002be0:	2a00      	cmp	r2, #0
 8002be2:	d06f      	beq.n	8002cc4 <UART_SetConfig+0x190>
 8002be4:	2a01      	cmp	r2, #1
 8002be6:	d16f      	bne.n	8002cc8 <UART_SetConfig+0x194>
 8002be8:	2204      	movs	r2, #4
 8002bea:	e7d9      	b.n	8002ba0 <UART_SetConfig+0x6c>
 8002bec:	2a03      	cmp	r2, #3
 8002bee:	d16d      	bne.n	8002ccc <UART_SetConfig+0x198>
 8002bf0:	2208      	movs	r2, #8
 8002bf2:	e7d5      	b.n	8002ba0 <UART_SetConfig+0x6c>
 8002bf4:	f502 32e6 	add.w	r2, r2, #117760	@ 0x1cc00
 8002bf8:	f8d2 2088 	ldr.w	r2, [r2, #136]	@ 0x88
 8002bfc:	f002 020c 	and.w	r2, r2, #12
 8002c00:	2a08      	cmp	r2, #8
 8002c02:	d065      	beq.n	8002cd0 <UART_SetConfig+0x19c>
 8002c04:	d805      	bhi.n	8002c12 <UART_SetConfig+0xde>
 8002c06:	2a00      	cmp	r2, #0
 8002c08:	d0ca      	beq.n	8002ba0 <UART_SetConfig+0x6c>
 8002c0a:	2a04      	cmp	r2, #4
 8002c0c:	d0c8      	beq.n	8002ba0 <UART_SetConfig+0x6c>
 8002c0e:	2210      	movs	r2, #16
 8002c10:	e7c6      	b.n	8002ba0 <UART_SetConfig+0x6c>
 8002c12:	2a0c      	cmp	r2, #12
 8002c14:	d15e      	bne.n	8002cd4 <UART_SetConfig+0x1a0>
 8002c16:	2208      	movs	r2, #8
 8002c18:	e7c2      	b.n	8002ba0 <UART_SetConfig+0x6c>
 8002c1a:	f502 32e4 	add.w	r2, r2, #116736	@ 0x1c800
 8002c1e:	f8d2 2088 	ldr.w	r2, [r2, #136]	@ 0x88
 8002c22:	f002 0230 	and.w	r2, r2, #48	@ 0x30
 8002c26:	2a20      	cmp	r2, #32
 8002c28:	d056      	beq.n	8002cd8 <UART_SetConfig+0x1a4>
 8002c2a:	d805      	bhi.n	8002c38 <UART_SetConfig+0x104>
 8002c2c:	2a00      	cmp	r2, #0
 8002c2e:	d0b7      	beq.n	8002ba0 <UART_SetConfig+0x6c>
 8002c30:	2a10      	cmp	r2, #16
 8002c32:	d153      	bne.n	8002cdc <UART_SetConfig+0x1a8>
 8002c34:	2204      	movs	r2, #4
 8002c36:	e7b3      	b.n	8002ba0 <UART_SetConfig+0x6c>
 8002c38:	2a30      	cmp	r2, #48	@ 0x30
 8002c3a:	d151      	bne.n	8002ce0 <UART_SetConfig+0x1ac>
 8002c3c:	2208      	movs	r2, #8
 8002c3e:	e7af      	b.n	8002ba0 <UART_SetConfig+0x6c>
 8002c40:	f502 32e2 	add.w	r2, r2, #115712	@ 0x1c400
 8002c44:	f8d2 2088 	ldr.w	r2, [r2, #136]	@ 0x88
 8002c48:	f002 02c0 	and.w	r2, r2, #192	@ 0xc0
 8002c4c:	2a80      	cmp	r2, #128	@ 0x80
 8002c4e:	d049      	beq.n	8002ce4 <UART_SetConfig+0x1b0>
 8002c50:	d805      	bhi.n	8002c5e <UART_SetConfig+0x12a>
 8002c52:	2a00      	cmp	r2, #0
 8002c54:	d0a4      	beq.n	8002ba0 <UART_SetConfig+0x6c>
 8002c56:	2a40      	cmp	r2, #64	@ 0x40
 8002c58:	d146      	bne.n	8002ce8 <UART_SetConfig+0x1b4>
 8002c5a:	2204      	movs	r2, #4
 8002c5c:	e7a0      	b.n	8002ba0 <UART_SetConfig+0x6c>
 8002c5e:	2ac0      	cmp	r2, #192	@ 0xc0
 8002c60:	d144      	bne.n	8002cec <UART_SetConfig+0x1b8>
 8002c62:	2208      	movs	r2, #8
 8002c64:	e79c      	b.n	8002ba0 <UART_SetConfig+0x6c>
 8002c66:	f502 32e0 	add.w	r2, r2, #114688	@ 0x1c000
 8002c6a:	f8d2 2088 	ldr.w	r2, [r2, #136]	@ 0x88
 8002c6e:	f402 7240 	and.w	r2, r2, #768	@ 0x300
 8002c72:	f5b2 7f00 	cmp.w	r2, #512	@ 0x200
 8002c76:	d03b      	beq.n	8002cf0 <UART_SetConfig+0x1bc>
 8002c78:	d806      	bhi.n	8002c88 <UART_SetConfig+0x154>
 8002c7a:	2a00      	cmp	r2, #0
 8002c7c:	d090      	beq.n	8002ba0 <UART_SetConfig+0x6c>
 8002c7e:	f5b2 7f80 	cmp.w	r2, #256	@ 0x100
 8002c82:	d137      	bne.n	8002cf4 <UART_SetConfig+0x1c0>
 8002c84:	2204      	movs	r2, #4
 8002c86:	e78b      	b.n	8002ba0 <UART_SetConfig+0x6c>
 8002c88:	f5b2 7f40 	cmp.w	r2, #768	@ 0x300
 8002c8c:	d134      	bne.n	8002cf8 <UART_SetConfig+0x1c4>
 8002c8e:	2208      	movs	r2, #8
 8002c90:	e786      	b.n	8002ba0 <UART_SetConfig+0x6c>
 8002c92:	f502 32c8 	add.w	r2, r2, #102400	@ 0x19000
 8002c96:	f8d2 2088 	ldr.w	r2, [r2, #136]	@ 0x88
 8002c9a:	f402 6240 	and.w	r2, r2, #3072	@ 0xc00
 8002c9e:	f5b2 6f00 	cmp.w	r2, #2048	@ 0x800
 8002ca2:	d02b      	beq.n	8002cfc <UART_SetConfig+0x1c8>
 8002ca4:	d807      	bhi.n	8002cb6 <UART_SetConfig+0x182>
 8002ca6:	2a00      	cmp	r2, #0
 8002ca8:	f43f af7a 	beq.w	8002ba0 <UART_SetConfig+0x6c>
 8002cac:	f5b2 6f80 	cmp.w	r2, #1024	@ 0x400
 8002cb0:	d126      	bne.n	8002d00 <UART_SetConfig+0x1cc>
 8002cb2:	2204      	movs	r2, #4
 8002cb4:	e774      	b.n	8002ba0 <UART_SetConfig+0x6c>
 8002cb6:	f5b2 6f40 	cmp.w	r2, #3072	@ 0xc00
 8002cba:	d123      	bne.n	8002d04 <UART_SetConfig+0x1d0>
 8002cbc:	2208      	movs	r2, #8
 8002cbe:	e76f      	b.n	8002ba0 <UART_SetConfig+0x6c>
 8002cc0:	2202      	movs	r2, #2
 8002cc2:	e76d      	b.n	8002ba0 <UART_SetConfig+0x6c>
 8002cc4:	2201      	movs	r2, #1
 8002cc6:	e76b      	b.n	8002ba0 <UART_SetConfig+0x6c>
 8002cc8:	2210      	movs	r2, #16
 8002cca:	e769      	b.n	8002ba0 <UART_SetConfig+0x6c>
 8002ccc:	2210      	movs	r2, #16
 8002cce:	e767      	b.n	8002ba0 <UART_SetConfig+0x6c>
 8002cd0:	2202      	movs	r2, #2
 8002cd2:	e765      	b.n	8002ba0 <UART_SetConfig+0x6c>
 8002cd4:	2210      	movs	r2, #16
 8002cd6:	e763      	b.n	8002ba0 <UART_SetConfig+0x6c>
 8002cd8:	2202      	movs	r2, #2
 8002cda:	e761      	b.n	8002ba0 <UART_SetConfig+0x6c>
 8002cdc:	2210      	movs	r2, #16
 8002cde:	e75f      	b.n	8002ba0 <UART_SetConfig+0x6c>
 8002ce0:	2210      	movs	r2, #16
 8002ce2:	e75d      	b.n	8002ba0 <UART_SetConfig+0x6c>
 8002ce4:	2202      	movs	r2, #2
 8002ce6:	e75b      	b.n	8002ba0 <UART_SetConfig+0x6c>
 8002ce8:	2210      	movs	r2, #16
 8002cea:	e759      	b.n	8002ba0 <UART_SetConfig+0x6c>
 8002cec:	2210      	movs	r2, #16
 8002cee:	e757      	b.n	8002ba0 <UART_SetConfig+0x6c>
 8002cf0:	2202      	movs	r2, #2
 8002cf2:	e755      	b.n	8002ba0 <UART_SetConfig+0x6c>
 8002cf4:	2210      	movs	r2, #16
 8002cf6:	e753      	b.n	8002ba0 <UART_SetConfig+0x6c>
 8002cf8:	2210      	movs	r2, #16
 8002cfa:	e751      	b.n	8002ba0 <UART_SetConfig+0x6c>
 8002cfc:	2202      	movs	r2, #2
 8002cfe:	e74f      	b.n	8002ba0 <UART_SetConfig+0x6c>
 8002d00:	2210      	movs	r2, #16
 8002d02:	e74d      	b.n	8002ba0 <UART_SetConfig+0x6c>
 8002d04:	2210      	movs	r2, #16
 8002d06:	e74b      	b.n	8002ba0 <UART_SetConfig+0x6c>
    switch (clocksource)
 8002d08:	2a04      	cmp	r2, #4
 8002d0a:	d02d      	beq.n	8002d68 <UART_SetConfig+0x234>
 8002d0c:	d806      	bhi.n	8002d1c <UART_SetConfig+0x1e8>
 8002d0e:	b162      	cbz	r2, 8002d2a <UART_SetConfig+0x1f6>
 8002d10:	2a02      	cmp	r2, #2
 8002d12:	d101      	bne.n	8002d18 <UART_SetConfig+0x1e4>
        pclk = (uint32_t) HSI_VALUE;
 8002d14:	4825      	ldr	r0, [pc, #148]	@ (8002dac <UART_SetConfig+0x278>)
 8002d16:	e00c      	b.n	8002d32 <UART_SetConfig+0x1fe>
    switch (clocksource)
 8002d18:	2001      	movs	r0, #1
 8002d1a:	e085      	b.n	8002e28 <UART_SetConfig+0x2f4>
 8002d1c:	2a08      	cmp	r2, #8
 8002d1e:	d102      	bne.n	8002d26 <UART_SetConfig+0x1f2>
 8002d20:	f44f 4000 	mov.w	r0, #32768	@ 0x8000
 8002d24:	e005      	b.n	8002d32 <UART_SetConfig+0x1fe>
 8002d26:	2001      	movs	r0, #1
 8002d28:	e07e      	b.n	8002e28 <UART_SetConfig+0x2f4>
        pclk = HAL_RCC_GetPCLK1Freq();
 8002d2a:	f7ff f91f 	bl	8001f6c <HAL_RCC_GetPCLK1Freq>
    if (pclk != 0U)
 8002d2e:	2800      	cmp	r0, #0
 8002d30:	d07a      	beq.n	8002e28 <UART_SetConfig+0x2f4>
      if ((pclk < (3U * huart->Init.BaudRate)) ||
 8002d32:	6862      	ldr	r2, [r4, #4]
 8002d34:	eb02 0342 	add.w	r3, r2, r2, lsl #1
 8002d38:	4283      	cmp	r3, r0
 8002d3a:	d87e      	bhi.n	8002e3a <UART_SetConfig+0x306>
 8002d3c:	ebb0 3f02 	cmp.w	r0, r2, lsl #12
 8002d40:	d87d      	bhi.n	8002e3e <UART_SetConfig+0x30a>
        usartdiv = (uint32_t)(UART_DIV_LPUART(pclk, huart->Init.BaudRate));
 8002d42:	0e01      	lsrs	r1, r0, #24
 8002d44:	0200      	lsls	r0, r0, #8
 8002d46:	0853      	lsrs	r3, r2, #1
 8002d48:	18c0      	adds	r0, r0, r3
 8002d4a:	f04f 0300 	mov.w	r3, #0
 8002d4e:	f141 0100 	adc.w	r1, r1, #0
 8002d52:	f7fd fa19 	bl	8000188 <__aeabi_uldivmod>
        if ((usartdiv >= LPUART_BRR_MIN) && (usartdiv <= LPUART_BRR_MAX))
 8002d56:	f5a0 7240 	sub.w	r2, r0, #768	@ 0x300
 8002d5a:	4b15      	ldr	r3, [pc, #84]	@ (8002db0 <UART_SetConfig+0x27c>)
 8002d5c:	429a      	cmp	r2, r3
 8002d5e:	d870      	bhi.n	8002e42 <UART_SetConfig+0x30e>
          huart->Instance->BRR = usartdiv;
 8002d60:	6823      	ldr	r3, [r4, #0]
 8002d62:	60d8      	str	r0, [r3, #12]
 8002d64:	2000      	movs	r0, #0
 8002d66:	e05f      	b.n	8002e28 <UART_SetConfig+0x2f4>
        pclk = HAL_RCC_GetSysClockFreq();
 8002d68:	f7fe fcd2 	bl	8001710 <HAL_RCC_GetSysClockFreq>
        break;
 8002d6c:	e7df      	b.n	8002d2e <UART_SetConfig+0x1fa>
    switch (clocksource)
 8002d6e:	2a02      	cmp	r2, #2
 8002d70:	d03c      	beq.n	8002dec <UART_SetConfig+0x2b8>
 8002d72:	d905      	bls.n	8002d80 <UART_SetConfig+0x24c>
 8002d74:	2a04      	cmp	r2, #4
 8002d76:	d036      	beq.n	8002de6 <UART_SetConfig+0x2b2>
 8002d78:	2a08      	cmp	r2, #8
 8002d7a:	d01e      	beq.n	8002dba <UART_SetConfig+0x286>
 8002d7c:	2001      	movs	r0, #1
 8002d7e:	e053      	b.n	8002e28 <UART_SetConfig+0x2f4>
 8002d80:	b1c2      	cbz	r2, 8002db4 <UART_SetConfig+0x280>
 8002d82:	2a01      	cmp	r2, #1
 8002d84:	d102      	bne.n	8002d8c <UART_SetConfig+0x258>
        pclk = HAL_RCC_GetPCLK2Freq();
 8002d86:	f7ff f903 	bl	8001f90 <HAL_RCC_GetPCLK2Freq>
        break;
 8002d8a:	e015      	b.n	8002db8 <UART_SetConfig+0x284>
    switch (clocksource)
 8002d8c:	2001      	movs	r0, #1
 8002d8e:	e04b      	b.n	8002e28 <UART_SetConfig+0x2f4>
 8002d90:	efff69f3 	.word	0xefff69f3
 8002d94:	40008000 	.word	0x40008000
 8002d98:	40013800 	.word	0x40013800
 8002d9c:	40004400 	.word	0x40004400
 8002da0:	40004800 	.word	0x40004800
 8002da4:	40004c00 	.word	0x40004c00
 8002da8:	40005000 	.word	0x40005000
 8002dac:	00f42400 	.word	0x00f42400
 8002db0:	000ffcff 	.word	0x000ffcff
        pclk = HAL_RCC_GetPCLK1Freq();
 8002db4:	f7ff f8da 	bl	8001f6c <HAL_RCC_GetPCLK1Freq>
    if (pclk != 0U)
 8002db8:	b3b0      	cbz	r0, 8002e28 <UART_SetConfig+0x2f4>
      usartdiv = (uint32_t)(UART_DIV_SAMPLING8(pclk, huart->Init.BaudRate));
 8002dba:	6862      	ldr	r2, [r4, #4]
 8002dbc:	0853      	lsrs	r3, r2, #1
 8002dbe:	eb03 0340 	add.w	r3, r3, r0, lsl #1
 8002dc2:	fbb3 f3f2 	udiv	r3, r3, r2
      if ((usartdiv >= UART_BRR_MIN) && (usartdiv <= UART_BRR_MAX))
 8002dc6:	f1a3 0110 	sub.w	r1, r3, #16
 8002dca:	f64f 72ef 	movw	r2, #65519	@ 0xffef
 8002dce:	4291      	cmp	r1, r2
 8002dd0:	d839      	bhi.n	8002e46 <UART_SetConfig+0x312>
        brrtemp = (uint16_t)(usartdiv & 0xFFF0U);
 8002dd2:	b29a      	uxth	r2, r3
 8002dd4:	f022 020f 	bic.w	r2, r2, #15
        brrtemp |= (uint16_t)((usartdiv & (uint16_t)0x000FU) >> 1U);
 8002dd8:	f3c3 0342 	ubfx	r3, r3, #1, #3
 8002ddc:	4313      	orrs	r3, r2
        huart->Instance->BRR = brrtemp;
 8002dde:	6822      	ldr	r2, [r4, #0]
 8002de0:	60d3      	str	r3, [r2, #12]
 8002de2:	2000      	movs	r0, #0
 8002de4:	e020      	b.n	8002e28 <UART_SetConfig+0x2f4>
        pclk = HAL_RCC_GetSysClockFreq();
 8002de6:	f7fe fc93 	bl	8001710 <HAL_RCC_GetSysClockFreq>
        break;
 8002dea:	e7e5      	b.n	8002db8 <UART_SetConfig+0x284>
    switch (clocksource)
 8002dec:	4818      	ldr	r0, [pc, #96]	@ (8002e50 <UART_SetConfig+0x31c>)
 8002dee:	e7e4      	b.n	8002dba <UART_SetConfig+0x286>
    switch (clocksource)
 8002df0:	b142      	cbz	r2, 8002e04 <UART_SetConfig+0x2d0>
 8002df2:	2a01      	cmp	r2, #1
 8002df4:	d102      	bne.n	8002dfc <UART_SetConfig+0x2c8>
        pclk = HAL_RCC_GetPCLK2Freq();
 8002df6:	f7ff f8cb 	bl	8001f90 <HAL_RCC_GetPCLK2Freq>
        break;
 8002dfa:	e005      	b.n	8002e08 <UART_SetConfig+0x2d4>
    switch (clocksource)
 8002dfc:	2001      	movs	r0, #1
 8002dfe:	e013      	b.n	8002e28 <UART_SetConfig+0x2f4>
 8002e00:	2001      	movs	r0, #1
 8002e02:	e011      	b.n	8002e28 <UART_SetConfig+0x2f4>
        pclk = HAL_RCC_GetPCLK1Freq();
 8002e04:	f7ff f8b2 	bl	8001f6c <HAL_RCC_GetPCLK1Freq>
    if (pclk != 0U)
 8002e08:	b170      	cbz	r0, 8002e28 <UART_SetConfig+0x2f4>
      usartdiv = (uint32_t)(UART_DIV_SAMPLING16(pclk, huart->Init.BaudRate));
 8002e0a:	6863      	ldr	r3, [r4, #4]
 8002e0c:	eb00 0053 	add.w	r0, r0, r3, lsr #1
 8002e10:	fbb0 f0f3 	udiv	r0, r0, r3
      if ((usartdiv >= UART_BRR_MIN) && (usartdiv <= UART_BRR_MAX))
 8002e14:	f1a0 0210 	sub.w	r2, r0, #16
 8002e18:	f64f 73ef 	movw	r3, #65519	@ 0xffef
 8002e1c:	429a      	cmp	r2, r3
 8002e1e:	d814      	bhi.n	8002e4a <UART_SetConfig+0x316>
        huart->Instance->BRR = (uint16_t)usartdiv;
 8002e20:	6823      	ldr	r3, [r4, #0]
 8002e22:	b280      	uxth	r0, r0
 8002e24:	60d8      	str	r0, [r3, #12]
 8002e26:	2000      	movs	r0, #0
  huart->RxISR = NULL;
 8002e28:	2300      	movs	r3, #0
 8002e2a:	66a3      	str	r3, [r4, #104]	@ 0x68
  huart->TxISR = NULL;
 8002e2c:	66e3      	str	r3, [r4, #108]	@ 0x6c
}
 8002e2e:	bd10      	pop	{r4, pc}
        pclk = HAL_RCC_GetSysClockFreq();
 8002e30:	f7fe fc6e 	bl	8001710 <HAL_RCC_GetSysClockFreq>
        break;
 8002e34:	e7e8      	b.n	8002e08 <UART_SetConfig+0x2d4>
    switch (clocksource)
 8002e36:	4806      	ldr	r0, [pc, #24]	@ (8002e50 <UART_SetConfig+0x31c>)
 8002e38:	e7e7      	b.n	8002e0a <UART_SetConfig+0x2d6>
        ret = HAL_ERROR;
 8002e3a:	2001      	movs	r0, #1
 8002e3c:	e7f4      	b.n	8002e28 <UART_SetConfig+0x2f4>
 8002e3e:	2001      	movs	r0, #1
 8002e40:	e7f2      	b.n	8002e28 <UART_SetConfig+0x2f4>
          ret = HAL_ERROR;
 8002e42:	2001      	movs	r0, #1
 8002e44:	e7f0      	b.n	8002e28 <UART_SetConfig+0x2f4>
        ret = HAL_ERROR;
 8002e46:	2001      	movs	r0, #1
 8002e48:	e7ee      	b.n	8002e28 <UART_SetConfig+0x2f4>
        ret = HAL_ERROR;
 8002e4a:	2001      	movs	r0, #1
 8002e4c:	e7ec      	b.n	8002e28 <UART_SetConfig+0x2f4>
 8002e4e:	bf00      	nop
 8002e50:	00f42400 	.word	0x00f42400

08002e54 <UART_AdvFeatureConfig>:
  if (HAL_IS_BIT_SET(huart->AdvancedInit.AdvFeatureInit, UART_ADVFEATURE_SWAP_INIT))
 8002e54:	6a43      	ldr	r3, [r0, #36]	@ 0x24
 8002e56:	f013 0f08 	tst.w	r3, #8
 8002e5a:	d006      	beq.n	8002e6a <UART_AdvFeatureConfig+0x16>
    MODIFY_REG(huart->Instance->CR2, USART_CR2_SWAP, huart->AdvancedInit.Swap);
 8002e5c:	6802      	ldr	r2, [r0, #0]
 8002e5e:	6853      	ldr	r3, [r2, #4]
 8002e60:	f423 4300 	bic.w	r3, r3, #32768	@ 0x8000
 8002e64:	6b41      	ldr	r1, [r0, #52]	@ 0x34
 8002e66:	430b      	orrs	r3, r1
 8002e68:	6053      	str	r3, [r2, #4]
  if (HAL_IS_BIT_SET(huart->AdvancedInit.AdvFeatureInit, UART_ADVFEATURE_TXINVERT_INIT))
 8002e6a:	6a43      	ldr	r3, [r0, #36]	@ 0x24
 8002e6c:	f013 0f01 	tst.w	r3, #1
 8002e70:	d006      	beq.n	8002e80 <UART_AdvFeatureConfig+0x2c>
    MODIFY_REG(huart->Instance->CR2, USART_CR2_TXINV, huart->AdvancedInit.TxPinLevelInvert);
 8002e72:	6802      	ldr	r2, [r0, #0]
 8002e74:	6853      	ldr	r3, [r2, #4]
 8002e76:	f423 3300 	bic.w	r3, r3, #131072	@ 0x20000
 8002e7a:	6a81      	ldr	r1, [r0, #40]	@ 0x28
 8002e7c:	430b      	orrs	r3, r1
 8002e7e:	6053      	str	r3, [r2, #4]
  if (HAL_IS_BIT_SET(huart->AdvancedInit.AdvFeatureInit, UART_ADVFEATURE_RXINVERT_INIT))
 8002e80:	6a43      	ldr	r3, [r0, #36]	@ 0x24
 8002e82:	f013 0f02 	tst.w	r3, #2
 8002e86:	d006      	beq.n	8002e96 <UART_AdvFeatureConfig+0x42>
    MODIFY_REG(huart->Instance->CR2, USART_CR2_RXINV, huart->AdvancedInit.RxPinLevelInvert);
 8002e88:	6802      	ldr	r2, [r0, #0]
 8002e8a:	6853      	ldr	r3, [r2, #4]
 8002e8c:	f423 3380 	bic.w	r3, r3, #65536	@ 0x10000
 8002e90:	6ac1      	ldr	r1, [r0, #44]	@ 0x2c
 8002e92:	430b      	orrs	r3, r1
 8002e94:	6053      	str	r3, [r2, #4]
  if (HAL_IS_BIT_SET(huart->AdvancedInit.AdvFeatureInit, UART_ADVFEATURE_DATAINVERT_INIT))
 8002e96:	6a43      	ldr	r3, [r0, #36]	@ 0x24
 8002e98:	f013 0f04 	tst.w	r3, #4
 8002e9c:	d006      	beq.n	8002eac <UART_AdvFeatureConfig+0x58>
    MODIFY_REG(huart->Instance->CR2, USART_CR2_DATAINV, huart->AdvancedInit.DataInvert);
 8002e9e:	6802      	ldr	r2, [r0, #0]
 8002ea0:	6853      	ldr	r3, [r2, #4]
 8002ea2:	f423 2380 	bic.w	r3, r3, #262144	@ 0x40000
 8002ea6:	6b01      	ldr	r1, [r0, #48]	@ 0x30
 8002ea8:	430b      	orrs	r3, r1
 8002eaa:	6053      	str	r3, [r2, #4]
  if (HAL_IS_BIT_SET(huart->AdvancedInit.AdvFeatureInit, UART_ADVFEATURE_RXOVERRUNDISABLE_INIT))
 8002eac:	6a43      	ldr	r3, [r0, #36]	@ 0x24
 8002eae:	f013 0f10 	tst.w	r3, #16
 8002eb2:	d006      	beq.n	8002ec2 <UART_AdvFeatureConfig+0x6e>
    MODIFY_REG(huart->Instance->CR3, USART_CR3_OVRDIS, huart->AdvancedInit.OverrunDisable);
 8002eb4:	6802      	ldr	r2, [r0, #0]
 8002eb6:	6893      	ldr	r3, [r2, #8]
 8002eb8:	f423 5380 	bic.w	r3, r3, #4096	@ 0x1000
 8002ebc:	6b81      	ldr	r1, [r0, #56]	@ 0x38
 8002ebe:	430b      	orrs	r3, r1
 8002ec0:	6093      	str	r3, [r2, #8]
  if (HAL_IS_BIT_SET(huart->AdvancedInit.AdvFeatureInit, UART_ADVFEATURE_DMADISABLEONERROR_INIT))
 8002ec2:	6a43      	ldr	r3, [r0, #36]	@ 0x24
 8002ec4:	f013 0f20 	tst.w	r3, #32
 8002ec8:	d006      	beq.n	8002ed8 <UART_AdvFeatureConfig+0x84>
    MODIFY_REG(huart->Instance->CR3, USART_CR3_DDRE, huart->AdvancedInit.DMADisableonRxError);
 8002eca:	6802      	ldr	r2, [r0, #0]
 8002ecc:	6893      	ldr	r3, [r2, #8]
 8002ece:	f423 5300 	bic.w	r3, r3, #8192	@ 0x2000
 8002ed2:	6bc1      	ldr	r1, [r0, #60]	@ 0x3c
 8002ed4:	430b      	orrs	r3, r1
 8002ed6:	6093      	str	r3, [r2, #8]
  if (HAL_IS_BIT_SET(huart->AdvancedInit.AdvFeatureInit, UART_ADVFEATURE_AUTOBAUDRATE_INIT))
 8002ed8:	6a43      	ldr	r3, [r0, #36]	@ 0x24
 8002eda:	f013 0f40 	tst.w	r3, #64	@ 0x40
 8002ede:	d00a      	beq.n	8002ef6 <UART_AdvFeatureConfig+0xa2>
    MODIFY_REG(huart->Instance->CR2, USART_CR2_ABREN, huart->AdvancedInit.AutoBaudRateEnable);
 8002ee0:	6802      	ldr	r2, [r0, #0]
 8002ee2:	6853      	ldr	r3, [r2, #4]
 8002ee4:	f423 1380 	bic.w	r3, r3, #1048576	@ 0x100000
 8002ee8:	6c01      	ldr	r1, [r0, #64]	@ 0x40
 8002eea:	430b      	orrs	r3, r1
 8002eec:	6053      	str	r3, [r2, #4]
    if (huart->AdvancedInit.AutoBaudRateEnable == UART_ADVFEATURE_AUTOBAUDRATE_ENABLE)
 8002eee:	6c03      	ldr	r3, [r0, #64]	@ 0x40
 8002ef0:	f5b3 1f80 	cmp.w	r3, #1048576	@ 0x100000
 8002ef4:	d00b      	beq.n	8002f0e <UART_AdvFeatureConfig+0xba>
  if (HAL_IS_BIT_SET(huart->AdvancedInit.AdvFeatureInit, UART_ADVFEATURE_MSBFIRST_INIT))
 8002ef6:	6a43      	ldr	r3, [r0, #36]	@ 0x24
 8002ef8:	f013 0f80 	tst.w	r3, #128	@ 0x80
 8002efc:	d006      	beq.n	8002f0c <UART_AdvFeatureConfig+0xb8>
    MODIFY_REG(huart->Instance->CR2, USART_CR2_MSBFIRST, huart->AdvancedInit.MSBFirst);
 8002efe:	6802      	ldr	r2, [r0, #0]
 8002f00:	6853      	ldr	r3, [r2, #4]
 8002f02:	f423 2300 	bic.w	r3, r3, #524288	@ 0x80000
 8002f06:	6c81      	ldr	r1, [r0, #72]	@ 0x48
 8002f08:	430b      	orrs	r3, r1
 8002f0a:	6053      	str	r3, [r2, #4]
}
 8002f0c:	4770      	bx	lr
      MODIFY_REG(huart->Instance->CR2, USART_CR2_ABRMODE, huart->AdvancedInit.AutoBaudRateMode);
 8002f0e:	6802      	ldr	r2, [r0, #0]
 8002f10:	6853      	ldr	r3, [r2, #4]
 8002f12:	f423 03c0 	bic.w	r3, r3, #6291456	@ 0x600000
 8002f16:	6c41      	ldr	r1, [r0, #68]	@ 0x44
 8002f18:	430b      	orrs	r3, r1
 8002f1a:	6053      	str	r3, [r2, #4]
 8002f1c:	e7eb      	b.n	8002ef6 <UART_AdvFeatureConfig+0xa2>

08002f1e <UART_WaitOnFlagUntilTimeout>:
{
 8002f1e:	e92d 41f0 	stmdb	sp!, {r4, r5, r6, r7, r8, lr}
 8002f22:	4604      	mov	r4, r0
 8002f24:	460d      	mov	r5, r1
 8002f26:	4616      	mov	r6, r2
 8002f28:	4698      	mov	r8, r3
 8002f2a:	9f06      	ldr	r7, [sp, #24]
  while ((__HAL_UART_GET_FLAG(huart, Flag) ? SET : RESET) == Status)
 8002f2c:	6823      	ldr	r3, [r4, #0]
 8002f2e:	69db      	ldr	r3, [r3, #28]
 8002f30:	ea35 0303 	bics.w	r3, r5, r3
 8002f34:	bf0c      	ite	eq
 8002f36:	f04f 0c01 	moveq.w	ip, #1
 8002f3a:	f04f 0c00 	movne.w	ip, #0
 8002f3e:	45b4      	cmp	ip, r6
 8002f40:	d134      	bne.n	8002fac <UART_WaitOnFlagUntilTimeout+0x8e>
    if (Timeout != HAL_MAX_DELAY)
 8002f42:	f1b7 3fff 	cmp.w	r7, #4294967295	@ 0xffffffff
 8002f46:	d0f1      	beq.n	8002f2c <UART_WaitOnFlagUntilTimeout+0xe>
      if (((HAL_GetTick() - Tickstart) > Timeout) || (Timeout == 0U))
 8002f48:	f7fd fd08 	bl	800095c <HAL_GetTick>
 8002f4c:	4643      	mov	r3, r8
 8002f4e:	1ac0      	subs	r0, r0, r3
 8002f50:	42b8      	cmp	r0, r7
 8002f52:	d82e      	bhi.n	8002fb2 <UART_WaitOnFlagUntilTimeout+0x94>
 8002f54:	b37f      	cbz	r7, 8002fb6 <UART_WaitOnFlagUntilTimeout+0x98>
      if ((READ_BIT(huart->Instance->CR1, USART_CR1_RE) != 0U) && (Flag != UART_FLAG_TXE) && (Flag != UART_FLAG_TC))
 8002f56:	6823      	ldr	r3, [r4, #0]
 8002f58:	681a      	ldr	r2, [r3, #0]
 8002f5a:	f012 0f04 	tst.w	r2, #4
 8002f5e:	d0e5      	beq.n	8002f2c <UART_WaitOnFlagUntilTimeout+0xe>
 8002f60:	2d80      	cmp	r5, #128	@ 0x80
 8002f62:	d0e3      	beq.n	8002f2c <UART_WaitOnFlagUntilTimeout+0xe>
 8002f64:	2d40      	cmp	r5, #64	@ 0x40
 8002f66:	d0e1      	beq.n	8002f2c <UART_WaitOnFlagUntilTimeout+0xe>
        if (__HAL_UART_GET_FLAG(huart, UART_FLAG_ORE) == SET)
 8002f68:	69da      	ldr	r2, [r3, #28]
 8002f6a:	f012 0f08 	tst.w	r2, #8
 8002f6e:	d111      	bne.n	8002f94 <UART_WaitOnFlagUntilTimeout+0x76>
        if (__HAL_UART_GET_FLAG(huart, UART_FLAG_RTOF) == SET)
 8002f70:	69da      	ldr	r2, [r3, #28]
 8002f72:	f412 6f00 	tst.w	r2, #2048	@ 0x800
 8002f76:	d0d9      	beq.n	8002f2c <UART_WaitOnFlagUntilTimeout+0xe>
          __HAL_UART_CLEAR_FLAG(huart, UART_CLEAR_RTOF);
 8002f78:	f44f 6200 	mov.w	r2, #2048	@ 0x800
 8002f7c:	621a      	str	r2, [r3, #32]
          UART_EndRxTransfer(huart);
 8002f7e:	4620      	mov	r0, r4
 8002f80:	f7ff fdaf 	bl	8002ae2 <UART_EndRxTransfer>
          huart->ErrorCode = HAL_UART_ERROR_RTO;
 8002f84:	2320      	movs	r3, #32
 8002f86:	f8c4 3084 	str.w	r3, [r4, #132]	@ 0x84
          __HAL_UNLOCK(huart);
 8002f8a:	2300      	movs	r3, #0
 8002f8c:	f884 3078 	strb.w	r3, [r4, #120]	@ 0x78
          return HAL_TIMEOUT;
 8002f90:	2003      	movs	r0, #3
 8002f92:	e00c      	b.n	8002fae <UART_WaitOnFlagUntilTimeout+0x90>
          __HAL_UART_CLEAR_FLAG(huart, UART_CLEAR_OREF);
 8002f94:	2508      	movs	r5, #8
 8002f96:	621d      	str	r5, [r3, #32]
          UART_EndRxTransfer(huart);
 8002f98:	4620      	mov	r0, r4
 8002f9a:	f7ff fda2 	bl	8002ae2 <UART_EndRxTransfer>
          huart->ErrorCode = HAL_UART_ERROR_ORE;
 8002f9e:	f8c4 5084 	str.w	r5, [r4, #132]	@ 0x84
          __HAL_UNLOCK(huart);
 8002fa2:	2300      	movs	r3, #0
 8002fa4:	f884 3078 	strb.w	r3, [r4, #120]	@ 0x78
          return HAL_ERROR;
 8002fa8:	2001      	movs	r0, #1
 8002faa:	e000      	b.n	8002fae <UART_WaitOnFlagUntilTimeout+0x90>
  return HAL_OK;
 8002fac:	2000      	movs	r0, #0
}
 8002fae:	e8bd 81f0 	ldmia.w	sp!, {r4, r5, r6, r7, r8, pc}
        return HAL_TIMEOUT;
 8002fb2:	2003      	movs	r0, #3
 8002fb4:	e7fb      	b.n	8002fae <UART_WaitOnFlagUntilTimeout+0x90>
 8002fb6:	2003      	movs	r0, #3
 8002fb8:	e7f9      	b.n	8002fae <UART_WaitOnFlagUntilTimeout+0x90>

08002fba <UART_CheckIdleState>:
{
 8002fba:	b530      	push	{r4, r5, lr}
 8002fbc:	b083      	sub	sp, #12
 8002fbe:	4604      	mov	r4, r0
  huart->ErrorCode = HAL_UART_ERROR_NONE;
 8002fc0:	2300      	movs	r3, #0
 8002fc2:	f8c0 3084 	str.w	r3, [r0, #132]	@ 0x84
  tickstart = HAL_GetTick();
 8002fc6:	f7fd fcc9 	bl	800095c <HAL_GetTick>
 8002fca:	4605      	mov	r5, r0
  if ((huart->Instance->CR1 & USART_CR1_TE) == USART_CR1_TE)
 8002fcc:	6822      	ldr	r2, [r4, #0]
 8002fce:	6812      	ldr	r2, [r2, #0]
 8002fd0:	f012 0f08 	tst.w	r2, #8
 8002fd4:	d10f      	bne.n	8002ff6 <UART_CheckIdleState+0x3c>
  if ((huart->Instance->CR1 & USART_CR1_RE) == USART_CR1_RE)
 8002fd6:	6823      	ldr	r3, [r4, #0]
 8002fd8:	681b      	ldr	r3, [r3, #0]
 8002fda:	f013 0f04 	tst.w	r3, #4
 8002fde:	d125      	bne.n	800302c <UART_CheckIdleState+0x72>
  huart->gState = HAL_UART_STATE_READY;
 8002fe0:	2320      	movs	r3, #32
 8002fe2:	67e3      	str	r3, [r4, #124]	@ 0x7c
  huart->RxState = HAL_UART_STATE_READY;
 8002fe4:	f8c4 3080 	str.w	r3, [r4, #128]	@ 0x80
  huart->ReceptionType = HAL_UART_RECEPTION_STANDARD;
 8002fe8:	2000      	movs	r0, #0
 8002fea:	6620      	str	r0, [r4, #96]	@ 0x60
  huart->RxEventType = HAL_UART_RXEVENT_TC;
 8002fec:	6660      	str	r0, [r4, #100]	@ 0x64
  __HAL_UNLOCK(huart);
 8002fee:	f884 0078 	strb.w	r0, [r4, #120]	@ 0x78
}
 8002ff2:	b003      	add	sp, #12
 8002ff4:	bd30      	pop	{r4, r5, pc}
    if (UART_WaitOnFlagUntilTimeout(huart, USART_ISR_TEACK, RESET, tickstart, HAL_UART_TIMEOUT_VALUE) != HAL_OK)
 8002ff6:	f06f 437e 	mvn.w	r3, #4261412864	@ 0xfe000000
 8002ffa:	9300      	str	r3, [sp, #0]
 8002ffc:	4603      	mov	r3, r0
 8002ffe:	2200      	movs	r2, #0
 8003000:	f44f 1100 	mov.w	r1, #2097152	@ 0x200000
 8003004:	4620      	mov	r0, r4
 8003006:	f7ff ff8a 	bl	8002f1e <UART_WaitOnFlagUntilTimeout>
 800300a:	2800      	cmp	r0, #0
 800300c:	d0e3      	beq.n	8002fd6 <UART_CheckIdleState+0x1c>
      ATOMIC_CLEAR_BIT(huart->Instance->CR1, (USART_CR1_TXEIE));
 800300e:	6822      	ldr	r2, [r4, #0]
   __ASM volatile ("ldrex %0, %1" : "=r" (result) : "Q" (*addr) );
 8003010:	e852 3f00 	ldrex	r3, [r2]
 8003014:	f023 0380 	bic.w	r3, r3, #128	@ 0x80
   __ASM volatile ("strex %0, %2, %1" : "=&r" (result), "=Q" (*addr) : "r" (value) );
 8003018:	e842 3100 	strex	r1, r3, [r2]
 800301c:	2900      	cmp	r1, #0
 800301e:	d1f6      	bne.n	800300e <UART_CheckIdleState+0x54>
      huart->gState = HAL_UART_STATE_READY;
 8003020:	2320      	movs	r3, #32
 8003022:	67e3      	str	r3, [r4, #124]	@ 0x7c
      __HAL_UNLOCK(huart);
 8003024:	f884 1078 	strb.w	r1, [r4, #120]	@ 0x78
      return HAL_TIMEOUT;
 8003028:	2003      	movs	r0, #3
 800302a:	e7e2      	b.n	8002ff2 <UART_CheckIdleState+0x38>
    if (UART_WaitOnFlagUntilTimeout(huart, USART_ISR_REACK, RESET, tickstart, HAL_UART_TIMEOUT_VALUE) != HAL_OK)
 800302c:	f06f 437e 	mvn.w	r3, #4261412864	@ 0xfe000000
 8003030:	9300      	str	r3, [sp, #0]
 8003032:	462b      	mov	r3, r5
 8003034:	2200      	movs	r2, #0
 8003036:	f44f 0180 	mov.w	r1, #4194304	@ 0x400000
 800303a:	4620      	mov	r0, r4
 800303c:	f7ff ff6f 	bl	8002f1e <UART_WaitOnFlagUntilTimeout>
 8003040:	2800      	cmp	r0, #0
 8003042:	d0cd      	beq.n	8002fe0 <UART_CheckIdleState+0x26>
      ATOMIC_CLEAR_BIT(huart->Instance->CR1, (USART_CR1_RXNEIE | USART_CR1_PEIE));
 8003044:	6822      	ldr	r2, [r4, #0]
   __ASM volatile ("ldrex %0, %1" : "=r" (result) : "Q" (*addr) );
 8003046:	e852 3f00 	ldrex	r3, [r2]
 800304a:	f423 7390 	bic.w	r3, r3, #288	@ 0x120
   __ASM volatile ("strex %0, %2, %1" : "=&r" (result), "=Q" (*addr) : "r" (value) );
 800304e:	e842 3100 	strex	r1, r3, [r2]
 8003052:	2900      	cmp	r1, #0
 8003054:	d1f6      	bne.n	8003044 <UART_CheckIdleState+0x8a>
      ATOMIC_CLEAR_BIT(huart->Instance->CR3, USART_CR3_EIE);
 8003056:	6822      	ldr	r2, [r4, #0]
   __ASM volatile ("ldrex %0, %1" : "=r" (result) : "Q" (*addr) );
 8003058:	f102 0308 	add.w	r3, r2, #8
 800305c:	e853 3f00 	ldrex	r3, [r3]
 8003060:	f023 0301 	bic.w	r3, r3, #1
   __ASM volatile ("strex %0, %2, %1" : "=&r" (result), "=Q" (*addr) : "r" (value) );
 8003064:	3208      	adds	r2, #8
 8003066:	e842 3100 	strex	r1, r3, [r2]
 800306a:	2900      	cmp	r1, #0
 800306c:	d1f3      	bne.n	8003056 <UART_CheckIdleState+0x9c>
      huart->RxState = HAL_UART_STATE_READY;
 800306e:	2320      	movs	r3, #32
 8003070:	f8c4 3080 	str.w	r3, [r4, #128]	@ 0x80
      __HAL_UNLOCK(huart);
 8003074:	f884 1078 	strb.w	r1, [r4, #120]	@ 0x78
      return HAL_TIMEOUT;
 8003078:	2003      	movs	r0, #3
 800307a:	e7ba      	b.n	8002ff2 <UART_CheckIdleState+0x38>

0800307c <HAL_UART_Init>:
  if (huart == NULL)
 800307c:	b368      	cbz	r0, 80030da <HAL_UART_Init+0x5e>
{
 800307e:	b510      	push	{r4, lr}
 8003080:	4604      	mov	r4, r0
  if (huart->gState == HAL_UART_STATE_RESET)
 8003082:	6fc3      	ldr	r3, [r0, #124]	@ 0x7c
 8003084:	b303      	cbz	r3, 80030c8 <HAL_UART_Init+0x4c>
  huart->gState = HAL_UART_STATE_BUSY;
 8003086:	2324      	movs	r3, #36	@ 0x24
 8003088:	67e3      	str	r3, [r4, #124]	@ 0x7c
  __HAL_UART_DISABLE(huart);
 800308a:	6822      	ldr	r2, [r4, #0]
 800308c:	6813      	ldr	r3, [r2, #0]
 800308e:	f023 0301 	bic.w	r3, r3, #1
 8003092:	6013      	str	r3, [r2, #0]
  if (huart->AdvancedInit.AdvFeatureInit != UART_ADVFEATURE_NO_INIT)
 8003094:	6a63      	ldr	r3, [r4, #36]	@ 0x24
 8003096:	b9e3      	cbnz	r3, 80030d2 <HAL_UART_Init+0x56>
  if (UART_SetConfig(huart) == HAL_ERROR)
 8003098:	4620      	mov	r0, r4
 800309a:	f7ff fd4b 	bl	8002b34 <UART_SetConfig>
 800309e:	2801      	cmp	r0, #1
 80030a0:	d011      	beq.n	80030c6 <HAL_UART_Init+0x4a>
  CLEAR_BIT(huart->Instance->CR2, (USART_CR2_LINEN | USART_CR2_CLKEN));
 80030a2:	6822      	ldr	r2, [r4, #0]
 80030a4:	6853      	ldr	r3, [r2, #4]
 80030a6:	f423 4390 	bic.w	r3, r3, #18432	@ 0x4800
 80030aa:	6053      	str	r3, [r2, #4]
  CLEAR_BIT(huart->Instance->CR3, (USART_CR3_SCEN | USART_CR3_HDSEL | USART_CR3_IREN));
 80030ac:	6822      	ldr	r2, [r4, #0]
 80030ae:	6893      	ldr	r3, [r2, #8]
 80030b0:	f023 032a 	bic.w	r3, r3, #42	@ 0x2a
 80030b4:	6093      	str	r3, [r2, #8]
  __HAL_UART_ENABLE(huart);
 80030b6:	6822      	ldr	r2, [r4, #0]
 80030b8:	6813      	ldr	r3, [r2, #0]
 80030ba:	f043 0301 	orr.w	r3, r3, #1
 80030be:	6013      	str	r3, [r2, #0]
  return (UART_CheckIdleState(huart));
 80030c0:	4620      	mov	r0, r4
 80030c2:	f7ff ff7a 	bl	8002fba <UART_CheckIdleState>
}
 80030c6:	bd10      	pop	{r4, pc}
    huart->Lock = HAL_UNLOCKED;
 80030c8:	f880 3078 	strb.w	r3, [r0, #120]	@ 0x78
    HAL_UART_MspInit(huart);
 80030cc:	f7fe f962 	bl	8001394 <HAL_UART_MspInit>
 80030d0:	e7d9      	b.n	8003086 <HAL_UART_Init+0xa>
    UART_AdvFeatureConfig(huart);
 80030d2:	4620      	mov	r0, r4
 80030d4:	f7ff febe 	bl	8002e54 <UART_AdvFeatureConfig>
 80030d8:	e7de      	b.n	8003098 <HAL_UART_Init+0x1c>
    return HAL_ERROR;
 80030da:	2001      	movs	r0, #1
}
 80030dc:	4770      	bx	lr

080030de <NMI_Handler>:
{
  /* USER CODE BEGIN NonMaskableInt_IRQn 0 */

  /* USER CODE END NonMaskableInt_IRQn 0 */
  /* USER CODE BEGIN NonMaskableInt_IRQn 1 */
   while (1)
 80030de:	e7fe      	b.n	80030de <NMI_Handler>

080030e0 <HardFault_Handler>:
void HardFault_Handler(void)
{
  /* USER CODE BEGIN HardFault_IRQn 0 */

  /* USER CODE END HardFault_IRQn 0 */
  while (1)
 80030e0:	e7fe      	b.n	80030e0 <HardFault_Handler>

080030e2 <MemManage_Handler>:
void MemManage_Handler(void)
{
  /* USER CODE BEGIN MemoryManagement_IRQn 0 */

  /* USER CODE END MemoryManagement_IRQn 0 */
  while (1)
 80030e2:	e7fe      	b.n	80030e2 <MemManage_Handler>

080030e4 <BusFault_Handler>:
void BusFault_Handler(void)
{
  /* USER CODE BEGIN BusFault_IRQn 0 */

  /* USER CODE END BusFault_IRQn 0 */
  while (1)
 80030e4:	e7fe      	b.n	80030e4 <BusFault_Handler>

080030e6 <UsageFault_Handler>:
void UsageFault_Handler(void)
{
  /* USER CODE BEGIN UsageFault_IRQn 0 */

  /* USER CODE END UsageFault_IRQn 0 */
  while (1)
 80030e6:	e7fe      	b.n	80030e6 <UsageFault_Handler>

080030e8 <SVC_Handler>:

  /* USER CODE END SVCall_IRQn 0 */
  /* USER CODE BEGIN SVCall_IRQn 1 */

  /* USER CODE END SVCall_IRQn 1 */
}
 80030e8:	4770      	bx	lr

080030ea <DebugMon_Handler>:

  /* USER CODE END DebugMonitor_IRQn 0 */
  /* USER CODE BEGIN DebugMonitor_IRQn 1 */

  /* USER CODE END DebugMonitor_IRQn 1 */
}
 80030ea:	4770      	bx	lr

080030ec <PendSV_Handler>:

  /* USER CODE END PendSV_IRQn 0 */
  /* USER CODE BEGIN PendSV_IRQn 1 */

  /* USER CODE END PendSV_IRQn 1 */
}
 80030ec:	4770      	bx	lr

080030ee <SysTick_Handler>:

/**
  * @brief This function handles System tick timer.
  */
void SysTick_Handler(void)
{
 80030ee:	b508      	push	{r3, lr}
  /* USER CODE BEGIN SysTick_IRQn 0 */

  /* USER CODE END SysTick_IRQn 0 */
  HAL_IncTick();
 80030f0:	f7fd fc28 	bl	8000944 <HAL_IncTick>
  /* USER CODE BEGIN SysTick_IRQn 1 */

  /* USER CODE END SysTick_IRQn 1 */
}
 80030f4:	bd08      	pop	{r3, pc}
	...

080030f8 <SystemInit>:
  SCB->VTOR = VECT_TAB_BASE_ADDRESS | VECT_TAB_OFFSET;
#endif

  /* FPU settings ------------------------------------------------------------*/
#if (__FPU_PRESENT == 1) && (__FPU_USED == 1)
  SCB->CPACR |= ((3UL << 20U)|(3UL << 22U));  /* set CP10 and CP11 Full Access */
 80030f8:	4a03      	ldr	r2, [pc, #12]	@ (8003108 <SystemInit+0x10>)
 80030fa:	f8d2 3088 	ldr.w	r3, [r2, #136]	@ 0x88
 80030fe:	f443 0370 	orr.w	r3, r3, #15728640	@ 0xf00000
 8003102:	f8c2 3088 	str.w	r3, [r2, #136]	@ 0x88
#endif
}
 8003106:	4770      	bx	lr
 8003108:	e000ed00 	.word	0xe000ed00

0800310c <Reset_Handler>:

    .section	.text.Reset_Handler
	.weak	Reset_Handler
	.type	Reset_Handler, %function
Reset_Handler:
  ldr   sp, =_estack    /* Set stack pointer */
 800310c:	f8df d034 	ldr.w	sp, [pc, #52]	@ 8003144 <LoopForever+0x2>

/* Call the clock system initialization function.*/
    bl  SystemInit
 8003110:	f7ff fff2 	bl	80030f8 <SystemInit>

/* Copy the data segment initializers from flash to SRAM */
  ldr r0, =_sdata
 8003114:	480c      	ldr	r0, [pc, #48]	@ (8003148 <LoopForever+0x6>)
  ldr r1, =_edata
 8003116:	490d      	ldr	r1, [pc, #52]	@ (800314c <LoopForever+0xa>)
  ldr r2, =_sidata
 8003118:	4a0d      	ldr	r2, [pc, #52]	@ (8003150 <LoopForever+0xe>)
  movs r3, #0
 800311a:	2300      	movs	r3, #0
  b LoopCopyDataInit
 800311c:	e002      	b.n	8003124 <LoopCopyDataInit>

0800311e <CopyDataInit>:

CopyDataInit:
  ldr r4, [r2, r3]
 800311e:	58d4      	ldr	r4, [r2, r3]
  str r4, [r0, r3]
 8003120:	50c4      	str	r4, [r0, r3]
  adds r3, r3, #4
 8003122:	3304      	adds	r3, #4

08003124 <LoopCopyDataInit>:

LoopCopyDataInit:
  adds r4, r0, r3
 8003124:	18c4      	adds	r4, r0, r3
  cmp r4, r1
 8003126:	428c      	cmp	r4, r1
  bcc CopyDataInit
 8003128:	d3f9      	bcc.n	800311e <CopyDataInit>
  
/* Zero fill the bss segment. */
  ldr r2, =_sbss
 800312a:	4a0a      	ldr	r2, [pc, #40]	@ (8003154 <LoopForever+0x12>)
  ldr r4, =_ebss
 800312c:	4c0a      	ldr	r4, [pc, #40]	@ (8003158 <LoopForever+0x16>)
  movs r3, #0
 800312e:	2300      	movs	r3, #0
  b LoopFillZerobss
 8003130:	e001      	b.n	8003136 <LoopFillZerobss>

08003132 <FillZerobss>:

FillZerobss:
  str  r3, [r2]
 8003132:	6013      	str	r3, [r2, #0]
  adds r2, r2, #4
 8003134:	3204      	adds	r2, #4

08003136 <LoopFillZerobss>:

LoopFillZerobss:
  cmp r2, r4
 8003136:	42a2      	cmp	r2, r4
  bcc FillZerobss
 8003138:	d3fb      	bcc.n	8003132 <FillZerobss>

/* Call static constructors */
    bl __libc_init_array
 800313a:	f000 f819 	bl	8003170 <__libc_init_array>
/* Call the application's entry point.*/
	bl	main
 800313e:	f7fd f9f3 	bl	8000528 <main>

08003142 <LoopForever>:

LoopForever:
    b LoopForever
 8003142:	e7fe      	b.n	8003142 <LoopForever>
  ldr   sp, =_estack    /* Set stack pointer */
 8003144:	20018000 	.word	0x20018000
  ldr r0, =_sdata
 8003148:	20000000 	.word	0x20000000
  ldr r1, =_edata
 800314c:	20000010 	.word	0x20000010
  ldr r2, =_sidata
 8003150:	08005038 	.word	0x08005038
  ldr r2, =_sbss
 8003154:	20000010 	.word	0x20000010
  ldr r4, =_ebss
 8003158:	200006ac 	.word	0x200006ac

0800315c <ADC1_2_IRQHandler>:
 * @retval : None
*/
    .section	.text.Default_Handler,"ax",%progbits
Default_Handler:
Infinite_Loop:
	b	Infinite_Loop
 800315c:	e7fe      	b.n	800315c <ADC1_2_IRQHandler>

0800315e <memset>:
 800315e:	4402      	add	r2, r0
 8003160:	4603      	mov	r3, r0
 8003162:	4293      	cmp	r3, r2
 8003164:	d100      	bne.n	8003168 <memset+0xa>
 8003166:	4770      	bx	lr
 8003168:	f803 1b01 	strb.w	r1, [r3], #1
 800316c:	e7f9      	b.n	8003162 <memset+0x4>
	...

08003170 <__libc_init_array>:
 8003170:	b570      	push	{r4, r5, r6, lr}
 8003172:	4b0d      	ldr	r3, [pc, #52]	@ (80031a8 <__libc_init_array+0x38>)
 8003174:	4c0d      	ldr	r4, [pc, #52]	@ (80031ac <__libc_init_array+0x3c>)
 8003176:	2600      	movs	r6, #0
 8003178:	1b1d      	subs	r5, r3, r4
 800317a:	ebb6 0fa5 	cmp.w	r6, r5, asr #2
 800317e:	d109      	bne.n	8003194 <__libc_init_array+0x24>
 8003180:	f000 f9aa 	bl	80034d8 <_init>
 8003184:	4c0a      	ldr	r4, [pc, #40]	@ (80031b0 <__libc_init_array+0x40>)
 8003186:	4b0b      	ldr	r3, [pc, #44]	@ (80031b4 <__libc_init_array+0x44>)
 8003188:	2600      	movs	r6, #0
 800318a:	1b1d      	subs	r5, r3, r4
 800318c:	ebb6 0fa5 	cmp.w	r6, r5, asr #2
 8003190:	d105      	bne.n	800319e <__libc_init_array+0x2e>
 8003192:	bd70      	pop	{r4, r5, r6, pc}
 8003194:	f854 3b04 	ldr.w	r3, [r4], #4
 8003198:	4798      	blx	r3
 800319a:	3601      	adds	r6, #1
 800319c:	e7ed      	b.n	800317a <__libc_init_array+0xa>
 800319e:	f854 3b04 	ldr.w	r3, [r4], #4
 80031a2:	4798      	blx	r3
 80031a4:	3601      	adds	r6, #1
 80031a6:	e7f1      	b.n	800318c <__libc_init_array+0x1c>
 80031a8:	08005028 	.word	0x08005028
 80031ac:	08005028 	.word	0x08005028
 80031b0:	08005028 	.word	0x08005028
 80031b4:	0800502c 	.word	0x0800502c

080031b8 <__udivmoddi4>:
 80031b8:	e92d 47f0 	stmdb	sp!, {r4, r5, r6, r7, r8, r9, sl, lr}
 80031bc:	b082      	sub	sp, #8
 80031be:	4606      	mov	r6, r0
 80031c0:	f8dd e028 	ldr.w	lr, [sp, #40]	@ 0x28
 80031c4:	4608      	mov	r0, r1
 80031c6:	46b4      	mov	ip, r6
 80031c8:	460d      	mov	r5, r1
 80031ca:	2b00      	cmp	r3, #0
 80031cc:	d14e      	bne.n	800326c <__udivmoddi4+0xb4>
 80031ce:	428a      	cmp	r2, r1
 80031d0:	4614      	mov	r4, r2
 80031d2:	d96d      	bls.n	80032b0 <__udivmoddi4+0xf8>
 80031d4:	fab2 f282 	clz	r2, r2
 80031d8:	b142      	cbz	r2, 80031ec <__udivmoddi4+0x34>
 80031da:	f1c2 0320 	rsb	r3, r2, #32
 80031de:	4095      	lsls	r5, r2
 80031e0:	fa26 f303 	lsr.w	r3, r6, r3
 80031e4:	4094      	lsls	r4, r2
 80031e6:	431d      	orrs	r5, r3
 80031e8:	fa06 fc02 	lsl.w	ip, r6, r2
 80031ec:	0c26      	lsrs	r6, r4, #16
 80031ee:	b2a7      	uxth	r7, r4
 80031f0:	fbb5 f1f6 	udiv	r1, r5, r6
 80031f4:	ea4f 431c 	mov.w	r3, ip, lsr #16
 80031f8:	fb06 5511 	mls	r5, r6, r1, r5
 80031fc:	ea43 4305 	orr.w	r3, r3, r5, lsl #16
 8003200:	fb01 f007 	mul.w	r0, r1, r7
 8003204:	4298      	cmp	r0, r3
 8003206:	d909      	bls.n	800321c <__udivmoddi4+0x64>
 8003208:	18e3      	adds	r3, r4, r3
 800320a:	f101 35ff 	add.w	r5, r1, #4294967295	@ 0xffffffff
 800320e:	f080 8103 	bcs.w	8003418 <__udivmoddi4+0x260>
 8003212:	4298      	cmp	r0, r3
 8003214:	f240 8100 	bls.w	8003418 <__udivmoddi4+0x260>
 8003218:	3902      	subs	r1, #2
 800321a:	4423      	add	r3, r4
 800321c:	1a1b      	subs	r3, r3, r0
 800321e:	fa1f fc8c 	uxth.w	ip, ip
 8003222:	fbb3 f0f6 	udiv	r0, r3, r6
 8003226:	fb06 3310 	mls	r3, r6, r0, r3
 800322a:	ea4c 4c03 	orr.w	ip, ip, r3, lsl #16
 800322e:	fb00 f307 	mul.w	r3, r0, r7
 8003232:	4563      	cmp	r3, ip
 8003234:	d90a      	bls.n	800324c <__udivmoddi4+0x94>
 8003236:	eb14 0c0c 	adds.w	ip, r4, ip
 800323a:	f100 35ff 	add.w	r5, r0, #4294967295	@ 0xffffffff
 800323e:	f080 80ed 	bcs.w	800341c <__udivmoddi4+0x264>
 8003242:	4563      	cmp	r3, ip
 8003244:	f240 80ea 	bls.w	800341c <__udivmoddi4+0x264>
 8003248:	44a4      	add	ip, r4
 800324a:	3802      	subs	r0, #2
 800324c:	ea40 4001 	orr.w	r0, r0, r1, lsl #16
 8003250:	ebac 0c03 	sub.w	ip, ip, r3
 8003254:	2100      	movs	r1, #0
 8003256:	f1be 0f00 	cmp.w	lr, #0
 800325a:	d004      	beq.n	8003266 <__udivmoddi4+0xae>
 800325c:	fa2c f302 	lsr.w	r3, ip, r2
 8003260:	2200      	movs	r2, #0
 8003262:	e9ce 3200 	strd	r3, r2, [lr]
 8003266:	b002      	add	sp, #8
 8003268:	e8bd 87f0 	ldmia.w	sp!, {r4, r5, r6, r7, r8, r9, sl, pc}
 800326c:	428b      	cmp	r3, r1
 800326e:	d909      	bls.n	8003284 <__udivmoddi4+0xcc>
 8003270:	f1be 0f00 	cmp.w	lr, #0
 8003274:	d001      	beq.n	800327a <__udivmoddi4+0xc2>
 8003276:	e9ce 6100 	strd	r6, r1, [lr]
 800327a:	2100      	movs	r1, #0
 800327c:	4608      	mov	r0, r1
 800327e:	b002      	add	sp, #8
 8003280:	e8bd 87f0 	ldmia.w	sp!, {r4, r5, r6, r7, r8, r9, sl, pc}
 8003284:	fab3 f183 	clz	r1, r3
 8003288:	4617      	mov	r7, r2
 800328a:	2900      	cmp	r1, #0
 800328c:	d14d      	bne.n	800332a <__udivmoddi4+0x172>
 800328e:	4283      	cmp	r3, r0
 8003290:	d302      	bcc.n	8003298 <__udivmoddi4+0xe0>
 8003292:	42b2      	cmp	r2, r6
 8003294:	f200 810f 	bhi.w	80034b6 <__udivmoddi4+0x2fe>
 8003298:	ebb6 0c07 	subs.w	ip, r6, r7
 800329c:	eb60 0303 	sbc.w	r3, r0, r3
 80032a0:	2001      	movs	r0, #1
 80032a2:	461d      	mov	r5, r3
 80032a4:	f1be 0f00 	cmp.w	lr, #0
 80032a8:	d0dd      	beq.n	8003266 <__udivmoddi4+0xae>
 80032aa:	e9ce c500 	strd	ip, r5, [lr]
 80032ae:	e7da      	b.n	8003266 <__udivmoddi4+0xae>
 80032b0:	2a00      	cmp	r2, #0
 80032b2:	f000 8098 	beq.w	80033e6 <__udivmoddi4+0x22e>
 80032b6:	461a      	mov	r2, r3
 80032b8:	fab4 f384 	clz	r3, r4
 80032bc:	2b00      	cmp	r3, #0
 80032be:	f040 80af 	bne.w	8003420 <__udivmoddi4+0x268>
 80032c2:	1b0b      	subs	r3, r1, r4
 80032c4:	0c27      	lsrs	r7, r4, #16
 80032c6:	b2a6      	uxth	r6, r4
 80032c8:	2101      	movs	r1, #1
 80032ca:	fbb3 f5f7 	udiv	r5, r3, r7
 80032ce:	ea4f 401c 	mov.w	r0, ip, lsr #16
 80032d2:	fb07 3315 	mls	r3, r7, r5, r3
 80032d6:	ea40 4303 	orr.w	r3, r0, r3, lsl #16
 80032da:	fb06 f805 	mul.w	r8, r6, r5
 80032de:	4598      	cmp	r8, r3
 80032e0:	d907      	bls.n	80032f2 <__udivmoddi4+0x13a>
 80032e2:	18e3      	adds	r3, r4, r3
 80032e4:	f105 30ff 	add.w	r0, r5, #4294967295	@ 0xffffffff
 80032e8:	d202      	bcs.n	80032f0 <__udivmoddi4+0x138>
 80032ea:	4598      	cmp	r8, r3
 80032ec:	f200 80e8 	bhi.w	80034c0 <__udivmoddi4+0x308>
 80032f0:	4605      	mov	r5, r0
 80032f2:	eba3 0308 	sub.w	r3, r3, r8
 80032f6:	fa1f fc8c 	uxth.w	ip, ip
 80032fa:	fbb3 f0f7 	udiv	r0, r3, r7
 80032fe:	fb07 3310 	mls	r3, r7, r0, r3
 8003302:	ea4c 4c03 	orr.w	ip, ip, r3, lsl #16
 8003306:	fb06 f300 	mul.w	r3, r6, r0
 800330a:	4563      	cmp	r3, ip
 800330c:	d908      	bls.n	8003320 <__udivmoddi4+0x168>
 800330e:	eb14 0c0c 	adds.w	ip, r4, ip
 8003312:	f100 36ff 	add.w	r6, r0, #4294967295	@ 0xffffffff
 8003316:	d202      	bcs.n	800331e <__udivmoddi4+0x166>
 8003318:	4563      	cmp	r3, ip
 800331a:	f200 80ce 	bhi.w	80034ba <__udivmoddi4+0x302>
 800331e:	4630      	mov	r0, r6
 8003320:	ebac 0c03 	sub.w	ip, ip, r3
 8003324:	ea40 4005 	orr.w	r0, r0, r5, lsl #16
 8003328:	e795      	b.n	8003256 <__udivmoddi4+0x9e>
 800332a:	f1c1 0520 	rsb	r5, r1, #32
 800332e:	408b      	lsls	r3, r1
 8003330:	fa22 fc05 	lsr.w	ip, r2, r5
 8003334:	ea4c 0c03 	orr.w	ip, ip, r3
 8003338:	fa00 f401 	lsl.w	r4, r0, r1
 800333c:	fa26 f305 	lsr.w	r3, r6, r5
 8003340:	40e8      	lsrs	r0, r5
 8003342:	fa02 f901 	lsl.w	r9, r2, r1
 8003346:	ea43 0804 	orr.w	r8, r3, r4
 800334a:	ea4f 421c 	mov.w	r2, ip, lsr #16
 800334e:	fa06 fa01 	lsl.w	sl, r6, r1
 8003352:	fbb0 f7f2 	udiv	r7, r0, r2
 8003356:	fa1f f68c 	uxth.w	r6, ip
 800335a:	fb02 0017 	mls	r0, r2, r7, r0
 800335e:	ea4f 4418 	mov.w	r4, r8, lsr #16
 8003362:	ea44 4400 	orr.w	r4, r4, r0, lsl #16
 8003366:	fb07 f006 	mul.w	r0, r7, r6
 800336a:	42a0      	cmp	r0, r4
 800336c:	d90a      	bls.n	8003384 <__udivmoddi4+0x1cc>
 800336e:	eb1c 0404 	adds.w	r4, ip, r4
 8003372:	f107 33ff 	add.w	r3, r7, #4294967295	@ 0xffffffff
 8003376:	f080 809c 	bcs.w	80034b2 <__udivmoddi4+0x2fa>
 800337a:	42a0      	cmp	r0, r4
 800337c:	f240 8099 	bls.w	80034b2 <__udivmoddi4+0x2fa>
 8003380:	3f02      	subs	r7, #2
 8003382:	4464      	add	r4, ip
 8003384:	1a24      	subs	r4, r4, r0
 8003386:	fa1f f388 	uxth.w	r3, r8
 800338a:	fbb4 f0f2 	udiv	r0, r4, r2
 800338e:	fb02 4410 	mls	r4, r2, r0, r4
 8003392:	ea43 4304 	orr.w	r3, r3, r4, lsl #16
 8003396:	fb00 f606 	mul.w	r6, r0, r6
 800339a:	429e      	cmp	r6, r3
 800339c:	d909      	bls.n	80033b2 <__udivmoddi4+0x1fa>
 800339e:	eb1c 0303 	adds.w	r3, ip, r3
 80033a2:	f100 34ff 	add.w	r4, r0, #4294967295	@ 0xffffffff
 80033a6:	f080 8082 	bcs.w	80034ae <__udivmoddi4+0x2f6>
 80033aa:	429e      	cmp	r6, r3
 80033ac:	d97f      	bls.n	80034ae <__udivmoddi4+0x2f6>
 80033ae:	3802      	subs	r0, #2
 80033b0:	4463      	add	r3, ip
 80033b2:	ea40 4007 	orr.w	r0, r0, r7, lsl #16
 80033b6:	fba0 7409 	umull	r7, r4, r0, r9
 80033ba:	1b9b      	subs	r3, r3, r6
 80033bc:	42a3      	cmp	r3, r4
 80033be:	463e      	mov	r6, r7
 80033c0:	46a0      	mov	r8, r4
 80033c2:	d364      	bcc.n	800348e <__udivmoddi4+0x2d6>
 80033c4:	d061      	beq.n	800348a <__udivmoddi4+0x2d2>
 80033c6:	f1be 0f00 	cmp.w	lr, #0
 80033ca:	d00a      	beq.n	80033e2 <__udivmoddi4+0x22a>
 80033cc:	ebba 0206 	subs.w	r2, sl, r6
 80033d0:	eb63 0308 	sbc.w	r3, r3, r8
 80033d4:	fa03 f505 	lsl.w	r5, r3, r5
 80033d8:	40ca      	lsrs	r2, r1
 80033da:	4315      	orrs	r5, r2
 80033dc:	40cb      	lsrs	r3, r1
 80033de:	e9ce 5300 	strd	r5, r3, [lr]
 80033e2:	2100      	movs	r1, #0
 80033e4:	e73f      	b.n	8003266 <__udivmoddi4+0xae>
 80033e6:	0873      	lsrs	r3, r6, #1
 80033e8:	ea43 73c1 	orr.w	r3, r3, r1, lsl #31
 80033ec:	084a      	lsrs	r2, r1, #1
 80033ee:	0c19      	lsrs	r1, r3, #16
 80033f0:	ea41 4102 	orr.w	r1, r1, r2, lsl #16
 80033f4:	ea4f 7cc6 	mov.w	ip, r6, lsl #31
 80033f8:	b29b      	uxth	r3, r3
 80033fa:	fbb2 f0f4 	udiv	r0, r2, r4
 80033fe:	4626      	mov	r6, r4
 8003400:	46a0      	mov	r8, r4
 8003402:	4627      	mov	r7, r4
 8003404:	221f      	movs	r2, #31
 8003406:	ea43 4301 	orr.w	r3, r3, r1, lsl #16
 800340a:	fbb1 f1f4 	udiv	r1, r1, r4
 800340e:	eba3 0308 	sub.w	r3, r3, r8
 8003412:	ea41 4100 	orr.w	r1, r1, r0, lsl #16
 8003416:	e758      	b.n	80032ca <__udivmoddi4+0x112>
 8003418:	4629      	mov	r1, r5
 800341a:	e6ff      	b.n	800321c <__udivmoddi4+0x64>
 800341c:	4628      	mov	r0, r5
 800341e:	e715      	b.n	800324c <__udivmoddi4+0x94>
 8003420:	461a      	mov	r2, r3
 8003422:	f1c3 0120 	rsb	r1, r3, #32
 8003426:	409c      	lsls	r4, r3
 8003428:	fa26 f301 	lsr.w	r3, r6, r1
 800342c:	fa20 f101 	lsr.w	r1, r0, r1
 8003430:	4090      	lsls	r0, r2
 8003432:	4303      	orrs	r3, r0
 8003434:	0c27      	lsrs	r7, r4, #16
 8003436:	fa06 fc02 	lsl.w	ip, r6, r2
 800343a:	fbb1 f0f7 	udiv	r0, r1, r7
 800343e:	b2a6      	uxth	r6, r4
 8003440:	fb07 1510 	mls	r5, r7, r0, r1
 8003444:	0c19      	lsrs	r1, r3, #16
 8003446:	ea41 4105 	orr.w	r1, r1, r5, lsl #16
 800344a:	fb00 f506 	mul.w	r5, r0, r6
 800344e:	428d      	cmp	r5, r1
 8003450:	d93b      	bls.n	80034ca <__udivmoddi4+0x312>
 8003452:	1861      	adds	r1, r4, r1
 8003454:	d201      	bcs.n	800345a <__udivmoddi4+0x2a2>
 8003456:	428d      	cmp	r5, r1
 8003458:	d820      	bhi.n	800349c <__udivmoddi4+0x2e4>
 800345a:	1b49      	subs	r1, r1, r5
 800345c:	3801      	subs	r0, #1
 800345e:	fbb1 f5f7 	udiv	r5, r1, r7
 8003462:	9501      	str	r5, [sp, #4]
 8003464:	fb05 f806 	mul.w	r8, r5, r6
 8003468:	9d01      	ldr	r5, [sp, #4]
 800346a:	b29b      	uxth	r3, r3
 800346c:	fb07 1115 	mls	r1, r7, r5, r1
 8003470:	ea43 4301 	orr.w	r3, r3, r1, lsl #16
 8003474:	4543      	cmp	r3, r8
 8003476:	d226      	bcs.n	80034c6 <__udivmoddi4+0x30e>
 8003478:	18e3      	adds	r3, r4, r3
 800347a:	f105 31ff 	add.w	r1, r5, #4294967295	@ 0xffffffff
 800347e:	d2c6      	bcs.n	800340e <__udivmoddi4+0x256>
 8003480:	4543      	cmp	r3, r8
 8003482:	d2c4      	bcs.n	800340e <__udivmoddi4+0x256>
 8003484:	1ea9      	subs	r1, r5, #2
 8003486:	4423      	add	r3, r4
 8003488:	e7c1      	b.n	800340e <__udivmoddi4+0x256>
 800348a:	45ba      	cmp	sl, r7
 800348c:	d29b      	bcs.n	80033c6 <__udivmoddi4+0x20e>
 800348e:	ebb7 0609 	subs.w	r6, r7, r9
 8003492:	eb64 040c 	sbc.w	r4, r4, ip
 8003496:	3801      	subs	r0, #1
 8003498:	46a0      	mov	r8, r4
 800349a:	e794      	b.n	80033c6 <__udivmoddi4+0x20e>
 800349c:	1b65      	subs	r5, r4, r5
 800349e:	4429      	add	r1, r5
 80034a0:	3802      	subs	r0, #2
 80034a2:	fbb1 f5f7 	udiv	r5, r1, r7
 80034a6:	9501      	str	r5, [sp, #4]
 80034a8:	fb05 f806 	mul.w	r8, r5, r6
 80034ac:	e7dc      	b.n	8003468 <__udivmoddi4+0x2b0>
 80034ae:	4620      	mov	r0, r4
 80034b0:	e77f      	b.n	80033b2 <__udivmoddi4+0x1fa>
 80034b2:	461f      	mov	r7, r3
 80034b4:	e766      	b.n	8003384 <__udivmoddi4+0x1cc>
 80034b6:	4608      	mov	r0, r1
 80034b8:	e6f4      	b.n	80032a4 <__udivmoddi4+0xec>
 80034ba:	44a4      	add	ip, r4
 80034bc:	3802      	subs	r0, #2
 80034be:	e72f      	b.n	8003320 <__udivmoddi4+0x168>
 80034c0:	3d02      	subs	r5, #2
 80034c2:	4423      	add	r3, r4
 80034c4:	e715      	b.n	80032f2 <__udivmoddi4+0x13a>
 80034c6:	9901      	ldr	r1, [sp, #4]
 80034c8:	e7a1      	b.n	800340e <__udivmoddi4+0x256>
 80034ca:	1b49      	subs	r1, r1, r5
 80034cc:	fbb1 f5f7 	udiv	r5, r1, r7
 80034d0:	9501      	str	r5, [sp, #4]
 80034d2:	fb05 f806 	mul.w	r8, r5, r6
 80034d6:	e7c7      	b.n	8003468 <__udivmoddi4+0x2b0>

080034d8 <_init>:
 80034d8:	b5f8      	push	{r3, r4, r5, r6, r7, lr}
 80034da:	bf00      	nop
 80034dc:	bcf8      	pop	{r3, r4, r5, r6, r7}
 80034de:	bc08      	pop	{r3}
 80034e0:	469e      	mov	lr, r3
 80034e2:	4770      	bx	lr

080034e4 <_fini>:
 80034e4:	b5f8      	push	{r3, r4, r5, r6, r7, lr}
 80034e6:	bf00      	nop
 80034e8:	bcf8      	pop	{r3, r4, r5, r6, r7}
 80034ea:	bc08      	pop	{r3}
 80034ec:	469e      	mov	lr, r3
 80034ee:	4770      	bx	lr
