ARM GAS  /tmp/ccUpKqer.s 			page 1


   1              		.cpu cortex-m4
   2              		.arch armv7e-m
   3              		.fpu fpv4-sp-d16
   4              		.eabi_attribute 27, 1
   5              		.eabi_attribute 28, 1
   6              		.eabi_attribute 20, 1
   7              		.eabi_attribute 21, 1
   8              		.eabi_attribute 23, 3
   9              		.eabi_attribute 24, 1
  10              		.eabi_attribute 25, 1
  11              		.eabi_attribute 26, 1
  12              		.eabi_attribute 30, 1
  13              		.eabi_attribute 34, 1
  14              		.eabi_attribute 18, 4
  15              		.file	"main.c"
  16              		.text
  17              	.Ltext0:
  18              		.cfi_sections	.debug_frame
  19              		.file 1 "Core/Src/main.c"
  20              		.section	.text.MX_GPIO_Init,"ax",%progbits
  21              		.align	1
  22              		.syntax unified
  23              		.thumb
  24              		.thumb_func
  26              	MX_GPIO_Init:
  27              	.LFB234:
   1:Core/Src/main.c **** /* USER CODE BEGIN Header */
   2:Core/Src/main.c **** /**
   3:Core/Src/main.c ****   ******************************************************************************
   4:Core/Src/main.c ****   * @file           : main.c
   5:Core/Src/main.c ****   * @brief          : Main program body
   6:Core/Src/main.c ****   ******************************************************************************
   7:Core/Src/main.c ****   * @attention
   8:Core/Src/main.c ****   *
   9:Core/Src/main.c ****   * Copyright (c) 2026 STMicroelectronics.
  10:Core/Src/main.c ****   * All rights reserved.
  11:Core/Src/main.c ****   *
  12:Core/Src/main.c ****   * This software is licensed under terms that can be found in the LICENSE file
  13:Core/Src/main.c ****   * in the root directory of this software component.
  14:Core/Src/main.c ****   * If no LICENSE file comes with this software, it is provided AS-IS.
  15:Core/Src/main.c ****   *
  16:Core/Src/main.c ****   ******************************************************************************
  17:Core/Src/main.c ****   */
  18:Core/Src/main.c **** /* USER CODE END Header */
  19:Core/Src/main.c **** /* Includes ------------------------------------------------------------------*/
  20:Core/Src/main.c **** #include "main.h"
  21:Core/Src/main.c **** 
  22:Core/Src/main.c **** /* Private includes ----------------------------------------------------------*/
  23:Core/Src/main.c **** /* USER CODE BEGIN Includes */
  24:Core/Src/main.c **** 
  25:Core/Src/main.c **** /* USER CODE END Includes */
  26:Core/Src/main.c **** 
  27:Core/Src/main.c **** /* Private typedef -----------------------------------------------------------*/
  28:Core/Src/main.c **** /* USER CODE BEGIN PTD */
  29:Core/Src/main.c **** 
  30:Core/Src/main.c **** /* USER CODE END PTD */
  31:Core/Src/main.c **** 
ARM GAS  /tmp/ccUpKqer.s 			page 2


  32:Core/Src/main.c **** /* Private define ------------------------------------------------------------*/
  33:Core/Src/main.c **** /* USER CODE BEGIN PD */
  34:Core/Src/main.c **** 
  35:Core/Src/main.c **** /* USER CODE END PD */
  36:Core/Src/main.c **** 
  37:Core/Src/main.c **** /* Private macro -------------------------------------------------------------*/
  38:Core/Src/main.c **** /* USER CODE BEGIN PM */
  39:Core/Src/main.c **** 
  40:Core/Src/main.c **** /* USER CODE END PM */
  41:Core/Src/main.c **** 
  42:Core/Src/main.c **** /* Private variables ---------------------------------------------------------*/
  43:Core/Src/main.c **** UART_HandleTypeDef hlpuart1;
  44:Core/Src/main.c **** UART_HandleTypeDef huart2;
  45:Core/Src/main.c **** UART_HandleTypeDef huart3;
  46:Core/Src/main.c **** 
  47:Core/Src/main.c **** SPI_HandleTypeDef hspi1;
  48:Core/Src/main.c **** 
  49:Core/Src/main.c **** /* USER CODE BEGIN PV */
  50:Core/Src/main.c **** 
  51:Core/Src/main.c **** /* USER CODE END PV */
  52:Core/Src/main.c **** 
  53:Core/Src/main.c **** /* Private function prototypes -----------------------------------------------*/
  54:Core/Src/main.c **** void SystemClock_Config(void);
  55:Core/Src/main.c **** static void MX_GPIO_Init(void);
  56:Core/Src/main.c **** static void MX_LPUART1_UART_Init(void);
  57:Core/Src/main.c **** static void MX_USART2_UART_Init(void);
  58:Core/Src/main.c **** static void MX_USART3_UART_Init(void);
  59:Core/Src/main.c **** static void MX_SPI1_Init(void);
  60:Core/Src/main.c **** /* USER CODE BEGIN PFP */
  61:Core/Src/main.c **** 
  62:Core/Src/main.c **** /* USER CODE END PFP */
  63:Core/Src/main.c **** 
  64:Core/Src/main.c **** /* Private user code ---------------------------------------------------------*/
  65:Core/Src/main.c **** /* USER CODE BEGIN 0 */
  66:Core/Src/main.c **** 
  67:Core/Src/main.c **** /* USER CODE END 0 */
  68:Core/Src/main.c **** 
  69:Core/Src/main.c **** /**
  70:Core/Src/main.c ****   * @brief  The application entry point.
  71:Core/Src/main.c ****   * @retval int
  72:Core/Src/main.c ****   */
  73:Core/Src/main.c **** int main(void)
  74:Core/Src/main.c **** {
  75:Core/Src/main.c **** 
  76:Core/Src/main.c ****   /* USER CODE BEGIN 1 */
  77:Core/Src/main.c **** 
  78:Core/Src/main.c ****   /* USER CODE END 1 */
  79:Core/Src/main.c **** 
  80:Core/Src/main.c ****   /* MCU Configuration--------------------------------------------------------*/
  81:Core/Src/main.c **** 
  82:Core/Src/main.c ****   /* Reset of all peripherals, Initializes the Flash interface and the Systick. */
  83:Core/Src/main.c ****   HAL_Init();
  84:Core/Src/main.c **** 
  85:Core/Src/main.c ****   /* USER CODE BEGIN Init */
  86:Core/Src/main.c **** 
  87:Core/Src/main.c ****   /* USER CODE END Init */
  88:Core/Src/main.c **** 
ARM GAS  /tmp/ccUpKqer.s 			page 3


  89:Core/Src/main.c ****   /* Configure the system clock */
  90:Core/Src/main.c ****   SystemClock_Config();
  91:Core/Src/main.c **** 
  92:Core/Src/main.c ****   /* USER CODE BEGIN SysInit */
  93:Core/Src/main.c ****   // BEFORE SDMMC FAILS
  94:Core/Src/main.c **** 
  95:Core/Src/main.c ****   /* USER CODE END SysInit */
  96:Core/Src/main.c **** 
  97:Core/Src/main.c ****   /* Initialize all configured peripherals */
  98:Core/Src/main.c ****   MX_GPIO_Init();
  99:Core/Src/main.c ****   MX_LPUART1_UART_Init();
 100:Core/Src/main.c ****   MX_USART2_UART_Init();
 101:Core/Src/main.c ****   MX_USART3_UART_Init();
 102:Core/Src/main.c ****   MX_SPI1_Init();
 103:Core/Src/main.c ****   /* USER CODE BEGIN 2 */
 104:Core/Src/main.c **** 
 105:Core/Src/main.c ****   HAL_GPIO_WritePin(Lo_PWR_CTRL_GPIO_Port, Lo_PWR_CTRL_Pin, GPIO_PIN_SET);
 106:Core/Src/main.c ****   HAL_GPIO_WritePin(Wi_EN_GPIO_Port, Wi_EN_Pin, GPIO_PIN_SET);
 107:Core/Src/main.c ****   HAL_GPIO_WritePin(Wi_GPIO_0_GPIO_Port, Wi_GPIO_0_Pin, GPIO_PIN_SET);
 108:Core/Src/main.c **** 
 109:Core/Src/main.c ****   /* USER CODE END 2 */
 110:Core/Src/main.c **** 
 111:Core/Src/main.c ****   /* Infinite loop */
 112:Core/Src/main.c ****   /* USER CODE BEGIN WHILE */
 113:Core/Src/main.c ****   while (1)
 114:Core/Src/main.c ****   {  HAL_GPIO_TogglePin(Lo_PWR_CTRL_GPIO_Port, Lo_PWR_CTRL_Pin);
 115:Core/Src/main.c ****     HAL_Delay(2000);
 116:Core/Src/main.c ****     
 117:Core/Src/main.c ****     /* USER CODE END WHILE */
 118:Core/Src/main.c **** 
 119:Core/Src/main.c ****     /* USER CODE BEGIN 3 */
 120:Core/Src/main.c ****   }
 121:Core/Src/main.c ****   /* USER CODE END 3 */
 122:Core/Src/main.c **** }
 123:Core/Src/main.c **** 
 124:Core/Src/main.c **** /**
 125:Core/Src/main.c ****   * @brief System Clock Configuration
 126:Core/Src/main.c ****   * @retval None
 127:Core/Src/main.c ****   */
 128:Core/Src/main.c **** void SystemClock_Config(void)
 129:Core/Src/main.c **** {
 130:Core/Src/main.c ****   RCC_OscInitTypeDef RCC_OscInitStruct = {0};
 131:Core/Src/main.c ****   RCC_ClkInitTypeDef RCC_ClkInitStruct = {0};
 132:Core/Src/main.c **** 
 133:Core/Src/main.c ****   /** Configure the main internal regulator output voltage
 134:Core/Src/main.c ****   */
 135:Core/Src/main.c ****   if (HAL_PWREx_ControlVoltageScaling(PWR_REGULATOR_VOLTAGE_SCALE1) != HAL_OK)
 136:Core/Src/main.c ****   {
 137:Core/Src/main.c ****     Error_Handler();
 138:Core/Src/main.c ****   }
 139:Core/Src/main.c **** 
 140:Core/Src/main.c ****   /** Initializes the RCC Oscillators according to the specified parameters
 141:Core/Src/main.c ****   * in the RCC_OscInitTypeDef structure.
 142:Core/Src/main.c ****   */
 143:Core/Src/main.c ****   RCC_OscInitStruct.OscillatorType = RCC_OSCILLATORTYPE_MSI;
 144:Core/Src/main.c ****   RCC_OscInitStruct.MSIState = RCC_MSI_ON;
 145:Core/Src/main.c ****   RCC_OscInitStruct.MSICalibrationValue = 0;
ARM GAS  /tmp/ccUpKqer.s 			page 4


 146:Core/Src/main.c ****   RCC_OscInitStruct.MSIClockRange = RCC_MSIRANGE_6;
 147:Core/Src/main.c ****   RCC_OscInitStruct.PLL.PLLState = RCC_PLL_NONE;
 148:Core/Src/main.c ****   if (HAL_RCC_OscConfig(&RCC_OscInitStruct) != HAL_OK)
 149:Core/Src/main.c ****   {
 150:Core/Src/main.c ****     Error_Handler();
 151:Core/Src/main.c ****   }
 152:Core/Src/main.c **** 
 153:Core/Src/main.c ****   /** Initializes the CPU, AHB and APB buses clocks
 154:Core/Src/main.c ****   */
 155:Core/Src/main.c ****   RCC_ClkInitStruct.ClockType = RCC_CLOCKTYPE_HCLK|RCC_CLOCKTYPE_SYSCLK
 156:Core/Src/main.c ****                               |RCC_CLOCKTYPE_PCLK1|RCC_CLOCKTYPE_PCLK2;
 157:Core/Src/main.c ****   RCC_ClkInitStruct.SYSCLKSource = RCC_SYSCLKSOURCE_MSI;
 158:Core/Src/main.c ****   RCC_ClkInitStruct.AHBCLKDivider = RCC_SYSCLK_DIV1;
 159:Core/Src/main.c ****   RCC_ClkInitStruct.APB1CLKDivider = RCC_HCLK_DIV1;
 160:Core/Src/main.c ****   RCC_ClkInitStruct.APB2CLKDivider = RCC_HCLK_DIV1;
 161:Core/Src/main.c **** 
 162:Core/Src/main.c ****   if (HAL_RCC_ClockConfig(&RCC_ClkInitStruct, FLASH_LATENCY_0) != HAL_OK)
 163:Core/Src/main.c ****   {
 164:Core/Src/main.c ****     Error_Handler();
 165:Core/Src/main.c ****   }
 166:Core/Src/main.c ****   HAL_RCC_MCOConfig(RCC_MCO1, RCC_MCO1SOURCE_SYSCLK, RCC_MCODIV_1);
 167:Core/Src/main.c **** }
 168:Core/Src/main.c **** 
 169:Core/Src/main.c **** /**
 170:Core/Src/main.c ****   * @brief LPUART1 Initialization Function
 171:Core/Src/main.c ****   * @param None
 172:Core/Src/main.c ****   * @retval None
 173:Core/Src/main.c ****   */
 174:Core/Src/main.c **** static void MX_LPUART1_UART_Init(void)
 175:Core/Src/main.c **** {
 176:Core/Src/main.c **** 
 177:Core/Src/main.c ****   /* USER CODE BEGIN LPUART1_Init 0 */
 178:Core/Src/main.c **** 
 179:Core/Src/main.c ****   /* USER CODE END LPUART1_Init 0 */
 180:Core/Src/main.c **** 
 181:Core/Src/main.c ****   /* USER CODE BEGIN LPUART1_Init 1 */
 182:Core/Src/main.c **** 
 183:Core/Src/main.c ****   /* USER CODE END LPUART1_Init 1 */
 184:Core/Src/main.c ****   hlpuart1.Instance = LPUART1;
 185:Core/Src/main.c ****   hlpuart1.Init.BaudRate = 209700;
 186:Core/Src/main.c ****   hlpuart1.Init.WordLength = UART_WORDLENGTH_7B;
 187:Core/Src/main.c ****   hlpuart1.Init.StopBits = UART_STOPBITS_1;
 188:Core/Src/main.c ****   hlpuart1.Init.Parity = UART_PARITY_NONE;
 189:Core/Src/main.c ****   hlpuart1.Init.Mode = UART_MODE_TX_RX;
 190:Core/Src/main.c ****   hlpuart1.Init.HwFlowCtl = UART_HWCONTROL_NONE;
 191:Core/Src/main.c ****   hlpuart1.Init.OneBitSampling = UART_ONE_BIT_SAMPLE_DISABLE;
 192:Core/Src/main.c ****   hlpuart1.AdvancedInit.AdvFeatureInit = UART_ADVFEATURE_NO_INIT;
 193:Core/Src/main.c ****   if (HAL_UART_Init(&hlpuart1) != HAL_OK)
 194:Core/Src/main.c ****   {
 195:Core/Src/main.c ****     Error_Handler();
 196:Core/Src/main.c ****   }
 197:Core/Src/main.c ****   /* USER CODE BEGIN LPUART1_Init 2 */
 198:Core/Src/main.c **** 
 199:Core/Src/main.c ****   /* USER CODE END LPUART1_Init 2 */
 200:Core/Src/main.c **** 
 201:Core/Src/main.c **** }
 202:Core/Src/main.c **** 
ARM GAS  /tmp/ccUpKqer.s 			page 5


 203:Core/Src/main.c **** /**
 204:Core/Src/main.c ****   * @brief USART2 Initialization Function
 205:Core/Src/main.c ****   * @param None
 206:Core/Src/main.c ****   * @retval None
 207:Core/Src/main.c ****   */
 208:Core/Src/main.c **** static void MX_USART2_UART_Init(void)
 209:Core/Src/main.c **** {
 210:Core/Src/main.c **** 
 211:Core/Src/main.c ****   /* USER CODE BEGIN USART2_Init 0 */
 212:Core/Src/main.c **** 
 213:Core/Src/main.c ****   /* USER CODE END USART2_Init 0 */
 214:Core/Src/main.c **** 
 215:Core/Src/main.c ****   /* USER CODE BEGIN USART2_Init 1 */
 216:Core/Src/main.c **** 
 217:Core/Src/main.c ****   /* USER CODE END USART2_Init 1 */
 218:Core/Src/main.c ****   huart2.Instance = USART2;
 219:Core/Src/main.c ****   huart2.Init.BaudRate = 115200;
 220:Core/Src/main.c ****   huart2.Init.WordLength = UART_WORDLENGTH_8B;
 221:Core/Src/main.c ****   huart2.Init.StopBits = UART_STOPBITS_1;
 222:Core/Src/main.c ****   huart2.Init.Parity = UART_PARITY_NONE;
 223:Core/Src/main.c ****   huart2.Init.Mode = UART_MODE_TX_RX;
 224:Core/Src/main.c ****   huart2.Init.HwFlowCtl = UART_HWCONTROL_RTS_CTS;
 225:Core/Src/main.c ****   huart2.Init.OverSampling = UART_OVERSAMPLING_16;
 226:Core/Src/main.c ****   huart2.Init.OneBitSampling = UART_ONE_BIT_SAMPLE_DISABLE;
 227:Core/Src/main.c ****   huart2.AdvancedInit.AdvFeatureInit = UART_ADVFEATURE_NO_INIT;
 228:Core/Src/main.c ****   if (HAL_UART_Init(&huart2) != HAL_OK)
 229:Core/Src/main.c ****   {
 230:Core/Src/main.c ****     Error_Handler();
 231:Core/Src/main.c ****   }
 232:Core/Src/main.c ****   /* USER CODE BEGIN USART2_Init 2 */
 233:Core/Src/main.c **** 
 234:Core/Src/main.c ****   /* USER CODE END USART2_Init 2 */
 235:Core/Src/main.c **** 
 236:Core/Src/main.c **** }
 237:Core/Src/main.c **** 
 238:Core/Src/main.c **** /**
 239:Core/Src/main.c ****   * @brief USART3 Initialization Function
 240:Core/Src/main.c ****   * @param None
 241:Core/Src/main.c ****   * @retval None
 242:Core/Src/main.c ****   */
 243:Core/Src/main.c **** static void MX_USART3_UART_Init(void)
 244:Core/Src/main.c **** {
 245:Core/Src/main.c **** 
 246:Core/Src/main.c ****   /* USER CODE BEGIN USART3_Init 0 */
 247:Core/Src/main.c **** 
 248:Core/Src/main.c ****   /* USER CODE END USART3_Init 0 */
 249:Core/Src/main.c **** 
 250:Core/Src/main.c ****   /* USER CODE BEGIN USART3_Init 1 */
 251:Core/Src/main.c **** 
 252:Core/Src/main.c ****   /* USER CODE END USART3_Init 1 */
 253:Core/Src/main.c ****   huart3.Instance = USART3;
 254:Core/Src/main.c ****   huart3.Init.BaudRate = 115200;
 255:Core/Src/main.c ****   huart3.Init.WordLength = UART_WORDLENGTH_8B;
 256:Core/Src/main.c ****   huart3.Init.StopBits = UART_STOPBITS_1;
 257:Core/Src/main.c ****   huart3.Init.Parity = UART_PARITY_NONE;
 258:Core/Src/main.c ****   huart3.Init.Mode = UART_MODE_TX_RX;
 259:Core/Src/main.c ****   huart3.Init.HwFlowCtl = UART_HWCONTROL_NONE;
ARM GAS  /tmp/ccUpKqer.s 			page 6


 260:Core/Src/main.c ****   huart3.Init.OverSampling = UART_OVERSAMPLING_16;
 261:Core/Src/main.c ****   huart3.Init.OneBitSampling = UART_ONE_BIT_SAMPLE_DISABLE;
 262:Core/Src/main.c ****   huart3.AdvancedInit.AdvFeatureInit = UART_ADVFEATURE_NO_INIT;
 263:Core/Src/main.c ****   if (HAL_UART_Init(&huart3) != HAL_OK)
 264:Core/Src/main.c ****   {
 265:Core/Src/main.c ****     Error_Handler();
 266:Core/Src/main.c ****   }
 267:Core/Src/main.c ****   /* USER CODE BEGIN USART3_Init 2 */
 268:Core/Src/main.c **** 
 269:Core/Src/main.c ****   /* USER CODE END USART3_Init 2 */
 270:Core/Src/main.c **** 
 271:Core/Src/main.c **** }
 272:Core/Src/main.c **** 
 273:Core/Src/main.c **** /**
 274:Core/Src/main.c ****   * @brief SPI1 Initialization Function
 275:Core/Src/main.c ****   * @param None
 276:Core/Src/main.c ****   * @retval None
 277:Core/Src/main.c ****   */
 278:Core/Src/main.c **** static void MX_SPI1_Init(void)
 279:Core/Src/main.c **** {
 280:Core/Src/main.c **** 
 281:Core/Src/main.c ****   /* USER CODE BEGIN SPI1_Init 0 */
 282:Core/Src/main.c **** 
 283:Core/Src/main.c ****   /* USER CODE END SPI1_Init 0 */
 284:Core/Src/main.c **** 
 285:Core/Src/main.c ****   /* USER CODE BEGIN SPI1_Init 1 */
 286:Core/Src/main.c **** 
 287:Core/Src/main.c ****   /* USER CODE END SPI1_Init 1 */
 288:Core/Src/main.c ****   /* SPI1 parameter configuration*/
 289:Core/Src/main.c ****   hspi1.Instance = SPI1;
 290:Core/Src/main.c ****   hspi1.Init.Mode = SPI_MODE_MASTER;
 291:Core/Src/main.c ****   hspi1.Init.Direction = SPI_DIRECTION_2LINES;
 292:Core/Src/main.c ****   hspi1.Init.DataSize = SPI_DATASIZE_4BIT;
 293:Core/Src/main.c ****   hspi1.Init.CLKPolarity = SPI_POLARITY_LOW;
 294:Core/Src/main.c ****   hspi1.Init.CLKPhase = SPI_PHASE_1EDGE;
 295:Core/Src/main.c ****   hspi1.Init.NSS = SPI_NSS_HARD_OUTPUT;
 296:Core/Src/main.c ****   hspi1.Init.BaudRatePrescaler = SPI_BAUDRATEPRESCALER_2;
 297:Core/Src/main.c ****   hspi1.Init.FirstBit = SPI_FIRSTBIT_MSB;
 298:Core/Src/main.c ****   hspi1.Init.TIMode = SPI_TIMODE_DISABLE;
 299:Core/Src/main.c ****   hspi1.Init.CRCCalculation = SPI_CRCCALCULATION_DISABLE;
 300:Core/Src/main.c ****   hspi1.Init.CRCPolynomial = 7;
 301:Core/Src/main.c ****   hspi1.Init.CRCLength = SPI_CRC_LENGTH_DATASIZE;
 302:Core/Src/main.c ****   hspi1.Init.NSSPMode = SPI_NSS_PULSE_ENABLE;
 303:Core/Src/main.c ****   if (HAL_SPI_Init(&hspi1) != HAL_OK)
 304:Core/Src/main.c ****   {
 305:Core/Src/main.c ****     Error_Handler();
 306:Core/Src/main.c ****   }
 307:Core/Src/main.c ****   /* USER CODE BEGIN SPI1_Init 2 */
 308:Core/Src/main.c **** 
 309:Core/Src/main.c ****   /* USER CODE END SPI1_Init 2 */
 310:Core/Src/main.c **** 
 311:Core/Src/main.c **** }
 312:Core/Src/main.c **** 
 313:Core/Src/main.c **** /**
 314:Core/Src/main.c ****   * @brief GPIO Initialization Function
 315:Core/Src/main.c ****   * @param None
 316:Core/Src/main.c ****   * @retval None
ARM GAS  /tmp/ccUpKqer.s 			page 7


 317:Core/Src/main.c ****   */
 318:Core/Src/main.c **** static void MX_GPIO_Init(void)
 319:Core/Src/main.c **** {
  28              		.loc 1 319 1 view -0
  29              		.cfi_startproc
  30              		@ args = 0, pretend = 0, frame = 40
  31              		@ frame_needed = 0, uses_anonymous_args = 0
  32 0000 2DE9F041 		push	{r4, r5, r6, r7, r8, lr}
  33              		.cfi_def_cfa_offset 24
  34              		.cfi_offset 4, -24
  35              		.cfi_offset 5, -20
  36              		.cfi_offset 6, -16
  37              		.cfi_offset 7, -12
  38              		.cfi_offset 8, -8
  39              		.cfi_offset 14, -4
  40 0004 8AB0     		sub	sp, sp, #40
  41              		.cfi_def_cfa_offset 64
 320:Core/Src/main.c ****   GPIO_InitTypeDef GPIO_InitStruct = {0};
  42              		.loc 1 320 3 view .LVU1
  43              		.loc 1 320 20 is_stmt 0 view .LVU2
  44 0006 05AD     		add	r5, sp, #20
  45 0008 0024     		movs	r4, #0
  46 000a 0594     		str	r4, [sp, #20]
  47 000c 0694     		str	r4, [sp, #24]
  48 000e 0794     		str	r4, [sp, #28]
  49 0010 0894     		str	r4, [sp, #32]
  50 0012 0994     		str	r4, [sp, #36]
 321:Core/Src/main.c ****   /* USER CODE BEGIN MX_GPIO_Init_1 */
 322:Core/Src/main.c **** 
 323:Core/Src/main.c ****   /* USER CODE END MX_GPIO_Init_1 */
 324:Core/Src/main.c **** 
 325:Core/Src/main.c ****   /* GPIO Ports Clock Enable */
 326:Core/Src/main.c ****   __HAL_RCC_GPIOH_CLK_ENABLE();
  51              		.loc 1 326 3 is_stmt 1 view .LVU3
  52              	.LBB4:
  53              		.loc 1 326 3 view .LVU4
  54              		.loc 1 326 3 view .LVU5
  55 0014 364B     		ldr	r3, .L3
  56 0016 DA6C     		ldr	r2, [r3, #76]
  57 0018 42F08002 		orr	r2, r2, #128
  58 001c DA64     		str	r2, [r3, #76]
  59              		.loc 1 326 3 view .LVU6
  60 001e DA6C     		ldr	r2, [r3, #76]
  61 0020 02F08002 		and	r2, r2, #128
  62 0024 0192     		str	r2, [sp, #4]
  63              		.loc 1 326 3 view .LVU7
  64 0026 019A     		ldr	r2, [sp, #4]
  65              	.LBE4:
  66              		.loc 1 326 3 view .LVU8
 327:Core/Src/main.c ****   __HAL_RCC_GPIOC_CLK_ENABLE();
  67              		.loc 1 327 3 view .LVU9
  68              	.LBB5:
  69              		.loc 1 327 3 view .LVU10
  70              		.loc 1 327 3 view .LVU11
  71 0028 DA6C     		ldr	r2, [r3, #76]
  72 002a 42F00402 		orr	r2, r2, #4
  73 002e DA64     		str	r2, [r3, #76]
ARM GAS  /tmp/ccUpKqer.s 			page 8


  74              		.loc 1 327 3 view .LVU12
  75 0030 DA6C     		ldr	r2, [r3, #76]
  76 0032 02F00402 		and	r2, r2, #4
  77 0036 0292     		str	r2, [sp, #8]
  78              		.loc 1 327 3 view .LVU13
  79 0038 029A     		ldr	r2, [sp, #8]
  80              	.LBE5:
  81              		.loc 1 327 3 view .LVU14
 328:Core/Src/main.c ****   __HAL_RCC_GPIOA_CLK_ENABLE();
  82              		.loc 1 328 3 view .LVU15
  83              	.LBB6:
  84              		.loc 1 328 3 view .LVU16
  85              		.loc 1 328 3 view .LVU17
  86 003a DA6C     		ldr	r2, [r3, #76]
  87 003c 42F00102 		orr	r2, r2, #1
  88 0040 DA64     		str	r2, [r3, #76]
  89              		.loc 1 328 3 view .LVU18
  90 0042 DA6C     		ldr	r2, [r3, #76]
  91 0044 02F00102 		and	r2, r2, #1
  92 0048 0392     		str	r2, [sp, #12]
  93              		.loc 1 328 3 view .LVU19
  94 004a 039A     		ldr	r2, [sp, #12]
  95              	.LBE6:
  96              		.loc 1 328 3 view .LVU20
 329:Core/Src/main.c ****   __HAL_RCC_GPIOB_CLK_ENABLE();
  97              		.loc 1 329 3 view .LVU21
  98              	.LBB7:
  99              		.loc 1 329 3 view .LVU22
 100              		.loc 1 329 3 view .LVU23
 101 004c DA6C     		ldr	r2, [r3, #76]
 102 004e 42F00202 		orr	r2, r2, #2
 103 0052 DA64     		str	r2, [r3, #76]
 104              		.loc 1 329 3 view .LVU24
 105 0054 DB6C     		ldr	r3, [r3, #76]
 106 0056 03F00203 		and	r3, r3, #2
 107 005a 0493     		str	r3, [sp, #16]
 108              		.loc 1 329 3 view .LVU25
 109 005c 049B     		ldr	r3, [sp, #16]
 110              	.LBE7:
 111              		.loc 1 329 3 view .LVU26
 330:Core/Src/main.c **** 
 331:Core/Src/main.c ****   /*Configure GPIO pin Output Level */
 332:Core/Src/main.c ****   HAL_GPIO_WritePin(GPIOC, Wi_EN_Pin|Wi_RST_Pin|Wi_WAKE_Pin|Wi_GPIO_0_Pin, GPIO_PIN_RESET);
 112              		.loc 1 332 3 view .LVU27
 113 005e DFF89880 		ldr	r8, .L3+8
 114 0062 2246     		mov	r2, r4
 115 0064 CC21     		movs	r1, #204
 116 0066 4046     		mov	r0, r8
 117 0068 FFF7FEFF 		bl	HAL_GPIO_WritePin
 118              	.LVL0:
 333:Core/Src/main.c **** 
 334:Core/Src/main.c ****   /*Configure GPIO pin Output Level */
 335:Core/Src/main.c ****   HAL_GPIO_WritePin(GPIOB, Wi_PWR_CTRL_Pin|Lo_PWR_CTRL_Pin|SD0_PWR_CTRL_Pin|Lo_GPIO_0_Pin
 119              		.loc 1 335 3 view .LVU28
 120 006c 214E     		ldr	r6, .L3+4
 121 006e 2246     		mov	r2, r4
 122 0070 47F60741 		movw	r1, #31751
ARM GAS  /tmp/ccUpKqer.s 			page 9


 123 0074 3046     		mov	r0, r6
 124 0076 FFF7FEFF 		bl	HAL_GPIO_WritePin
 125              	.LVL1:
 336:Core/Src/main.c ****                           |Lo_GPIO_1_Pin|Lo_GPIO_2_Pin|Lo_GPIO_3_Pin|Lo_RESET_GPIO_Pin, GPIO_PIN_RE
 337:Core/Src/main.c **** 
 338:Core/Src/main.c ****   /*Configure GPIO pins : Wi_EN_Pin Wi_RST_Pin Wi_WAKE_Pin Wi_GPIO_0_Pin */
 339:Core/Src/main.c ****   GPIO_InitStruct.Pin = Wi_EN_Pin|Wi_RST_Pin|Wi_WAKE_Pin|Wi_GPIO_0_Pin;
 126              		.loc 1 339 3 view .LVU29
 127              		.loc 1 339 23 is_stmt 0 view .LVU30
 128 007a CC23     		movs	r3, #204
 129 007c 0593     		str	r3, [sp, #20]
 340:Core/Src/main.c ****   GPIO_InitStruct.Mode = GPIO_MODE_OUTPUT_PP;
 130              		.loc 1 340 3 is_stmt 1 view .LVU31
 131              		.loc 1 340 24 is_stmt 0 view .LVU32
 132 007e 0127     		movs	r7, #1
 133 0080 0697     		str	r7, [sp, #24]
 341:Core/Src/main.c ****   GPIO_InitStruct.Pull = GPIO_NOPULL;
 134              		.loc 1 341 3 is_stmt 1 view .LVU33
 135              		.loc 1 341 24 is_stmt 0 view .LVU34
 136 0082 0794     		str	r4, [sp, #28]
 342:Core/Src/main.c ****   GPIO_InitStruct.Speed = GPIO_SPEED_FREQ_LOW;
 137              		.loc 1 342 3 is_stmt 1 view .LVU35
 138              		.loc 1 342 25 is_stmt 0 view .LVU36
 139 0084 0894     		str	r4, [sp, #32]
 343:Core/Src/main.c ****   HAL_GPIO_Init(GPIOC, &GPIO_InitStruct);
 140              		.loc 1 343 3 is_stmt 1 view .LVU37
 141 0086 2946     		mov	r1, r5
 142 0088 4046     		mov	r0, r8
 143 008a FFF7FEFF 		bl	HAL_GPIO_Init
 144              	.LVL2:
 344:Core/Src/main.c **** 
 345:Core/Src/main.c ****   /*Configure GPIO pins : Wi_PWR_CTRL_Pin Lo_PWR_CTRL_Pin SD0_PWR_CTRL_Pin Lo_GPIO_0_Pin
 346:Core/Src/main.c ****                            Lo_GPIO_1_Pin Lo_GPIO_2_Pin Lo_GPIO_3_Pin Lo_RESET_GPIO_Pin */
 347:Core/Src/main.c ****   GPIO_InitStruct.Pin = Wi_PWR_CTRL_Pin|Lo_PWR_CTRL_Pin|SD0_PWR_CTRL_Pin|Lo_GPIO_0_Pin
 145              		.loc 1 347 3 view .LVU38
 146              		.loc 1 347 23 is_stmt 0 view .LVU39
 147 008e 47F60743 		movw	r3, #31751
 148 0092 0593     		str	r3, [sp, #20]
 348:Core/Src/main.c ****                           |Lo_GPIO_1_Pin|Lo_GPIO_2_Pin|Lo_GPIO_3_Pin|Lo_RESET_GPIO_Pin;
 349:Core/Src/main.c ****   GPIO_InitStruct.Mode = GPIO_MODE_OUTPUT_PP;
 149              		.loc 1 349 3 is_stmt 1 view .LVU40
 150              		.loc 1 349 24 is_stmt 0 view .LVU41
 151 0094 0697     		str	r7, [sp, #24]
 350:Core/Src/main.c ****   GPIO_InitStruct.Pull = GPIO_NOPULL;
 152              		.loc 1 350 3 is_stmt 1 view .LVU42
 153              		.loc 1 350 24 is_stmt 0 view .LVU43
 154 0096 0794     		str	r4, [sp, #28]
 351:Core/Src/main.c ****   GPIO_InitStruct.Speed = GPIO_SPEED_FREQ_LOW;
 155              		.loc 1 351 3 is_stmt 1 view .LVU44
 156              		.loc 1 351 25 is_stmt 0 view .LVU45
 157 0098 0894     		str	r4, [sp, #32]
 352:Core/Src/main.c ****   HAL_GPIO_Init(GPIOB, &GPIO_InitStruct);
 158              		.loc 1 352 3 is_stmt 1 view .LVU46
 159 009a 2946     		mov	r1, r5
 160 009c 3046     		mov	r0, r6
 161 009e FFF7FEFF 		bl	HAL_GPIO_Init
 162              	.LVL3:
ARM GAS  /tmp/ccUpKqer.s 			page 10


 353:Core/Src/main.c **** 
 354:Core/Src/main.c ****   /*Configure GPIO pin : PA8 */
 355:Core/Src/main.c ****   GPIO_InitStruct.Pin = GPIO_PIN_8;
 163              		.loc 1 355 3 view .LVU47
 164              		.loc 1 355 23 is_stmt 0 view .LVU48
 165 00a2 4FF48073 		mov	r3, #256
 166 00a6 0593     		str	r3, [sp, #20]
 356:Core/Src/main.c ****   GPIO_InitStruct.Mode = GPIO_MODE_AF_PP;
 167              		.loc 1 356 3 is_stmt 1 view .LVU49
 168              		.loc 1 356 24 is_stmt 0 view .LVU50
 169 00a8 0223     		movs	r3, #2
 170 00aa 0693     		str	r3, [sp, #24]
 357:Core/Src/main.c ****   GPIO_InitStruct.Pull = GPIO_NOPULL;
 171              		.loc 1 357 3 is_stmt 1 view .LVU51
 172              		.loc 1 357 24 is_stmt 0 view .LVU52
 173 00ac 0794     		str	r4, [sp, #28]
 358:Core/Src/main.c ****   GPIO_InitStruct.Speed = GPIO_SPEED_FREQ_LOW;
 174              		.loc 1 358 3 is_stmt 1 view .LVU53
 175              		.loc 1 358 25 is_stmt 0 view .LVU54
 176 00ae 0894     		str	r4, [sp, #32]
 359:Core/Src/main.c ****   GPIO_InitStruct.Alternate = GPIO_AF0_MCO;
 177              		.loc 1 359 3 is_stmt 1 view .LVU55
 178              		.loc 1 359 29 is_stmt 0 view .LVU56
 179 00b0 0994     		str	r4, [sp, #36]
 360:Core/Src/main.c ****   HAL_GPIO_Init(GPIOA, &GPIO_InitStruct);
 180              		.loc 1 360 3 is_stmt 1 view .LVU57
 181 00b2 2946     		mov	r1, r5
 182 00b4 4FF09040 		mov	r0, #1207959552
 183 00b8 FFF7FEFF 		bl	HAL_GPIO_Init
 184              	.LVL4:
 361:Core/Src/main.c **** 
 362:Core/Src/main.c ****   /*Configure GPIO pin : D_wakeup_Pin */
 363:Core/Src/main.c ****   GPIO_InitStruct.Pin = D_wakeup_Pin;
 185              		.loc 1 363 3 view .LVU58
 186              		.loc 1 363 23 is_stmt 0 view .LVU59
 187 00bc 4FF40063 		mov	r3, #2048
 188 00c0 0593     		str	r3, [sp, #20]
 364:Core/Src/main.c ****   GPIO_InitStruct.Mode = GPIO_MODE_IT_RISING;
 189              		.loc 1 364 3 is_stmt 1 view .LVU60
 190              		.loc 1 364 24 is_stmt 0 view .LVU61
 191 00c2 4FF48813 		mov	r3, #1114112
 192 00c6 0693     		str	r3, [sp, #24]
 365:Core/Src/main.c ****   GPIO_InitStruct.Pull = GPIO_NOPULL;
 193              		.loc 1 365 3 is_stmt 1 view .LVU62
 194              		.loc 1 365 24 is_stmt 0 view .LVU63
 195 00c8 0794     		str	r4, [sp, #28]
 366:Core/Src/main.c ****   HAL_GPIO_Init(D_wakeup_GPIO_Port, &GPIO_InitStruct);
 196              		.loc 1 366 3 is_stmt 1 view .LVU64
 197 00ca 2946     		mov	r1, r5
 198 00cc 4FF09040 		mov	r0, #1207959552
 199 00d0 FFF7FEFF 		bl	HAL_GPIO_Init
 200              	.LVL5:
 367:Core/Src/main.c **** 
 368:Core/Src/main.c ****   /*Configure GPIO pin : D_GPIO0_Pin */
 369:Core/Src/main.c ****   GPIO_InitStruct.Pin = D_GPIO0_Pin;
 201              		.loc 1 369 3 view .LVU65
 202              		.loc 1 369 23 is_stmt 0 view .LVU66
ARM GAS  /tmp/ccUpKqer.s 			page 11


 203 00d4 4FF48053 		mov	r3, #4096
 204 00d8 0593     		str	r3, [sp, #20]
 370:Core/Src/main.c ****   GPIO_InitStruct.Mode = GPIO_MODE_INPUT;
 205              		.loc 1 370 3 is_stmt 1 view .LVU67
 206              		.loc 1 370 24 is_stmt 0 view .LVU68
 207 00da 0694     		str	r4, [sp, #24]
 371:Core/Src/main.c ****   GPIO_InitStruct.Pull = GPIO_NOPULL;
 208              		.loc 1 371 3 is_stmt 1 view .LVU69
 209              		.loc 1 371 24 is_stmt 0 view .LVU70
 210 00dc 0794     		str	r4, [sp, #28]
 372:Core/Src/main.c ****   HAL_GPIO_Init(D_GPIO0_GPIO_Port, &GPIO_InitStruct);
 211              		.loc 1 372 3 is_stmt 1 view .LVU71
 212 00de 2946     		mov	r1, r5
 213 00e0 4FF09040 		mov	r0, #1207959552
 214 00e4 FFF7FEFF 		bl	HAL_GPIO_Init
 215              	.LVL6:
 373:Core/Src/main.c **** 
 374:Core/Src/main.c ****   /* USER CODE BEGIN MX_GPIO_Init_2 */
 375:Core/Src/main.c **** 
 376:Core/Src/main.c ****   /* USER CODE END MX_GPIO_Init_2 */
 377:Core/Src/main.c **** }
 216              		.loc 1 377 1 is_stmt 0 view .LVU72
 217 00e8 0AB0     		add	sp, sp, #40
 218              		.cfi_def_cfa_offset 24
 219              		@ sp needed
 220 00ea BDE8F081 		pop	{r4, r5, r6, r7, r8, pc}
 221              	.L4:
 222 00ee 00BF     		.align	2
 223              	.L3:
 224 00f0 00100240 		.word	1073876992
 225 00f4 00040048 		.word	1207960576
 226 00f8 00080048 		.word	1207961600
 227              		.cfi_endproc
 228              	.LFE234:
 230              		.section	.text.Error_Handler,"ax",%progbits
 231              		.align	1
 232              		.global	Error_Handler
 233              		.syntax unified
 234              		.thumb
 235              		.thumb_func
 237              	Error_Handler:
 238              	.LFB235:
 378:Core/Src/main.c **** 
 379:Core/Src/main.c **** /* USER CODE BEGIN 4 */
 380:Core/Src/main.c **** 
 381:Core/Src/main.c **** /* USER CODE END 4 */
 382:Core/Src/main.c **** 
 383:Core/Src/main.c **** /**
 384:Core/Src/main.c ****   * @brief  This function is executed in case of error occurrence.
 385:Core/Src/main.c ****   * @retval None
 386:Core/Src/main.c ****   */
 387:Core/Src/main.c **** void Error_Handler(void)
 388:Core/Src/main.c **** {
 239              		.loc 1 388 1 is_stmt 1 view -0
 240              		.cfi_startproc
 241              		@ Volatile: function does not return.
 242              		@ args = 0, pretend = 0, frame = 0
ARM GAS  /tmp/ccUpKqer.s 			page 12


 243              		@ frame_needed = 0, uses_anonymous_args = 0
 244              		@ link register save eliminated.
 389:Core/Src/main.c ****   /* USER CODE BEGIN Error_Handler_Debug */
 390:Core/Src/main.c ****   /* User can add his own implementation to report the HAL error return state */
 391:Core/Src/main.c ****   __disable_irq();
 245              		.loc 1 391 3 view .LVU74
 246              	.LBB8:
 247              	.LBI8:
 248              		.file 2 "Drivers/CMSIS/Include/cmsis_gcc.h"
   1:Drivers/CMSIS/Include/cmsis_gcc.h **** /**************************************************************************//**
   2:Drivers/CMSIS/Include/cmsis_gcc.h ****  * @file     cmsis_gcc.h
   3:Drivers/CMSIS/Include/cmsis_gcc.h ****  * @brief    CMSIS compiler GCC header file
   4:Drivers/CMSIS/Include/cmsis_gcc.h ****  * @version  V5.2.0
   5:Drivers/CMSIS/Include/cmsis_gcc.h ****  * @date     08. May 2019
   6:Drivers/CMSIS/Include/cmsis_gcc.h ****  ******************************************************************************/
   7:Drivers/CMSIS/Include/cmsis_gcc.h **** /*
   8:Drivers/CMSIS/Include/cmsis_gcc.h ****  * Copyright (c) 2009-2019 Arm Limited. All rights reserved.
   9:Drivers/CMSIS/Include/cmsis_gcc.h ****  *
  10:Drivers/CMSIS/Include/cmsis_gcc.h ****  * SPDX-License-Identifier: Apache-2.0
  11:Drivers/CMSIS/Include/cmsis_gcc.h ****  *
  12:Drivers/CMSIS/Include/cmsis_gcc.h ****  * Licensed under the Apache License, Version 2.0 (the License); you may
  13:Drivers/CMSIS/Include/cmsis_gcc.h ****  * not use this file except in compliance with the License.
  14:Drivers/CMSIS/Include/cmsis_gcc.h ****  * You may obtain a copy of the License at
  15:Drivers/CMSIS/Include/cmsis_gcc.h ****  *
  16:Drivers/CMSIS/Include/cmsis_gcc.h ****  * www.apache.org/licenses/LICENSE-2.0
  17:Drivers/CMSIS/Include/cmsis_gcc.h ****  *
  18:Drivers/CMSIS/Include/cmsis_gcc.h ****  * Unless required by applicable law or agreed to in writing, software
  19:Drivers/CMSIS/Include/cmsis_gcc.h ****  * distributed under the License is distributed on an AS IS BASIS, WITHOUT
  20:Drivers/CMSIS/Include/cmsis_gcc.h ****  * WARRANTIES OR CONDITIONS OF ANY KIND, either express or implied.
  21:Drivers/CMSIS/Include/cmsis_gcc.h ****  * See the License for the specific language governing permissions and
  22:Drivers/CMSIS/Include/cmsis_gcc.h ****  * limitations under the License.
  23:Drivers/CMSIS/Include/cmsis_gcc.h ****  */
  24:Drivers/CMSIS/Include/cmsis_gcc.h **** 
  25:Drivers/CMSIS/Include/cmsis_gcc.h **** #ifndef __CMSIS_GCC_H
  26:Drivers/CMSIS/Include/cmsis_gcc.h **** #define __CMSIS_GCC_H
  27:Drivers/CMSIS/Include/cmsis_gcc.h **** 
  28:Drivers/CMSIS/Include/cmsis_gcc.h **** /* ignore some GCC warnings */
  29:Drivers/CMSIS/Include/cmsis_gcc.h **** #pragma GCC diagnostic push
  30:Drivers/CMSIS/Include/cmsis_gcc.h **** #pragma GCC diagnostic ignored "-Wsign-conversion"
  31:Drivers/CMSIS/Include/cmsis_gcc.h **** #pragma GCC diagnostic ignored "-Wconversion"
  32:Drivers/CMSIS/Include/cmsis_gcc.h **** #pragma GCC diagnostic ignored "-Wunused-parameter"
  33:Drivers/CMSIS/Include/cmsis_gcc.h **** 
  34:Drivers/CMSIS/Include/cmsis_gcc.h **** /* Fallback for __has_builtin */
  35:Drivers/CMSIS/Include/cmsis_gcc.h **** #ifndef __has_builtin
  36:Drivers/CMSIS/Include/cmsis_gcc.h ****   #define __has_builtin(x) (0)
  37:Drivers/CMSIS/Include/cmsis_gcc.h **** #endif
  38:Drivers/CMSIS/Include/cmsis_gcc.h **** 
  39:Drivers/CMSIS/Include/cmsis_gcc.h **** /* CMSIS compiler specific defines */
  40:Drivers/CMSIS/Include/cmsis_gcc.h **** #ifndef   __ASM
  41:Drivers/CMSIS/Include/cmsis_gcc.h ****   #define __ASM                                  __asm
  42:Drivers/CMSIS/Include/cmsis_gcc.h **** #endif
  43:Drivers/CMSIS/Include/cmsis_gcc.h **** #ifndef   __INLINE
  44:Drivers/CMSIS/Include/cmsis_gcc.h ****   #define __INLINE                               inline
  45:Drivers/CMSIS/Include/cmsis_gcc.h **** #endif
  46:Drivers/CMSIS/Include/cmsis_gcc.h **** #ifndef   __STATIC_INLINE
  47:Drivers/CMSIS/Include/cmsis_gcc.h ****   #define __STATIC_INLINE                        static inline
  48:Drivers/CMSIS/Include/cmsis_gcc.h **** #endif
ARM GAS  /tmp/ccUpKqer.s 			page 13


  49:Drivers/CMSIS/Include/cmsis_gcc.h **** #ifndef   __STATIC_FORCEINLINE                 
  50:Drivers/CMSIS/Include/cmsis_gcc.h ****   #define __STATIC_FORCEINLINE                   __attribute__((always_inline)) static inline
  51:Drivers/CMSIS/Include/cmsis_gcc.h **** #endif                                           
  52:Drivers/CMSIS/Include/cmsis_gcc.h **** #ifndef   __NO_RETURN
  53:Drivers/CMSIS/Include/cmsis_gcc.h ****   #define __NO_RETURN                            __attribute__((__noreturn__))
  54:Drivers/CMSIS/Include/cmsis_gcc.h **** #endif
  55:Drivers/CMSIS/Include/cmsis_gcc.h **** #ifndef   __USED
  56:Drivers/CMSIS/Include/cmsis_gcc.h ****   #define __USED                                 __attribute__((used))
  57:Drivers/CMSIS/Include/cmsis_gcc.h **** #endif
  58:Drivers/CMSIS/Include/cmsis_gcc.h **** #ifndef   __WEAK
  59:Drivers/CMSIS/Include/cmsis_gcc.h ****   #define __WEAK                                 __attribute__((weak))
  60:Drivers/CMSIS/Include/cmsis_gcc.h **** #endif
  61:Drivers/CMSIS/Include/cmsis_gcc.h **** #ifndef   __PACKED
  62:Drivers/CMSIS/Include/cmsis_gcc.h ****   #define __PACKED                               __attribute__((packed, aligned(1)))
  63:Drivers/CMSIS/Include/cmsis_gcc.h **** #endif
  64:Drivers/CMSIS/Include/cmsis_gcc.h **** #ifndef   __PACKED_STRUCT
  65:Drivers/CMSIS/Include/cmsis_gcc.h ****   #define __PACKED_STRUCT                        struct __attribute__((packed, aligned(1)))
  66:Drivers/CMSIS/Include/cmsis_gcc.h **** #endif
  67:Drivers/CMSIS/Include/cmsis_gcc.h **** #ifndef   __PACKED_UNION
  68:Drivers/CMSIS/Include/cmsis_gcc.h ****   #define __PACKED_UNION                         union __attribute__((packed, aligned(1)))
  69:Drivers/CMSIS/Include/cmsis_gcc.h **** #endif
  70:Drivers/CMSIS/Include/cmsis_gcc.h **** #ifndef   __UNALIGNED_UINT32        /* deprecated */
  71:Drivers/CMSIS/Include/cmsis_gcc.h ****   #pragma GCC diagnostic push
  72:Drivers/CMSIS/Include/cmsis_gcc.h ****   #pragma GCC diagnostic ignored "-Wpacked"
  73:Drivers/CMSIS/Include/cmsis_gcc.h ****   #pragma GCC diagnostic ignored "-Wattributes"
  74:Drivers/CMSIS/Include/cmsis_gcc.h ****   struct __attribute__((packed)) T_UINT32 { uint32_t v; };
  75:Drivers/CMSIS/Include/cmsis_gcc.h ****   #pragma GCC diagnostic pop
  76:Drivers/CMSIS/Include/cmsis_gcc.h ****   #define __UNALIGNED_UINT32(x)                  (((struct T_UINT32 *)(x))->v)
  77:Drivers/CMSIS/Include/cmsis_gcc.h **** #endif
  78:Drivers/CMSIS/Include/cmsis_gcc.h **** #ifndef   __UNALIGNED_UINT16_WRITE
  79:Drivers/CMSIS/Include/cmsis_gcc.h ****   #pragma GCC diagnostic push
  80:Drivers/CMSIS/Include/cmsis_gcc.h ****   #pragma GCC diagnostic ignored "-Wpacked"
  81:Drivers/CMSIS/Include/cmsis_gcc.h ****   #pragma GCC diagnostic ignored "-Wattributes"
  82:Drivers/CMSIS/Include/cmsis_gcc.h ****   __PACKED_STRUCT T_UINT16_WRITE { uint16_t v; };
  83:Drivers/CMSIS/Include/cmsis_gcc.h ****   #pragma GCC diagnostic pop
  84:Drivers/CMSIS/Include/cmsis_gcc.h ****   #define __UNALIGNED_UINT16_WRITE(addr, val)    (void)((((struct T_UINT16_WRITE *)(void *)(addr))-
  85:Drivers/CMSIS/Include/cmsis_gcc.h **** #endif
  86:Drivers/CMSIS/Include/cmsis_gcc.h **** #ifndef   __UNALIGNED_UINT16_READ
  87:Drivers/CMSIS/Include/cmsis_gcc.h ****   #pragma GCC diagnostic push
  88:Drivers/CMSIS/Include/cmsis_gcc.h ****   #pragma GCC diagnostic ignored "-Wpacked"
  89:Drivers/CMSIS/Include/cmsis_gcc.h ****   #pragma GCC diagnostic ignored "-Wattributes"
  90:Drivers/CMSIS/Include/cmsis_gcc.h ****   __PACKED_STRUCT T_UINT16_READ { uint16_t v; };
  91:Drivers/CMSIS/Include/cmsis_gcc.h ****   #pragma GCC diagnostic pop
  92:Drivers/CMSIS/Include/cmsis_gcc.h ****   #define __UNALIGNED_UINT16_READ(addr)          (((const struct T_UINT16_READ *)(const void *)(add
  93:Drivers/CMSIS/Include/cmsis_gcc.h **** #endif
  94:Drivers/CMSIS/Include/cmsis_gcc.h **** #ifndef   __UNALIGNED_UINT32_WRITE
  95:Drivers/CMSIS/Include/cmsis_gcc.h ****   #pragma GCC diagnostic push
  96:Drivers/CMSIS/Include/cmsis_gcc.h ****   #pragma GCC diagnostic ignored "-Wpacked"
  97:Drivers/CMSIS/Include/cmsis_gcc.h ****   #pragma GCC diagnostic ignored "-Wattributes"
  98:Drivers/CMSIS/Include/cmsis_gcc.h ****   __PACKED_STRUCT T_UINT32_WRITE { uint32_t v; };
  99:Drivers/CMSIS/Include/cmsis_gcc.h ****   #pragma GCC diagnostic pop
 100:Drivers/CMSIS/Include/cmsis_gcc.h ****   #define __UNALIGNED_UINT32_WRITE(addr, val)    (void)((((struct T_UINT32_WRITE *)(void *)(addr))-
 101:Drivers/CMSIS/Include/cmsis_gcc.h **** #endif
 102:Drivers/CMSIS/Include/cmsis_gcc.h **** #ifndef   __UNALIGNED_UINT32_READ
 103:Drivers/CMSIS/Include/cmsis_gcc.h ****   #pragma GCC diagnostic push
 104:Drivers/CMSIS/Include/cmsis_gcc.h ****   #pragma GCC diagnostic ignored "-Wpacked"
 105:Drivers/CMSIS/Include/cmsis_gcc.h ****   #pragma GCC diagnostic ignored "-Wattributes"
ARM GAS  /tmp/ccUpKqer.s 			page 14


 106:Drivers/CMSIS/Include/cmsis_gcc.h ****   __PACKED_STRUCT T_UINT32_READ { uint32_t v; };
 107:Drivers/CMSIS/Include/cmsis_gcc.h ****   #pragma GCC diagnostic pop
 108:Drivers/CMSIS/Include/cmsis_gcc.h ****   #define __UNALIGNED_UINT32_READ(addr)          (((const struct T_UINT32_READ *)(const void *)(add
 109:Drivers/CMSIS/Include/cmsis_gcc.h **** #endif
 110:Drivers/CMSIS/Include/cmsis_gcc.h **** #ifndef   __ALIGNED
 111:Drivers/CMSIS/Include/cmsis_gcc.h ****   #define __ALIGNED(x)                           __attribute__((aligned(x)))
 112:Drivers/CMSIS/Include/cmsis_gcc.h **** #endif
 113:Drivers/CMSIS/Include/cmsis_gcc.h **** #ifndef   __RESTRICT
 114:Drivers/CMSIS/Include/cmsis_gcc.h ****   #define __RESTRICT                             __restrict
 115:Drivers/CMSIS/Include/cmsis_gcc.h **** #endif
 116:Drivers/CMSIS/Include/cmsis_gcc.h **** #ifndef   __COMPILER_BARRIER
 117:Drivers/CMSIS/Include/cmsis_gcc.h ****   #define __COMPILER_BARRIER()                   __ASM volatile("":::"memory")
 118:Drivers/CMSIS/Include/cmsis_gcc.h **** #endif
 119:Drivers/CMSIS/Include/cmsis_gcc.h **** 
 120:Drivers/CMSIS/Include/cmsis_gcc.h **** /* #########################  Startup and Lowlevel Init  ######################## */
 121:Drivers/CMSIS/Include/cmsis_gcc.h **** 
 122:Drivers/CMSIS/Include/cmsis_gcc.h **** #ifndef __PROGRAM_START
 123:Drivers/CMSIS/Include/cmsis_gcc.h **** 
 124:Drivers/CMSIS/Include/cmsis_gcc.h **** /**
 125:Drivers/CMSIS/Include/cmsis_gcc.h ****   \brief   Initializes data and bss sections
 126:Drivers/CMSIS/Include/cmsis_gcc.h ****   \details This default implementations initialized all data and additional bss
 127:Drivers/CMSIS/Include/cmsis_gcc.h ****            sections relying on .copy.table and .zero.table specified properly
 128:Drivers/CMSIS/Include/cmsis_gcc.h ****            in the used linker script.
 129:Drivers/CMSIS/Include/cmsis_gcc.h ****   
 130:Drivers/CMSIS/Include/cmsis_gcc.h ****  */
 131:Drivers/CMSIS/Include/cmsis_gcc.h **** __STATIC_FORCEINLINE __NO_RETURN void __cmsis_start(void)
 132:Drivers/CMSIS/Include/cmsis_gcc.h **** {
 133:Drivers/CMSIS/Include/cmsis_gcc.h ****   extern void _start(void) __NO_RETURN;
 134:Drivers/CMSIS/Include/cmsis_gcc.h ****   
 135:Drivers/CMSIS/Include/cmsis_gcc.h ****   typedef struct {
 136:Drivers/CMSIS/Include/cmsis_gcc.h ****     uint32_t const* src;
 137:Drivers/CMSIS/Include/cmsis_gcc.h ****     uint32_t* dest;
 138:Drivers/CMSIS/Include/cmsis_gcc.h ****     uint32_t  wlen;
 139:Drivers/CMSIS/Include/cmsis_gcc.h ****   } __copy_table_t;
 140:Drivers/CMSIS/Include/cmsis_gcc.h ****   
 141:Drivers/CMSIS/Include/cmsis_gcc.h ****   typedef struct {
 142:Drivers/CMSIS/Include/cmsis_gcc.h ****     uint32_t* dest;
 143:Drivers/CMSIS/Include/cmsis_gcc.h ****     uint32_t  wlen;
 144:Drivers/CMSIS/Include/cmsis_gcc.h ****   } __zero_table_t;
 145:Drivers/CMSIS/Include/cmsis_gcc.h ****   
 146:Drivers/CMSIS/Include/cmsis_gcc.h ****   extern const __copy_table_t __copy_table_start__;
 147:Drivers/CMSIS/Include/cmsis_gcc.h ****   extern const __copy_table_t __copy_table_end__;
 148:Drivers/CMSIS/Include/cmsis_gcc.h ****   extern const __zero_table_t __zero_table_start__;
 149:Drivers/CMSIS/Include/cmsis_gcc.h ****   extern const __zero_table_t __zero_table_end__;
 150:Drivers/CMSIS/Include/cmsis_gcc.h **** 
 151:Drivers/CMSIS/Include/cmsis_gcc.h ****   for (__copy_table_t const* pTable = &__copy_table_start__; pTable < &__copy_table_end__; ++pTable
 152:Drivers/CMSIS/Include/cmsis_gcc.h ****     for(uint32_t i=0u; i<pTable->wlen; ++i) {
 153:Drivers/CMSIS/Include/cmsis_gcc.h ****       pTable->dest[i] = pTable->src[i];
 154:Drivers/CMSIS/Include/cmsis_gcc.h ****     }
 155:Drivers/CMSIS/Include/cmsis_gcc.h ****   }
 156:Drivers/CMSIS/Include/cmsis_gcc.h ****  
 157:Drivers/CMSIS/Include/cmsis_gcc.h ****   for (__zero_table_t const* pTable = &__zero_table_start__; pTable < &__zero_table_end__; ++pTable
 158:Drivers/CMSIS/Include/cmsis_gcc.h ****     for(uint32_t i=0u; i<pTable->wlen; ++i) {
 159:Drivers/CMSIS/Include/cmsis_gcc.h ****       pTable->dest[i] = 0u;
 160:Drivers/CMSIS/Include/cmsis_gcc.h ****     }
 161:Drivers/CMSIS/Include/cmsis_gcc.h ****   }
 162:Drivers/CMSIS/Include/cmsis_gcc.h ****  
ARM GAS  /tmp/ccUpKqer.s 			page 15


 163:Drivers/CMSIS/Include/cmsis_gcc.h ****   _start();
 164:Drivers/CMSIS/Include/cmsis_gcc.h **** }
 165:Drivers/CMSIS/Include/cmsis_gcc.h ****   
 166:Drivers/CMSIS/Include/cmsis_gcc.h **** #define __PROGRAM_START           __cmsis_start
 167:Drivers/CMSIS/Include/cmsis_gcc.h **** #endif
 168:Drivers/CMSIS/Include/cmsis_gcc.h **** 
 169:Drivers/CMSIS/Include/cmsis_gcc.h **** #ifndef __INITIAL_SP
 170:Drivers/CMSIS/Include/cmsis_gcc.h **** #define __INITIAL_SP              __StackTop
 171:Drivers/CMSIS/Include/cmsis_gcc.h **** #endif
 172:Drivers/CMSIS/Include/cmsis_gcc.h **** 
 173:Drivers/CMSIS/Include/cmsis_gcc.h **** #ifndef __STACK_LIMIT
 174:Drivers/CMSIS/Include/cmsis_gcc.h **** #define __STACK_LIMIT             __StackLimit
 175:Drivers/CMSIS/Include/cmsis_gcc.h **** #endif
 176:Drivers/CMSIS/Include/cmsis_gcc.h **** 
 177:Drivers/CMSIS/Include/cmsis_gcc.h **** #ifndef __VECTOR_TABLE
 178:Drivers/CMSIS/Include/cmsis_gcc.h **** #define __VECTOR_TABLE            __Vectors
 179:Drivers/CMSIS/Include/cmsis_gcc.h **** #endif
 180:Drivers/CMSIS/Include/cmsis_gcc.h **** 
 181:Drivers/CMSIS/Include/cmsis_gcc.h **** #ifndef __VECTOR_TABLE_ATTRIBUTE
 182:Drivers/CMSIS/Include/cmsis_gcc.h **** #define __VECTOR_TABLE_ATTRIBUTE  __attribute((used, section(".vectors")))
 183:Drivers/CMSIS/Include/cmsis_gcc.h **** #endif
 184:Drivers/CMSIS/Include/cmsis_gcc.h **** 
 185:Drivers/CMSIS/Include/cmsis_gcc.h **** /* ###########################  Core Function Access  ########################### */
 186:Drivers/CMSIS/Include/cmsis_gcc.h **** /** \ingroup  CMSIS_Core_FunctionInterface
 187:Drivers/CMSIS/Include/cmsis_gcc.h ****     \defgroup CMSIS_Core_RegAccFunctions CMSIS Core Register Access Functions
 188:Drivers/CMSIS/Include/cmsis_gcc.h ****   @{
 189:Drivers/CMSIS/Include/cmsis_gcc.h ****  */
 190:Drivers/CMSIS/Include/cmsis_gcc.h **** 
 191:Drivers/CMSIS/Include/cmsis_gcc.h **** /**
 192:Drivers/CMSIS/Include/cmsis_gcc.h ****   \brief   Enable IRQ Interrupts
 193:Drivers/CMSIS/Include/cmsis_gcc.h ****   \details Enables IRQ interrupts by clearing the I-bit in the CPSR.
 194:Drivers/CMSIS/Include/cmsis_gcc.h ****            Can only be executed in Privileged modes.
 195:Drivers/CMSIS/Include/cmsis_gcc.h ****  */
 196:Drivers/CMSIS/Include/cmsis_gcc.h **** __STATIC_FORCEINLINE void __enable_irq(void)
 197:Drivers/CMSIS/Include/cmsis_gcc.h **** {
 198:Drivers/CMSIS/Include/cmsis_gcc.h ****   __ASM volatile ("cpsie i" : : : "memory");
 199:Drivers/CMSIS/Include/cmsis_gcc.h **** }
 200:Drivers/CMSIS/Include/cmsis_gcc.h **** 
 201:Drivers/CMSIS/Include/cmsis_gcc.h **** 
 202:Drivers/CMSIS/Include/cmsis_gcc.h **** /**
 203:Drivers/CMSIS/Include/cmsis_gcc.h ****   \brief   Disable IRQ Interrupts
 204:Drivers/CMSIS/Include/cmsis_gcc.h ****   \details Disables IRQ interrupts by setting the I-bit in the CPSR.
 205:Drivers/CMSIS/Include/cmsis_gcc.h ****            Can only be executed in Privileged modes.
 206:Drivers/CMSIS/Include/cmsis_gcc.h ****  */
 207:Drivers/CMSIS/Include/cmsis_gcc.h **** __STATIC_FORCEINLINE void __disable_irq(void)
 249              		.loc 2 207 27 view .LVU75
 250              	.LBB9:
 208:Drivers/CMSIS/Include/cmsis_gcc.h **** {
 209:Drivers/CMSIS/Include/cmsis_gcc.h ****   __ASM volatile ("cpsid i" : : : "memory");
 251              		.loc 2 209 3 view .LVU76
 252              		.syntax unified
 253              	@ 209 "Drivers/CMSIS/Include/cmsis_gcc.h" 1
 254 0000 72B6     		cpsid i
 255              	@ 0 "" 2
 256              		.thumb
 257              		.syntax unified
 258              	.L6:
ARM GAS  /tmp/ccUpKqer.s 			page 16


 259              	.LBE9:
 260              	.LBE8:
 392:Core/Src/main.c ****   while (1)
 261              		.loc 1 392 3 view .LVU77
 393:Core/Src/main.c ****   {
 394:Core/Src/main.c ****   }
 262              		.loc 1 394 3 view .LVU78
 392:Core/Src/main.c ****   while (1)
 263              		.loc 1 392 9 view .LVU79
 264 0002 FEE7     		b	.L6
 265              		.cfi_endproc
 266              	.LFE235:
 268              		.section	.text.MX_LPUART1_UART_Init,"ax",%progbits
 269              		.align	1
 270              		.syntax unified
 271              		.thumb
 272              		.thumb_func
 274              	MX_LPUART1_UART_Init:
 275              	.LFB230:
 175:Core/Src/main.c **** 
 276              		.loc 1 175 1 view -0
 277              		.cfi_startproc
 278              		@ args = 0, pretend = 0, frame = 0
 279              		@ frame_needed = 0, uses_anonymous_args = 0
 280 0000 08B5     		push	{r3, lr}
 281              		.cfi_def_cfa_offset 8
 282              		.cfi_offset 3, -8
 283              		.cfi_offset 14, -4
 184:Core/Src/main.c ****   hlpuart1.Init.BaudRate = 209700;
 284              		.loc 1 184 3 view .LVU81
 184:Core/Src/main.c ****   hlpuart1.Init.BaudRate = 209700;
 285              		.loc 1 184 21 is_stmt 0 view .LVU82
 286 0002 0B48     		ldr	r0, .L11
 287 0004 0B4B     		ldr	r3, .L11+4
 288 0006 0360     		str	r3, [r0]
 185:Core/Src/main.c ****   hlpuart1.Init.WordLength = UART_WORDLENGTH_7B;
 289              		.loc 1 185 3 is_stmt 1 view .LVU83
 185:Core/Src/main.c ****   hlpuart1.Init.WordLength = UART_WORDLENGTH_7B;
 290              		.loc 1 185 26 is_stmt 0 view .LVU84
 291 0008 0B4B     		ldr	r3, .L11+8
 292 000a 4360     		str	r3, [r0, #4]
 186:Core/Src/main.c ****   hlpuart1.Init.StopBits = UART_STOPBITS_1;
 293              		.loc 1 186 3 is_stmt 1 view .LVU85
 186:Core/Src/main.c ****   hlpuart1.Init.StopBits = UART_STOPBITS_1;
 294              		.loc 1 186 28 is_stmt 0 view .LVU86
 295 000c 4FF08053 		mov	r3, #268435456
 296 0010 8360     		str	r3, [r0, #8]
 187:Core/Src/main.c ****   hlpuart1.Init.Parity = UART_PARITY_NONE;
 297              		.loc 1 187 3 is_stmt 1 view .LVU87
 187:Core/Src/main.c ****   hlpuart1.Init.Parity = UART_PARITY_NONE;
 298              		.loc 1 187 26 is_stmt 0 view .LVU88
 299 0012 0023     		movs	r3, #0
 300 0014 C360     		str	r3, [r0, #12]
 188:Core/Src/main.c ****   hlpuart1.Init.Mode = UART_MODE_TX_RX;
 301              		.loc 1 188 3 is_stmt 1 view .LVU89
 188:Core/Src/main.c ****   hlpuart1.Init.Mode = UART_MODE_TX_RX;
 302              		.loc 1 188 24 is_stmt 0 view .LVU90
ARM GAS  /tmp/ccUpKqer.s 			page 17


 303 0016 0361     		str	r3, [r0, #16]
 189:Core/Src/main.c ****   hlpuart1.Init.HwFlowCtl = UART_HWCONTROL_NONE;
 304              		.loc 1 189 3 is_stmt 1 view .LVU91
 189:Core/Src/main.c ****   hlpuart1.Init.HwFlowCtl = UART_HWCONTROL_NONE;
 305              		.loc 1 189 22 is_stmt 0 view .LVU92
 306 0018 0C22     		movs	r2, #12
 307 001a 4261     		str	r2, [r0, #20]
 190:Core/Src/main.c ****   hlpuart1.Init.OneBitSampling = UART_ONE_BIT_SAMPLE_DISABLE;
 308              		.loc 1 190 3 is_stmt 1 view .LVU93
 190:Core/Src/main.c ****   hlpuart1.Init.OneBitSampling = UART_ONE_BIT_SAMPLE_DISABLE;
 309              		.loc 1 190 27 is_stmt 0 view .LVU94
 310 001c 8361     		str	r3, [r0, #24]
 191:Core/Src/main.c ****   hlpuart1.AdvancedInit.AdvFeatureInit = UART_ADVFEATURE_NO_INIT;
 311              		.loc 1 191 3 is_stmt 1 view .LVU95
 191:Core/Src/main.c ****   hlpuart1.AdvancedInit.AdvFeatureInit = UART_ADVFEATURE_NO_INIT;
 312              		.loc 1 191 32 is_stmt 0 view .LVU96
 313 001e 0362     		str	r3, [r0, #32]
 192:Core/Src/main.c ****   if (HAL_UART_Init(&hlpuart1) != HAL_OK)
 314              		.loc 1 192 3 is_stmt 1 view .LVU97
 192:Core/Src/main.c ****   if (HAL_UART_Init(&hlpuart1) != HAL_OK)
 315              		.loc 1 192 40 is_stmt 0 view .LVU98
 316 0020 4362     		str	r3, [r0, #36]
 193:Core/Src/main.c ****   {
 317              		.loc 1 193 3 is_stmt 1 view .LVU99
 193:Core/Src/main.c ****   {
 318              		.loc 1 193 7 is_stmt 0 view .LVU100
 319 0022 FFF7FEFF 		bl	HAL_UART_Init
 320              	.LVL7:
 193:Core/Src/main.c ****   {
 321              		.loc 1 193 6 discriminator 1 view .LVU101
 322 0026 00B9     		cbnz	r0, .L10
 201:Core/Src/main.c **** 
 323              		.loc 1 201 1 view .LVU102
 324 0028 08BD     		pop	{r3, pc}
 325              	.L10:
 195:Core/Src/main.c ****   }
 326              		.loc 1 195 5 is_stmt 1 view .LVU103
 327 002a FFF7FEFF 		bl	Error_Handler
 328              	.LVL8:
 329              	.L12:
 330 002e 00BF     		.align	2
 331              	.L11:
 332 0030 00000000 		.word	hlpuart1
 333 0034 00800040 		.word	1073774592
 334 0038 24330300 		.word	209700
 335              		.cfi_endproc
 336              	.LFE230:
 338              		.section	.text.MX_USART2_UART_Init,"ax",%progbits
 339              		.align	1
 340              		.syntax unified
 341              		.thumb
 342              		.thumb_func
 344              	MX_USART2_UART_Init:
 345              	.LFB231:
 209:Core/Src/main.c **** 
 346              		.loc 1 209 1 view -0
 347              		.cfi_startproc
ARM GAS  /tmp/ccUpKqer.s 			page 18


 348              		@ args = 0, pretend = 0, frame = 0
 349              		@ frame_needed = 0, uses_anonymous_args = 0
 350 0000 08B5     		push	{r3, lr}
 351              		.cfi_def_cfa_offset 8
 352              		.cfi_offset 3, -8
 353              		.cfi_offset 14, -4
 218:Core/Src/main.c ****   huart2.Init.BaudRate = 115200;
 354              		.loc 1 218 3 view .LVU105
 218:Core/Src/main.c ****   huart2.Init.BaudRate = 115200;
 355              		.loc 1 218 19 is_stmt 0 view .LVU106
 356 0002 0C48     		ldr	r0, .L17
 357 0004 0C4B     		ldr	r3, .L17+4
 358 0006 0360     		str	r3, [r0]
 219:Core/Src/main.c ****   huart2.Init.WordLength = UART_WORDLENGTH_8B;
 359              		.loc 1 219 3 is_stmt 1 view .LVU107
 219:Core/Src/main.c ****   huart2.Init.WordLength = UART_WORDLENGTH_8B;
 360              		.loc 1 219 24 is_stmt 0 view .LVU108
 361 0008 4FF4E133 		mov	r3, #115200
 362 000c 4360     		str	r3, [r0, #4]
 220:Core/Src/main.c ****   huart2.Init.StopBits = UART_STOPBITS_1;
 363              		.loc 1 220 3 is_stmt 1 view .LVU109
 220:Core/Src/main.c ****   huart2.Init.StopBits = UART_STOPBITS_1;
 364              		.loc 1 220 26 is_stmt 0 view .LVU110
 365 000e 0023     		movs	r3, #0
 366 0010 8360     		str	r3, [r0, #8]
 221:Core/Src/main.c ****   huart2.Init.Parity = UART_PARITY_NONE;
 367              		.loc 1 221 3 is_stmt 1 view .LVU111
 221:Core/Src/main.c ****   huart2.Init.Parity = UART_PARITY_NONE;
 368              		.loc 1 221 24 is_stmt 0 view .LVU112
 369 0012 C360     		str	r3, [r0, #12]
 222:Core/Src/main.c ****   huart2.Init.Mode = UART_MODE_TX_RX;
 370              		.loc 1 222 3 is_stmt 1 view .LVU113
 222:Core/Src/main.c ****   huart2.Init.Mode = UART_MODE_TX_RX;
 371              		.loc 1 222 22 is_stmt 0 view .LVU114
 372 0014 0361     		str	r3, [r0, #16]
 223:Core/Src/main.c ****   huart2.Init.HwFlowCtl = UART_HWCONTROL_RTS_CTS;
 373              		.loc 1 223 3 is_stmt 1 view .LVU115
 223:Core/Src/main.c ****   huart2.Init.HwFlowCtl = UART_HWCONTROL_RTS_CTS;
 374              		.loc 1 223 20 is_stmt 0 view .LVU116
 375 0016 0C22     		movs	r2, #12
 376 0018 4261     		str	r2, [r0, #20]
 224:Core/Src/main.c ****   huart2.Init.OverSampling = UART_OVERSAMPLING_16;
 377              		.loc 1 224 3 is_stmt 1 view .LVU117
 224:Core/Src/main.c ****   huart2.Init.OverSampling = UART_OVERSAMPLING_16;
 378              		.loc 1 224 25 is_stmt 0 view .LVU118
 379 001a 4FF44072 		mov	r2, #768
 380 001e 8261     		str	r2, [r0, #24]
 225:Core/Src/main.c ****   huart2.Init.OneBitSampling = UART_ONE_BIT_SAMPLE_DISABLE;
 381              		.loc 1 225 3 is_stmt 1 view .LVU119
 225:Core/Src/main.c ****   huart2.Init.OneBitSampling = UART_ONE_BIT_SAMPLE_DISABLE;
 382              		.loc 1 225 28 is_stmt 0 view .LVU120
 383 0020 C361     		str	r3, [r0, #28]
 226:Core/Src/main.c ****   huart2.AdvancedInit.AdvFeatureInit = UART_ADVFEATURE_NO_INIT;
 384              		.loc 1 226 3 is_stmt 1 view .LVU121
 226:Core/Src/main.c ****   huart2.AdvancedInit.AdvFeatureInit = UART_ADVFEATURE_NO_INIT;
 385              		.loc 1 226 30 is_stmt 0 view .LVU122
 386 0022 0362     		str	r3, [r0, #32]
ARM GAS  /tmp/ccUpKqer.s 			page 19


 227:Core/Src/main.c ****   if (HAL_UART_Init(&huart2) != HAL_OK)
 387              		.loc 1 227 3 is_stmt 1 view .LVU123
 227:Core/Src/main.c ****   if (HAL_UART_Init(&huart2) != HAL_OK)
 388              		.loc 1 227 38 is_stmt 0 view .LVU124
 389 0024 4362     		str	r3, [r0, #36]
 228:Core/Src/main.c ****   {
 390              		.loc 1 228 3 is_stmt 1 view .LVU125
 228:Core/Src/main.c ****   {
 391              		.loc 1 228 7 is_stmt 0 view .LVU126
 392 0026 FFF7FEFF 		bl	HAL_UART_Init
 393              	.LVL9:
 228:Core/Src/main.c ****   {
 394              		.loc 1 228 6 discriminator 1 view .LVU127
 395 002a 00B9     		cbnz	r0, .L16
 236:Core/Src/main.c **** 
 396              		.loc 1 236 1 view .LVU128
 397 002c 08BD     		pop	{r3, pc}
 398              	.L16:
 230:Core/Src/main.c ****   }
 399              		.loc 1 230 5 is_stmt 1 view .LVU129
 400 002e FFF7FEFF 		bl	Error_Handler
 401              	.LVL10:
 402              	.L18:
 403 0032 00BF     		.align	2
 404              	.L17:
 405 0034 00000000 		.word	huart2
 406 0038 00440040 		.word	1073759232
 407              		.cfi_endproc
 408              	.LFE231:
 410              		.section	.text.MX_USART3_UART_Init,"ax",%progbits
 411              		.align	1
 412              		.syntax unified
 413              		.thumb
 414              		.thumb_func
 416              	MX_USART3_UART_Init:
 417              	.LFB232:
 244:Core/Src/main.c **** 
 418              		.loc 1 244 1 view -0
 419              		.cfi_startproc
 420              		@ args = 0, pretend = 0, frame = 0
 421              		@ frame_needed = 0, uses_anonymous_args = 0
 422 0000 08B5     		push	{r3, lr}
 423              		.cfi_def_cfa_offset 8
 424              		.cfi_offset 3, -8
 425              		.cfi_offset 14, -4
 253:Core/Src/main.c ****   huart3.Init.BaudRate = 115200;
 426              		.loc 1 253 3 view .LVU131
 253:Core/Src/main.c ****   huart3.Init.BaudRate = 115200;
 427              		.loc 1 253 19 is_stmt 0 view .LVU132
 428 0002 0B48     		ldr	r0, .L23
 429 0004 0B4B     		ldr	r3, .L23+4
 430 0006 0360     		str	r3, [r0]
 254:Core/Src/main.c ****   huart3.Init.WordLength = UART_WORDLENGTH_8B;
 431              		.loc 1 254 3 is_stmt 1 view .LVU133
 254:Core/Src/main.c ****   huart3.Init.WordLength = UART_WORDLENGTH_8B;
 432              		.loc 1 254 24 is_stmt 0 view .LVU134
 433 0008 4FF4E133 		mov	r3, #115200
ARM GAS  /tmp/ccUpKqer.s 			page 20


 434 000c 4360     		str	r3, [r0, #4]
 255:Core/Src/main.c ****   huart3.Init.StopBits = UART_STOPBITS_1;
 435              		.loc 1 255 3 is_stmt 1 view .LVU135
 255:Core/Src/main.c ****   huart3.Init.StopBits = UART_STOPBITS_1;
 436              		.loc 1 255 26 is_stmt 0 view .LVU136
 437 000e 0023     		movs	r3, #0
 438 0010 8360     		str	r3, [r0, #8]
 256:Core/Src/main.c ****   huart3.Init.Parity = UART_PARITY_NONE;
 439              		.loc 1 256 3 is_stmt 1 view .LVU137
 256:Core/Src/main.c ****   huart3.Init.Parity = UART_PARITY_NONE;
 440              		.loc 1 256 24 is_stmt 0 view .LVU138
 441 0012 C360     		str	r3, [r0, #12]
 257:Core/Src/main.c ****   huart3.Init.Mode = UART_MODE_TX_RX;
 442              		.loc 1 257 3 is_stmt 1 view .LVU139
 257:Core/Src/main.c ****   huart3.Init.Mode = UART_MODE_TX_RX;
 443              		.loc 1 257 22 is_stmt 0 view .LVU140
 444 0014 0361     		str	r3, [r0, #16]
 258:Core/Src/main.c ****   huart3.Init.HwFlowCtl = UART_HWCONTROL_NONE;
 445              		.loc 1 258 3 is_stmt 1 view .LVU141
 258:Core/Src/main.c ****   huart3.Init.HwFlowCtl = UART_HWCONTROL_NONE;
 446              		.loc 1 258 20 is_stmt 0 view .LVU142
 447 0016 0C22     		movs	r2, #12
 448 0018 4261     		str	r2, [r0, #20]
 259:Core/Src/main.c ****   huart3.Init.OverSampling = UART_OVERSAMPLING_16;
 449              		.loc 1 259 3 is_stmt 1 view .LVU143
 259:Core/Src/main.c ****   huart3.Init.OverSampling = UART_OVERSAMPLING_16;
 450              		.loc 1 259 25 is_stmt 0 view .LVU144
 451 001a 8361     		str	r3, [r0, #24]
 260:Core/Src/main.c ****   huart3.Init.OneBitSampling = UART_ONE_BIT_SAMPLE_DISABLE;
 452              		.loc 1 260 3 is_stmt 1 view .LVU145
 260:Core/Src/main.c ****   huart3.Init.OneBitSampling = UART_ONE_BIT_SAMPLE_DISABLE;
 453              		.loc 1 260 28 is_stmt 0 view .LVU146
 454 001c C361     		str	r3, [r0, #28]
 261:Core/Src/main.c ****   huart3.AdvancedInit.AdvFeatureInit = UART_ADVFEATURE_NO_INIT;
 455              		.loc 1 261 3 is_stmt 1 view .LVU147
 261:Core/Src/main.c ****   huart3.AdvancedInit.AdvFeatureInit = UART_ADVFEATURE_NO_INIT;
 456              		.loc 1 261 30 is_stmt 0 view .LVU148
 457 001e 0362     		str	r3, [r0, #32]
 262:Core/Src/main.c ****   if (HAL_UART_Init(&huart3) != HAL_OK)
 458              		.loc 1 262 3 is_stmt 1 view .LVU149
 262:Core/Src/main.c ****   if (HAL_UART_Init(&huart3) != HAL_OK)
 459              		.loc 1 262 38 is_stmt 0 view .LVU150
 460 0020 4362     		str	r3, [r0, #36]
 263:Core/Src/main.c ****   {
 461              		.loc 1 263 3 is_stmt 1 view .LVU151
 263:Core/Src/main.c ****   {
 462              		.loc 1 263 7 is_stmt 0 view .LVU152
 463 0022 FFF7FEFF 		bl	HAL_UART_Init
 464              	.LVL11:
 263:Core/Src/main.c ****   {
 465              		.loc 1 263 6 discriminator 1 view .LVU153
 466 0026 00B9     		cbnz	r0, .L22
 271:Core/Src/main.c **** 
 467              		.loc 1 271 1 view .LVU154
 468 0028 08BD     		pop	{r3, pc}
 469              	.L22:
 265:Core/Src/main.c ****   }
ARM GAS  /tmp/ccUpKqer.s 			page 21


 470              		.loc 1 265 5 is_stmt 1 view .LVU155
 471 002a FFF7FEFF 		bl	Error_Handler
 472              	.LVL12:
 473              	.L24:
 474 002e 00BF     		.align	2
 475              	.L23:
 476 0030 00000000 		.word	huart3
 477 0034 00480040 		.word	1073760256
 478              		.cfi_endproc
 479              	.LFE232:
 481              		.section	.text.MX_SPI1_Init,"ax",%progbits
 482              		.align	1
 483              		.syntax unified
 484              		.thumb
 485              		.thumb_func
 487              	MX_SPI1_Init:
 488              	.LFB233:
 279:Core/Src/main.c **** 
 489              		.loc 1 279 1 view -0
 490              		.cfi_startproc
 491              		@ args = 0, pretend = 0, frame = 0
 492              		@ frame_needed = 0, uses_anonymous_args = 0
 493 0000 08B5     		push	{r3, lr}
 494              		.cfi_def_cfa_offset 8
 495              		.cfi_offset 3, -8
 496              		.cfi_offset 14, -4
 289:Core/Src/main.c ****   hspi1.Init.Mode = SPI_MODE_MASTER;
 497              		.loc 1 289 3 view .LVU157
 289:Core/Src/main.c ****   hspi1.Init.Mode = SPI_MODE_MASTER;
 498              		.loc 1 289 18 is_stmt 0 view .LVU158
 499 0002 0F48     		ldr	r0, .L29
 500 0004 0F4B     		ldr	r3, .L29+4
 501 0006 0360     		str	r3, [r0]
 290:Core/Src/main.c ****   hspi1.Init.Direction = SPI_DIRECTION_2LINES;
 502              		.loc 1 290 3 is_stmt 1 view .LVU159
 290:Core/Src/main.c ****   hspi1.Init.Direction = SPI_DIRECTION_2LINES;
 503              		.loc 1 290 19 is_stmt 0 view .LVU160
 504 0008 4FF48273 		mov	r3, #260
 505 000c 4360     		str	r3, [r0, #4]
 291:Core/Src/main.c ****   hspi1.Init.DataSize = SPI_DATASIZE_4BIT;
 506              		.loc 1 291 3 is_stmt 1 view .LVU161
 291:Core/Src/main.c ****   hspi1.Init.DataSize = SPI_DATASIZE_4BIT;
 507              		.loc 1 291 24 is_stmt 0 view .LVU162
 508 000e 0023     		movs	r3, #0
 509 0010 8360     		str	r3, [r0, #8]
 292:Core/Src/main.c ****   hspi1.Init.CLKPolarity = SPI_POLARITY_LOW;
 510              		.loc 1 292 3 is_stmt 1 view .LVU163
 292:Core/Src/main.c ****   hspi1.Init.CLKPolarity = SPI_POLARITY_LOW;
 511              		.loc 1 292 23 is_stmt 0 view .LVU164
 512 0012 4FF44072 		mov	r2, #768
 513 0016 C260     		str	r2, [r0, #12]
 293:Core/Src/main.c ****   hspi1.Init.CLKPhase = SPI_PHASE_1EDGE;
 514              		.loc 1 293 3 is_stmt 1 view .LVU165
 293:Core/Src/main.c ****   hspi1.Init.CLKPhase = SPI_PHASE_1EDGE;
 515              		.loc 1 293 26 is_stmt 0 view .LVU166
 516 0018 0361     		str	r3, [r0, #16]
 294:Core/Src/main.c ****   hspi1.Init.NSS = SPI_NSS_HARD_OUTPUT;
ARM GAS  /tmp/ccUpKqer.s 			page 22


 517              		.loc 1 294 3 is_stmt 1 view .LVU167
 294:Core/Src/main.c ****   hspi1.Init.NSS = SPI_NSS_HARD_OUTPUT;
 518              		.loc 1 294 23 is_stmt 0 view .LVU168
 519 001a 4361     		str	r3, [r0, #20]
 295:Core/Src/main.c ****   hspi1.Init.BaudRatePrescaler = SPI_BAUDRATEPRESCALER_2;
 520              		.loc 1 295 3 is_stmt 1 view .LVU169
 295:Core/Src/main.c ****   hspi1.Init.BaudRatePrescaler = SPI_BAUDRATEPRESCALER_2;
 521              		.loc 1 295 18 is_stmt 0 view .LVU170
 522 001c 4FF48022 		mov	r2, #262144
 523 0020 8261     		str	r2, [r0, #24]
 296:Core/Src/main.c ****   hspi1.Init.FirstBit = SPI_FIRSTBIT_MSB;
 524              		.loc 1 296 3 is_stmt 1 view .LVU171
 296:Core/Src/main.c ****   hspi1.Init.FirstBit = SPI_FIRSTBIT_MSB;
 525              		.loc 1 296 32 is_stmt 0 view .LVU172
 526 0022 C361     		str	r3, [r0, #28]
 297:Core/Src/main.c ****   hspi1.Init.TIMode = SPI_TIMODE_DISABLE;
 527              		.loc 1 297 3 is_stmt 1 view .LVU173
 297:Core/Src/main.c ****   hspi1.Init.TIMode = SPI_TIMODE_DISABLE;
 528              		.loc 1 297 23 is_stmt 0 view .LVU174
 529 0024 0362     		str	r3, [r0, #32]
 298:Core/Src/main.c ****   hspi1.Init.CRCCalculation = SPI_CRCCALCULATION_DISABLE;
 530              		.loc 1 298 3 is_stmt 1 view .LVU175
 298:Core/Src/main.c ****   hspi1.Init.CRCCalculation = SPI_CRCCALCULATION_DISABLE;
 531              		.loc 1 298 21 is_stmt 0 view .LVU176
 532 0026 4362     		str	r3, [r0, #36]
 299:Core/Src/main.c ****   hspi1.Init.CRCPolynomial = 7;
 533              		.loc 1 299 3 is_stmt 1 view .LVU177
 299:Core/Src/main.c ****   hspi1.Init.CRCPolynomial = 7;
 534              		.loc 1 299 29 is_stmt 0 view .LVU178
 535 0028 8362     		str	r3, [r0, #40]
 300:Core/Src/main.c ****   hspi1.Init.CRCLength = SPI_CRC_LENGTH_DATASIZE;
 536              		.loc 1 300 3 is_stmt 1 view .LVU179
 300:Core/Src/main.c ****   hspi1.Init.CRCLength = SPI_CRC_LENGTH_DATASIZE;
 537              		.loc 1 300 28 is_stmt 0 view .LVU180
 538 002a 0722     		movs	r2, #7
 539 002c C262     		str	r2, [r0, #44]
 301:Core/Src/main.c ****   hspi1.Init.NSSPMode = SPI_NSS_PULSE_ENABLE;
 540              		.loc 1 301 3 is_stmt 1 view .LVU181
 301:Core/Src/main.c ****   hspi1.Init.NSSPMode = SPI_NSS_PULSE_ENABLE;
 541              		.loc 1 301 24 is_stmt 0 view .LVU182
 542 002e 0363     		str	r3, [r0, #48]
 302:Core/Src/main.c ****   if (HAL_SPI_Init(&hspi1) != HAL_OK)
 543              		.loc 1 302 3 is_stmt 1 view .LVU183
 302:Core/Src/main.c ****   if (HAL_SPI_Init(&hspi1) != HAL_OK)
 544              		.loc 1 302 23 is_stmt 0 view .LVU184
 545 0030 0823     		movs	r3, #8
 546 0032 4363     		str	r3, [r0, #52]
 303:Core/Src/main.c ****   {
 547              		.loc 1 303 3 is_stmt 1 view .LVU185
 303:Core/Src/main.c ****   {
 548              		.loc 1 303 7 is_stmt 0 view .LVU186
 549 0034 FFF7FEFF 		bl	HAL_SPI_Init
 550              	.LVL13:
 303:Core/Src/main.c ****   {
 551              		.loc 1 303 6 discriminator 1 view .LVU187
 552 0038 00B9     		cbnz	r0, .L28
 311:Core/Src/main.c **** 
ARM GAS  /tmp/ccUpKqer.s 			page 23


 553              		.loc 1 311 1 view .LVU188
 554 003a 08BD     		pop	{r3, pc}
 555              	.L28:
 305:Core/Src/main.c ****   }
 556              		.loc 1 305 5 is_stmt 1 view .LVU189
 557 003c FFF7FEFF 		bl	Error_Handler
 558              	.LVL14:
 559              	.L30:
 560              		.align	2
 561              	.L29:
 562 0040 00000000 		.word	hspi1
 563 0044 00300140 		.word	1073819648
 564              		.cfi_endproc
 565              	.LFE233:
 567              		.section	.text.SystemClock_Config,"ax",%progbits
 568              		.align	1
 569              		.global	SystemClock_Config
 570              		.syntax unified
 571              		.thumb
 572              		.thumb_func
 574              	SystemClock_Config:
 575              	.LFB229:
 129:Core/Src/main.c ****   RCC_OscInitTypeDef RCC_OscInitStruct = {0};
 576              		.loc 1 129 1 view -0
 577              		.cfi_startproc
 578              		@ args = 0, pretend = 0, frame = 88
 579              		@ frame_needed = 0, uses_anonymous_args = 0
 580 0000 00B5     		push	{lr}
 581              		.cfi_def_cfa_offset 4
 582              		.cfi_offset 14, -4
 583 0002 97B0     		sub	sp, sp, #92
 584              		.cfi_def_cfa_offset 96
 130:Core/Src/main.c ****   RCC_ClkInitTypeDef RCC_ClkInitStruct = {0};
 585              		.loc 1 130 3 view .LVU191
 130:Core/Src/main.c ****   RCC_ClkInitTypeDef RCC_ClkInitStruct = {0};
 586              		.loc 1 130 22 is_stmt 0 view .LVU192
 587 0004 4422     		movs	r2, #68
 588 0006 0021     		movs	r1, #0
 589 0008 05A8     		add	r0, sp, #20
 590 000a FFF7FEFF 		bl	memset
 591              	.LVL15:
 131:Core/Src/main.c **** 
 592              		.loc 1 131 3 is_stmt 1 view .LVU193
 131:Core/Src/main.c **** 
 593              		.loc 1 131 22 is_stmt 0 view .LVU194
 594 000e 0023     		movs	r3, #0
 595 0010 0093     		str	r3, [sp]
 596 0012 0193     		str	r3, [sp, #4]
 597 0014 0293     		str	r3, [sp, #8]
 598 0016 0393     		str	r3, [sp, #12]
 599 0018 0493     		str	r3, [sp, #16]
 135:Core/Src/main.c ****   {
 600              		.loc 1 135 3 is_stmt 1 view .LVU195
 135:Core/Src/main.c ****   {
 601              		.loc 1 135 7 is_stmt 0 view .LVU196
 602 001a 4FF40070 		mov	r0, #512
 603 001e FFF7FEFF 		bl	HAL_PWREx_ControlVoltageScaling
ARM GAS  /tmp/ccUpKqer.s 			page 24


 604              	.LVL16:
 135:Core/Src/main.c ****   {
 605              		.loc 1 135 6 discriminator 1 view .LVU197
 606 0022 E8B9     		cbnz	r0, .L36
 143:Core/Src/main.c ****   RCC_OscInitStruct.MSIState = RCC_MSI_ON;
 607              		.loc 1 143 3 is_stmt 1 view .LVU198
 143:Core/Src/main.c ****   RCC_OscInitStruct.MSIState = RCC_MSI_ON;
 608              		.loc 1 143 36 is_stmt 0 view .LVU199
 609 0024 1023     		movs	r3, #16
 610 0026 0593     		str	r3, [sp, #20]
 144:Core/Src/main.c ****   RCC_OscInitStruct.MSICalibrationValue = 0;
 611              		.loc 1 144 3 is_stmt 1 view .LVU200
 144:Core/Src/main.c ****   RCC_OscInitStruct.MSICalibrationValue = 0;
 612              		.loc 1 144 30 is_stmt 0 view .LVU201
 613 0028 0123     		movs	r3, #1
 614 002a 0B93     		str	r3, [sp, #44]
 145:Core/Src/main.c ****   RCC_OscInitStruct.MSIClockRange = RCC_MSIRANGE_6;
 615              		.loc 1 145 3 is_stmt 1 view .LVU202
 145:Core/Src/main.c ****   RCC_OscInitStruct.MSIClockRange = RCC_MSIRANGE_6;
 616              		.loc 1 145 41 is_stmt 0 view .LVU203
 617 002c 0C90     		str	r0, [sp, #48]
 146:Core/Src/main.c ****   RCC_OscInitStruct.PLL.PLLState = RCC_PLL_NONE;
 618              		.loc 1 146 3 is_stmt 1 view .LVU204
 146:Core/Src/main.c ****   RCC_OscInitStruct.PLL.PLLState = RCC_PLL_NONE;
 619              		.loc 1 146 35 is_stmt 0 view .LVU205
 620 002e 6022     		movs	r2, #96
 621 0030 0D92     		str	r2, [sp, #52]
 147:Core/Src/main.c ****   if (HAL_RCC_OscConfig(&RCC_OscInitStruct) != HAL_OK)
 622              		.loc 1 147 3 is_stmt 1 view .LVU206
 147:Core/Src/main.c ****   if (HAL_RCC_OscConfig(&RCC_OscInitStruct) != HAL_OK)
 623              		.loc 1 147 34 is_stmt 0 view .LVU207
 624 0032 0F90     		str	r0, [sp, #60]
 148:Core/Src/main.c ****   {
 625              		.loc 1 148 3 is_stmt 1 view .LVU208
 148:Core/Src/main.c ****   {
 626              		.loc 1 148 7 is_stmt 0 view .LVU209
 627 0034 05A8     		add	r0, sp, #20
 628 0036 FFF7FEFF 		bl	HAL_RCC_OscConfig
 629              	.LVL17:
 148:Core/Src/main.c ****   {
 630              		.loc 1 148 6 discriminator 1 view .LVU210
 631 003a 98B9     		cbnz	r0, .L37
 155:Core/Src/main.c ****                               |RCC_CLOCKTYPE_PCLK1|RCC_CLOCKTYPE_PCLK2;
 632              		.loc 1 155 3 is_stmt 1 view .LVU211
 155:Core/Src/main.c ****                               |RCC_CLOCKTYPE_PCLK1|RCC_CLOCKTYPE_PCLK2;
 633              		.loc 1 155 31 is_stmt 0 view .LVU212
 634 003c 0F23     		movs	r3, #15
 635 003e 0093     		str	r3, [sp]
 157:Core/Src/main.c ****   RCC_ClkInitStruct.AHBCLKDivider = RCC_SYSCLK_DIV1;
 636              		.loc 1 157 3 is_stmt 1 view .LVU213
 157:Core/Src/main.c ****   RCC_ClkInitStruct.AHBCLKDivider = RCC_SYSCLK_DIV1;
 637              		.loc 1 157 34 is_stmt 0 view .LVU214
 638 0040 0146     		mov	r1, r0
 639 0042 0190     		str	r0, [sp, #4]
 158:Core/Src/main.c ****   RCC_ClkInitStruct.APB1CLKDivider = RCC_HCLK_DIV1;
 640              		.loc 1 158 3 is_stmt 1 view .LVU215
 158:Core/Src/main.c ****   RCC_ClkInitStruct.APB1CLKDivider = RCC_HCLK_DIV1;
ARM GAS  /tmp/ccUpKqer.s 			page 25


 641              		.loc 1 158 35 is_stmt 0 view .LVU216
 642 0044 0290     		str	r0, [sp, #8]
 159:Core/Src/main.c ****   RCC_ClkInitStruct.APB2CLKDivider = RCC_HCLK_DIV1;
 643              		.loc 1 159 3 is_stmt 1 view .LVU217
 159:Core/Src/main.c ****   RCC_ClkInitStruct.APB2CLKDivider = RCC_HCLK_DIV1;
 644              		.loc 1 159 36 is_stmt 0 view .LVU218
 645 0046 0390     		str	r0, [sp, #12]
 160:Core/Src/main.c **** 
 646              		.loc 1 160 3 is_stmt 1 view .LVU219
 160:Core/Src/main.c **** 
 647              		.loc 1 160 36 is_stmt 0 view .LVU220
 648 0048 0490     		str	r0, [sp, #16]
 162:Core/Src/main.c ****   {
 649              		.loc 1 162 3 is_stmt 1 view .LVU221
 162:Core/Src/main.c ****   {
 650              		.loc 1 162 7 is_stmt 0 view .LVU222
 651 004a 6846     		mov	r0, sp
 652 004c FFF7FEFF 		bl	HAL_RCC_ClockConfig
 653              	.LVL18:
 162:Core/Src/main.c ****   {
 654              		.loc 1 162 6 discriminator 1 view .LVU223
 655 0050 50B9     		cbnz	r0, .L38
 166:Core/Src/main.c **** }
 656              		.loc 1 166 3 is_stmt 1 view .LVU224
 657 0052 0246     		mov	r2, r0
 658 0054 4FF08071 		mov	r1, #16777216
 659 0058 FFF7FEFF 		bl	HAL_RCC_MCOConfig
 660              	.LVL19:
 167:Core/Src/main.c **** 
 661              		.loc 1 167 1 is_stmt 0 view .LVU225
 662 005c 17B0     		add	sp, sp, #92
 663              		.cfi_remember_state
 664              		.cfi_def_cfa_offset 4
 665              		@ sp needed
 666 005e 00BD     		pop	{pc}
 667              	.L36:
 668              		.cfi_restore_state
 137:Core/Src/main.c ****   }
 669              		.loc 1 137 5 is_stmt 1 view .LVU226
 670 0060 FFF7FEFF 		bl	Error_Handler
 671              	.LVL20:
 672              	.L37:
 150:Core/Src/main.c ****   }
 673              		.loc 1 150 5 view .LVU227
 674 0064 FFF7FEFF 		bl	Error_Handler
 675              	.LVL21:
 676              	.L38:
 164:Core/Src/main.c ****   }
 677              		.loc 1 164 5 view .LVU228
 678 0068 FFF7FEFF 		bl	Error_Handler
 679              	.LVL22:
 680              		.cfi_endproc
 681              	.LFE229:
 683              		.section	.text.main,"ax",%progbits
 684              		.align	1
 685              		.global	main
 686              		.syntax unified
ARM GAS  /tmp/ccUpKqer.s 			page 26


 687              		.thumb
 688              		.thumb_func
 690              	main:
 691              	.LFB228:
  74:Core/Src/main.c **** 
 692              		.loc 1 74 1 view -0
 693              		.cfi_startproc
 694              		@ Volatile: function does not return.
 695              		@ args = 0, pretend = 0, frame = 0
 696              		@ frame_needed = 0, uses_anonymous_args = 0
 697 0000 08B5     		push	{r3, lr}
 698              		.cfi_def_cfa_offset 8
 699              		.cfi_offset 3, -8
 700              		.cfi_offset 14, -4
  83:Core/Src/main.c **** 
 701              		.loc 1 83 3 view .LVU230
 702 0002 FFF7FEFF 		bl	HAL_Init
 703              	.LVL23:
  90:Core/Src/main.c **** 
 704              		.loc 1 90 3 view .LVU231
 705 0006 FFF7FEFF 		bl	SystemClock_Config
 706              	.LVL24:
  98:Core/Src/main.c ****   MX_LPUART1_UART_Init();
 707              		.loc 1 98 3 view .LVU232
 708 000a FFF7FEFF 		bl	MX_GPIO_Init
 709              	.LVL25:
  99:Core/Src/main.c ****   MX_USART2_UART_Init();
 710              		.loc 1 99 3 view .LVU233
 711 000e FFF7FEFF 		bl	MX_LPUART1_UART_Init
 712              	.LVL26:
 100:Core/Src/main.c ****   MX_USART3_UART_Init();
 713              		.loc 1 100 3 view .LVU234
 714 0012 FFF7FEFF 		bl	MX_USART2_UART_Init
 715              	.LVL27:
 101:Core/Src/main.c ****   MX_SPI1_Init();
 716              		.loc 1 101 3 view .LVU235
 717 0016 FFF7FEFF 		bl	MX_USART3_UART_Init
 718              	.LVL28:
 102:Core/Src/main.c ****   /* USER CODE BEGIN 2 */
 719              		.loc 1 102 3 view .LVU236
 720 001a FFF7FEFF 		bl	MX_SPI1_Init
 721              	.LVL29:
 105:Core/Src/main.c ****   HAL_GPIO_WritePin(Wi_EN_GPIO_Port, Wi_EN_Pin, GPIO_PIN_SET);
 722              		.loc 1 105 3 view .LVU237
 723 001e 0122     		movs	r2, #1
 724 0020 0221     		movs	r1, #2
 725 0022 0B48     		ldr	r0, .L42
 726 0024 FFF7FEFF 		bl	HAL_GPIO_WritePin
 727              	.LVL30:
 106:Core/Src/main.c ****   HAL_GPIO_WritePin(Wi_GPIO_0_GPIO_Port, Wi_GPIO_0_Pin, GPIO_PIN_SET);
 728              		.loc 1 106 3 view .LVU238
 729 0028 0A4C     		ldr	r4, .L42+4
 730 002a 0122     		movs	r2, #1
 731 002c 0421     		movs	r1, #4
 732 002e 2046     		mov	r0, r4
 733 0030 FFF7FEFF 		bl	HAL_GPIO_WritePin
 734              	.LVL31:
ARM GAS  /tmp/ccUpKqer.s 			page 27


 107:Core/Src/main.c **** 
 735              		.loc 1 107 3 view .LVU239
 736 0034 0122     		movs	r2, #1
 737 0036 8021     		movs	r1, #128
 738 0038 2046     		mov	r0, r4
 739 003a FFF7FEFF 		bl	HAL_GPIO_WritePin
 740              	.LVL32:
 741              	.L40:
 113:Core/Src/main.c ****   {  HAL_GPIO_TogglePin(Lo_PWR_CTRL_GPIO_Port, Lo_PWR_CTRL_Pin);
 742              		.loc 1 113 3 view .LVU240
 114:Core/Src/main.c ****     HAL_Delay(2000);
 743              		.loc 1 114 6 view .LVU241
 744 003e 0221     		movs	r1, #2
 745 0040 0348     		ldr	r0, .L42
 746 0042 FFF7FEFF 		bl	HAL_GPIO_TogglePin
 747              	.LVL33:
 115:Core/Src/main.c ****     
 748              		.loc 1 115 5 discriminator 2 view .LVU242
 749 0046 4FF4FA60 		mov	r0, #2000
 750 004a FFF7FEFF 		bl	HAL_Delay
 751              	.LVL34:
 113:Core/Src/main.c ****   {  HAL_GPIO_TogglePin(Lo_PWR_CTRL_GPIO_Port, Lo_PWR_CTRL_Pin);
 752              		.loc 1 113 9 view .LVU243
 753 004e F6E7     		b	.L40
 754              	.L43:
 755              		.align	2
 756              	.L42:
 757 0050 00040048 		.word	1207960576
 758 0054 00080048 		.word	1207961600
 759              		.cfi_endproc
 760              	.LFE228:
 762              		.global	hspi1
 763              		.section	.bss.hspi1,"aw",%nobits
 764              		.align	2
 767              	hspi1:
 768 0000 00000000 		.space	100
 768      00000000 
 768      00000000 
 768      00000000 
 768      00000000 
 769              		.global	huart3
 770              		.section	.bss.huart3,"aw",%nobits
 771              		.align	2
 774              	huart3:
 775 0000 00000000 		.space	136
 775      00000000 
 775      00000000 
 775      00000000 
 775      00000000 
 776              		.global	huart2
 777              		.section	.bss.huart2,"aw",%nobits
 778              		.align	2
 781              	huart2:
 782 0000 00000000 		.space	136
 782      00000000 
 782      00000000 
 782      00000000 
ARM GAS  /tmp/ccUpKqer.s 			page 28


 782      00000000 
 783              		.global	hlpuart1
 784              		.section	.bss.hlpuart1,"aw",%nobits
 785              		.align	2
 788              	hlpuart1:
 789 0000 00000000 		.space	136
 789      00000000 
 789      00000000 
 789      00000000 
 789      00000000 
 790              		.text
 791              	.Letext0:
 792              		.file 3 "/home/glen/.config/Code/User/globalStorage/bmd.stm32-for-vscode/@xpack-dev-tools/arm-none
 793              		.file 4 "/home/glen/.config/Code/User/globalStorage/bmd.stm32-for-vscode/@xpack-dev-tools/arm-none
 794              		.file 5 "Drivers/CMSIS/Device/ST/STM32L4xx/Include/stm32l476xx.h"
 795              		.file 6 "Drivers/STM32L4xx_HAL_Driver/Inc/stm32l4xx_hal_def.h"
 796              		.file 7 "Drivers/STM32L4xx_HAL_Driver/Inc/stm32l4xx_hal_rcc.h"
 797              		.file 8 "Drivers/STM32L4xx_HAL_Driver/Inc/stm32l4xx_hal_gpio.h"
 798              		.file 9 "Drivers/STM32L4xx_HAL_Driver/Inc/stm32l4xx_hal_dma.h"
 799              		.file 10 "Drivers/STM32L4xx_HAL_Driver/Inc/stm32l4xx_hal_spi.h"
 800              		.file 11 "Drivers/STM32L4xx_HAL_Driver/Inc/stm32l4xx_hal_uart.h"
 801              		.file 12 "Drivers/STM32L4xx_HAL_Driver/Inc/stm32l4xx_hal_pwr_ex.h"
 802              		.file 13 "Drivers/STM32L4xx_HAL_Driver/Inc/stm32l4xx_hal.h"
 803              		.file 14 "Drivers/STM32L4xx_HAL_Driver/Inc/stm32l4xx_ll_dma.h"
 804              		.file 15 "<built-in>"
ARM GAS  /tmp/ccUpKqer.s 			page 29

