ARM GAS  /tmp/ccYdMxmM.s 			page 1


   1              		.cpu cortex-m4
   2              		.arch armv7e-m
   3              		.fpu fpv4-sp-d16
   4              		.eabi_attribute 27, 1
   5              		.eabi_attribute 28, 1
   6              		.eabi_attribute 20, 1
   7              		.eabi_attribute 21, 1
   8              		.eabi_attribute 23, 3
   9              		.eabi_attribute 24, 1
  10              		.eabi_attribute 25, 1
  11              		.eabi_attribute 26, 1
  12              		.eabi_attribute 30, 1
  13              		.eabi_attribute 34, 1
  14              		.eabi_attribute 18, 4
  15              		.file	"main.c"
  16              		.text
  17              	.Ltext0:
  18              		.cfi_sections	.debug_frame
  19              		.file 1 "Core/Src/main.c"
  20              		.section	.text.MX_GPIO_Init,"ax",%progbits
  21              		.align	1
  22              		.syntax unified
  23              		.thumb
  24              		.thumb_func
  26              	MX_GPIO_Init:
  27              	.LFB243:
   1:Core/Src/main.c **** /* USER CODE BEGIN Header */
   2:Core/Src/main.c **** /**
   3:Core/Src/main.c ****   ******************************************************************************
   4:Core/Src/main.c ****   * @file           : main.c
   5:Core/Src/main.c ****   * @brief          : Main program body
   6:Core/Src/main.c ****   ******************************************************************************
   7:Core/Src/main.c ****   * @attention
   8:Core/Src/main.c ****   *
   9:Core/Src/main.c ****   * Copyright (c) 2026 STMicroelectronics.
  10:Core/Src/main.c ****   * All rights reserved.
  11:Core/Src/main.c ****   *
  12:Core/Src/main.c ****   * This software is licensed under terms that can be found in the LICENSE file
  13:Core/Src/main.c ****   * in the root directory of this software component.
  14:Core/Src/main.c ****   * If no LICENSE file comes with this software, it is provided AS-IS.
  15:Core/Src/main.c ****   *
  16:Core/Src/main.c ****   ******************************************************************************
  17:Core/Src/main.c ****   */
  18:Core/Src/main.c **** /* USER CODE END Header */
  19:Core/Src/main.c **** /* Includes ------------------------------------------------------------------*/
  20:Core/Src/main.c **** #include "main.h"
  21:Core/Src/main.c **** #include "fatfs.h"
  22:Core/Src/main.c **** 
  23:Core/Src/main.c **** /* Private includes ----------------------------------------------------------*/
  24:Core/Src/main.c **** /* USER CODE BEGIN Includes */
  25:Core/Src/main.c **** 
  26:Core/Src/main.c **** // OLED Display
  27:Core/Src/main.c **** #include "ssd1306.h"
  28:Core/Src/main.c **** #include "ssd1306_fonts.h"
  29:Core/Src/main.c **** 
  30:Core/Src/main.c **** #include <string.h>
  31:Core/Src/main.c **** #include <stdio.h>
ARM GAS  /tmp/ccYdMxmM.s 			page 2


  32:Core/Src/main.c **** 
  33:Core/Src/main.c **** /* USER CODE END Includes */
  34:Core/Src/main.c **** 
  35:Core/Src/main.c **** /* Private typedef -----------------------------------------------------------*/
  36:Core/Src/main.c **** /* USER CODE BEGIN PTD */
  37:Core/Src/main.c **** 
  38:Core/Src/main.c **** /* USER CODE END PTD */
  39:Core/Src/main.c **** 
  40:Core/Src/main.c **** /* Private define ------------------------------------------------------------*/
  41:Core/Src/main.c **** /* USER CODE BEGIN PD */
  42:Core/Src/main.c **** #define RING_BUFFER_SIZE (64 * 1024) // 64KB
  43:Core/Src/main.c **** #define SD_BLOCK_SIZE    (4096)      // 4KB burst (8 sectors)
  44:Core/Src/main.c **** 
  45:Core/Src/main.c **** uint8_t ring_buffer[RING_BUFFER_SIZE];
  46:Core/Src/main.c **** uint8_t dma_transfer_buffer[SD_BLOCK_SIZE] __attribute__((aligned(32))); 
  47:Core/Src/main.c **** 
  48:Core/Src/main.c **** volatile uint32_t head = 0; // Written by UART ISR
  49:Core/Src/main.c **** volatile uint32_t tail = 0; // Read by Main Loop
  50:Core/Src/main.c **** 
  51:Core/Src/main.c **** volatile uint8_t wake_up_flag = 0;
  52:Core/Src/main.c **** 
  53:Core/Src/main.c **** uint8_t writeBuf[512];
  54:Core/Src/main.c **** uint8_t readBuf[512];
  55:Core/Src/main.c **** 
  56:Core/Src/main.c **** /* USER CODE END PD */
  57:Core/Src/main.c **** 
  58:Core/Src/main.c **** /* Private macro -------------------------------------------------------------*/
  59:Core/Src/main.c **** /* USER CODE BEGIN PM */
  60:Core/Src/main.c **** 
  61:Core/Src/main.c **** /* USER CODE END PM */
  62:Core/Src/main.c **** 
  63:Core/Src/main.c **** /* Private variables ---------------------------------------------------------*/
  64:Core/Src/main.c **** I2C_HandleTypeDef hi2c2;
  65:Core/Src/main.c **** 
  66:Core/Src/main.c **** UART_HandleTypeDef hlpuart1;
  67:Core/Src/main.c **** UART_HandleTypeDef huart1;
  68:Core/Src/main.c **** UART_HandleTypeDef huart2;
  69:Core/Src/main.c **** UART_HandleTypeDef huart3;
  70:Core/Src/main.c **** DMA_HandleTypeDef hdma_usart1_rx;
  71:Core/Src/main.c **** 
  72:Core/Src/main.c **** RTC_HandleTypeDef hrtc;
  73:Core/Src/main.c **** 
  74:Core/Src/main.c **** SD_HandleTypeDef hsd1;
  75:Core/Src/main.c **** 
  76:Core/Src/main.c **** SPI_HandleTypeDef hspi1;
  77:Core/Src/main.c **** 
  78:Core/Src/main.c **** /* USER CODE BEGIN PV */
  79:Core/Src/main.c **** uint32_t total_uptime; // Total time SD card has been active, in seconds
  80:Core/Src/main.c **** const char total_uptime_filename[] = "UPTIME.txt";
  81:Core/Src/main.c **** /* USER CODE END PV */
  82:Core/Src/main.c **** 
  83:Core/Src/main.c **** /* Private function prototypes -----------------------------------------------*/
  84:Core/Src/main.c **** void SystemClock_Config(void);
  85:Core/Src/main.c **** static void MX_GPIO_Init(void);
  86:Core/Src/main.c **** static void MX_DMA_Init(void);
  87:Core/Src/main.c **** static void MX_LPUART1_UART_Init(void);
  88:Core/Src/main.c **** static void MX_USART2_UART_Init(void);
ARM GAS  /tmp/ccYdMxmM.s 			page 3


  89:Core/Src/main.c **** static void MX_USART3_UART_Init(void);
  90:Core/Src/main.c **** static void MX_SPI1_Init(void);
  91:Core/Src/main.c **** static void MX_RTC_Init(void);
  92:Core/Src/main.c **** static void MX_I2C2_Init(void);
  93:Core/Src/main.c **** static void MX_SDMMC1_SD_Init(void);
  94:Core/Src/main.c **** static void MX_USART1_UART_Init(void);
  95:Core/Src/main.c **** /* USER CODE BEGIN PFP */
  96:Core/Src/main.c **** static void UART_SendString(UART_HandleTypeDef *huart, char *str);
  97:Core/Src/main.c **** static uint32_t get_dma_head(void);
  98:Core/Src/main.c **** static void Print_SD_Details(void);
  99:Core/Src/main.c **** static void SD_RawWriteTest(void);
 100:Core/Src/main.c **** /* USER CODE END PFP */
 101:Core/Src/main.c **** 
 102:Core/Src/main.c **** /* Private user code ---------------------------------------------------------*/
 103:Core/Src/main.c **** /* USER CODE BEGIN 0 */
 104:Core/Src/main.c **** 
 105:Core/Src/main.c ****   #include <stdio.h>
 106:Core/Src/main.c **** 
 107:Core/Src/main.c ****   // SETUP FOR SERIAL COMS TO LAPTOP
 108:Core/Src/main.c ****   #ifdef __GNUC__
 109:Core/Src/main.c ****     #define PUTCHAR_PROTOTYPE int __io_putchar(int ch)
 110:Core/Src/main.c ****   #else
 111:Core/Src/main.c ****     #define PUTCHAR_PROTOTYPE int fputc(int ch, FILE *f)
 112:Core/Src/main.c ****   #endif
 113:Core/Src/main.c **** 
 114:Core/Src/main.c ****   PUTCHAR_PROTOTYPE
 115:Core/Src/main.c ****   {
 116:Core/Src/main.c ****     HAL_UART_Transmit(&huart3, (uint8_t *)&ch, 1, HAL_MAX_DELAY);
 117:Core/Src/main.c ****     return ch;
 118:Core/Src/main.c ****   }
 119:Core/Src/main.c **** 
 120:Core/Src/main.c **** /* USER CODE END 0 */
 121:Core/Src/main.c **** 
 122:Core/Src/main.c **** /**
 123:Core/Src/main.c ****   * @brief  The application entry point.
 124:Core/Src/main.c ****   * @retval int
 125:Core/Src/main.c ****   */
 126:Core/Src/main.c **** int main(void)
 127:Core/Src/main.c **** {
 128:Core/Src/main.c **** 
 129:Core/Src/main.c ****   /* USER CODE BEGIN 1 */
 130:Core/Src/main.c **** 
 131:Core/Src/main.c ****   /* USER CODE END 1 */
 132:Core/Src/main.c **** 
 133:Core/Src/main.c ****   /* MCU Configuration--------------------------------------------------------*/
 134:Core/Src/main.c **** 
 135:Core/Src/main.c ****   /* Reset of all peripherals, Initializes the Flash interface and the Systick. */
 136:Core/Src/main.c ****   HAL_Init();
 137:Core/Src/main.c **** 
 138:Core/Src/main.c ****   /* USER CODE BEGIN Init */
 139:Core/Src/main.c **** 
 140:Core/Src/main.c ****   /* USER CODE END Init */
 141:Core/Src/main.c **** 
 142:Core/Src/main.c ****   /* Configure the system clock */
 143:Core/Src/main.c ****   SystemClock_Config();
 144:Core/Src/main.c **** 
 145:Core/Src/main.c ****   /* USER CODE BEGIN SysInit */
ARM GAS  /tmp/ccYdMxmM.s 			page 4


 146:Core/Src/main.c ****   // BEFORE SDMMC FAILS
 147:Core/Src/main.c **** 
 148:Core/Src/main.c ****   /* USER CODE END SysInit */
 149:Core/Src/main.c **** 
 150:Core/Src/main.c ****   /* Initialize all configured peripherals */
 151:Core/Src/main.c ****   MX_GPIO_Init();
 152:Core/Src/main.c ****   MX_DMA_Init();
 153:Core/Src/main.c ****   MX_LPUART1_UART_Init();
 154:Core/Src/main.c ****   MX_USART2_UART_Init();
 155:Core/Src/main.c ****   MX_USART3_UART_Init();
 156:Core/Src/main.c ****   MX_SPI1_Init();
 157:Core/Src/main.c ****   MX_RTC_Init();
 158:Core/Src/main.c ****   MX_I2C2_Init();
 159:Core/Src/main.c ****   MX_SDMMC1_SD_Init();
 160:Core/Src/main.c ****   MX_FATFS_Init();
 161:Core/Src/main.c ****   MX_USART1_UART_Init();
 162:Core/Src/main.c ****   /* USER CODE BEGIN 2 */
 163:Core/Src/main.c **** 
 164:Core/Src/main.c ****   HAL_GPIO_WritePin(Lo_PWR_CTRL_GPIO_Port, Lo_PWR_CTRL_Pin, GPIO_PIN_SET);
 165:Core/Src/main.c ****   HAL_GPIO_WritePin(Wi_EN_GPIO_Port, Wi_EN_Pin, GPIO_PIN_SET);
 166:Core/Src/main.c ****   HAL_GPIO_WritePin(Wi_GPIO_0_GPIO_Port, Wi_GPIO_0_Pin, GPIO_PIN_SET);
 167:Core/Src/main.c **** 
 168:Core/Src/main.c ****   UART_SendString(&huart3, "SETUP\r\n");
 169:Core/Src/main.c **** 
 170:Core/Src/main.c ****   // Start UART RX in DMA Circular mode
 171:Core/Src/main.c ****   // The DMA hardware will automatically wrap around to the start of ring_buffer
 172:Core/Src/main.c ****   SD_RawWriteTest();
 173:Core/Src/main.c ****   Print_SD_Details();
 174:Core/Src/main.c ****   
 175:Core/Src/main.c ****   /*
 176:Core/Src/main.c **** 
 177:Core/Src/main.c **** // --- Read uptime ONCE before the loop ---
 178:Core/Src/main.c **** if (f_mount(&SDFatFS, SDPath, 1) == FR_OK) {
 179:Core/Src/main.c ****     UART_SendString(&huart3, "SD Card Mounted Successfully!\r\n");
 180:Core/Src/main.c **** 
 181:Core/Src/main.c ****     if (f_open(&SDFile, total_uptime_filename, FA_OPEN_EXISTING | FA_READ) == FR_OK) {
 182:Core/Src/main.c ****         char readBuf[16] = {0};
 183:Core/Src/main.c ****         UINT bytesRead = 0;
 184:Core/Src/main.c **** 
 185:Core/Src/main.c ****         if (f_read(&SDFile, readBuf, sizeof(readBuf) - 1, &bytesRead) == FR_OK && bytesRead > 0) {
 186:Core/Src/main.c ****             readBuf[bytesRead] = '\0'; // Null-terminate
 187:Core/Src/main.c ****             total_uptime = (uint32_t)strtoul(readBuf, NULL, 10); // FIX: parse ASCII -> uint32
 188:Core/Src/main.c ****             UART_SendString(&huart3, "Read uptime from SD card successfully.\r\n");
 189:Core/Src/main.c ****         } else {
 190:Core/Src/main.c ****             UART_SendString(&huart3, "Failed to read uptime from SD card.\r\n");
 191:Core/Src/main.c ****             total_uptime = 0;
 192:Core/Src/main.c ****         }
 193:Core/Src/main.c ****         f_close(&SDFile);
 194:Core/Src/main.c **** 
 195:Core/Src/main.c ****     } else {
 196:Core/Src/main.c ****         UART_SendString(&huart3, "Uptime file not found. Starting with uptime = 0.\r\n");
 197:Core/Src/main.c ****         total_uptime = 0;
 198:Core/Src/main.c ****     }
 199:Core/Src/main.c ****     // Leave mounted for the loop
 200:Core/Src/main.c **** 
 201:Core/Src/main.c **** } else {
 202:Core/Src/main.c ****     UART_SendString(&huart3, "Failed to Mount SD Card.\r\n");
ARM GAS  /tmp/ccYdMxmM.s 			page 5


 203:Core/Src/main.c ****     total_uptime = 0;
 204:Core/Src/main.c **** }
 205:Core/Src/main.c **** */
 206:Core/Src/main.c **** 
 207:Core/Src/main.c **** // --- Diagnostic block - add temporarily after successful mount ---
 208:Core/Src/main.c **** if (f_mount(&SDFatFS, SDPath, 1) == FR_OK) {
 209:Core/Src/main.c ****     UART_SendString(&huart3, "SD Card Mounted Successfully!\r\n");
 210:Core/Src/main.c **** 
 211:Core/Src/main.c ****     // 1. Check free space (fails if FAT type mismatch or read-only)
 212:Core/Src/main.c ****     DWORD freeClusters;
 213:Core/Src/main.c ****     FATFS *pFatFs;
 214:Core/Src/main.c ****     char diagBuf[64];
 215:Core/Src/main.c **** 
 216:Core/Src/main.c ****     if (f_getfree(SDPath, &freeClusters, &pFatFs) == FR_OK) {
 217:Core/Src/main.c ****         uint32_t freeKB = freeClusters * pFatFs->csize * (pFatFs->csize / 1024);
 218:Core/Src/main.c ****         snprintf(diagBuf, sizeof(diagBuf), "Free space: %lu KB\r\n", (unsigned long)freeKB);
 219:Core/Src/main.c ****         UART_SendString(&huart3, diagBuf);
 220:Core/Src/main.c ****     } else {
 221:Core/Src/main.c ****         UART_SendString(&huart3, "f_getfree FAILED - possible FAT type or config issue\r\n");
 222:Core/Src/main.c ****     }
 223:Core/Src/main.c **** 
 224:Core/Src/main.c ****     // 2. Try creating a brand new test file
 225:Core/Src/main.c ****     FRESULT res = f_open(&SDFile, "TEST.txt", FA_CREATE_ALWAYS | FA_WRITE);
 226:Core/Src/main.c ****     snprintf(diagBuf, sizeof(diagBuf), "f_open TEST.txt result: %d\r\n", res);
 227:Core/Src/main.c ****     UART_SendString(&huart3, diagBuf);
 228:Core/Src/main.c **** 
 229:Core/Src/main.c ****     if (res == FR_OK) {
 230:Core/Src/main.c ****         UINT bw;
 231:Core/Src/main.c ****         FRESULT wres = f_write(&SDFile, "hello", 5, &bw);
 232:Core/Src/main.c ****         snprintf(diagBuf, sizeof(diagBuf), "f_write result: %d, bytes: %u\r\n", wres, bw);
 233:Core/Src/main.c ****         UART_SendString(&huart3, diagBuf);
 234:Core/Src/main.c ****         f_close(&SDFile);
 235:Core/Src/main.c ****     }
 236:Core/Src/main.c **** }
 237:Core/Src/main.c **** 
 238:Core/Src/main.c ****   /* USER CODE END 2 */
 239:Core/Src/main.c **** 
 240:Core/Src/main.c ****   /* Infinite loop */
 241:Core/Src/main.c ****   /* USER CODE BEGIN WHILE */
 242:Core/Src/main.c ****   while (1)
 243:Core/Src/main.c ****   { 
 244:Core/Src/main.c **** 
 245:Core/Src/main.c **** 
 246:Core/Src/main.c ****     FRESULT res = f_open(&SDFile, total_uptime_filename, FA_CREATE_ALWAYS | FA_WRITE);
 247:Core/Src/main.c ****     char dbg[32];
 248:Core/Src/main.c ****     snprintf(dbg, sizeof(dbg), "f_open res: %d\r\n", res);
 249:Core/Src/main.c ****     UART_SendString(&huart3, dbg);
 250:Core/Src/main.c ****     //HAL_Delay(3000); // Wait 10 seconds
 251:Core/Src/main.c ****     total_uptime += 10; // Increment uptime by the delay interval
 252:Core/Src/main.c **** 
 253:Core/Src/main.c ****     // Write updated uptime back to SD card
 254:Core/Src/main.c ****     if (f_open(&SDFile, total_uptime_filename, FA_CREATE_ALWAYS | FA_WRITE) == FR_OK) {
 255:Core/Src/main.c ****         char writeBuf[16] = {0};
 256:Core/Src/main.c ****         UINT bytesWritten = 0;
 257:Core/Src/main.c **** 
 258:Core/Src/main.c ****         // FIX: Write ASCII text, not raw binary
 259:Core/Src/main.c ****         int len = snprintf(writeBuf, sizeof(writeBuf), "%lu\r\n", (unsigned long)total_uptime);
ARM GAS  /tmp/ccYdMxmM.s 			page 6


 260:Core/Src/main.c **** 
 261:Core/Src/main.c ****         if (f_write(&SDFile, writeBuf, (UINT)len, &bytesWritten) == FR_OK && bytesWritten == (UINT)
 262:Core/Src/main.c ****             UART_SendString(&huart3, "Uptime written to SD card.\r\n");
 263:Core/Src/main.c ****         } else {
 264:Core/Src/main.c ****             UART_SendString(&huart3, "Failed to write uptime.\r\n");
 265:Core/Src/main.c ****         }
 266:Core/Src/main.c **** 
 267:Core/Src/main.c ****         f_sync(&SDFile);  // Flush to card — critical for FAT reliability
 268:Core/Src/main.c ****         f_close(&SDFile);
 269:Core/Src/main.c **** 
 270:Core/Src/main.c ****     } else {
 271:Core/Src/main.c ****         UART_SendString(&huart3, "Failed to open uptime file for writing.\r\n");
 272:Core/Src/main.c ****     }
 273:Core/Src/main.c ****   
 274:Core/Src/main.c ****     // Polling WIFI power for now as indicator
 275:Core/Src/main.c ****   HAL_GPIO_TogglePin(Lo_PWR_CTRL_GPIO_Port, Lo_PWR_CTRL_Pin);
 276:Core/Src/main.c ****    //  UART_SendString(&huart3, "Hello from EndeavourOS via UART3!\r\n");
 277:Core/Src/main.c ****    
 278:Core/Src/main.c ****     HAL_Delay(10000); // Toggle every 1 second
 279:Core/Src/main.c ****     
 280:Core/Src/main.c ****     /* USER CODE END WHILE */
 281:Core/Src/main.c **** 
 282:Core/Src/main.c ****     /* USER CODE BEGIN 3 */
 283:Core/Src/main.c ****   }
 284:Core/Src/main.c ****   /* USER CODE END 3 */
 285:Core/Src/main.c **** }
 286:Core/Src/main.c **** 
 287:Core/Src/main.c **** /**
 288:Core/Src/main.c ****   * @brief System Clock Configuration
 289:Core/Src/main.c ****   * @retval None
 290:Core/Src/main.c ****   */
 291:Core/Src/main.c **** void SystemClock_Config(void)
 292:Core/Src/main.c **** {
 293:Core/Src/main.c ****   RCC_OscInitTypeDef RCC_OscInitStruct = {0};
 294:Core/Src/main.c ****   RCC_ClkInitTypeDef RCC_ClkInitStruct = {0};
 295:Core/Src/main.c **** 
 296:Core/Src/main.c ****   /** Configure the main internal regulator output voltage
 297:Core/Src/main.c ****   */
 298:Core/Src/main.c ****   if (HAL_PWREx_ControlVoltageScaling(PWR_REGULATOR_VOLTAGE_SCALE1) != HAL_OK)
 299:Core/Src/main.c ****   {
 300:Core/Src/main.c ****     Error_Handler();
 301:Core/Src/main.c ****   }
 302:Core/Src/main.c **** 
 303:Core/Src/main.c ****   /** Initializes the RCC Oscillators according to the specified parameters
 304:Core/Src/main.c ****   * in the RCC_OscInitTypeDef structure.
 305:Core/Src/main.c ****   */
 306:Core/Src/main.c ****   RCC_OscInitStruct.OscillatorType = RCC_OSCILLATORTYPE_LSI|RCC_OSCILLATORTYPE_MSI;
 307:Core/Src/main.c ****   RCC_OscInitStruct.LSIState = RCC_LSI_ON;
 308:Core/Src/main.c ****   RCC_OscInitStruct.MSIState = RCC_MSI_ON;
 309:Core/Src/main.c ****   RCC_OscInitStruct.MSICalibrationValue = 0;
 310:Core/Src/main.c ****   RCC_OscInitStruct.MSIClockRange = RCC_MSIRANGE_6;
 311:Core/Src/main.c ****   RCC_OscInitStruct.PLL.PLLState = RCC_PLL_ON;
 312:Core/Src/main.c ****   RCC_OscInitStruct.PLL.PLLSource = RCC_PLLSOURCE_MSI;
 313:Core/Src/main.c ****   RCC_OscInitStruct.PLL.PLLM = 1;
 314:Core/Src/main.c ****   RCC_OscInitStruct.PLL.PLLN = 40;
 315:Core/Src/main.c ****   RCC_OscInitStruct.PLL.PLLP = RCC_PLLP_DIV7;
 316:Core/Src/main.c ****   RCC_OscInitStruct.PLL.PLLQ = RCC_PLLQ_DIV4;
ARM GAS  /tmp/ccYdMxmM.s 			page 7


 317:Core/Src/main.c ****   RCC_OscInitStruct.PLL.PLLR = RCC_PLLR_DIV2;
 318:Core/Src/main.c ****   if (HAL_RCC_OscConfig(&RCC_OscInitStruct) != HAL_OK)
 319:Core/Src/main.c ****   {
 320:Core/Src/main.c ****     Error_Handler();
 321:Core/Src/main.c ****   }
 322:Core/Src/main.c **** 
 323:Core/Src/main.c ****   /** Initializes the CPU, AHB and APB buses clocks
 324:Core/Src/main.c ****   */
 325:Core/Src/main.c ****   RCC_ClkInitStruct.ClockType = RCC_CLOCKTYPE_HCLK|RCC_CLOCKTYPE_SYSCLK
 326:Core/Src/main.c ****                               |RCC_CLOCKTYPE_PCLK1|RCC_CLOCKTYPE_PCLK2;
 327:Core/Src/main.c ****   RCC_ClkInitStruct.SYSCLKSource = RCC_SYSCLKSOURCE_PLLCLK;
 328:Core/Src/main.c ****   RCC_ClkInitStruct.AHBCLKDivider = RCC_SYSCLK_DIV1;
 329:Core/Src/main.c ****   RCC_ClkInitStruct.APB1CLKDivider = RCC_HCLK_DIV1;
 330:Core/Src/main.c ****   RCC_ClkInitStruct.APB2CLKDivider = RCC_HCLK_DIV1;
 331:Core/Src/main.c **** 
 332:Core/Src/main.c ****   if (HAL_RCC_ClockConfig(&RCC_ClkInitStruct, FLASH_LATENCY_4) != HAL_OK)
 333:Core/Src/main.c ****   {
 334:Core/Src/main.c ****     Error_Handler();
 335:Core/Src/main.c ****   }
 336:Core/Src/main.c **** }
 337:Core/Src/main.c **** 
 338:Core/Src/main.c **** /**
 339:Core/Src/main.c ****   * @brief I2C2 Initialization Function
 340:Core/Src/main.c ****   * @param None
 341:Core/Src/main.c ****   * @retval None
 342:Core/Src/main.c ****   */
 343:Core/Src/main.c **** static void MX_I2C2_Init(void)
 344:Core/Src/main.c **** {
 345:Core/Src/main.c **** 
 346:Core/Src/main.c ****   /* USER CODE BEGIN I2C2_Init 0 */
 347:Core/Src/main.c **** 
 348:Core/Src/main.c ****   /* USER CODE END I2C2_Init 0 */
 349:Core/Src/main.c **** 
 350:Core/Src/main.c ****   /* USER CODE BEGIN I2C2_Init 1 */
 351:Core/Src/main.c **** 
 352:Core/Src/main.c ****   /* USER CODE END I2C2_Init 1 */
 353:Core/Src/main.c ****   hi2c2.Instance = I2C2;
 354:Core/Src/main.c ****   hi2c2.Init.Timing = 0x10D19CE4;
 355:Core/Src/main.c ****   hi2c2.Init.OwnAddress1 = 0;
 356:Core/Src/main.c ****   hi2c2.Init.AddressingMode = I2C_ADDRESSINGMODE_7BIT;
 357:Core/Src/main.c ****   hi2c2.Init.DualAddressMode = I2C_DUALADDRESS_DISABLE;
 358:Core/Src/main.c ****   hi2c2.Init.OwnAddress2 = 0;
 359:Core/Src/main.c ****   hi2c2.Init.OwnAddress2Masks = I2C_OA2_NOMASK;
 360:Core/Src/main.c ****   hi2c2.Init.GeneralCallMode = I2C_GENERALCALL_DISABLE;
 361:Core/Src/main.c ****   hi2c2.Init.NoStretchMode = I2C_NOSTRETCH_DISABLE;
 362:Core/Src/main.c ****   if (HAL_I2C_Init(&hi2c2) != HAL_OK)
 363:Core/Src/main.c ****   {
 364:Core/Src/main.c ****     Error_Handler();
 365:Core/Src/main.c ****   }
 366:Core/Src/main.c **** 
 367:Core/Src/main.c ****   /** Configure Analogue filter
 368:Core/Src/main.c ****   */
 369:Core/Src/main.c ****   if (HAL_I2CEx_ConfigAnalogFilter(&hi2c2, I2C_ANALOGFILTER_ENABLE) != HAL_OK)
 370:Core/Src/main.c ****   {
 371:Core/Src/main.c ****     Error_Handler();
 372:Core/Src/main.c ****   }
 373:Core/Src/main.c **** 
ARM GAS  /tmp/ccYdMxmM.s 			page 8


 374:Core/Src/main.c ****   /** Configure Digital filter
 375:Core/Src/main.c ****   */
 376:Core/Src/main.c ****   if (HAL_I2CEx_ConfigDigitalFilter(&hi2c2, 0) != HAL_OK)
 377:Core/Src/main.c ****   {
 378:Core/Src/main.c ****     Error_Handler();
 379:Core/Src/main.c ****   }
 380:Core/Src/main.c ****   /* USER CODE BEGIN I2C2_Init 2 */
 381:Core/Src/main.c **** 
 382:Core/Src/main.c ****   /* USER CODE END I2C2_Init 2 */
 383:Core/Src/main.c **** 
 384:Core/Src/main.c **** }
 385:Core/Src/main.c **** 
 386:Core/Src/main.c **** /**
 387:Core/Src/main.c ****   * @brief LPUART1 Initialization Function
 388:Core/Src/main.c ****   * @param None
 389:Core/Src/main.c ****   * @retval None
 390:Core/Src/main.c ****   */
 391:Core/Src/main.c **** static void MX_LPUART1_UART_Init(void)
 392:Core/Src/main.c **** {
 393:Core/Src/main.c **** 
 394:Core/Src/main.c ****   /* USER CODE BEGIN LPUART1_Init 0 */
 395:Core/Src/main.c **** 
 396:Core/Src/main.c ****   /* USER CODE END LPUART1_Init 0 */
 397:Core/Src/main.c **** 
 398:Core/Src/main.c ****   /* USER CODE BEGIN LPUART1_Init 1 */
 399:Core/Src/main.c **** 
 400:Core/Src/main.c ****   /* USER CODE END LPUART1_Init 1 */
 401:Core/Src/main.c ****   hlpuart1.Instance = LPUART1;
 402:Core/Src/main.c ****   hlpuart1.Init.BaudRate = 209700;
 403:Core/Src/main.c ****   hlpuart1.Init.WordLength = UART_WORDLENGTH_7B;
 404:Core/Src/main.c ****   hlpuart1.Init.StopBits = UART_STOPBITS_1;
 405:Core/Src/main.c ****   hlpuart1.Init.Parity = UART_PARITY_NONE;
 406:Core/Src/main.c ****   hlpuart1.Init.Mode = UART_MODE_TX_RX;
 407:Core/Src/main.c ****   hlpuart1.Init.HwFlowCtl = UART_HWCONTROL_NONE;
 408:Core/Src/main.c ****   hlpuart1.Init.OneBitSampling = UART_ONE_BIT_SAMPLE_DISABLE;
 409:Core/Src/main.c ****   hlpuart1.AdvancedInit.AdvFeatureInit = UART_ADVFEATURE_NO_INIT;
 410:Core/Src/main.c ****   if (HAL_UART_Init(&hlpuart1) != HAL_OK)
 411:Core/Src/main.c ****   {
 412:Core/Src/main.c ****     Error_Handler();
 413:Core/Src/main.c ****   }
 414:Core/Src/main.c ****   /* USER CODE BEGIN LPUART1_Init 2 */
 415:Core/Src/main.c **** 
 416:Core/Src/main.c ****   /* USER CODE END LPUART1_Init 2 */
 417:Core/Src/main.c **** 
 418:Core/Src/main.c **** }
 419:Core/Src/main.c **** 
 420:Core/Src/main.c **** /**
 421:Core/Src/main.c ****   * @brief USART1 Initialization Function
 422:Core/Src/main.c ****   * @param None
 423:Core/Src/main.c ****   * @retval None
 424:Core/Src/main.c ****   */
 425:Core/Src/main.c **** static void MX_USART1_UART_Init(void)
 426:Core/Src/main.c **** {
 427:Core/Src/main.c **** 
 428:Core/Src/main.c ****   /* USER CODE BEGIN USART1_Init 0 */
 429:Core/Src/main.c **** 
 430:Core/Src/main.c ****   /* USER CODE END USART1_Init 0 */
ARM GAS  /tmp/ccYdMxmM.s 			page 9


 431:Core/Src/main.c **** 
 432:Core/Src/main.c ****   /* USER CODE BEGIN USART1_Init 1 */
 433:Core/Src/main.c **** 
 434:Core/Src/main.c ****   /* USER CODE END USART1_Init 1 */
 435:Core/Src/main.c ****   huart1.Instance = USART1;
 436:Core/Src/main.c ****   huart1.Init.BaudRate = 115200;
 437:Core/Src/main.c ****   huart1.Init.WordLength = UART_WORDLENGTH_8B;
 438:Core/Src/main.c ****   huart1.Init.StopBits = UART_STOPBITS_1;
 439:Core/Src/main.c ****   huart1.Init.Parity = UART_PARITY_NONE;
 440:Core/Src/main.c ****   huart1.Init.Mode = UART_MODE_TX_RX;
 441:Core/Src/main.c ****   huart1.Init.HwFlowCtl = UART_HWCONTROL_NONE;
 442:Core/Src/main.c ****   huart1.Init.OverSampling = UART_OVERSAMPLING_16;
 443:Core/Src/main.c ****   huart1.Init.OneBitSampling = UART_ONE_BIT_SAMPLE_DISABLE;
 444:Core/Src/main.c ****   huart1.AdvancedInit.AdvFeatureInit = UART_ADVFEATURE_NO_INIT;
 445:Core/Src/main.c ****   if (HAL_UART_Init(&huart1) != HAL_OK)
 446:Core/Src/main.c ****   {
 447:Core/Src/main.c ****     Error_Handler();
 448:Core/Src/main.c ****   }
 449:Core/Src/main.c ****   /* USER CODE BEGIN USART1_Init 2 */
 450:Core/Src/main.c **** 
 451:Core/Src/main.c ****   /* USER CODE END USART1_Init 2 */
 452:Core/Src/main.c **** 
 453:Core/Src/main.c **** }
 454:Core/Src/main.c **** 
 455:Core/Src/main.c **** /**
 456:Core/Src/main.c ****   * @brief USART2 Initialization Function
 457:Core/Src/main.c ****   * @param None
 458:Core/Src/main.c ****   * @retval None
 459:Core/Src/main.c ****   */
 460:Core/Src/main.c **** static void MX_USART2_UART_Init(void)
 461:Core/Src/main.c **** {
 462:Core/Src/main.c **** 
 463:Core/Src/main.c ****   /* USER CODE BEGIN USART2_Init 0 */
 464:Core/Src/main.c **** 
 465:Core/Src/main.c ****   /* USER CODE END USART2_Init 0 */
 466:Core/Src/main.c **** 
 467:Core/Src/main.c ****   /* USER CODE BEGIN USART2_Init 1 */
 468:Core/Src/main.c **** 
 469:Core/Src/main.c ****   /* USER CODE END USART2_Init 1 */
 470:Core/Src/main.c ****   huart2.Instance = USART2;
 471:Core/Src/main.c ****   huart2.Init.BaudRate = 115200;
 472:Core/Src/main.c ****   huart2.Init.WordLength = UART_WORDLENGTH_8B;
 473:Core/Src/main.c ****   huart2.Init.StopBits = UART_STOPBITS_1;
 474:Core/Src/main.c ****   huart2.Init.Parity = UART_PARITY_NONE;
 475:Core/Src/main.c ****   huart2.Init.Mode = UART_MODE_TX_RX;
 476:Core/Src/main.c ****   huart2.Init.HwFlowCtl = UART_HWCONTROL_RTS_CTS;
 477:Core/Src/main.c ****   huart2.Init.OverSampling = UART_OVERSAMPLING_16;
 478:Core/Src/main.c ****   huart2.Init.OneBitSampling = UART_ONE_BIT_SAMPLE_DISABLE;
 479:Core/Src/main.c ****   huart2.AdvancedInit.AdvFeatureInit = UART_ADVFEATURE_NO_INIT;
 480:Core/Src/main.c ****   if (HAL_UART_Init(&huart2) != HAL_OK)
 481:Core/Src/main.c ****   {
 482:Core/Src/main.c ****     Error_Handler();
 483:Core/Src/main.c ****   }
 484:Core/Src/main.c ****   /* USER CODE BEGIN USART2_Init 2 */
 485:Core/Src/main.c **** 
 486:Core/Src/main.c ****   /* USER CODE END USART2_Init 2 */
 487:Core/Src/main.c **** 
ARM GAS  /tmp/ccYdMxmM.s 			page 10


 488:Core/Src/main.c **** }
 489:Core/Src/main.c **** 
 490:Core/Src/main.c **** /**
 491:Core/Src/main.c ****   * @brief USART3 Initialization Function
 492:Core/Src/main.c ****   * @param None
 493:Core/Src/main.c ****   * @retval None
 494:Core/Src/main.c ****   */
 495:Core/Src/main.c **** static void MX_USART3_UART_Init(void)
 496:Core/Src/main.c **** {
 497:Core/Src/main.c **** 
 498:Core/Src/main.c ****   /* USER CODE BEGIN USART3_Init 0 */
 499:Core/Src/main.c **** 
 500:Core/Src/main.c ****   /* USER CODE END USART3_Init 0 */
 501:Core/Src/main.c **** 
 502:Core/Src/main.c ****   /* USER CODE BEGIN USART3_Init 1 */
 503:Core/Src/main.c **** 
 504:Core/Src/main.c ****   /* USER CODE END USART3_Init 1 */
 505:Core/Src/main.c ****   huart3.Instance = USART3;
 506:Core/Src/main.c ****   huart3.Init.BaudRate = 115200;
 507:Core/Src/main.c ****   huart3.Init.WordLength = UART_WORDLENGTH_8B;
 508:Core/Src/main.c ****   huart3.Init.StopBits = UART_STOPBITS_1;
 509:Core/Src/main.c ****   huart3.Init.Parity = UART_PARITY_NONE;
 510:Core/Src/main.c ****   huart3.Init.Mode = UART_MODE_TX_RX;
 511:Core/Src/main.c ****   huart3.Init.HwFlowCtl = UART_HWCONTROL_NONE;
 512:Core/Src/main.c ****   huart3.Init.OverSampling = UART_OVERSAMPLING_16;
 513:Core/Src/main.c ****   huart3.Init.OneBitSampling = UART_ONE_BIT_SAMPLE_DISABLE;
 514:Core/Src/main.c ****   huart3.AdvancedInit.AdvFeatureInit = UART_ADVFEATURE_NO_INIT;
 515:Core/Src/main.c ****   if (HAL_UART_Init(&huart3) != HAL_OK)
 516:Core/Src/main.c ****   {
 517:Core/Src/main.c ****     Error_Handler();
 518:Core/Src/main.c ****   }
 519:Core/Src/main.c ****   /* USER CODE BEGIN USART3_Init 2 */
 520:Core/Src/main.c **** 
 521:Core/Src/main.c ****   /* USER CODE END USART3_Init 2 */
 522:Core/Src/main.c **** 
 523:Core/Src/main.c **** }
 524:Core/Src/main.c **** 
 525:Core/Src/main.c **** /**
 526:Core/Src/main.c ****   * @brief RTC Initialization Function
 527:Core/Src/main.c ****   * @param None
 528:Core/Src/main.c ****   * @retval None
 529:Core/Src/main.c ****   */
 530:Core/Src/main.c **** static void MX_RTC_Init(void)
 531:Core/Src/main.c **** {
 532:Core/Src/main.c **** 
 533:Core/Src/main.c ****   /* USER CODE BEGIN RTC_Init 0 */
 534:Core/Src/main.c **** 
 535:Core/Src/main.c ****   /* USER CODE END RTC_Init 0 */
 536:Core/Src/main.c **** 
 537:Core/Src/main.c ****   RTC_TimeTypeDef sTime = {0};
 538:Core/Src/main.c ****   RTC_DateTypeDef sDate = {0};
 539:Core/Src/main.c **** 
 540:Core/Src/main.c ****   /* USER CODE BEGIN RTC_Init 1 */
 541:Core/Src/main.c **** 
 542:Core/Src/main.c ****   /* USER CODE END RTC_Init 1 */
 543:Core/Src/main.c **** 
 544:Core/Src/main.c ****   /** Initialize RTC Only
ARM GAS  /tmp/ccYdMxmM.s 			page 11


 545:Core/Src/main.c ****   */
 546:Core/Src/main.c ****   hrtc.Instance = RTC;
 547:Core/Src/main.c ****   hrtc.Init.HourFormat = RTC_HOURFORMAT_24;
 548:Core/Src/main.c ****   hrtc.Init.AsynchPrediv = 127;
 549:Core/Src/main.c ****   hrtc.Init.SynchPrediv = 255;
 550:Core/Src/main.c ****   hrtc.Init.OutPut = RTC_OUTPUT_DISABLE;
 551:Core/Src/main.c ****   hrtc.Init.OutPutRemap = RTC_OUTPUT_REMAP_NONE;
 552:Core/Src/main.c ****   hrtc.Init.OutPutPolarity = RTC_OUTPUT_POLARITY_HIGH;
 553:Core/Src/main.c ****   hrtc.Init.OutPutType = RTC_OUTPUT_TYPE_OPENDRAIN;
 554:Core/Src/main.c ****   if (HAL_RTC_Init(&hrtc) != HAL_OK)
 555:Core/Src/main.c ****   {
 556:Core/Src/main.c ****     Error_Handler();
 557:Core/Src/main.c ****   }
 558:Core/Src/main.c **** 
 559:Core/Src/main.c ****   /* USER CODE BEGIN Check_RTC_BKUP */
 560:Core/Src/main.c **** 
 561:Core/Src/main.c ****   /* USER CODE END Check_RTC_BKUP */
 562:Core/Src/main.c **** 
 563:Core/Src/main.c ****   /** Initialize RTC and set the Time and Date
 564:Core/Src/main.c ****   */
 565:Core/Src/main.c ****   sTime.Hours = 0x0;
 566:Core/Src/main.c ****   sTime.Minutes = 0x0;
 567:Core/Src/main.c ****   sTime.Seconds = 0x0;
 568:Core/Src/main.c ****   sTime.DayLightSaving = RTC_DAYLIGHTSAVING_NONE;
 569:Core/Src/main.c ****   sTime.StoreOperation = RTC_STOREOPERATION_RESET;
 570:Core/Src/main.c ****   if (HAL_RTC_SetTime(&hrtc, &sTime, RTC_FORMAT_BCD) != HAL_OK)
 571:Core/Src/main.c ****   {
 572:Core/Src/main.c ****     Error_Handler();
 573:Core/Src/main.c ****   }
 574:Core/Src/main.c ****   sDate.WeekDay = RTC_WEEKDAY_MONDAY;
 575:Core/Src/main.c ****   sDate.Month = RTC_MONTH_JANUARY;
 576:Core/Src/main.c ****   sDate.Date = 0x1;
 577:Core/Src/main.c ****   sDate.Year = 0x0;
 578:Core/Src/main.c **** 
 579:Core/Src/main.c ****   if (HAL_RTC_SetDate(&hrtc, &sDate, RTC_FORMAT_BCD) != HAL_OK)
 580:Core/Src/main.c ****   {
 581:Core/Src/main.c ****     Error_Handler();
 582:Core/Src/main.c ****   }
 583:Core/Src/main.c ****   /* USER CODE BEGIN RTC_Init 2 */
 584:Core/Src/main.c **** 
 585:Core/Src/main.c ****   /* USER CODE END RTC_Init 2 */
 586:Core/Src/main.c **** 
 587:Core/Src/main.c **** }
 588:Core/Src/main.c **** 
 589:Core/Src/main.c **** /**
 590:Core/Src/main.c ****   * @brief SDMMC1 Initialization Function
 591:Core/Src/main.c ****   * @param None
 592:Core/Src/main.c ****   * @retval None
 593:Core/Src/main.c ****   */
 594:Core/Src/main.c **** static void MX_SDMMC1_SD_Init(void)
 595:Core/Src/main.c **** {
 596:Core/Src/main.c **** 
 597:Core/Src/main.c ****   /* USER CODE BEGIN SDMMC1_Init 0 */
 598:Core/Src/main.c **** 
 599:Core/Src/main.c ****   /* USER CODE END SDMMC1_Init 0 */
 600:Core/Src/main.c **** 
 601:Core/Src/main.c ****   /* USER CODE BEGIN SDMMC1_Init 1 */
ARM GAS  /tmp/ccYdMxmM.s 			page 12


 602:Core/Src/main.c **** 
 603:Core/Src/main.c ****   /* USER CODE END SDMMC1_Init 1 */
 604:Core/Src/main.c ****   hsd1.Instance = SDMMC1;
 605:Core/Src/main.c ****   hsd1.Init.ClockEdge = SDMMC_CLOCK_EDGE_RISING;
 606:Core/Src/main.c ****   hsd1.Init.ClockBypass = SDMMC_CLOCK_BYPASS_DISABLE;
 607:Core/Src/main.c ****   hsd1.Init.ClockPowerSave = SDMMC_CLOCK_POWER_SAVE_DISABLE;
 608:Core/Src/main.c ****   hsd1.Init.BusWide = SDMMC_BUS_WIDE_4B;
 609:Core/Src/main.c ****   hsd1.Init.HardwareFlowControl = SDMMC_HARDWARE_FLOW_CONTROL_ENABLE;
 610:Core/Src/main.c ****   hsd1.Init.ClockDiv = 0;
 611:Core/Src/main.c ****   /* USER CODE BEGIN SDMMC1_Init 2 */
 612:Core/Src/main.c **** 
 613:Core/Src/main.c ****   // First init with 1B bust, SD card not initifalising with 4 bits
 614:Core/Src/main.c ****   hsd1.Init.BusWide = SDMMC_BUS_WIDE_1B;
 615:Core/Src/main.c ****   if (HAL_SD_Init(&hsd1) != HAL_OK) {
 616:Core/Src/main.c ****      Error_Handler();
 617:Core/Src/main.c ****   }
 618:Core/Src/main.c ****   
 619:Core/Src/main.c ****   // Now switch to 4 bit mode
 620:Core/Src/main.c ****  if (HAL_SD_ConfigWideBusOperation(&hsd1, SDMMC_BUS_WIDE_4B) != HAL_OK) {
 621:Core/Src/main.c ****     Error_Handler();
 622:Core/Src/main.c ****  }
 623:Core/Src/main.c **** 
 624:Core/Src/main.c ****   UART_SendString(&huart3, "SD CARD INIT\r\n");
 625:Core/Src/main.c ****   
 626:Core/Src/main.c **** 
 627:Core/Src/main.c **** 
 628:Core/Src/main.c ****   /* USER CODE END SDMMC1_Init 2 */
 629:Core/Src/main.c **** 
 630:Core/Src/main.c **** }
 631:Core/Src/main.c **** 
 632:Core/Src/main.c **** /**
 633:Core/Src/main.c ****   * @brief SPI1 Initialization Function
 634:Core/Src/main.c ****   * @param None
 635:Core/Src/main.c ****   * @retval None
 636:Core/Src/main.c ****   */
 637:Core/Src/main.c **** static void MX_SPI1_Init(void)
 638:Core/Src/main.c **** {
 639:Core/Src/main.c **** 
 640:Core/Src/main.c ****   /* USER CODE BEGIN SPI1_Init 0 */
 641:Core/Src/main.c **** 
 642:Core/Src/main.c ****   /* USER CODE END SPI1_Init 0 */
 643:Core/Src/main.c **** 
 644:Core/Src/main.c ****   /* USER CODE BEGIN SPI1_Init 1 */
 645:Core/Src/main.c **** 
 646:Core/Src/main.c ****   /* USER CODE END SPI1_Init 1 */
 647:Core/Src/main.c ****   /* SPI1 parameter configuration*/
 648:Core/Src/main.c ****   hspi1.Instance = SPI1;
 649:Core/Src/main.c ****   hspi1.Init.Mode = SPI_MODE_MASTER;
 650:Core/Src/main.c ****   hspi1.Init.Direction = SPI_DIRECTION_2LINES;
 651:Core/Src/main.c ****   hspi1.Init.DataSize = SPI_DATASIZE_4BIT;
 652:Core/Src/main.c ****   hspi1.Init.CLKPolarity = SPI_POLARITY_LOW;
 653:Core/Src/main.c ****   hspi1.Init.CLKPhase = SPI_PHASE_1EDGE;
 654:Core/Src/main.c ****   hspi1.Init.NSS = SPI_NSS_SOFT;
 655:Core/Src/main.c ****   hspi1.Init.BaudRatePrescaler = SPI_BAUDRATEPRESCALER_2;
 656:Core/Src/main.c ****   hspi1.Init.FirstBit = SPI_FIRSTBIT_MSB;
 657:Core/Src/main.c ****   hspi1.Init.TIMode = SPI_TIMODE_DISABLE;
 658:Core/Src/main.c ****   hspi1.Init.CRCCalculation = SPI_CRCCALCULATION_DISABLE;
ARM GAS  /tmp/ccYdMxmM.s 			page 13


 659:Core/Src/main.c ****   hspi1.Init.CRCPolynomial = 7;
 660:Core/Src/main.c ****   hspi1.Init.CRCLength = SPI_CRC_LENGTH_DATASIZE;
 661:Core/Src/main.c ****   hspi1.Init.NSSPMode = SPI_NSS_PULSE_ENABLE;
 662:Core/Src/main.c ****   if (HAL_SPI_Init(&hspi1) != HAL_OK)
 663:Core/Src/main.c ****   {
 664:Core/Src/main.c ****     Error_Handler();
 665:Core/Src/main.c ****   }
 666:Core/Src/main.c ****   /* USER CODE BEGIN SPI1_Init 2 */
 667:Core/Src/main.c **** 
 668:Core/Src/main.c ****   /* USER CODE END SPI1_Init 2 */
 669:Core/Src/main.c **** 
 670:Core/Src/main.c **** }
 671:Core/Src/main.c **** 
 672:Core/Src/main.c **** /**
 673:Core/Src/main.c ****   * Enable DMA controller clock
 674:Core/Src/main.c ****   */
 675:Core/Src/main.c **** static void MX_DMA_Init(void)
 676:Core/Src/main.c **** {
 677:Core/Src/main.c **** 
 678:Core/Src/main.c ****   /* DMA controller clock enable */
 679:Core/Src/main.c ****   __HAL_RCC_DMA1_CLK_ENABLE();
 680:Core/Src/main.c **** 
 681:Core/Src/main.c ****   /* DMA interrupt init */
 682:Core/Src/main.c ****   /* DMA1_Channel5_IRQn interrupt configuration */
 683:Core/Src/main.c ****   HAL_NVIC_SetPriority(DMA1_Channel5_IRQn, 14, 0);
 684:Core/Src/main.c ****   HAL_NVIC_EnableIRQ(DMA1_Channel5_IRQn);
 685:Core/Src/main.c **** 
 686:Core/Src/main.c **** }
 687:Core/Src/main.c **** 
 688:Core/Src/main.c **** /**
 689:Core/Src/main.c ****   * @brief GPIO Initialization Function
 690:Core/Src/main.c ****   * @param None
 691:Core/Src/main.c ****   * @retval None
 692:Core/Src/main.c ****   */
 693:Core/Src/main.c **** static void MX_GPIO_Init(void)
 694:Core/Src/main.c **** {
  28              		.loc 1 694 1 view -0
  29              		.cfi_startproc
  30              		@ args = 0, pretend = 0, frame = 40
  31              		@ frame_needed = 0, uses_anonymous_args = 0
  32 0000 2DE9F041 		push	{r4, r5, r6, r7, r8, lr}
  33              		.cfi_def_cfa_offset 24
  34              		.cfi_offset 4, -24
  35              		.cfi_offset 5, -20
  36              		.cfi_offset 6, -16
  37              		.cfi_offset 7, -12
  38              		.cfi_offset 8, -8
  39              		.cfi_offset 14, -4
  40 0004 8AB0     		sub	sp, sp, #40
  41              		.cfi_def_cfa_offset 64
 695:Core/Src/main.c ****   GPIO_InitTypeDef GPIO_InitStruct = {0};
  42              		.loc 1 695 3 view .LVU1
  43              		.loc 1 695 20 is_stmt 0 view .LVU2
  44 0006 05AD     		add	r5, sp, #20
  45 0008 0024     		movs	r4, #0
  46 000a 0594     		str	r4, [sp, #20]
  47 000c 0694     		str	r4, [sp, #24]
ARM GAS  /tmp/ccYdMxmM.s 			page 14


  48 000e 0794     		str	r4, [sp, #28]
  49 0010 0894     		str	r4, [sp, #32]
  50 0012 0994     		str	r4, [sp, #36]
 696:Core/Src/main.c ****   /* USER CODE BEGIN MX_GPIO_Init_1 */
 697:Core/Src/main.c **** 
 698:Core/Src/main.c ****   /* USER CODE END MX_GPIO_Init_1 */
 699:Core/Src/main.c **** 
 700:Core/Src/main.c ****   /* GPIO Ports Clock Enable */
 701:Core/Src/main.c ****   __HAL_RCC_GPIOC_CLK_ENABLE();
  51              		.loc 1 701 3 is_stmt 1 view .LVU3
  52              	.LBB4:
  53              		.loc 1 701 3 view .LVU4
  54              		.loc 1 701 3 view .LVU5
  55 0014 3B4B     		ldr	r3, .L3
  56 0016 DA6C     		ldr	r2, [r3, #76]
  57 0018 42F00402 		orr	r2, r2, #4
  58 001c DA64     		str	r2, [r3, #76]
  59              		.loc 1 701 3 view .LVU6
  60 001e DA6C     		ldr	r2, [r3, #76]
  61 0020 02F00402 		and	r2, r2, #4
  62 0024 0192     		str	r2, [sp, #4]
  63              		.loc 1 701 3 view .LVU7
  64 0026 019A     		ldr	r2, [sp, #4]
  65              	.LBE4:
  66              		.loc 1 701 3 view .LVU8
 702:Core/Src/main.c ****   __HAL_RCC_GPIOA_CLK_ENABLE();
  67              		.loc 1 702 3 view .LVU9
  68              	.LBB5:
  69              		.loc 1 702 3 view .LVU10
  70              		.loc 1 702 3 view .LVU11
  71 0028 DA6C     		ldr	r2, [r3, #76]
  72 002a 42F00102 		orr	r2, r2, #1
  73 002e DA64     		str	r2, [r3, #76]
  74              		.loc 1 702 3 view .LVU12
  75 0030 DA6C     		ldr	r2, [r3, #76]
  76 0032 02F00102 		and	r2, r2, #1
  77 0036 0292     		str	r2, [sp, #8]
  78              		.loc 1 702 3 view .LVU13
  79 0038 029A     		ldr	r2, [sp, #8]
  80              	.LBE5:
  81              		.loc 1 702 3 view .LVU14
 703:Core/Src/main.c ****   __HAL_RCC_GPIOB_CLK_ENABLE();
  82              		.loc 1 703 3 view .LVU15
  83              	.LBB6:
  84              		.loc 1 703 3 view .LVU16
  85              		.loc 1 703 3 view .LVU17
  86 003a DA6C     		ldr	r2, [r3, #76]
  87 003c 42F00202 		orr	r2, r2, #2
  88 0040 DA64     		str	r2, [r3, #76]
  89              		.loc 1 703 3 view .LVU18
  90 0042 DA6C     		ldr	r2, [r3, #76]
  91 0044 02F00202 		and	r2, r2, #2
  92 0048 0392     		str	r2, [sp, #12]
  93              		.loc 1 703 3 view .LVU19
  94 004a 039A     		ldr	r2, [sp, #12]
  95              	.LBE6:
  96              		.loc 1 703 3 view .LVU20
ARM GAS  /tmp/ccYdMxmM.s 			page 15


 704:Core/Src/main.c ****   __HAL_RCC_GPIOD_CLK_ENABLE();
  97              		.loc 1 704 3 view .LVU21
  98              	.LBB7:
  99              		.loc 1 704 3 view .LVU22
 100              		.loc 1 704 3 view .LVU23
 101 004c DA6C     		ldr	r2, [r3, #76]
 102 004e 42F00802 		orr	r2, r2, #8
 103 0052 DA64     		str	r2, [r3, #76]
 104              		.loc 1 704 3 view .LVU24
 105 0054 DB6C     		ldr	r3, [r3, #76]
 106 0056 03F00803 		and	r3, r3, #8
 107 005a 0493     		str	r3, [sp, #16]
 108              		.loc 1 704 3 view .LVU25
 109 005c 049B     		ldr	r3, [sp, #16]
 110              	.LBE7:
 111              		.loc 1 704 3 view .LVU26
 705:Core/Src/main.c **** 
 706:Core/Src/main.c ****   /*Configure GPIO pin Output Level */
 707:Core/Src/main.c ****   HAL_GPIO_WritePin(GPIOC, Wi_EN_Pin|Wi_RST_Pin|Wi_WAKE_Pin|Wi_GPIO_0_Pin, GPIO_PIN_RESET);
 112              		.loc 1 707 3 view .LVU27
 113 005e DFF8AC80 		ldr	r8, .L3+8
 114 0062 2246     		mov	r2, r4
 115 0064 CC21     		movs	r1, #204
 116 0066 4046     		mov	r0, r8
 117 0068 FFF7FEFF 		bl	HAL_GPIO_WritePin
 118              	.LVL0:
 708:Core/Src/main.c **** 
 709:Core/Src/main.c ****   /*Configure GPIO pin Output Level */
 710:Core/Src/main.c ****   HAL_GPIO_WritePin(GPIOB, Wi_PWR_CTRL_Pin|Lo_PWR_CTRL_Pin|SD0_PWR_CTRL_Pin|Lo_GPIO_0_Pin
 119              		.loc 1 710 3 view .LVU28
 120 006c 264E     		ldr	r6, .L3+4
 121 006e 2246     		mov	r2, r4
 122 0070 41F60741 		movw	r1, #7175
 123 0074 3046     		mov	r0, r6
 124 0076 FFF7FEFF 		bl	HAL_GPIO_WritePin
 125              	.LVL1:
 711:Core/Src/main.c ****                           |Lo_GPIO_1_Pin|Lo_GPIO_2_Pin, GPIO_PIN_RESET);
 712:Core/Src/main.c **** 
 713:Core/Src/main.c ****   /*Configure GPIO pins : Wi_EN_Pin Wi_RST_Pin Wi_WAKE_Pin Wi_GPIO_0_Pin */
 714:Core/Src/main.c ****   GPIO_InitStruct.Pin = Wi_EN_Pin|Wi_RST_Pin|Wi_WAKE_Pin|Wi_GPIO_0_Pin;
 126              		.loc 1 714 3 view .LVU29
 127              		.loc 1 714 23 is_stmt 0 view .LVU30
 128 007a CC23     		movs	r3, #204
 129 007c 0593     		str	r3, [sp, #20]
 715:Core/Src/main.c ****   GPIO_InitStruct.Mode = GPIO_MODE_OUTPUT_PP;
 130              		.loc 1 715 3 is_stmt 1 view .LVU31
 131              		.loc 1 715 24 is_stmt 0 view .LVU32
 132 007e 0127     		movs	r7, #1
 133 0080 0697     		str	r7, [sp, #24]
 716:Core/Src/main.c ****   GPIO_InitStruct.Pull = GPIO_NOPULL;
 134              		.loc 1 716 3 is_stmt 1 view .LVU33
 135              		.loc 1 716 24 is_stmt 0 view .LVU34
 136 0082 0794     		str	r4, [sp, #28]
 717:Core/Src/main.c ****   GPIO_InitStruct.Speed = GPIO_SPEED_FREQ_LOW;
 137              		.loc 1 717 3 is_stmt 1 view .LVU35
 138              		.loc 1 717 25 is_stmt 0 view .LVU36
 139 0084 0894     		str	r4, [sp, #32]
ARM GAS  /tmp/ccYdMxmM.s 			page 16


 718:Core/Src/main.c ****   HAL_GPIO_Init(GPIOC, &GPIO_InitStruct);
 140              		.loc 1 718 3 is_stmt 1 view .LVU37
 141 0086 2946     		mov	r1, r5
 142 0088 4046     		mov	r0, r8
 143 008a FFF7FEFF 		bl	HAL_GPIO_Init
 144              	.LVL2:
 719:Core/Src/main.c **** 
 720:Core/Src/main.c ****   /*Configure GPIO pin : SD_GPIO_INPUT_Pin */
 721:Core/Src/main.c ****   GPIO_InitStruct.Pin = SD_GPIO_INPUT_Pin;
 145              		.loc 1 721 3 view .LVU38
 146              		.loc 1 721 23 is_stmt 0 view .LVU39
 147 008e 1023     		movs	r3, #16
 148 0090 0593     		str	r3, [sp, #20]
 722:Core/Src/main.c ****   GPIO_InitStruct.Mode = GPIO_MODE_INPUT;
 149              		.loc 1 722 3 is_stmt 1 view .LVU40
 150              		.loc 1 722 24 is_stmt 0 view .LVU41
 151 0092 0694     		str	r4, [sp, #24]
 723:Core/Src/main.c ****   GPIO_InitStruct.Pull = GPIO_PULLDOWN;
 152              		.loc 1 723 3 is_stmt 1 view .LVU42
 153              		.loc 1 723 24 is_stmt 0 view .LVU43
 154 0094 0223     		movs	r3, #2
 155 0096 0793     		str	r3, [sp, #28]
 724:Core/Src/main.c ****   HAL_GPIO_Init(SD_GPIO_INPUT_GPIO_Port, &GPIO_InitStruct);
 156              		.loc 1 724 3 is_stmt 1 view .LVU44
 157 0098 2946     		mov	r1, r5
 158 009a 4FF09040 		mov	r0, #1207959552
 159 009e FFF7FEFF 		bl	HAL_GPIO_Init
 160              	.LVL3:
 725:Core/Src/main.c **** 
 726:Core/Src/main.c ****   /*Configure GPIO pins : Wi_PWR_CTRL_Pin Lo_PWR_CTRL_Pin SD0_PWR_CTRL_Pin Lo_GPIO_0_Pin
 727:Core/Src/main.c ****                            Lo_GPIO_1_Pin Lo_GPIO_2_Pin */
 728:Core/Src/main.c ****   GPIO_InitStruct.Pin = Wi_PWR_CTRL_Pin|Lo_PWR_CTRL_Pin|SD0_PWR_CTRL_Pin|Lo_GPIO_0_Pin
 161              		.loc 1 728 3 view .LVU45
 162              		.loc 1 728 23 is_stmt 0 view .LVU46
 163 00a2 41F60743 		movw	r3, #7175
 164 00a6 0593     		str	r3, [sp, #20]
 729:Core/Src/main.c ****                           |Lo_GPIO_1_Pin|Lo_GPIO_2_Pin;
 730:Core/Src/main.c ****   GPIO_InitStruct.Mode = GPIO_MODE_OUTPUT_PP;
 165              		.loc 1 730 3 is_stmt 1 view .LVU47
 166              		.loc 1 730 24 is_stmt 0 view .LVU48
 167 00a8 0697     		str	r7, [sp, #24]
 731:Core/Src/main.c ****   GPIO_InitStruct.Pull = GPIO_NOPULL;
 168              		.loc 1 731 3 is_stmt 1 view .LVU49
 169              		.loc 1 731 24 is_stmt 0 view .LVU50
 170 00aa 0794     		str	r4, [sp, #28]
 732:Core/Src/main.c ****   GPIO_InitStruct.Speed = GPIO_SPEED_FREQ_LOW;
 171              		.loc 1 732 3 is_stmt 1 view .LVU51
 172              		.loc 1 732 25 is_stmt 0 view .LVU52
 173 00ac 0894     		str	r4, [sp, #32]
 733:Core/Src/main.c ****   HAL_GPIO_Init(GPIOB, &GPIO_InitStruct);
 174              		.loc 1 733 3 is_stmt 1 view .LVU53
 175 00ae 2946     		mov	r1, r5
 176 00b0 3046     		mov	r0, r6
 177 00b2 FFF7FEFF 		bl	HAL_GPIO_Init
 178              	.LVL4:
 734:Core/Src/main.c **** 
 735:Core/Src/main.c ****   /*Configure GPIO pin : D_WAKE_Pin */
ARM GAS  /tmp/ccYdMxmM.s 			page 17


 736:Core/Src/main.c ****   GPIO_InitStruct.Pin = D_WAKE_Pin;
 179              		.loc 1 736 3 view .LVU54
 180              		.loc 1 736 23 is_stmt 0 view .LVU55
 181 00b6 4FF40063 		mov	r3, #2048
 182 00ba 0593     		str	r3, [sp, #20]
 737:Core/Src/main.c ****   GPIO_InitStruct.Mode = GPIO_MODE_IT_RISING;
 183              		.loc 1 737 3 is_stmt 1 view .LVU56
 184              		.loc 1 737 24 is_stmt 0 view .LVU57
 185 00bc 4FF48813 		mov	r3, #1114112
 186 00c0 0693     		str	r3, [sp, #24]
 738:Core/Src/main.c ****   GPIO_InitStruct.Pull = GPIO_NOPULL;
 187              		.loc 1 738 3 is_stmt 1 view .LVU58
 188              		.loc 1 738 24 is_stmt 0 view .LVU59
 189 00c2 0794     		str	r4, [sp, #28]
 739:Core/Src/main.c ****   HAL_GPIO_Init(D_WAKE_GPIO_Port, &GPIO_InitStruct);
 190              		.loc 1 739 3 is_stmt 1 view .LVU60
 191 00c4 2946     		mov	r1, r5
 192 00c6 4FF09040 		mov	r0, #1207959552
 193 00ca FFF7FEFF 		bl	HAL_GPIO_Init
 194              	.LVL5:
 740:Core/Src/main.c **** 
 741:Core/Src/main.c ****   /*Configure GPIO pin : D_GPIO0_Pin */
 742:Core/Src/main.c ****   GPIO_InitStruct.Pin = D_GPIO0_Pin;
 195              		.loc 1 742 3 view .LVU61
 196              		.loc 1 742 23 is_stmt 0 view .LVU62
 197 00ce 4FF48053 		mov	r3, #4096
 198 00d2 0593     		str	r3, [sp, #20]
 743:Core/Src/main.c ****   GPIO_InitStruct.Mode = GPIO_MODE_INPUT;
 199              		.loc 1 743 3 is_stmt 1 view .LVU63
 200              		.loc 1 743 24 is_stmt 0 view .LVU64
 201 00d4 0694     		str	r4, [sp, #24]
 744:Core/Src/main.c ****   GPIO_InitStruct.Pull = GPIO_NOPULL;
 202              		.loc 1 744 3 is_stmt 1 view .LVU65
 203              		.loc 1 744 24 is_stmt 0 view .LVU66
 204 00d6 0794     		str	r4, [sp, #28]
 745:Core/Src/main.c ****   HAL_GPIO_Init(D_GPIO0_GPIO_Port, &GPIO_InitStruct);
 205              		.loc 1 745 3 is_stmt 1 view .LVU67
 206 00d8 2946     		mov	r1, r5
 207 00da 4FF09040 		mov	r0, #1207959552
 208 00de FFF7FEFF 		bl	HAL_GPIO_Init
 209              	.LVL6:
 746:Core/Src/main.c **** 
 747:Core/Src/main.c ****   /* EXTI interrupt init*/
 748:Core/Src/main.c ****   HAL_NVIC_SetPriority(EXTI15_10_IRQn, 14, 0);
 210              		.loc 1 748 3 view .LVU68
 211 00e2 2246     		mov	r2, r4
 212 00e4 0E21     		movs	r1, #14
 213 00e6 2820     		movs	r0, #40
 214 00e8 FFF7FEFF 		bl	HAL_NVIC_SetPriority
 215              	.LVL7:
 749:Core/Src/main.c ****   HAL_NVIC_EnableIRQ(EXTI15_10_IRQn);
 216              		.loc 1 749 3 view .LVU69
 217 00ec 2820     		movs	r0, #40
 218 00ee FFF7FEFF 		bl	HAL_NVIC_EnableIRQ
 219              	.LVL8:
 750:Core/Src/main.c **** 
 751:Core/Src/main.c ****   /* USER CODE BEGIN MX_GPIO_Init_2 */
ARM GAS  /tmp/ccYdMxmM.s 			page 18


 752:Core/Src/main.c ****   // SET SD CARD HIGH FOR TESTING : TODO REMOVE
 753:Core/Src/main.c ****   HAL_GPIO_WritePin(SD0_PWR_CTRL_GPIO_Port, SD0_PWR_CTRL_Pin, GPIO_PIN_SET);
 220              		.loc 1 753 3 view .LVU70
 221 00f2 3A46     		mov	r2, r7
 222 00f4 0421     		movs	r1, #4
 223 00f6 3046     		mov	r0, r6
 224 00f8 FFF7FEFF 		bl	HAL_GPIO_WritePin
 225              	.LVL9:
 754:Core/Src/main.c ****   /* USER CODE END MX_GPIO_Init_2 */
 755:Core/Src/main.c **** }
 226              		.loc 1 755 1 is_stmt 0 view .LVU71
 227 00fc 0AB0     		add	sp, sp, #40
 228              		.cfi_def_cfa_offset 24
 229              		@ sp needed
 230 00fe BDE8F081 		pop	{r4, r5, r6, r7, r8, pc}
 231              	.L4:
 232 0102 00BF     		.align	2
 233              	.L3:
 234 0104 00100240 		.word	1073876992
 235 0108 00040048 		.word	1207960576
 236 010c 00080048 		.word	1207961600
 237              		.cfi_endproc
 238              	.LFE243:
 240              		.section	.text.MX_DMA_Init,"ax",%progbits
 241              		.align	1
 242              		.syntax unified
 243              		.thumb
 244              		.thumb_func
 246              	MX_DMA_Init:
 247              	.LFB242:
 676:Core/Src/main.c **** 
 248              		.loc 1 676 1 is_stmt 1 view -0
 249              		.cfi_startproc
 250              		@ args = 0, pretend = 0, frame = 8
 251              		@ frame_needed = 0, uses_anonymous_args = 0
 252 0000 00B5     		push	{lr}
 253              		.cfi_def_cfa_offset 4
 254              		.cfi_offset 14, -4
 255 0002 83B0     		sub	sp, sp, #12
 256              		.cfi_def_cfa_offset 16
 679:Core/Src/main.c **** 
 257              		.loc 1 679 3 view .LVU73
 258              	.LBB8:
 679:Core/Src/main.c **** 
 259              		.loc 1 679 3 view .LVU74
 679:Core/Src/main.c **** 
 260              		.loc 1 679 3 view .LVU75
 261 0004 094B     		ldr	r3, .L7
 262 0006 9A6C     		ldr	r2, [r3, #72]
 263 0008 42F00102 		orr	r2, r2, #1
 264 000c 9A64     		str	r2, [r3, #72]
 679:Core/Src/main.c **** 
 265              		.loc 1 679 3 view .LVU76
 266 000e 9B6C     		ldr	r3, [r3, #72]
 267 0010 03F00103 		and	r3, r3, #1
 268 0014 0193     		str	r3, [sp, #4]
 679:Core/Src/main.c **** 
ARM GAS  /tmp/ccYdMxmM.s 			page 19


 269              		.loc 1 679 3 view .LVU77
 270 0016 019B     		ldr	r3, [sp, #4]
 271              	.LBE8:
 679:Core/Src/main.c **** 
 272              		.loc 1 679 3 view .LVU78
 683:Core/Src/main.c ****   HAL_NVIC_EnableIRQ(DMA1_Channel5_IRQn);
 273              		.loc 1 683 3 view .LVU79
 274 0018 0022     		movs	r2, #0
 275 001a 0E21     		movs	r1, #14
 276 001c 0F20     		movs	r0, #15
 277 001e FFF7FEFF 		bl	HAL_NVIC_SetPriority
 278              	.LVL10:
 684:Core/Src/main.c **** 
 279              		.loc 1 684 3 view .LVU80
 280 0022 0F20     		movs	r0, #15
 281 0024 FFF7FEFF 		bl	HAL_NVIC_EnableIRQ
 282              	.LVL11:
 686:Core/Src/main.c **** 
 283              		.loc 1 686 1 is_stmt 0 view .LVU81
 284 0028 03B0     		add	sp, sp, #12
 285              		.cfi_def_cfa_offset 4
 286              		@ sp needed
 287 002a 00BD     		pop	{pc}
 288              	.L8:
 289              		.align	2
 290              	.L7:
 291 002c 00100240 		.word	1073876992
 292              		.cfi_endproc
 293              	.LFE242:
 295              		.section	.text.UART_SendString,"ax",%progbits
 296              		.align	1
 297              		.syntax unified
 298              		.thumb
 299              		.thumb_func
 301              	UART_SendString:
 302              	.LVL12:
 303              	.LFB244:
 756:Core/Src/main.c **** 
 757:Core/Src/main.c **** /* USER CODE BEGIN 4 */
 758:Core/Src/main.c **** /**
 759:Core/Src/main.c ****  * @brief Sends a string over the specified UART peripheral.
 760:Core/Src/main.c ****  * @param huart: Pointer to the UART handle (e.g., &huart3)
 761:Core/Src/main.c ****  * @param str: The string to be sent
 762:Core/Src/main.c ****  */
 763:Core/Src/main.c **** static void UART_SendString(UART_HandleTypeDef *huart, char *str) {
 304              		.loc 1 763 67 is_stmt 1 view -0
 305              		.cfi_startproc
 306              		@ args = 0, pretend = 0, frame = 0
 307              		@ frame_needed = 0, uses_anonymous_args = 0
 308              		.loc 1 763 67 is_stmt 0 view .LVU83
 309 0000 38B5     		push	{r3, r4, r5, lr}
 310              		.cfi_def_cfa_offset 16
 311              		.cfi_offset 3, -16
 312              		.cfi_offset 4, -12
 313              		.cfi_offset 5, -8
 314              		.cfi_offset 14, -4
 315 0002 0546     		mov	r5, r0
ARM GAS  /tmp/ccYdMxmM.s 			page 20


 316 0004 0C46     		mov	r4, r1
 764:Core/Src/main.c ****     HAL_UART_Transmit(huart, (uint8_t*)str, strlen(str), HAL_MAX_DELAY);
 317              		.loc 1 764 5 is_stmt 1 view .LVU84
 318              		.loc 1 764 45 is_stmt 0 view .LVU85
 319 0006 0846     		mov	r0, r1
 320              	.LVL13:
 321              		.loc 1 764 45 view .LVU86
 322 0008 FFF7FEFF 		bl	strlen
 323              	.LVL14:
 324              		.loc 1 764 5 discriminator 1 view .LVU87
 325 000c 4FF0FF33 		mov	r3, #-1
 326 0010 82B2     		uxth	r2, r0
 327 0012 2146     		mov	r1, r4
 328 0014 2846     		mov	r0, r5
 329 0016 FFF7FEFF 		bl	HAL_UART_Transmit
 330              	.LVL15:
 765:Core/Src/main.c **** }
 331              		.loc 1 765 1 view .LVU88
 332 001a 38BD     		pop	{r3, r4, r5, pc}
 333              		.loc 1 765 1 view .LVU89
 334              		.cfi_endproc
 335              	.LFE244:
 337              		.section	.rodata.SD_RawWriteTest.str1.4,"aMS",%progbits,1
 338              		.align	2
 339              	.LC0:
 340 0000 48414C5F 		.ascii	"HAL_OK\000"
 340      4F4B00
 341 0007 00       		.align	2
 342              	.LC1:
 343 0008 4641494C 		.ascii	"FAILED\000"
 343      454400
 344 000f 00       		.align	2
 345              	.LC2:
 346 0010 50415353 		.ascii	"PASS\000"
 346      00
 347 0015 000000   		.align	2
 348              	.LC3:
 349 0018 4641494C 		.ascii	"FAIL\000"
 349      00
 350 001d 000000   		.align	2
 351              	.LC4:
 352 0020 0D0A2D2D 		.ascii	"\015\012--- RAW HAL SD TEST ---\015\012\000"
 352      2D205241 
 352      57204841 
 352      4C205344 
 352      20544553 
 353              		.align	2
 354              	.LC5:
 355 003c 57726974 		.ascii	"WriteBlocks: %s (%d)\015\012\000"
 355      65426C6F 
 355      636B733A 
 355      20257320 
 355      28256429 
 356 0053 00       		.align	2
 357              	.LC6:
 358 0054 43617264 		.ascii	"Card state after write: %d\015\012\000"
 358      20737461 
ARM GAS  /tmp/ccYdMxmM.s 			page 21


 358      74652061 
 358      66746572 
 358      20777269 
 359 0071 000000   		.align	2
 360              	.LC7:
 361 0074 53442045 		.ascii	"SD ErrorCode: 0x%08lX\015\012\000"
 361      72726F72 
 361      436F6465 
 361      3A203078 
 361      2530386C 
 362              		.align	2
 363              	.LC8:
 364 008c 54696D65 		.ascii	"Timeout waiting for card after write!\015\012\000"
 364      6F757420 
 364      77616974 
 364      696E6720 
 364      666F7220 
 365              		.align	2
 366              	.LC9:
 367 00b4 43617264 		.ascii	"Card ready after write.\015\012\000"
 367      20726561 
 367      64792061 
 367      66746572 
 367      20777269 
 368 00ce 0000     		.align	2
 369              	.LC10:
 370 00d0 52656164 		.ascii	"ReadBlocks:  %s (%d)\015\012\000"
 370      426C6F63 
 370      6B733A20 
 370      20257320 
 370      28256429 
 371 00e7 00       		.align	2
 372              	.LC11:
 373 00e8 54696D65 		.ascii	"Timeout waiting for card after read!\015\012\000"
 373      6F757420 
 373      77616974 
 373      696E6720 
 373      666F7220 
 374 010f 00       		.align	2
 375              	.LC12:
 376 0110 56657269 		.ascii	"Verify: %s (%d mismatches)\015\012\000"
 376      66793A20 
 376      25732028 
 376      2564206D 
 376      69736D61 
 377 012d 000000   		.align	2
 378              	.LC13:
 379 0130 2D2D2D20 		.ascii	"--- END RAW TEST ---\015\012\015\012\000"
 379      454E4420 
 379      52415720 
 379      54455354 
 379      202D2D2D 
 380              		.section	.text.SD_RawWriteTest,"ax",%progbits
 381              		.align	1
 382              		.syntax unified
 383              		.thumb
 384              		.thumb_func
ARM GAS  /tmp/ccYdMxmM.s 			page 22


 386              	SD_RawWriteTest:
 387              	.LFB248:
 766:Core/Src/main.c **** 
 767:Core/Src/main.c **** // Interrupt handler that triggers RX data
 768:Core/Src/main.c **** void HAL_GPIO_EXTI_Callback(uint16_t GPIO_Pin)
 769:Core/Src/main.c **** {
 770:Core/Src/main.c ****   // NB CANTT SEND TO UART FROM WITHIN
 771:Core/Src/main.c **** 
 772:Core/Src/main.c ****     if (GPIO_Pin == D_WAKE_Pin) // Ensure it's the right pin
 773:Core/Src/main.c ****     {
 774:Core/Src/main.c ****         // --- DO SOMETHING HERE ---
 775:Core/Src/main.c ****        wake_up_flag = 1; // Set flag to indicate wake-up event occurred 
 776:Core/Src/main.c ****        HAL_GPIO_TogglePin(Lo_PWR_CTRL_GPIO_Port, Lo_PWR_CTRL_Pin);
 777:Core/Src/main.c ****     }
 778:Core/Src/main.c **** }
 779:Core/Src/main.c **** 
 780:Core/Src/main.c **** uint32_t get_dma_head(void) {
 781:Core/Src/main.c ****     // __HAL_DMA_GET_COUNTER returns remaining items; subtract from size to get current index
 782:Core/Src/main.c ****     return RING_BUFFER_SIZE - __HAL_DMA_GET_COUNTER(huart1.hdmarx);
 783:Core/Src/main.c **** }
 784:Core/Src/main.c **** 
 785:Core/Src/main.c **** void Print_SD_Details(void) {
 786:Core/Src/main.c ****     char msg[128]; // Increased buffer size to fit all details
 787:Core/Src/main.c **** 
 788:Core/Src/main.c ****     // Formatting multiple variables into one string
 789:Core/Src/main.c ****     // %lu is used for 32-bit unsigned integers (uint32_t)
 790:Core/Src/main.c ****     int len = sprintf(msg, 
 791:Core/Src/main.c ****         "\r\n--- SD Card Info ---\r\n"
 792:Core/Src/main.c ****         "Version:   %lu\r\n"
 793:Core/Src/main.c ****         "Block Size: %lu bytes\r\n"
 794:Core/Src/main.c ****         "Block Nbr:  %lu\r\n"
 795:Core/Src/main.c ****         "Total Size: %lu KB\r\n"
 796:Core/Src/main.c ****         "--------------------\r\n",
 797:Core/Src/main.c ****         (uint32_t)hsd1.SdCard.CardVersion,
 798:Core/Src/main.c ****         (uint32_t)hsd1.SdCard.BlockSize,
 799:Core/Src/main.c ****         (uint32_t)hsd1.SdCard.BlockNbr,
 800:Core/Src/main.c ****         (uint32_t)(hsd1.SdCard.BlockNbr * hsd1.SdCard.BlockSize / 1024) // Calculated Size
 801:Core/Src/main.c ****     );
 802:Core/Src/main.c **** 
 803:Core/Src/main.c ****     // Send the formatted string via your UART function
 804:Core/Src/main.c ****     UART_SendString(&huart3, msg);
 805:Core/Src/main.c **** }
 806:Core/Src/main.c **** 
 807:Core/Src/main.c **** // Direct SDMMC write/read-back test — no FatFS involved
 808:Core/Src/main.c **** void SD_RawWriteTest(void) {
 388              		.loc 1 808 28 is_stmt 1 view -0
 389              		.cfi_startproc
 390              		@ args = 0, pretend = 0, frame = 64
 391              		@ frame_needed = 0, uses_anonymous_args = 0
 392 0000 30B5     		push	{r4, r5, lr}
 393              		.cfi_def_cfa_offset 12
 394              		.cfi_offset 4, -12
 395              		.cfi_offset 5, -8
 396              		.cfi_offset 14, -4
 397 0002 93B0     		sub	sp, sp, #76
 398              		.cfi_def_cfa_offset 88
 809:Core/Src/main.c ****     char uart[64];
ARM GAS  /tmp/ccYdMxmM.s 			page 23


 399              		.loc 1 809 5 view .LVU91
 810:Core/Src/main.c **** 
 811:Core/Src/main.c ****     // Fill write buffer with known pattern
 812:Core/Src/main.c ****     for (int i = 0; i < 512; i++) {
 400              		.loc 1 812 5 view .LVU92
 401              	.LBB9:
 402              		.loc 1 812 10 view .LVU93
 403              	.LVL16:
 404              		.loc 1 812 14 is_stmt 0 view .LVU94
 405 0004 0023     		movs	r3, #0
 406              		.loc 1 812 5 view .LVU95
 407 0006 02E0     		b	.L12
 408              	.LVL17:
 409              	.L13:
 813:Core/Src/main.c ****         writeBuf[i] = (uint8_t)(i & 0xFF);
 410              		.loc 1 813 9 is_stmt 1 view .LVU96
 411              		.loc 1 813 21 is_stmt 0 view .LVU97
 412 0008 564A     		ldr	r2, .L35
 413 000a D354     		strb	r3, [r2, r3]
 812:Core/Src/main.c ****         writeBuf[i] = (uint8_t)(i & 0xFF);
 414              		.loc 1 812 31 is_stmt 1 discriminator 3 view .LVU98
 415 000c 0133     		adds	r3, r3, #1
 416              	.LVL18:
 417              	.L12:
 812:Core/Src/main.c ****         writeBuf[i] = (uint8_t)(i & 0xFF);
 418              		.loc 1 812 23 discriminator 1 view .LVU99
 419 000e B3F5007F 		cmp	r3, #512
 420 0012 F9DB     		blt	.L13
 421              	.LBE9:
 814:Core/Src/main.c ****     }
 815:Core/Src/main.c ****     memset(readBuf, 0xAA, sizeof(readBuf)); // fill read buf with garbage first
 422              		.loc 1 815 5 view .LVU100
 423 0014 4FF40072 		mov	r2, #512
 424 0018 AA21     		movs	r1, #170
 425 001a 5348     		ldr	r0, .L35+4
 426 001c FFF7FEFF 		bl	memset
 427              	.LVL19:
 816:Core/Src/main.c **** 
 817:Core/Src/main.c ****     UART_SendString(&huart3, "\r\n--- RAW HAL SD TEST ---\r\n");
 428              		.loc 1 817 5 view .LVU101
 429 0020 5249     		ldr	r1, .L35+8
 430 0022 5348     		ldr	r0, .L35+12
 431 0024 FFF7FEFF 		bl	UART_SendString
 432              	.LVL20:
 818:Core/Src/main.c **** 
 819:Core/Src/main.c ****     // --- WRITE ---
 820:Core/Src/main.c ****     HAL_StatusTypeDef wStat = HAL_SD_WriteBlocks(&hsd1, writeBuf, 100, 1, 5000);
 433              		.loc 1 820 5 view .LVU102
 434              		.loc 1 820 31 is_stmt 0 view .LVU103
 435 0028 41F28833 		movw	r3, #5000
 436 002c 0093     		str	r3, [sp]
 437 002e 0123     		movs	r3, #1
 438 0030 6422     		movs	r2, #100
 439 0032 4C49     		ldr	r1, .L35
 440 0034 4F48     		ldr	r0, .L35+16
 441 0036 FFF7FEFF 		bl	HAL_SD_WriteBlocks
 442              	.LVL21:
ARM GAS  /tmp/ccYdMxmM.s 			page 24


 821:Core/Src/main.c ****     snprintf(uart, sizeof(uart), "WriteBlocks: %s (%d)\r\n",
 443              		.loc 1 821 5 is_stmt 1 view .LVU104
 444 003a 0446     		mov	r4, r0
 445 003c F8B9     		cbnz	r0, .L27
 446              		.loc 1 821 5 is_stmt 0 discriminator 1 view .LVU105
 447 003e 4E4B     		ldr	r3, .L35+20
 448              	.L14:
 449              		.loc 1 821 5 discriminator 4 view .LVU106
 450 0040 02AD     		add	r5, sp, #8
 451 0042 0094     		str	r4, [sp]
 452 0044 4D4A     		ldr	r2, .L35+24
 453 0046 4021     		movs	r1, #64
 454 0048 2846     		mov	r0, r5
 455              	.LVL22:
 456              		.loc 1 821 5 discriminator 4 view .LVU107
 457 004a FFF7FEFF 		bl	snprintf
 458              	.LVL23:
 822:Core/Src/main.c ****              wStat == HAL_OK ? "HAL_OK" : "FAILED", wStat);
 823:Core/Src/main.c ****     UART_SendString(&huart3, uart);
 459              		.loc 1 823 5 is_stmt 1 view .LVU108
 460 004e 2946     		mov	r1, r5
 461 0050 4748     		ldr	r0, .L35+12
 462 0052 FFF7FEFF 		bl	UART_SendString
 463              	.LVL24:
 824:Core/Src/main.c **** 
 825:Core/Src/main.c ****     if (wStat != HAL_OK) {
 464              		.loc 1 825 5 view .LVU109
 465              		.loc 1 825 8 is_stmt 0 view .LVU110
 466 0056 A4B9     		cbnz	r4, .L31
 826:Core/Src/main.c ****         // Dump SD error state for more detail
 827:Core/Src/main.c ****         HAL_SD_CardStateTypeDef state = HAL_SD_GetCardState(&hsd1);
 828:Core/Src/main.c ****         snprintf(uart, sizeof(uart), "Card state after write: %d\r\n", (int)state);
 829:Core/Src/main.c ****         UART_SendString(&huart3, uart);
 830:Core/Src/main.c **** 
 831:Core/Src/main.c ****         uint32_t sdErr = hsd1.ErrorCode;    // FAILS WITH SDMMC_ERROR_CMD_CRC_FAIL implying signal 
 832:Core/Src/main.c ****         snprintf(uart, sizeof(uart), "SD ErrorCode: 0x%08lX\r\n", (unsigned long)sdErr);
 833:Core/Src/main.c ****         UART_SendString(&huart3, uart);
 834:Core/Src/main.c ****         return;
 835:Core/Src/main.c ****     }
 836:Core/Src/main.c **** 
 837:Core/Src/main.c **** 
 838:Core/Src/main.c ****     // --- WAIT for card to finish ---
 839:Core/Src/main.c ****     uint32_t t = HAL_GetTick();
 467              		.loc 1 839 5 is_stmt 1 view .LVU111
 468              		.loc 1 839 18 is_stmt 0 view .LVU112
 469 0058 FFF7FEFF 		bl	HAL_GetTick
 470              	.LVL25:
 471 005c 0446     		mov	r4, r0
 472              	.LVL26:
 840:Core/Src/main.c ****     while (HAL_SD_GetCardState(&hsd1) != HAL_SD_CARD_TRANSFER) {
 473              		.loc 1 840 5 is_stmt 1 view .LVU113
 474              	.L17:
 475              		.loc 1 840 39 view .LVU114
 476              		.loc 1 840 12 is_stmt 0 view .LVU115
 477 005e 4548     		ldr	r0, .L35+16
 478 0060 FFF7FEFF 		bl	HAL_SD_GetCardState
 479              	.LVL27:
ARM GAS  /tmp/ccYdMxmM.s 			page 25


 480              		.loc 1 840 39 discriminator 1 view .LVU116
 481 0064 0428     		cmp	r0, #4
 482 0066 27D0     		beq	.L32
 841:Core/Src/main.c ****         if (HAL_GetTick() - t > 2000) {
 483              		.loc 1 841 9 is_stmt 1 view .LVU117
 484              		.loc 1 841 13 is_stmt 0 view .LVU118
 485 0068 FFF7FEFF 		bl	HAL_GetTick
 486              	.LVL28:
 487              		.loc 1 841 27 discriminator 1 view .LVU119
 488 006c 001B     		subs	r0, r0, r4
 489              		.loc 1 841 12 discriminator 1 view .LVU120
 490 006e B0F5FA6F 		cmp	r0, #2000
 491 0072 F4D9     		bls	.L17
 842:Core/Src/main.c ****             UART_SendString(&huart3, "Timeout waiting for card after write!\r\n");
 492              		.loc 1 842 13 is_stmt 1 view .LVU121
 493 0074 4249     		ldr	r1, .L35+28
 494 0076 3E48     		ldr	r0, .L35+12
 495 0078 FFF7FEFF 		bl	UART_SendString
 496              	.LVL29:
 843:Core/Src/main.c ****             return;
 497              		.loc 1 843 13 view .LVU122
 498 007c 1AE0     		b	.L11
 499              	.LVL30:
 500              	.L27:
 821:Core/Src/main.c ****              wStat == HAL_OK ? "HAL_OK" : "FAILED", wStat);
 501              		.loc 1 821 5 is_stmt 0 discriminator 2 view .LVU123
 502 007e 414B     		ldr	r3, .L35+32
 503 0080 DEE7     		b	.L14
 504              	.LVL31:
 505              	.L31:
 506              	.LBB10:
 827:Core/Src/main.c ****         snprintf(uart, sizeof(uart), "Card state after write: %d\r\n", (int)state);
 507              		.loc 1 827 9 is_stmt 1 view .LVU124
 827:Core/Src/main.c ****         snprintf(uart, sizeof(uart), "Card state after write: %d\r\n", (int)state);
 508              		.loc 1 827 41 is_stmt 0 view .LVU125
 509 0082 3C4D     		ldr	r5, .L35+16
 510 0084 2846     		mov	r0, r5
 511 0086 FFF7FEFF 		bl	HAL_SD_GetCardState
 512              	.LVL32:
 513 008a 0346     		mov	r3, r0
 514              	.LVL33:
 828:Core/Src/main.c ****         UART_SendString(&huart3, uart);
 515              		.loc 1 828 9 is_stmt 1 view .LVU126
 516 008c 02AC     		add	r4, sp, #8
 517              	.LVL34:
 828:Core/Src/main.c ****         UART_SendString(&huart3, uart);
 518              		.loc 1 828 9 is_stmt 0 view .LVU127
 519 008e 3E4A     		ldr	r2, .L35+36
 520 0090 4021     		movs	r1, #64
 521 0092 2046     		mov	r0, r4
 522              	.LVL35:
 828:Core/Src/main.c ****         UART_SendString(&huart3, uart);
 523              		.loc 1 828 9 view .LVU128
 524 0094 FFF7FEFF 		bl	snprintf
 525              	.LVL36:
 829:Core/Src/main.c **** 
 526              		.loc 1 829 9 is_stmt 1 view .LVU129
ARM GAS  /tmp/ccYdMxmM.s 			page 26


 527 0098 2146     		mov	r1, r4
 528 009a 3548     		ldr	r0, .L35+12
 529 009c FFF7FEFF 		bl	UART_SendString
 530              	.LVL37:
 831:Core/Src/main.c ****         snprintf(uart, sizeof(uart), "SD ErrorCode: 0x%08lX\r\n", (unsigned long)sdErr);
 531              		.loc 1 831 9 view .LVU130
 831:Core/Src/main.c ****         snprintf(uart, sizeof(uart), "SD ErrorCode: 0x%08lX\r\n", (unsigned long)sdErr);
 532              		.loc 1 831 18 is_stmt 0 view .LVU131
 533 00a0 AB6B     		ldr	r3, [r5, #56]
 534              	.LVL38:
 832:Core/Src/main.c ****         UART_SendString(&huart3, uart);
 535              		.loc 1 832 9 is_stmt 1 view .LVU132
 536 00a2 3A4A     		ldr	r2, .L35+40
 537 00a4 4021     		movs	r1, #64
 538 00a6 2046     		mov	r0, r4
 539 00a8 FFF7FEFF 		bl	snprintf
 540              	.LVL39:
 833:Core/Src/main.c ****         return;
 541              		.loc 1 833 9 view .LVU133
 542 00ac 2146     		mov	r1, r4
 543 00ae 3048     		ldr	r0, .L35+12
 544 00b0 FFF7FEFF 		bl	UART_SendString
 545              	.LVL40:
 834:Core/Src/main.c ****     }
 546              		.loc 1 834 9 view .LVU134
 547              	.L11:
 834:Core/Src/main.c ****     }
 548              		.loc 1 834 9 is_stmt 0 view .LVU135
 549              	.LBE10:
 844:Core/Src/main.c ****         }
 845:Core/Src/main.c ****     }
 846:Core/Src/main.c ****     UART_SendString(&huart3, "Card ready after write.\r\n");
 847:Core/Src/main.c **** 
 848:Core/Src/main.c ****     // --- READ BACK ---
 849:Core/Src/main.c ****     HAL_StatusTypeDef rStat = HAL_SD_ReadBlocks(&hsd1, readBuf, 100, 1, 2000);
 850:Core/Src/main.c ****     snprintf(uart, sizeof(uart), "ReadBlocks:  %s (%d)\r\n",
 851:Core/Src/main.c ****              rStat == HAL_OK ? "HAL_OK" : "FAILED", rStat);
 852:Core/Src/main.c ****     UART_SendString(&huart3, uart);
 853:Core/Src/main.c **** 
 854:Core/Src/main.c ****     if (rStat != HAL_OK) return;
 855:Core/Src/main.c **** 
 856:Core/Src/main.c ****     // Wait for card again
 857:Core/Src/main.c ****     t = HAL_GetTick();
 858:Core/Src/main.c ****     while (HAL_SD_GetCardState(&hsd1) != HAL_SD_CARD_TRANSFER) {
 859:Core/Src/main.c ****         if (HAL_GetTick() - t > 2000) {
 860:Core/Src/main.c ****             UART_SendString(&huart3, "Timeout waiting for card after read!\r\n");
 861:Core/Src/main.c ****             return;
 862:Core/Src/main.c ****         }
 863:Core/Src/main.c ****     }
 864:Core/Src/main.c **** 
 865:Core/Src/main.c ****     // --- VERIFY ---
 866:Core/Src/main.c ****     int mismatches = 0;
 867:Core/Src/main.c ****     for (int i = 0; i < 512; i++) {
 868:Core/Src/main.c ****         if (readBuf[i] != writeBuf[i]) mismatches++;
 869:Core/Src/main.c ****     }
 870:Core/Src/main.c **** 
 871:Core/Src/main.c ****     snprintf(uart, sizeof(uart), "Verify: %s (%d mismatches)\r\n",
ARM GAS  /tmp/ccYdMxmM.s 			page 27


 872:Core/Src/main.c ****              mismatches == 0 ? "PASS" : "FAIL", mismatches);
 873:Core/Src/main.c ****     UART_SendString(&huart3, uart);
 874:Core/Src/main.c ****     UART_SendString(&huart3, "--- END RAW TEST ---\r\n\r\n");
 875:Core/Src/main.c **** }
 550              		.loc 1 875 1 view .LVU136
 551 00b4 13B0     		add	sp, sp, #76
 552              		.cfi_remember_state
 553              		.cfi_def_cfa_offset 12
 554              		@ sp needed
 555 00b6 30BD     		pop	{r4, r5, pc}
 556              	.LVL41:
 557              	.L32:
 558              		.cfi_restore_state
 846:Core/Src/main.c **** 
 559              		.loc 1 846 5 is_stmt 1 view .LVU137
 560 00b8 3549     		ldr	r1, .L35+44
 561 00ba 2D48     		ldr	r0, .L35+12
 562 00bc FFF7FEFF 		bl	UART_SendString
 563              	.LVL42:
 849:Core/Src/main.c ****     snprintf(uart, sizeof(uart), "ReadBlocks:  %s (%d)\r\n",
 564              		.loc 1 849 5 view .LVU138
 849:Core/Src/main.c ****     snprintf(uart, sizeof(uart), "ReadBlocks:  %s (%d)\r\n",
 565              		.loc 1 849 31 is_stmt 0 view .LVU139
 566 00c0 4FF4FA63 		mov	r3, #2000
 567 00c4 0093     		str	r3, [sp]
 568 00c6 0123     		movs	r3, #1
 569 00c8 6422     		movs	r2, #100
 570 00ca 2749     		ldr	r1, .L35+4
 571 00cc 2948     		ldr	r0, .L35+16
 572 00ce FFF7FEFF 		bl	HAL_SD_ReadBlocks
 573              	.LVL43:
 850:Core/Src/main.c ****              rStat == HAL_OK ? "HAL_OK" : "FAILED", rStat);
 574              		.loc 1 850 5 is_stmt 1 view .LVU140
 575 00d2 0446     		mov	r4, r0
 576              	.LVL44:
 850:Core/Src/main.c ****              rStat == HAL_OK ? "HAL_OK" : "FAILED", rStat);
 577              		.loc 1 850 5 is_stmt 0 view .LVU141
 578 00d4 00BB     		cbnz	r0, .L28
 850:Core/Src/main.c ****              rStat == HAL_OK ? "HAL_OK" : "FAILED", rStat);
 579              		.loc 1 850 5 discriminator 1 view .LVU142
 580 00d6 284B     		ldr	r3, .L35+20
 581              	.L19:
 850:Core/Src/main.c ****              rStat == HAL_OK ? "HAL_OK" : "FAILED", rStat);
 582              		.loc 1 850 5 discriminator 4 view .LVU143
 583 00d8 02AD     		add	r5, sp, #8
 584 00da 0094     		str	r4, [sp]
 585 00dc 2D4A     		ldr	r2, .L35+48
 586 00de 4021     		movs	r1, #64
 587 00e0 2846     		mov	r0, r5
 588              	.LVL45:
 850:Core/Src/main.c ****              rStat == HAL_OK ? "HAL_OK" : "FAILED", rStat);
 589              		.loc 1 850 5 discriminator 4 view .LVU144
 590 00e2 FFF7FEFF 		bl	snprintf
 591              	.LVL46:
 852:Core/Src/main.c **** 
 592              		.loc 1 852 5 is_stmt 1 view .LVU145
 593 00e6 2946     		mov	r1, r5
ARM GAS  /tmp/ccYdMxmM.s 			page 28


 594 00e8 2148     		ldr	r0, .L35+12
 595 00ea FFF7FEFF 		bl	UART_SendString
 596              	.LVL47:
 854:Core/Src/main.c **** 
 597              		.loc 1 854 5 view .LVU146
 854:Core/Src/main.c **** 
 598              		.loc 1 854 8 is_stmt 0 view .LVU147
 599 00ee 002C     		cmp	r4, #0
 600 00f0 E0D1     		bne	.L11
 857:Core/Src/main.c ****     while (HAL_SD_GetCardState(&hsd1) != HAL_SD_CARD_TRANSFER) {
 601              		.loc 1 857 5 is_stmt 1 view .LVU148
 857:Core/Src/main.c ****     while (HAL_SD_GetCardState(&hsd1) != HAL_SD_CARD_TRANSFER) {
 602              		.loc 1 857 9 is_stmt 0 view .LVU149
 603 00f2 FFF7FEFF 		bl	HAL_GetTick
 604              	.LVL48:
 605 00f6 0446     		mov	r4, r0
 606              	.LVL49:
 858:Core/Src/main.c ****         if (HAL_GetTick() - t > 2000) {
 607              		.loc 1 858 5 is_stmt 1 view .LVU150
 608              	.L20:
 858:Core/Src/main.c ****         if (HAL_GetTick() - t > 2000) {
 609              		.loc 1 858 39 view .LVU151
 858:Core/Src/main.c ****         if (HAL_GetTick() - t > 2000) {
 610              		.loc 1 858 12 is_stmt 0 view .LVU152
 611 00f8 1E48     		ldr	r0, .L35+16
 612 00fa FFF7FEFF 		bl	HAL_SD_GetCardState
 613              	.LVL50:
 858:Core/Src/main.c ****         if (HAL_GetTick() - t > 2000) {
 614              		.loc 1 858 39 discriminator 1 view .LVU153
 615 00fe 0428     		cmp	r0, #4
 616 0100 0CD0     		beq	.L33
 859:Core/Src/main.c ****             UART_SendString(&huart3, "Timeout waiting for card after read!\r\n");
 617              		.loc 1 859 9 is_stmt 1 view .LVU154
 859:Core/Src/main.c ****             UART_SendString(&huart3, "Timeout waiting for card after read!\r\n");
 618              		.loc 1 859 13 is_stmt 0 view .LVU155
 619 0102 FFF7FEFF 		bl	HAL_GetTick
 620              	.LVL51:
 859:Core/Src/main.c ****             UART_SendString(&huart3, "Timeout waiting for card after read!\r\n");
 621              		.loc 1 859 27 discriminator 1 view .LVU156
 622 0106 031B     		subs	r3, r0, r4
 859:Core/Src/main.c ****             UART_SendString(&huart3, "Timeout waiting for card after read!\r\n");
 623              		.loc 1 859 12 discriminator 1 view .LVU157
 624 0108 B3F5FA6F 		cmp	r3, #2000
 625 010c F4D9     		bls	.L20
 860:Core/Src/main.c ****             return;
 626              		.loc 1 860 13 is_stmt 1 view .LVU158
 627 010e 2249     		ldr	r1, .L35+52
 628 0110 1748     		ldr	r0, .L35+12
 629 0112 FFF7FEFF 		bl	UART_SendString
 630              	.LVL52:
 861:Core/Src/main.c ****         }
 631              		.loc 1 861 13 view .LVU159
 632 0116 CDE7     		b	.L11
 633              	.LVL53:
 634              	.L28:
 850:Core/Src/main.c ****              rStat == HAL_OK ? "HAL_OK" : "FAILED", rStat);
 635              		.loc 1 850 5 is_stmt 0 discriminator 2 view .LVU160
ARM GAS  /tmp/ccYdMxmM.s 			page 29


 636 0118 1A4B     		ldr	r3, .L35+32
 637 011a DDE7     		b	.L19
 638              	.LVL54:
 639              	.L33:
 640              	.LBB11:
 867:Core/Src/main.c ****         if (readBuf[i] != writeBuf[i]) mismatches++;
 641              		.loc 1 867 14 view .LVU161
 642 011c 0023     		movs	r3, #0
 643              	.LBE11:
 866:Core/Src/main.c ****     for (int i = 0; i < 512; i++) {
 644              		.loc 1 866 9 view .LVU162
 645 011e 1846     		mov	r0, r3
 646 0120 00E0     		b	.L22
 647              	.LVL55:
 648              	.L23:
 649              	.LBB12:
 867:Core/Src/main.c ****         if (readBuf[i] != writeBuf[i]) mismatches++;
 650              		.loc 1 867 31 is_stmt 1 discriminator 2 view .LVU163
 651 0122 0133     		adds	r3, r3, #1
 652              	.LVL56:
 653              	.L22:
 867:Core/Src/main.c ****         if (readBuf[i] != writeBuf[i]) mismatches++;
 654              		.loc 1 867 23 discriminator 1 view .LVU164
 655 0124 B3F5007F 		cmp	r3, #512
 656 0128 07DA     		bge	.L34
 868:Core/Src/main.c ****     }
 657              		.loc 1 868 9 view .LVU165
 868:Core/Src/main.c ****     }
 658              		.loc 1 868 20 is_stmt 0 view .LVU166
 659 012a 0F4A     		ldr	r2, .L35+4
 660 012c D15C     		ldrb	r1, [r2, r3]	@ zero_extendqisi2
 868:Core/Src/main.c ****     }
 661              		.loc 1 868 35 view .LVU167
 662 012e 0D4A     		ldr	r2, .L35
 663 0130 D25C     		ldrb	r2, [r2, r3]	@ zero_extendqisi2
 868:Core/Src/main.c ****     }
 664              		.loc 1 868 12 view .LVU168
 665 0132 9142     		cmp	r1, r2
 666 0134 F5D0     		beq	.L23
 868:Core/Src/main.c ****     }
 667              		.loc 1 868 40 is_stmt 1 discriminator 1 view .LVU169
 868:Core/Src/main.c ****     }
 668              		.loc 1 868 50 is_stmt 0 discriminator 1 view .LVU170
 669 0136 0130     		adds	r0, r0, #1
 670              	.LVL57:
 868:Core/Src/main.c ****     }
 671              		.loc 1 868 50 discriminator 1 view .LVU171
 672 0138 F3E7     		b	.L23
 673              	.LVL58:
 674              	.L34:
 868:Core/Src/main.c ****     }
 675              		.loc 1 868 50 discriminator 1 view .LVU172
 676              	.LBE12:
 871:Core/Src/main.c ****              mismatches == 0 ? "PASS" : "FAIL", mismatches);
 677              		.loc 1 871 5 is_stmt 1 view .LVU173
 678 013a 88B9     		cbnz	r0, .L29
 871:Core/Src/main.c ****              mismatches == 0 ? "PASS" : "FAIL", mismatches);
ARM GAS  /tmp/ccYdMxmM.s 			page 30


 679              		.loc 1 871 5 is_stmt 0 discriminator 1 view .LVU174
 680 013c 174B     		ldr	r3, .L35+56
 681              	.LVL59:
 682              	.L25:
 871:Core/Src/main.c ****              mismatches == 0 ? "PASS" : "FAIL", mismatches);
 683              		.loc 1 871 5 discriminator 4 view .LVU175
 684 013e 02AD     		add	r5, sp, #8
 685 0140 0090     		str	r0, [sp]
 686 0142 174A     		ldr	r2, .L35+60
 687 0144 4021     		movs	r1, #64
 688 0146 2846     		mov	r0, r5
 689              	.LVL60:
 871:Core/Src/main.c ****              mismatches == 0 ? "PASS" : "FAIL", mismatches);
 690              		.loc 1 871 5 discriminator 4 view .LVU176
 691 0148 FFF7FEFF 		bl	snprintf
 692              	.LVL61:
 873:Core/Src/main.c ****     UART_SendString(&huart3, "--- END RAW TEST ---\r\n\r\n");
 693              		.loc 1 873 5 is_stmt 1 view .LVU177
 694 014c 084C     		ldr	r4, .L35+12
 695              	.LVL62:
 873:Core/Src/main.c ****     UART_SendString(&huart3, "--- END RAW TEST ---\r\n\r\n");
 696              		.loc 1 873 5 is_stmt 0 view .LVU178
 697 014e 2946     		mov	r1, r5
 698 0150 2046     		mov	r0, r4
 699 0152 FFF7FEFF 		bl	UART_SendString
 700              	.LVL63:
 874:Core/Src/main.c **** }
 701              		.loc 1 874 5 is_stmt 1 view .LVU179
 702 0156 1349     		ldr	r1, .L35+64
 703 0158 2046     		mov	r0, r4
 704 015a FFF7FEFF 		bl	UART_SendString
 705              	.LVL64:
 706 015e A9E7     		b	.L11
 707              	.LVL65:
 708              	.L29:
 871:Core/Src/main.c ****              mismatches == 0 ? "PASS" : "FAIL", mismatches);
 709              		.loc 1 871 5 is_stmt 0 discriminator 2 view .LVU180
 710 0160 114B     		ldr	r3, .L35+68
 711              	.LVL66:
 871:Core/Src/main.c ****              mismatches == 0 ? "PASS" : "FAIL", mismatches);
 712              		.loc 1 871 5 discriminator 2 view .LVU181
 713 0162 ECE7     		b	.L25
 714              	.L36:
 715              		.align	2
 716              	.L35:
 717 0164 00000000 		.word	writeBuf
 718 0168 00000000 		.word	readBuf
 719 016c 20000000 		.word	.LC4
 720 0170 00000000 		.word	huart3
 721 0174 00000000 		.word	hsd1
 722 0178 00000000 		.word	.LC0
 723 017c 3C000000 		.word	.LC5
 724 0180 8C000000 		.word	.LC8
 725 0184 08000000 		.word	.LC1
 726 0188 54000000 		.word	.LC6
 727 018c 74000000 		.word	.LC7
 728 0190 B4000000 		.word	.LC9
ARM GAS  /tmp/ccYdMxmM.s 			page 31


 729 0194 D0000000 		.word	.LC10
 730 0198 E8000000 		.word	.LC11
 731 019c 10000000 		.word	.LC2
 732 01a0 10010000 		.word	.LC12
 733 01a4 30010000 		.word	.LC13
 734 01a8 18000000 		.word	.LC3
 735              		.cfi_endproc
 736              	.LFE248:
 738              		.section	.rodata.Print_SD_Details.str1.4,"aMS",%progbits,1
 739              		.align	2
 740              	.LC14:
 741 0000 0D0A2D2D 		.ascii	"\015\012--- SD Card Info ---\015\012Version:   %lu\015"
 741      2D205344 
 741      20436172 
 741      6420496E 
 741      666F202D 
 742 0027 0A426C6F 		.ascii	"\012Block Size: %lu bytes\015\012Block Nbr:  %lu\015"
 742      636B2053 
 742      697A653A 
 742      20256C75 
 742      20627974 
 743 004f 0A546F74 		.ascii	"\012Total Size: %lu KB\015\012--------------------\015"
 743      616C2053 
 743      697A653A 
 743      20256C75 
 743      204B420D 
 744 0079 0A00     		.ascii	"\012\000"
 745              		.section	.text.Print_SD_Details,"ax",%progbits
 746              		.align	1
 747              		.syntax unified
 748              		.thumb
 749              		.thumb_func
 751              	Print_SD_Details:
 752              	.LFB247:
 785:Core/Src/main.c ****     char msg[128]; // Increased buffer size to fit all details
 753              		.loc 1 785 29 is_stmt 1 view -0
 754              		.cfi_startproc
 755              		@ args = 0, pretend = 0, frame = 128
 756              		@ frame_needed = 0, uses_anonymous_args = 0
 757 0000 10B5     		push	{r4, lr}
 758              		.cfi_def_cfa_offset 8
 759              		.cfi_offset 4, -8
 760              		.cfi_offset 14, -4
 761 0002 A2B0     		sub	sp, sp, #136
 762              		.cfi_def_cfa_offset 144
 786:Core/Src/main.c **** 
 763              		.loc 1 786 5 view .LVU183
 790:Core/Src/main.c ****         "\r\n--- SD Card Info ---\r\n"
 764              		.loc 1 790 5 view .LVU184
 797:Core/Src/main.c ****         (uint32_t)hsd1.SdCard.BlockSize,
 765              		.loc 1 797 30 is_stmt 0 view .LVU185
 766 0004 094A     		ldr	r2, .L39
 798:Core/Src/main.c ****         (uint32_t)hsd1.SdCard.BlockNbr,
 767              		.loc 1 798 30 view .LVU186
 768 0006 936D     		ldr	r3, [r2, #88]
 799:Core/Src/main.c ****         (uint32_t)(hsd1.SdCard.BlockNbr * hsd1.SdCard.BlockSize / 1024) // Calculated Size
 769              		.loc 1 799 30 view .LVU187
ARM GAS  /tmp/ccYdMxmM.s 			page 32


 770 0008 506D     		ldr	r0, [r2, #84]
 800:Core/Src/main.c ****     );
 771              		.loc 1 800 41 view .LVU188
 772 000a 00FB03F1 		mul	r1, r0, r3
 790:Core/Src/main.c ****         "\r\n--- SD Card Info ---\r\n"
 773              		.loc 1 790 15 view .LVU189
 774 000e 02AC     		add	r4, sp, #8
 775 0010 890A     		lsrs	r1, r1, #10
 776 0012 0191     		str	r1, [sp, #4]
 777 0014 0090     		str	r0, [sp]
 778 0016 926C     		ldr	r2, [r2, #72]
 779 0018 0549     		ldr	r1, .L39+4
 780 001a 2046     		mov	r0, r4
 781 001c FFF7FEFF 		bl	sprintf
 782              	.LVL67:
 804:Core/Src/main.c **** }
 783              		.loc 1 804 5 is_stmt 1 view .LVU190
 784 0020 2146     		mov	r1, r4
 785 0022 0448     		ldr	r0, .L39+8
 786 0024 FFF7FEFF 		bl	UART_SendString
 787              	.LVL68:
 805:Core/Src/main.c **** 
 788              		.loc 1 805 1 is_stmt 0 view .LVU191
 789 0028 22B0     		add	sp, sp, #136
 790              		.cfi_def_cfa_offset 8
 791              		@ sp needed
 792 002a 10BD     		pop	{r4, pc}
 793              	.L40:
 794              		.align	2
 795              	.L39:
 796 002c 00000000 		.word	hsd1
 797 0030 00000000 		.word	.LC14
 798 0034 00000000 		.word	huart3
 799              		.cfi_endproc
 800              	.LFE247:
 802              		.section	.text.__io_putchar,"ax",%progbits
 803              		.align	1
 804              		.global	__io_putchar
 805              		.syntax unified
 806              		.thumb
 807              		.thumb_func
 809              	__io_putchar:
 810              	.LVL69:
 811              	.LFB231:
 115:Core/Src/main.c ****     HAL_UART_Transmit(&huart3, (uint8_t *)&ch, 1, HAL_MAX_DELAY);
 812              		.loc 1 115 3 is_stmt 1 view -0
 813              		.cfi_startproc
 814              		@ args = 0, pretend = 0, frame = 8
 815              		@ frame_needed = 0, uses_anonymous_args = 0
 115:Core/Src/main.c ****     HAL_UART_Transmit(&huart3, (uint8_t *)&ch, 1, HAL_MAX_DELAY);
 816              		.loc 1 115 3 is_stmt 0 view .LVU193
 817 0000 00B5     		push	{lr}
 818              		.cfi_def_cfa_offset 4
 819              		.cfi_offset 14, -4
 820 0002 83B0     		sub	sp, sp, #12
 821              		.cfi_def_cfa_offset 16
 822 0004 0190     		str	r0, [sp, #4]
ARM GAS  /tmp/ccYdMxmM.s 			page 33


 116:Core/Src/main.c ****     return ch;
 823              		.loc 1 116 5 is_stmt 1 view .LVU194
 824 0006 4FF0FF33 		mov	r3, #-1
 825 000a 0122     		movs	r2, #1
 826 000c 01A9     		add	r1, sp, #4
 827 000e 0348     		ldr	r0, .L43
 828              	.LVL70:
 116:Core/Src/main.c ****     return ch;
 829              		.loc 1 116 5 is_stmt 0 view .LVU195
 830 0010 FFF7FEFF 		bl	HAL_UART_Transmit
 831              	.LVL71:
 117:Core/Src/main.c ****   }
 832              		.loc 1 117 5 is_stmt 1 view .LVU196
 118:Core/Src/main.c **** 
 833              		.loc 1 118 3 is_stmt 0 view .LVU197
 834 0014 0198     		ldr	r0, [sp, #4]
 835 0016 03B0     		add	sp, sp, #12
 836              		.cfi_def_cfa_offset 4
 837              		@ sp needed
 838 0018 00BD     		pop	{pc}
 839              	.L44:
 840 001a 00BF     		.align	2
 841              	.L43:
 842 001c 00000000 		.word	huart3
 843              		.cfi_endproc
 844              	.LFE231:
 846              		.section	.text.HAL_GPIO_EXTI_Callback,"ax",%progbits
 847              		.align	1
 848              		.global	HAL_GPIO_EXTI_Callback
 849              		.syntax unified
 850              		.thumb
 851              		.thumb_func
 853              	HAL_GPIO_EXTI_Callback:
 854              	.LVL72:
 855              	.LFB245:
 769:Core/Src/main.c ****   // NB CANTT SEND TO UART FROM WITHIN
 856              		.loc 1 769 1 is_stmt 1 view -0
 857              		.cfi_startproc
 858              		@ args = 0, pretend = 0, frame = 0
 859              		@ frame_needed = 0, uses_anonymous_args = 0
 772:Core/Src/main.c ****     {
 860              		.loc 1 772 5 view .LVU199
 772:Core/Src/main.c ****     {
 861              		.loc 1 772 8 is_stmt 0 view .LVU200
 862 0000 B0F5006F 		cmp	r0, #2048
 863 0004 00D0     		beq	.L51
 864 0006 7047     		bx	lr
 865              	.L51:
 769:Core/Src/main.c ****   // NB CANTT SEND TO UART FROM WITHIN
 866              		.loc 1 769 1 view .LVU201
 867 0008 08B5     		push	{r3, lr}
 868              		.cfi_def_cfa_offset 8
 869              		.cfi_offset 3, -8
 870              		.cfi_offset 14, -4
 775:Core/Src/main.c ****        HAL_GPIO_TogglePin(Lo_PWR_CTRL_GPIO_Port, Lo_PWR_CTRL_Pin);
 871              		.loc 1 775 8 is_stmt 1 view .LVU202
 775:Core/Src/main.c ****        HAL_GPIO_TogglePin(Lo_PWR_CTRL_GPIO_Port, Lo_PWR_CTRL_Pin);
ARM GAS  /tmp/ccYdMxmM.s 			page 34


 872              		.loc 1 775 21 is_stmt 0 view .LVU203
 873 000a 044B     		ldr	r3, .L52
 874 000c 0122     		movs	r2, #1
 875 000e 1A70     		strb	r2, [r3]
 776:Core/Src/main.c ****     }
 876              		.loc 1 776 8 is_stmt 1 view .LVU204
 877 0010 0221     		movs	r1, #2
 878 0012 0348     		ldr	r0, .L52+4
 879              	.LVL73:
 776:Core/Src/main.c ****     }
 880              		.loc 1 776 8 is_stmt 0 view .LVU205
 881 0014 FFF7FEFF 		bl	HAL_GPIO_TogglePin
 882              	.LVL74:
 778:Core/Src/main.c **** 
 883              		.loc 1 778 1 view .LVU206
 884 0018 08BD     		pop	{r3, pc}
 885              	.L53:
 886 001a 00BF     		.align	2
 887              	.L52:
 888 001c 00000000 		.word	wake_up_flag
 889 0020 00040048 		.word	1207960576
 890              		.cfi_endproc
 891              	.LFE245:
 893              		.section	.text.Error_Handler,"ax",%progbits
 894              		.align	1
 895              		.global	Error_Handler
 896              		.syntax unified
 897              		.thumb
 898              		.thumb_func
 900              	Error_Handler:
 901              	.LFB249:
 876:Core/Src/main.c **** /* USER CODE END 4 */
 877:Core/Src/main.c **** 
 878:Core/Src/main.c **** /**
 879:Core/Src/main.c ****   * @brief  This function is executed in case of error occurrence.
 880:Core/Src/main.c ****   * @retval None
 881:Core/Src/main.c ****   */
 882:Core/Src/main.c **** void Error_Handler(void)
 883:Core/Src/main.c **** {
 902              		.loc 1 883 1 is_stmt 1 view -0
 903              		.cfi_startproc
 904              		@ Volatile: function does not return.
 905              		@ args = 0, pretend = 0, frame = 0
 906              		@ frame_needed = 0, uses_anonymous_args = 0
 907              		@ link register save eliminated.
 884:Core/Src/main.c ****   /* USER CODE BEGIN Error_Handler_Debug */
 885:Core/Src/main.c ****   /* User can add his own implementation to report the HAL error return state */
 886:Core/Src/main.c ****   __disable_irq();
 908              		.loc 1 886 3 view .LVU208
 909              	.LBB13:
 910              	.LBI13:
 911              		.file 2 "Drivers/CMSIS/Include/cmsis_gcc.h"
   1:Drivers/CMSIS/Include/cmsis_gcc.h **** /**************************************************************************//**
   2:Drivers/CMSIS/Include/cmsis_gcc.h ****  * @file     cmsis_gcc.h
   3:Drivers/CMSIS/Include/cmsis_gcc.h ****  * @brief    CMSIS compiler GCC header file
   4:Drivers/CMSIS/Include/cmsis_gcc.h ****  * @version  V5.2.0
   5:Drivers/CMSIS/Include/cmsis_gcc.h ****  * @date     08. May 2019
ARM GAS  /tmp/ccYdMxmM.s 			page 35


   6:Drivers/CMSIS/Include/cmsis_gcc.h ****  ******************************************************************************/
   7:Drivers/CMSIS/Include/cmsis_gcc.h **** /*
   8:Drivers/CMSIS/Include/cmsis_gcc.h ****  * Copyright (c) 2009-2019 Arm Limited. All rights reserved.
   9:Drivers/CMSIS/Include/cmsis_gcc.h ****  *
  10:Drivers/CMSIS/Include/cmsis_gcc.h ****  * SPDX-License-Identifier: Apache-2.0
  11:Drivers/CMSIS/Include/cmsis_gcc.h ****  *
  12:Drivers/CMSIS/Include/cmsis_gcc.h ****  * Licensed under the Apache License, Version 2.0 (the License); you may
  13:Drivers/CMSIS/Include/cmsis_gcc.h ****  * not use this file except in compliance with the License.
  14:Drivers/CMSIS/Include/cmsis_gcc.h ****  * You may obtain a copy of the License at
  15:Drivers/CMSIS/Include/cmsis_gcc.h ****  *
  16:Drivers/CMSIS/Include/cmsis_gcc.h ****  * www.apache.org/licenses/LICENSE-2.0
  17:Drivers/CMSIS/Include/cmsis_gcc.h ****  *
  18:Drivers/CMSIS/Include/cmsis_gcc.h ****  * Unless required by applicable law or agreed to in writing, software
  19:Drivers/CMSIS/Include/cmsis_gcc.h ****  * distributed under the License is distributed on an AS IS BASIS, WITHOUT
  20:Drivers/CMSIS/Include/cmsis_gcc.h ****  * WARRANTIES OR CONDITIONS OF ANY KIND, either express or implied.
  21:Drivers/CMSIS/Include/cmsis_gcc.h ****  * See the License for the specific language governing permissions and
  22:Drivers/CMSIS/Include/cmsis_gcc.h ****  * limitations under the License.
  23:Drivers/CMSIS/Include/cmsis_gcc.h ****  */
  24:Drivers/CMSIS/Include/cmsis_gcc.h **** 
  25:Drivers/CMSIS/Include/cmsis_gcc.h **** #ifndef __CMSIS_GCC_H
  26:Drivers/CMSIS/Include/cmsis_gcc.h **** #define __CMSIS_GCC_H
  27:Drivers/CMSIS/Include/cmsis_gcc.h **** 
  28:Drivers/CMSIS/Include/cmsis_gcc.h **** /* ignore some GCC warnings */
  29:Drivers/CMSIS/Include/cmsis_gcc.h **** #pragma GCC diagnostic push
  30:Drivers/CMSIS/Include/cmsis_gcc.h **** #pragma GCC diagnostic ignored "-Wsign-conversion"
  31:Drivers/CMSIS/Include/cmsis_gcc.h **** #pragma GCC diagnostic ignored "-Wconversion"
  32:Drivers/CMSIS/Include/cmsis_gcc.h **** #pragma GCC diagnostic ignored "-Wunused-parameter"
  33:Drivers/CMSIS/Include/cmsis_gcc.h **** 
  34:Drivers/CMSIS/Include/cmsis_gcc.h **** /* Fallback for __has_builtin */
  35:Drivers/CMSIS/Include/cmsis_gcc.h **** #ifndef __has_builtin
  36:Drivers/CMSIS/Include/cmsis_gcc.h ****   #define __has_builtin(x) (0)
  37:Drivers/CMSIS/Include/cmsis_gcc.h **** #endif
  38:Drivers/CMSIS/Include/cmsis_gcc.h **** 
  39:Drivers/CMSIS/Include/cmsis_gcc.h **** /* CMSIS compiler specific defines */
  40:Drivers/CMSIS/Include/cmsis_gcc.h **** #ifndef   __ASM
  41:Drivers/CMSIS/Include/cmsis_gcc.h ****   #define __ASM                                  __asm
  42:Drivers/CMSIS/Include/cmsis_gcc.h **** #endif
  43:Drivers/CMSIS/Include/cmsis_gcc.h **** #ifndef   __INLINE
  44:Drivers/CMSIS/Include/cmsis_gcc.h ****   #define __INLINE                               inline
  45:Drivers/CMSIS/Include/cmsis_gcc.h **** #endif
  46:Drivers/CMSIS/Include/cmsis_gcc.h **** #ifndef   __STATIC_INLINE
  47:Drivers/CMSIS/Include/cmsis_gcc.h ****   #define __STATIC_INLINE                        static inline
  48:Drivers/CMSIS/Include/cmsis_gcc.h **** #endif
  49:Drivers/CMSIS/Include/cmsis_gcc.h **** #ifndef   __STATIC_FORCEINLINE                 
  50:Drivers/CMSIS/Include/cmsis_gcc.h ****   #define __STATIC_FORCEINLINE                   __attribute__((always_inline)) static inline
  51:Drivers/CMSIS/Include/cmsis_gcc.h **** #endif                                           
  52:Drivers/CMSIS/Include/cmsis_gcc.h **** #ifndef   __NO_RETURN
  53:Drivers/CMSIS/Include/cmsis_gcc.h ****   #define __NO_RETURN                            __attribute__((__noreturn__))
  54:Drivers/CMSIS/Include/cmsis_gcc.h **** #endif
  55:Drivers/CMSIS/Include/cmsis_gcc.h **** #ifndef   __USED
  56:Drivers/CMSIS/Include/cmsis_gcc.h ****   #define __USED                                 __attribute__((used))
  57:Drivers/CMSIS/Include/cmsis_gcc.h **** #endif
  58:Drivers/CMSIS/Include/cmsis_gcc.h **** #ifndef   __WEAK
  59:Drivers/CMSIS/Include/cmsis_gcc.h ****   #define __WEAK                                 __attribute__((weak))
  60:Drivers/CMSIS/Include/cmsis_gcc.h **** #endif
  61:Drivers/CMSIS/Include/cmsis_gcc.h **** #ifndef   __PACKED
  62:Drivers/CMSIS/Include/cmsis_gcc.h ****   #define __PACKED                               __attribute__((packed, aligned(1)))
ARM GAS  /tmp/ccYdMxmM.s 			page 36


  63:Drivers/CMSIS/Include/cmsis_gcc.h **** #endif
  64:Drivers/CMSIS/Include/cmsis_gcc.h **** #ifndef   __PACKED_STRUCT
  65:Drivers/CMSIS/Include/cmsis_gcc.h ****   #define __PACKED_STRUCT                        struct __attribute__((packed, aligned(1)))
  66:Drivers/CMSIS/Include/cmsis_gcc.h **** #endif
  67:Drivers/CMSIS/Include/cmsis_gcc.h **** #ifndef   __PACKED_UNION
  68:Drivers/CMSIS/Include/cmsis_gcc.h ****   #define __PACKED_UNION                         union __attribute__((packed, aligned(1)))
  69:Drivers/CMSIS/Include/cmsis_gcc.h **** #endif
  70:Drivers/CMSIS/Include/cmsis_gcc.h **** #ifndef   __UNALIGNED_UINT32        /* deprecated */
  71:Drivers/CMSIS/Include/cmsis_gcc.h ****   #pragma GCC diagnostic push
  72:Drivers/CMSIS/Include/cmsis_gcc.h ****   #pragma GCC diagnostic ignored "-Wpacked"
  73:Drivers/CMSIS/Include/cmsis_gcc.h ****   #pragma GCC diagnostic ignored "-Wattributes"
  74:Drivers/CMSIS/Include/cmsis_gcc.h ****   struct __attribute__((packed)) T_UINT32 { uint32_t v; };
  75:Drivers/CMSIS/Include/cmsis_gcc.h ****   #pragma GCC diagnostic pop
  76:Drivers/CMSIS/Include/cmsis_gcc.h ****   #define __UNALIGNED_UINT32(x)                  (((struct T_UINT32 *)(x))->v)
  77:Drivers/CMSIS/Include/cmsis_gcc.h **** #endif
  78:Drivers/CMSIS/Include/cmsis_gcc.h **** #ifndef   __UNALIGNED_UINT16_WRITE
  79:Drivers/CMSIS/Include/cmsis_gcc.h ****   #pragma GCC diagnostic push
  80:Drivers/CMSIS/Include/cmsis_gcc.h ****   #pragma GCC diagnostic ignored "-Wpacked"
  81:Drivers/CMSIS/Include/cmsis_gcc.h ****   #pragma GCC diagnostic ignored "-Wattributes"
  82:Drivers/CMSIS/Include/cmsis_gcc.h ****   __PACKED_STRUCT T_UINT16_WRITE { uint16_t v; };
  83:Drivers/CMSIS/Include/cmsis_gcc.h ****   #pragma GCC diagnostic pop
  84:Drivers/CMSIS/Include/cmsis_gcc.h ****   #define __UNALIGNED_UINT16_WRITE(addr, val)    (void)((((struct T_UINT16_WRITE *)(void *)(addr))-
  85:Drivers/CMSIS/Include/cmsis_gcc.h **** #endif
  86:Drivers/CMSIS/Include/cmsis_gcc.h **** #ifndef   __UNALIGNED_UINT16_READ
  87:Drivers/CMSIS/Include/cmsis_gcc.h ****   #pragma GCC diagnostic push
  88:Drivers/CMSIS/Include/cmsis_gcc.h ****   #pragma GCC diagnostic ignored "-Wpacked"
  89:Drivers/CMSIS/Include/cmsis_gcc.h ****   #pragma GCC diagnostic ignored "-Wattributes"
  90:Drivers/CMSIS/Include/cmsis_gcc.h ****   __PACKED_STRUCT T_UINT16_READ { uint16_t v; };
  91:Drivers/CMSIS/Include/cmsis_gcc.h ****   #pragma GCC diagnostic pop
  92:Drivers/CMSIS/Include/cmsis_gcc.h ****   #define __UNALIGNED_UINT16_READ(addr)          (((const struct T_UINT16_READ *)(const void *)(add
  93:Drivers/CMSIS/Include/cmsis_gcc.h **** #endif
  94:Drivers/CMSIS/Include/cmsis_gcc.h **** #ifndef   __UNALIGNED_UINT32_WRITE
  95:Drivers/CMSIS/Include/cmsis_gcc.h ****   #pragma GCC diagnostic push
  96:Drivers/CMSIS/Include/cmsis_gcc.h ****   #pragma GCC diagnostic ignored "-Wpacked"
  97:Drivers/CMSIS/Include/cmsis_gcc.h ****   #pragma GCC diagnostic ignored "-Wattributes"
  98:Drivers/CMSIS/Include/cmsis_gcc.h ****   __PACKED_STRUCT T_UINT32_WRITE { uint32_t v; };
  99:Drivers/CMSIS/Include/cmsis_gcc.h ****   #pragma GCC diagnostic pop
 100:Drivers/CMSIS/Include/cmsis_gcc.h ****   #define __UNALIGNED_UINT32_WRITE(addr, val)    (void)((((struct T_UINT32_WRITE *)(void *)(addr))-
 101:Drivers/CMSIS/Include/cmsis_gcc.h **** #endif
 102:Drivers/CMSIS/Include/cmsis_gcc.h **** #ifndef   __UNALIGNED_UINT32_READ
 103:Drivers/CMSIS/Include/cmsis_gcc.h ****   #pragma GCC diagnostic push
 104:Drivers/CMSIS/Include/cmsis_gcc.h ****   #pragma GCC diagnostic ignored "-Wpacked"
 105:Drivers/CMSIS/Include/cmsis_gcc.h ****   #pragma GCC diagnostic ignored "-Wattributes"
 106:Drivers/CMSIS/Include/cmsis_gcc.h ****   __PACKED_STRUCT T_UINT32_READ { uint32_t v; };
 107:Drivers/CMSIS/Include/cmsis_gcc.h ****   #pragma GCC diagnostic pop
 108:Drivers/CMSIS/Include/cmsis_gcc.h ****   #define __UNALIGNED_UINT32_READ(addr)          (((const struct T_UINT32_READ *)(const void *)(add
 109:Drivers/CMSIS/Include/cmsis_gcc.h **** #endif
 110:Drivers/CMSIS/Include/cmsis_gcc.h **** #ifndef   __ALIGNED
 111:Drivers/CMSIS/Include/cmsis_gcc.h ****   #define __ALIGNED(x)                           __attribute__((aligned(x)))
 112:Drivers/CMSIS/Include/cmsis_gcc.h **** #endif
 113:Drivers/CMSIS/Include/cmsis_gcc.h **** #ifndef   __RESTRICT
 114:Drivers/CMSIS/Include/cmsis_gcc.h ****   #define __RESTRICT                             __restrict
 115:Drivers/CMSIS/Include/cmsis_gcc.h **** #endif
 116:Drivers/CMSIS/Include/cmsis_gcc.h **** #ifndef   __COMPILER_BARRIER
 117:Drivers/CMSIS/Include/cmsis_gcc.h ****   #define __COMPILER_BARRIER()                   __ASM volatile("":::"memory")
 118:Drivers/CMSIS/Include/cmsis_gcc.h **** #endif
 119:Drivers/CMSIS/Include/cmsis_gcc.h **** 
ARM GAS  /tmp/ccYdMxmM.s 			page 37


 120:Drivers/CMSIS/Include/cmsis_gcc.h **** /* #########################  Startup and Lowlevel Init  ######################## */
 121:Drivers/CMSIS/Include/cmsis_gcc.h **** 
 122:Drivers/CMSIS/Include/cmsis_gcc.h **** #ifndef __PROGRAM_START
 123:Drivers/CMSIS/Include/cmsis_gcc.h **** 
 124:Drivers/CMSIS/Include/cmsis_gcc.h **** /**
 125:Drivers/CMSIS/Include/cmsis_gcc.h ****   \brief   Initializes data and bss sections
 126:Drivers/CMSIS/Include/cmsis_gcc.h ****   \details This default implementations initialized all data and additional bss
 127:Drivers/CMSIS/Include/cmsis_gcc.h ****            sections relying on .copy.table and .zero.table specified properly
 128:Drivers/CMSIS/Include/cmsis_gcc.h ****            in the used linker script.
 129:Drivers/CMSIS/Include/cmsis_gcc.h ****   
 130:Drivers/CMSIS/Include/cmsis_gcc.h ****  */
 131:Drivers/CMSIS/Include/cmsis_gcc.h **** __STATIC_FORCEINLINE __NO_RETURN void __cmsis_start(void)
 132:Drivers/CMSIS/Include/cmsis_gcc.h **** {
 133:Drivers/CMSIS/Include/cmsis_gcc.h ****   extern void _start(void) __NO_RETURN;
 134:Drivers/CMSIS/Include/cmsis_gcc.h ****   
 135:Drivers/CMSIS/Include/cmsis_gcc.h ****   typedef struct {
 136:Drivers/CMSIS/Include/cmsis_gcc.h ****     uint32_t const* src;
 137:Drivers/CMSIS/Include/cmsis_gcc.h ****     uint32_t* dest;
 138:Drivers/CMSIS/Include/cmsis_gcc.h ****     uint32_t  wlen;
 139:Drivers/CMSIS/Include/cmsis_gcc.h ****   } __copy_table_t;
 140:Drivers/CMSIS/Include/cmsis_gcc.h ****   
 141:Drivers/CMSIS/Include/cmsis_gcc.h ****   typedef struct {
 142:Drivers/CMSIS/Include/cmsis_gcc.h ****     uint32_t* dest;
 143:Drivers/CMSIS/Include/cmsis_gcc.h ****     uint32_t  wlen;
 144:Drivers/CMSIS/Include/cmsis_gcc.h ****   } __zero_table_t;
 145:Drivers/CMSIS/Include/cmsis_gcc.h ****   
 146:Drivers/CMSIS/Include/cmsis_gcc.h ****   extern const __copy_table_t __copy_table_start__;
 147:Drivers/CMSIS/Include/cmsis_gcc.h ****   extern const __copy_table_t __copy_table_end__;
 148:Drivers/CMSIS/Include/cmsis_gcc.h ****   extern const __zero_table_t __zero_table_start__;
 149:Drivers/CMSIS/Include/cmsis_gcc.h ****   extern const __zero_table_t __zero_table_end__;
 150:Drivers/CMSIS/Include/cmsis_gcc.h **** 
 151:Drivers/CMSIS/Include/cmsis_gcc.h ****   for (__copy_table_t const* pTable = &__copy_table_start__; pTable < &__copy_table_end__; ++pTable
 152:Drivers/CMSIS/Include/cmsis_gcc.h ****     for(uint32_t i=0u; i<pTable->wlen; ++i) {
 153:Drivers/CMSIS/Include/cmsis_gcc.h ****       pTable->dest[i] = pTable->src[i];
 154:Drivers/CMSIS/Include/cmsis_gcc.h ****     }
 155:Drivers/CMSIS/Include/cmsis_gcc.h ****   }
 156:Drivers/CMSIS/Include/cmsis_gcc.h ****  
 157:Drivers/CMSIS/Include/cmsis_gcc.h ****   for (__zero_table_t const* pTable = &__zero_table_start__; pTable < &__zero_table_end__; ++pTable
 158:Drivers/CMSIS/Include/cmsis_gcc.h ****     for(uint32_t i=0u; i<pTable->wlen; ++i) {
 159:Drivers/CMSIS/Include/cmsis_gcc.h ****       pTable->dest[i] = 0u;
 160:Drivers/CMSIS/Include/cmsis_gcc.h ****     }
 161:Drivers/CMSIS/Include/cmsis_gcc.h ****   }
 162:Drivers/CMSIS/Include/cmsis_gcc.h ****  
 163:Drivers/CMSIS/Include/cmsis_gcc.h ****   _start();
 164:Drivers/CMSIS/Include/cmsis_gcc.h **** }
 165:Drivers/CMSIS/Include/cmsis_gcc.h ****   
 166:Drivers/CMSIS/Include/cmsis_gcc.h **** #define __PROGRAM_START           __cmsis_start
 167:Drivers/CMSIS/Include/cmsis_gcc.h **** #endif
 168:Drivers/CMSIS/Include/cmsis_gcc.h **** 
 169:Drivers/CMSIS/Include/cmsis_gcc.h **** #ifndef __INITIAL_SP
 170:Drivers/CMSIS/Include/cmsis_gcc.h **** #define __INITIAL_SP              __StackTop
 171:Drivers/CMSIS/Include/cmsis_gcc.h **** #endif
 172:Drivers/CMSIS/Include/cmsis_gcc.h **** 
 173:Drivers/CMSIS/Include/cmsis_gcc.h **** #ifndef __STACK_LIMIT
 174:Drivers/CMSIS/Include/cmsis_gcc.h **** #define __STACK_LIMIT             __StackLimit
 175:Drivers/CMSIS/Include/cmsis_gcc.h **** #endif
 176:Drivers/CMSIS/Include/cmsis_gcc.h **** 
ARM GAS  /tmp/ccYdMxmM.s 			page 38


 177:Drivers/CMSIS/Include/cmsis_gcc.h **** #ifndef __VECTOR_TABLE
 178:Drivers/CMSIS/Include/cmsis_gcc.h **** #define __VECTOR_TABLE            __Vectors
 179:Drivers/CMSIS/Include/cmsis_gcc.h **** #endif
 180:Drivers/CMSIS/Include/cmsis_gcc.h **** 
 181:Drivers/CMSIS/Include/cmsis_gcc.h **** #ifndef __VECTOR_TABLE_ATTRIBUTE
 182:Drivers/CMSIS/Include/cmsis_gcc.h **** #define __VECTOR_TABLE_ATTRIBUTE  __attribute((used, section(".vectors")))
 183:Drivers/CMSIS/Include/cmsis_gcc.h **** #endif
 184:Drivers/CMSIS/Include/cmsis_gcc.h **** 
 185:Drivers/CMSIS/Include/cmsis_gcc.h **** /* ###########################  Core Function Access  ########################### */
 186:Drivers/CMSIS/Include/cmsis_gcc.h **** /** \ingroup  CMSIS_Core_FunctionInterface
 187:Drivers/CMSIS/Include/cmsis_gcc.h ****     \defgroup CMSIS_Core_RegAccFunctions CMSIS Core Register Access Functions
 188:Drivers/CMSIS/Include/cmsis_gcc.h ****   @{
 189:Drivers/CMSIS/Include/cmsis_gcc.h ****  */
 190:Drivers/CMSIS/Include/cmsis_gcc.h **** 
 191:Drivers/CMSIS/Include/cmsis_gcc.h **** /**
 192:Drivers/CMSIS/Include/cmsis_gcc.h ****   \brief   Enable IRQ Interrupts
 193:Drivers/CMSIS/Include/cmsis_gcc.h ****   \details Enables IRQ interrupts by clearing the I-bit in the CPSR.
 194:Drivers/CMSIS/Include/cmsis_gcc.h ****            Can only be executed in Privileged modes.
 195:Drivers/CMSIS/Include/cmsis_gcc.h ****  */
 196:Drivers/CMSIS/Include/cmsis_gcc.h **** __STATIC_FORCEINLINE void __enable_irq(void)
 197:Drivers/CMSIS/Include/cmsis_gcc.h **** {
 198:Drivers/CMSIS/Include/cmsis_gcc.h ****   __ASM volatile ("cpsie i" : : : "memory");
 199:Drivers/CMSIS/Include/cmsis_gcc.h **** }
 200:Drivers/CMSIS/Include/cmsis_gcc.h **** 
 201:Drivers/CMSIS/Include/cmsis_gcc.h **** 
 202:Drivers/CMSIS/Include/cmsis_gcc.h **** /**
 203:Drivers/CMSIS/Include/cmsis_gcc.h ****   \brief   Disable IRQ Interrupts
 204:Drivers/CMSIS/Include/cmsis_gcc.h ****   \details Disables IRQ interrupts by setting the I-bit in the CPSR.
 205:Drivers/CMSIS/Include/cmsis_gcc.h ****            Can only be executed in Privileged modes.
 206:Drivers/CMSIS/Include/cmsis_gcc.h ****  */
 207:Drivers/CMSIS/Include/cmsis_gcc.h **** __STATIC_FORCEINLINE void __disable_irq(void)
 912              		.loc 2 207 27 view .LVU209
 913              	.LBB14:
 208:Drivers/CMSIS/Include/cmsis_gcc.h **** {
 209:Drivers/CMSIS/Include/cmsis_gcc.h ****   __ASM volatile ("cpsid i" : : : "memory");
 914              		.loc 2 209 3 view .LVU210
 915              		.syntax unified
 916              	@ 209 "Drivers/CMSIS/Include/cmsis_gcc.h" 1
 917 0000 72B6     		cpsid i
 918              	@ 0 "" 2
 919              		.thumb
 920              		.syntax unified
 921              	.L55:
 922              	.LBE14:
 923              	.LBE13:
 887:Core/Src/main.c ****   while (1)
 924              		.loc 1 887 3 view .LVU211
 888:Core/Src/main.c ****   {
 889:Core/Src/main.c ****   }
 925              		.loc 1 889 3 view .LVU212
 887:Core/Src/main.c ****   while (1)
 926              		.loc 1 887 9 view .LVU213
 927 0002 FEE7     		b	.L55
 928              		.cfi_endproc
 929              	.LFE249:
 931              		.section	.text.MX_LPUART1_UART_Init,"ax",%progbits
 932              		.align	1
ARM GAS  /tmp/ccYdMxmM.s 			page 39


 933              		.syntax unified
 934              		.thumb
 935              		.thumb_func
 937              	MX_LPUART1_UART_Init:
 938              	.LFB235:
 392:Core/Src/main.c **** 
 939              		.loc 1 392 1 view -0
 940              		.cfi_startproc
 941              		@ args = 0, pretend = 0, frame = 0
 942              		@ frame_needed = 0, uses_anonymous_args = 0
 943 0000 08B5     		push	{r3, lr}
 944              		.cfi_def_cfa_offset 8
 945              		.cfi_offset 3, -8
 946              		.cfi_offset 14, -4
 401:Core/Src/main.c ****   hlpuart1.Init.BaudRate = 209700;
 947              		.loc 1 401 3 view .LVU215
 401:Core/Src/main.c ****   hlpuart1.Init.BaudRate = 209700;
 948              		.loc 1 401 21 is_stmt 0 view .LVU216
 949 0002 0B48     		ldr	r0, .L60
 950 0004 0B4B     		ldr	r3, .L60+4
 951 0006 0360     		str	r3, [r0]
 402:Core/Src/main.c ****   hlpuart1.Init.WordLength = UART_WORDLENGTH_7B;
 952              		.loc 1 402 3 is_stmt 1 view .LVU217
 402:Core/Src/main.c ****   hlpuart1.Init.WordLength = UART_WORDLENGTH_7B;
 953              		.loc 1 402 26 is_stmt 0 view .LVU218
 954 0008 0B4B     		ldr	r3, .L60+8
 955 000a 4360     		str	r3, [r0, #4]
 403:Core/Src/main.c ****   hlpuart1.Init.StopBits = UART_STOPBITS_1;
 956              		.loc 1 403 3 is_stmt 1 view .LVU219
 403:Core/Src/main.c ****   hlpuart1.Init.StopBits = UART_STOPBITS_1;
 957              		.loc 1 403 28 is_stmt 0 view .LVU220
 958 000c 4FF08053 		mov	r3, #268435456
 959 0010 8360     		str	r3, [r0, #8]
 404:Core/Src/main.c ****   hlpuart1.Init.Parity = UART_PARITY_NONE;
 960              		.loc 1 404 3 is_stmt 1 view .LVU221
 404:Core/Src/main.c ****   hlpuart1.Init.Parity = UART_PARITY_NONE;
 961              		.loc 1 404 26 is_stmt 0 view .LVU222
 962 0012 0023     		movs	r3, #0
 963 0014 C360     		str	r3, [r0, #12]
 405:Core/Src/main.c ****   hlpuart1.Init.Mode = UART_MODE_TX_RX;
 964              		.loc 1 405 3 is_stmt 1 view .LVU223
 405:Core/Src/main.c ****   hlpuart1.Init.Mode = UART_MODE_TX_RX;
 965              		.loc 1 405 24 is_stmt 0 view .LVU224
 966 0016 0361     		str	r3, [r0, #16]
 406:Core/Src/main.c ****   hlpuart1.Init.HwFlowCtl = UART_HWCONTROL_NONE;
 967              		.loc 1 406 3 is_stmt 1 view .LVU225
 406:Core/Src/main.c ****   hlpuart1.Init.HwFlowCtl = UART_HWCONTROL_NONE;
 968              		.loc 1 406 22 is_stmt 0 view .LVU226
 969 0018 0C22     		movs	r2, #12
 970 001a 4261     		str	r2, [r0, #20]
 407:Core/Src/main.c ****   hlpuart1.Init.OneBitSampling = UART_ONE_BIT_SAMPLE_DISABLE;
 971              		.loc 1 407 3 is_stmt 1 view .LVU227
 407:Core/Src/main.c ****   hlpuart1.Init.OneBitSampling = UART_ONE_BIT_SAMPLE_DISABLE;
 972              		.loc 1 407 27 is_stmt 0 view .LVU228
 973 001c 8361     		str	r3, [r0, #24]
 408:Core/Src/main.c ****   hlpuart1.AdvancedInit.AdvFeatureInit = UART_ADVFEATURE_NO_INIT;
 974              		.loc 1 408 3 is_stmt 1 view .LVU229
ARM GAS  /tmp/ccYdMxmM.s 			page 40


 408:Core/Src/main.c ****   hlpuart1.AdvancedInit.AdvFeatureInit = UART_ADVFEATURE_NO_INIT;
 975              		.loc 1 408 32 is_stmt 0 view .LVU230
 976 001e 0362     		str	r3, [r0, #32]
 409:Core/Src/main.c ****   if (HAL_UART_Init(&hlpuart1) != HAL_OK)
 977              		.loc 1 409 3 is_stmt 1 view .LVU231
 409:Core/Src/main.c ****   if (HAL_UART_Init(&hlpuart1) != HAL_OK)
 978              		.loc 1 409 40 is_stmt 0 view .LVU232
 979 0020 4362     		str	r3, [r0, #36]
 410:Core/Src/main.c ****   {
 980              		.loc 1 410 3 is_stmt 1 view .LVU233
 410:Core/Src/main.c ****   {
 981              		.loc 1 410 7 is_stmt 0 view .LVU234
 982 0022 FFF7FEFF 		bl	HAL_UART_Init
 983              	.LVL75:
 410:Core/Src/main.c ****   {
 984              		.loc 1 410 6 discriminator 1 view .LVU235
 985 0026 00B9     		cbnz	r0, .L59
 418:Core/Src/main.c **** 
 986              		.loc 1 418 1 view .LVU236
 987 0028 08BD     		pop	{r3, pc}
 988              	.L59:
 412:Core/Src/main.c ****   }
 989              		.loc 1 412 5 is_stmt 1 view .LVU237
 990 002a FFF7FEFF 		bl	Error_Handler
 991              	.LVL76:
 992              	.L61:
 993 002e 00BF     		.align	2
 994              	.L60:
 995 0030 00000000 		.word	hlpuart1
 996 0034 00800040 		.word	1073774592
 997 0038 24330300 		.word	209700
 998              		.cfi_endproc
 999              	.LFE235:
 1001              		.section	.text.MX_USART2_UART_Init,"ax",%progbits
 1002              		.align	1
 1003              		.syntax unified
 1004              		.thumb
 1005              		.thumb_func
 1007              	MX_USART2_UART_Init:
 1008              	.LFB237:
 461:Core/Src/main.c **** 
 1009              		.loc 1 461 1 view -0
 1010              		.cfi_startproc
 1011              		@ args = 0, pretend = 0, frame = 0
 1012              		@ frame_needed = 0, uses_anonymous_args = 0
 1013 0000 08B5     		push	{r3, lr}
 1014              		.cfi_def_cfa_offset 8
 1015              		.cfi_offset 3, -8
 1016              		.cfi_offset 14, -4
 470:Core/Src/main.c ****   huart2.Init.BaudRate = 115200;
 1017              		.loc 1 470 3 view .LVU239
 470:Core/Src/main.c ****   huart2.Init.BaudRate = 115200;
 1018              		.loc 1 470 19 is_stmt 0 view .LVU240
 1019 0002 0C48     		ldr	r0, .L66
 1020 0004 0C4B     		ldr	r3, .L66+4
 1021 0006 0360     		str	r3, [r0]
 471:Core/Src/main.c ****   huart2.Init.WordLength = UART_WORDLENGTH_8B;
ARM GAS  /tmp/ccYdMxmM.s 			page 41


 1022              		.loc 1 471 3 is_stmt 1 view .LVU241
 471:Core/Src/main.c ****   huart2.Init.WordLength = UART_WORDLENGTH_8B;
 1023              		.loc 1 471 24 is_stmt 0 view .LVU242
 1024 0008 4FF4E133 		mov	r3, #115200
 1025 000c 4360     		str	r3, [r0, #4]
 472:Core/Src/main.c ****   huart2.Init.StopBits = UART_STOPBITS_1;
 1026              		.loc 1 472 3 is_stmt 1 view .LVU243
 472:Core/Src/main.c ****   huart2.Init.StopBits = UART_STOPBITS_1;
 1027              		.loc 1 472 26 is_stmt 0 view .LVU244
 1028 000e 0023     		movs	r3, #0
 1029 0010 8360     		str	r3, [r0, #8]
 473:Core/Src/main.c ****   huart2.Init.Parity = UART_PARITY_NONE;
 1030              		.loc 1 473 3 is_stmt 1 view .LVU245
 473:Core/Src/main.c ****   huart2.Init.Parity = UART_PARITY_NONE;
 1031              		.loc 1 473 24 is_stmt 0 view .LVU246
 1032 0012 C360     		str	r3, [r0, #12]
 474:Core/Src/main.c ****   huart2.Init.Mode = UART_MODE_TX_RX;
 1033              		.loc 1 474 3 is_stmt 1 view .LVU247
 474:Core/Src/main.c ****   huart2.Init.Mode = UART_MODE_TX_RX;
 1034              		.loc 1 474 22 is_stmt 0 view .LVU248
 1035 0014 0361     		str	r3, [r0, #16]
 475:Core/Src/main.c ****   huart2.Init.HwFlowCtl = UART_HWCONTROL_RTS_CTS;
 1036              		.loc 1 475 3 is_stmt 1 view .LVU249
 475:Core/Src/main.c ****   huart2.Init.HwFlowCtl = UART_HWCONTROL_RTS_CTS;
 1037              		.loc 1 475 20 is_stmt 0 view .LVU250
 1038 0016 0C22     		movs	r2, #12
 1039 0018 4261     		str	r2, [r0, #20]
 476:Core/Src/main.c ****   huart2.Init.OverSampling = UART_OVERSAMPLING_16;
 1040              		.loc 1 476 3 is_stmt 1 view .LVU251
 476:Core/Src/main.c ****   huart2.Init.OverSampling = UART_OVERSAMPLING_16;
 1041              		.loc 1 476 25 is_stmt 0 view .LVU252
 1042 001a 4FF44072 		mov	r2, #768
 1043 001e 8261     		str	r2, [r0, #24]
 477:Core/Src/main.c ****   huart2.Init.OneBitSampling = UART_ONE_BIT_SAMPLE_DISABLE;
 1044              		.loc 1 477 3 is_stmt 1 view .LVU253
 477:Core/Src/main.c ****   huart2.Init.OneBitSampling = UART_ONE_BIT_SAMPLE_DISABLE;
 1045              		.loc 1 477 28 is_stmt 0 view .LVU254
 1046 0020 C361     		str	r3, [r0, #28]
 478:Core/Src/main.c ****   huart2.AdvancedInit.AdvFeatureInit = UART_ADVFEATURE_NO_INIT;
 1047              		.loc 1 478 3 is_stmt 1 view .LVU255
 478:Core/Src/main.c ****   huart2.AdvancedInit.AdvFeatureInit = UART_ADVFEATURE_NO_INIT;
 1048              		.loc 1 478 30 is_stmt 0 view .LVU256
 1049 0022 0362     		str	r3, [r0, #32]
 479:Core/Src/main.c ****   if (HAL_UART_Init(&huart2) != HAL_OK)
 1050              		.loc 1 479 3 is_stmt 1 view .LVU257
 479:Core/Src/main.c ****   if (HAL_UART_Init(&huart2) != HAL_OK)
 1051              		.loc 1 479 38 is_stmt 0 view .LVU258
 1052 0024 4362     		str	r3, [r0, #36]
 480:Core/Src/main.c ****   {
 1053              		.loc 1 480 3 is_stmt 1 view .LVU259
 480:Core/Src/main.c ****   {
 1054              		.loc 1 480 7 is_stmt 0 view .LVU260
 1055 0026 FFF7FEFF 		bl	HAL_UART_Init
 1056              	.LVL77:
 480:Core/Src/main.c ****   {
 1057              		.loc 1 480 6 discriminator 1 view .LVU261
 1058 002a 00B9     		cbnz	r0, .L65
ARM GAS  /tmp/ccYdMxmM.s 			page 42


 488:Core/Src/main.c **** 
 1059              		.loc 1 488 1 view .LVU262
 1060 002c 08BD     		pop	{r3, pc}
 1061              	.L65:
 482:Core/Src/main.c ****   }
 1062              		.loc 1 482 5 is_stmt 1 view .LVU263
 1063 002e FFF7FEFF 		bl	Error_Handler
 1064              	.LVL78:
 1065              	.L67:
 1066 0032 00BF     		.align	2
 1067              	.L66:
 1068 0034 00000000 		.word	huart2
 1069 0038 00440040 		.word	1073759232
 1070              		.cfi_endproc
 1071              	.LFE237:
 1073              		.section	.text.MX_USART3_UART_Init,"ax",%progbits
 1074              		.align	1
 1075              		.syntax unified
 1076              		.thumb
 1077              		.thumb_func
 1079              	MX_USART3_UART_Init:
 1080              	.LFB238:
 496:Core/Src/main.c **** 
 1081              		.loc 1 496 1 view -0
 1082              		.cfi_startproc
 1083              		@ args = 0, pretend = 0, frame = 0
 1084              		@ frame_needed = 0, uses_anonymous_args = 0
 1085 0000 08B5     		push	{r3, lr}
 1086              		.cfi_def_cfa_offset 8
 1087              		.cfi_offset 3, -8
 1088              		.cfi_offset 14, -4
 505:Core/Src/main.c ****   huart3.Init.BaudRate = 115200;
 1089              		.loc 1 505 3 view .LVU265
 505:Core/Src/main.c ****   huart3.Init.BaudRate = 115200;
 1090              		.loc 1 505 19 is_stmt 0 view .LVU266
 1091 0002 0B48     		ldr	r0, .L72
 1092 0004 0B4B     		ldr	r3, .L72+4
 1093 0006 0360     		str	r3, [r0]
 506:Core/Src/main.c ****   huart3.Init.WordLength = UART_WORDLENGTH_8B;
 1094              		.loc 1 506 3 is_stmt 1 view .LVU267
 506:Core/Src/main.c ****   huart3.Init.WordLength = UART_WORDLENGTH_8B;
 1095              		.loc 1 506 24 is_stmt 0 view .LVU268
 1096 0008 4FF4E133 		mov	r3, #115200
 1097 000c 4360     		str	r3, [r0, #4]
 507:Core/Src/main.c ****   huart3.Init.StopBits = UART_STOPBITS_1;
 1098              		.loc 1 507 3 is_stmt 1 view .LVU269
 507:Core/Src/main.c ****   huart3.Init.StopBits = UART_STOPBITS_1;
 1099              		.loc 1 507 26 is_stmt 0 view .LVU270
 1100 000e 0023     		movs	r3, #0
 1101 0010 8360     		str	r3, [r0, #8]
 508:Core/Src/main.c ****   huart3.Init.Parity = UART_PARITY_NONE;
 1102              		.loc 1 508 3 is_stmt 1 view .LVU271
 508:Core/Src/main.c ****   huart3.Init.Parity = UART_PARITY_NONE;
 1103              		.loc 1 508 24 is_stmt 0 view .LVU272
 1104 0012 C360     		str	r3, [r0, #12]
 509:Core/Src/main.c ****   huart3.Init.Mode = UART_MODE_TX_RX;
 1105              		.loc 1 509 3 is_stmt 1 view .LVU273
ARM GAS  /tmp/ccYdMxmM.s 			page 43


 509:Core/Src/main.c ****   huart3.Init.Mode = UART_MODE_TX_RX;
 1106              		.loc 1 509 22 is_stmt 0 view .LVU274
 1107 0014 0361     		str	r3, [r0, #16]
 510:Core/Src/main.c ****   huart3.Init.HwFlowCtl = UART_HWCONTROL_NONE;
 1108              		.loc 1 510 3 is_stmt 1 view .LVU275
 510:Core/Src/main.c ****   huart3.Init.HwFlowCtl = UART_HWCONTROL_NONE;
 1109              		.loc 1 510 20 is_stmt 0 view .LVU276
 1110 0016 0C22     		movs	r2, #12
 1111 0018 4261     		str	r2, [r0, #20]
 511:Core/Src/main.c ****   huart3.Init.OverSampling = UART_OVERSAMPLING_16;
 1112              		.loc 1 511 3 is_stmt 1 view .LVU277
 511:Core/Src/main.c ****   huart3.Init.OverSampling = UART_OVERSAMPLING_16;
 1113              		.loc 1 511 25 is_stmt 0 view .LVU278
 1114 001a 8361     		str	r3, [r0, #24]
 512:Core/Src/main.c ****   huart3.Init.OneBitSampling = UART_ONE_BIT_SAMPLE_DISABLE;
 1115              		.loc 1 512 3 is_stmt 1 view .LVU279
 512:Core/Src/main.c ****   huart3.Init.OneBitSampling = UART_ONE_BIT_SAMPLE_DISABLE;
 1116              		.loc 1 512 28 is_stmt 0 view .LVU280
 1117 001c C361     		str	r3, [r0, #28]
 513:Core/Src/main.c ****   huart3.AdvancedInit.AdvFeatureInit = UART_ADVFEATURE_NO_INIT;
 1118              		.loc 1 513 3 is_stmt 1 view .LVU281
 513:Core/Src/main.c ****   huart3.AdvancedInit.AdvFeatureInit = UART_ADVFEATURE_NO_INIT;
 1119              		.loc 1 513 30 is_stmt 0 view .LVU282
 1120 001e 0362     		str	r3, [r0, #32]
 514:Core/Src/main.c ****   if (HAL_UART_Init(&huart3) != HAL_OK)
 1121              		.loc 1 514 3 is_stmt 1 view .LVU283
 514:Core/Src/main.c ****   if (HAL_UART_Init(&huart3) != HAL_OK)
 1122              		.loc 1 514 38 is_stmt 0 view .LVU284
 1123 0020 4362     		str	r3, [r0, #36]
 515:Core/Src/main.c ****   {
 1124              		.loc 1 515 3 is_stmt 1 view .LVU285
 515:Core/Src/main.c ****   {
 1125              		.loc 1 515 7 is_stmt 0 view .LVU286
 1126 0022 FFF7FEFF 		bl	HAL_UART_Init
 1127              	.LVL79:
 515:Core/Src/main.c ****   {
 1128              		.loc 1 515 6 discriminator 1 view .LVU287
 1129 0026 00B9     		cbnz	r0, .L71
 523:Core/Src/main.c **** 
 1130              		.loc 1 523 1 view .LVU288
 1131 0028 08BD     		pop	{r3, pc}
 1132              	.L71:
 517:Core/Src/main.c ****   }
 1133              		.loc 1 517 5 is_stmt 1 view .LVU289
 1134 002a FFF7FEFF 		bl	Error_Handler
 1135              	.LVL80:
 1136              	.L73:
 1137 002e 00BF     		.align	2
 1138              	.L72:
 1139 0030 00000000 		.word	huart3
 1140 0034 00480040 		.word	1073760256
 1141              		.cfi_endproc
 1142              	.LFE238:
 1144              		.section	.text.MX_SPI1_Init,"ax",%progbits
 1145              		.align	1
 1146              		.syntax unified
 1147              		.thumb
ARM GAS  /tmp/ccYdMxmM.s 			page 44


 1148              		.thumb_func
 1150              	MX_SPI1_Init:
 1151              	.LFB241:
 638:Core/Src/main.c **** 
 1152              		.loc 1 638 1 view -0
 1153              		.cfi_startproc
 1154              		@ args = 0, pretend = 0, frame = 0
 1155              		@ frame_needed = 0, uses_anonymous_args = 0
 1156 0000 08B5     		push	{r3, lr}
 1157              		.cfi_def_cfa_offset 8
 1158              		.cfi_offset 3, -8
 1159              		.cfi_offset 14, -4
 648:Core/Src/main.c ****   hspi1.Init.Mode = SPI_MODE_MASTER;
 1160              		.loc 1 648 3 view .LVU291
 648:Core/Src/main.c ****   hspi1.Init.Mode = SPI_MODE_MASTER;
 1161              		.loc 1 648 18 is_stmt 0 view .LVU292
 1162 0002 0F48     		ldr	r0, .L78
 1163 0004 0F4B     		ldr	r3, .L78+4
 1164 0006 0360     		str	r3, [r0]
 649:Core/Src/main.c ****   hspi1.Init.Direction = SPI_DIRECTION_2LINES;
 1165              		.loc 1 649 3 is_stmt 1 view .LVU293
 649:Core/Src/main.c ****   hspi1.Init.Direction = SPI_DIRECTION_2LINES;
 1166              		.loc 1 649 19 is_stmt 0 view .LVU294
 1167 0008 4FF48273 		mov	r3, #260
 1168 000c 4360     		str	r3, [r0, #4]
 650:Core/Src/main.c ****   hspi1.Init.DataSize = SPI_DATASIZE_4BIT;
 1169              		.loc 1 650 3 is_stmt 1 view .LVU295
 650:Core/Src/main.c ****   hspi1.Init.DataSize = SPI_DATASIZE_4BIT;
 1170              		.loc 1 650 24 is_stmt 0 view .LVU296
 1171 000e 0023     		movs	r3, #0
 1172 0010 8360     		str	r3, [r0, #8]
 651:Core/Src/main.c ****   hspi1.Init.CLKPolarity = SPI_POLARITY_LOW;
 1173              		.loc 1 651 3 is_stmt 1 view .LVU297
 651:Core/Src/main.c ****   hspi1.Init.CLKPolarity = SPI_POLARITY_LOW;
 1174              		.loc 1 651 23 is_stmt 0 view .LVU298
 1175 0012 4FF44072 		mov	r2, #768
 1176 0016 C260     		str	r2, [r0, #12]
 652:Core/Src/main.c ****   hspi1.Init.CLKPhase = SPI_PHASE_1EDGE;
 1177              		.loc 1 652 3 is_stmt 1 view .LVU299
 652:Core/Src/main.c ****   hspi1.Init.CLKPhase = SPI_PHASE_1EDGE;
 1178              		.loc 1 652 26 is_stmt 0 view .LVU300
 1179 0018 0361     		str	r3, [r0, #16]
 653:Core/Src/main.c ****   hspi1.Init.NSS = SPI_NSS_SOFT;
 1180              		.loc 1 653 3 is_stmt 1 view .LVU301
 653:Core/Src/main.c ****   hspi1.Init.NSS = SPI_NSS_SOFT;
 1181              		.loc 1 653 23 is_stmt 0 view .LVU302
 1182 001a 4361     		str	r3, [r0, #20]
 654:Core/Src/main.c ****   hspi1.Init.BaudRatePrescaler = SPI_BAUDRATEPRESCALER_2;
 1183              		.loc 1 654 3 is_stmt 1 view .LVU303
 654:Core/Src/main.c ****   hspi1.Init.BaudRatePrescaler = SPI_BAUDRATEPRESCALER_2;
 1184              		.loc 1 654 18 is_stmt 0 view .LVU304
 1185 001c 4FF40072 		mov	r2, #512
 1186 0020 8261     		str	r2, [r0, #24]
 655:Core/Src/main.c ****   hspi1.Init.FirstBit = SPI_FIRSTBIT_MSB;
 1187              		.loc 1 655 3 is_stmt 1 view .LVU305
 655:Core/Src/main.c ****   hspi1.Init.FirstBit = SPI_FIRSTBIT_MSB;
 1188              		.loc 1 655 32 is_stmt 0 view .LVU306
ARM GAS  /tmp/ccYdMxmM.s 			page 45


 1189 0022 C361     		str	r3, [r0, #28]
 656:Core/Src/main.c ****   hspi1.Init.TIMode = SPI_TIMODE_DISABLE;
 1190              		.loc 1 656 3 is_stmt 1 view .LVU307
 656:Core/Src/main.c ****   hspi1.Init.TIMode = SPI_TIMODE_DISABLE;
 1191              		.loc 1 656 23 is_stmt 0 view .LVU308
 1192 0024 0362     		str	r3, [r0, #32]
 657:Core/Src/main.c ****   hspi1.Init.CRCCalculation = SPI_CRCCALCULATION_DISABLE;
 1193              		.loc 1 657 3 is_stmt 1 view .LVU309
 657:Core/Src/main.c ****   hspi1.Init.CRCCalculation = SPI_CRCCALCULATION_DISABLE;
 1194              		.loc 1 657 21 is_stmt 0 view .LVU310
 1195 0026 4362     		str	r3, [r0, #36]
 658:Core/Src/main.c ****   hspi1.Init.CRCPolynomial = 7;
 1196              		.loc 1 658 3 is_stmt 1 view .LVU311
 658:Core/Src/main.c ****   hspi1.Init.CRCPolynomial = 7;
 1197              		.loc 1 658 29 is_stmt 0 view .LVU312
 1198 0028 8362     		str	r3, [r0, #40]
 659:Core/Src/main.c ****   hspi1.Init.CRCLength = SPI_CRC_LENGTH_DATASIZE;
 1199              		.loc 1 659 3 is_stmt 1 view .LVU313
 659:Core/Src/main.c ****   hspi1.Init.CRCLength = SPI_CRC_LENGTH_DATASIZE;
 1200              		.loc 1 659 28 is_stmt 0 view .LVU314
 1201 002a 0722     		movs	r2, #7
 1202 002c C262     		str	r2, [r0, #44]
 660:Core/Src/main.c ****   hspi1.Init.NSSPMode = SPI_NSS_PULSE_ENABLE;
 1203              		.loc 1 660 3 is_stmt 1 view .LVU315
 660:Core/Src/main.c ****   hspi1.Init.NSSPMode = SPI_NSS_PULSE_ENABLE;
 1204              		.loc 1 660 24 is_stmt 0 view .LVU316
 1205 002e 0363     		str	r3, [r0, #48]
 661:Core/Src/main.c ****   if (HAL_SPI_Init(&hspi1) != HAL_OK)
 1206              		.loc 1 661 3 is_stmt 1 view .LVU317
 661:Core/Src/main.c ****   if (HAL_SPI_Init(&hspi1) != HAL_OK)
 1207              		.loc 1 661 23 is_stmt 0 view .LVU318
 1208 0030 0823     		movs	r3, #8
 1209 0032 4363     		str	r3, [r0, #52]
 662:Core/Src/main.c ****   {
 1210              		.loc 1 662 3 is_stmt 1 view .LVU319
 662:Core/Src/main.c ****   {
 1211              		.loc 1 662 7 is_stmt 0 view .LVU320
 1212 0034 FFF7FEFF 		bl	HAL_SPI_Init
 1213              	.LVL81:
 662:Core/Src/main.c ****   {
 1214              		.loc 1 662 6 discriminator 1 view .LVU321
 1215 0038 00B9     		cbnz	r0, .L77
 670:Core/Src/main.c **** 
 1216              		.loc 1 670 1 view .LVU322
 1217 003a 08BD     		pop	{r3, pc}
 1218              	.L77:
 664:Core/Src/main.c ****   }
 1219              		.loc 1 664 5 is_stmt 1 view .LVU323
 1220 003c FFF7FEFF 		bl	Error_Handler
 1221              	.LVL82:
 1222              	.L79:
 1223              		.align	2
 1224              	.L78:
 1225 0040 00000000 		.word	hspi1
 1226 0044 00300140 		.word	1073819648
 1227              		.cfi_endproc
 1228              	.LFE241:
ARM GAS  /tmp/ccYdMxmM.s 			page 46


 1230              		.section	.text.MX_RTC_Init,"ax",%progbits
 1231              		.align	1
 1232              		.syntax unified
 1233              		.thumb
 1234              		.thumb_func
 1236              	MX_RTC_Init:
 1237              	.LFB239:
 531:Core/Src/main.c **** 
 1238              		.loc 1 531 1 view -0
 1239              		.cfi_startproc
 1240              		@ args = 0, pretend = 0, frame = 24
 1241              		@ frame_needed = 0, uses_anonymous_args = 0
 1242 0000 00B5     		push	{lr}
 1243              		.cfi_def_cfa_offset 4
 1244              		.cfi_offset 14, -4
 1245 0002 87B0     		sub	sp, sp, #28
 1246              		.cfi_def_cfa_offset 32
 537:Core/Src/main.c ****   RTC_DateTypeDef sDate = {0};
 1247              		.loc 1 537 3 view .LVU325
 537:Core/Src/main.c ****   RTC_DateTypeDef sDate = {0};
 1248              		.loc 1 537 19 is_stmt 0 view .LVU326
 1249 0004 0023     		movs	r3, #0
 1250 0006 0193     		str	r3, [sp, #4]
 1251 0008 0293     		str	r3, [sp, #8]
 1252 000a 0393     		str	r3, [sp, #12]
 1253 000c 0493     		str	r3, [sp, #16]
 1254 000e 0593     		str	r3, [sp, #20]
 538:Core/Src/main.c **** 
 1255              		.loc 1 538 3 is_stmt 1 view .LVU327
 538:Core/Src/main.c **** 
 1256              		.loc 1 538 19 is_stmt 0 view .LVU328
 1257 0010 0093     		str	r3, [sp]
 546:Core/Src/main.c ****   hrtc.Init.HourFormat = RTC_HOURFORMAT_24;
 1258              		.loc 1 546 3 is_stmt 1 view .LVU329
 546:Core/Src/main.c ****   hrtc.Init.HourFormat = RTC_HOURFORMAT_24;
 1259              		.loc 1 546 17 is_stmt 0 view .LVU330
 1260 0012 1948     		ldr	r0, .L88
 1261 0014 194A     		ldr	r2, .L88+4
 1262 0016 0260     		str	r2, [r0]
 547:Core/Src/main.c ****   hrtc.Init.AsynchPrediv = 127;
 1263              		.loc 1 547 3 is_stmt 1 view .LVU331
 547:Core/Src/main.c ****   hrtc.Init.AsynchPrediv = 127;
 1264              		.loc 1 547 24 is_stmt 0 view .LVU332
 1265 0018 4360     		str	r3, [r0, #4]
 548:Core/Src/main.c ****   hrtc.Init.SynchPrediv = 255;
 1266              		.loc 1 548 3 is_stmt 1 view .LVU333
 548:Core/Src/main.c ****   hrtc.Init.SynchPrediv = 255;
 1267              		.loc 1 548 26 is_stmt 0 view .LVU334
 1268 001a 7F22     		movs	r2, #127
 1269 001c 8260     		str	r2, [r0, #8]
 549:Core/Src/main.c ****   hrtc.Init.OutPut = RTC_OUTPUT_DISABLE;
 1270              		.loc 1 549 3 is_stmt 1 view .LVU335
 549:Core/Src/main.c ****   hrtc.Init.OutPut = RTC_OUTPUT_DISABLE;
 1271              		.loc 1 549 25 is_stmt 0 view .LVU336
 1272 001e FF22     		movs	r2, #255
 1273 0020 C260     		str	r2, [r0, #12]
 550:Core/Src/main.c ****   hrtc.Init.OutPutRemap = RTC_OUTPUT_REMAP_NONE;
ARM GAS  /tmp/ccYdMxmM.s 			page 47


 1274              		.loc 1 550 3 is_stmt 1 view .LVU337
 550:Core/Src/main.c ****   hrtc.Init.OutPutRemap = RTC_OUTPUT_REMAP_NONE;
 1275              		.loc 1 550 20 is_stmt 0 view .LVU338
 1276 0022 0361     		str	r3, [r0, #16]
 551:Core/Src/main.c ****   hrtc.Init.OutPutPolarity = RTC_OUTPUT_POLARITY_HIGH;
 1277              		.loc 1 551 3 is_stmt 1 view .LVU339
 551:Core/Src/main.c ****   hrtc.Init.OutPutPolarity = RTC_OUTPUT_POLARITY_HIGH;
 1278              		.loc 1 551 25 is_stmt 0 view .LVU340
 1279 0024 4361     		str	r3, [r0, #20]
 552:Core/Src/main.c ****   hrtc.Init.OutPutType = RTC_OUTPUT_TYPE_OPENDRAIN;
 1280              		.loc 1 552 3 is_stmt 1 view .LVU341
 552:Core/Src/main.c ****   hrtc.Init.OutPutType = RTC_OUTPUT_TYPE_OPENDRAIN;
 1281              		.loc 1 552 28 is_stmt 0 view .LVU342
 1282 0026 8361     		str	r3, [r0, #24]
 553:Core/Src/main.c ****   if (HAL_RTC_Init(&hrtc) != HAL_OK)
 1283              		.loc 1 553 3 is_stmt 1 view .LVU343
 553:Core/Src/main.c ****   if (HAL_RTC_Init(&hrtc) != HAL_OK)
 1284              		.loc 1 553 24 is_stmt 0 view .LVU344
 1285 0028 C361     		str	r3, [r0, #28]
 554:Core/Src/main.c ****   {
 1286              		.loc 1 554 3 is_stmt 1 view .LVU345
 554:Core/Src/main.c ****   {
 1287              		.loc 1 554 7 is_stmt 0 view .LVU346
 1288 002a FFF7FEFF 		bl	HAL_RTC_Init
 1289              	.LVL83:
 554:Core/Src/main.c ****   {
 1290              		.loc 1 554 6 discriminator 1 view .LVU347
 1291 002e E8B9     		cbnz	r0, .L85
 565:Core/Src/main.c ****   sTime.Minutes = 0x0;
 1292              		.loc 1 565 3 is_stmt 1 view .LVU348
 565:Core/Src/main.c ****   sTime.Minutes = 0x0;
 1293              		.loc 1 565 15 is_stmt 0 view .LVU349
 1294 0030 8DF80400 		strb	r0, [sp, #4]
 566:Core/Src/main.c ****   sTime.Seconds = 0x0;
 1295              		.loc 1 566 3 is_stmt 1 view .LVU350
 566:Core/Src/main.c ****   sTime.Seconds = 0x0;
 1296              		.loc 1 566 17 is_stmt 0 view .LVU351
 1297 0034 8DF80500 		strb	r0, [sp, #5]
 567:Core/Src/main.c ****   sTime.DayLightSaving = RTC_DAYLIGHTSAVING_NONE;
 1298              		.loc 1 567 3 is_stmt 1 view .LVU352
 567:Core/Src/main.c ****   sTime.DayLightSaving = RTC_DAYLIGHTSAVING_NONE;
 1299              		.loc 1 567 17 is_stmt 0 view .LVU353
 1300 0038 8DF80600 		strb	r0, [sp, #6]
 568:Core/Src/main.c ****   sTime.StoreOperation = RTC_STOREOPERATION_RESET;
 1301              		.loc 1 568 3 is_stmt 1 view .LVU354
 568:Core/Src/main.c ****   sTime.StoreOperation = RTC_STOREOPERATION_RESET;
 1302              		.loc 1 568 24 is_stmt 0 view .LVU355
 1303 003c 0490     		str	r0, [sp, #16]
 569:Core/Src/main.c ****   if (HAL_RTC_SetTime(&hrtc, &sTime, RTC_FORMAT_BCD) != HAL_OK)
 1304              		.loc 1 569 3 is_stmt 1 view .LVU356
 569:Core/Src/main.c ****   if (HAL_RTC_SetTime(&hrtc, &sTime, RTC_FORMAT_BCD) != HAL_OK)
 1305              		.loc 1 569 24 is_stmt 0 view .LVU357
 1306 003e 0590     		str	r0, [sp, #20]
 570:Core/Src/main.c ****   {
 1307              		.loc 1 570 3 is_stmt 1 view .LVU358
 570:Core/Src/main.c ****   {
 1308              		.loc 1 570 7 is_stmt 0 view .LVU359
ARM GAS  /tmp/ccYdMxmM.s 			page 48


 1309 0040 0122     		movs	r2, #1
 1310 0042 01A9     		add	r1, sp, #4
 1311 0044 0C48     		ldr	r0, .L88
 1312 0046 FFF7FEFF 		bl	HAL_RTC_SetTime
 1313              	.LVL84:
 570:Core/Src/main.c ****   {
 1314              		.loc 1 570 6 discriminator 1 view .LVU360
 1315 004a 88B9     		cbnz	r0, .L86
 574:Core/Src/main.c ****   sDate.Month = RTC_MONTH_JANUARY;
 1316              		.loc 1 574 3 is_stmt 1 view .LVU361
 574:Core/Src/main.c ****   sDate.Month = RTC_MONTH_JANUARY;
 1317              		.loc 1 574 17 is_stmt 0 view .LVU362
 1318 004c 0122     		movs	r2, #1
 1319 004e 8DF80020 		strb	r2, [sp]
 575:Core/Src/main.c ****   sDate.Date = 0x1;
 1320              		.loc 1 575 3 is_stmt 1 view .LVU363
 575:Core/Src/main.c ****   sDate.Date = 0x1;
 1321              		.loc 1 575 15 is_stmt 0 view .LVU364
 1322 0052 8DF80120 		strb	r2, [sp, #1]
 576:Core/Src/main.c ****   sDate.Year = 0x0;
 1323              		.loc 1 576 3 is_stmt 1 view .LVU365
 576:Core/Src/main.c ****   sDate.Year = 0x0;
 1324              		.loc 1 576 14 is_stmt 0 view .LVU366
 1325 0056 8DF80220 		strb	r2, [sp, #2]
 577:Core/Src/main.c **** 
 1326              		.loc 1 577 3 is_stmt 1 view .LVU367
 577:Core/Src/main.c **** 
 1327              		.loc 1 577 14 is_stmt 0 view .LVU368
 1328 005a 8DF80300 		strb	r0, [sp, #3]
 579:Core/Src/main.c ****   {
 1329              		.loc 1 579 3 is_stmt 1 view .LVU369
 579:Core/Src/main.c ****   {
 1330              		.loc 1 579 7 is_stmt 0 view .LVU370
 1331 005e 6946     		mov	r1, sp
 1332 0060 0548     		ldr	r0, .L88
 1333 0062 FFF7FEFF 		bl	HAL_RTC_SetDate
 1334              	.LVL85:
 579:Core/Src/main.c ****   {
 1335              		.loc 1 579 6 discriminator 1 view .LVU371
 1336 0066 28B9     		cbnz	r0, .L87
 587:Core/Src/main.c **** 
 1337              		.loc 1 587 1 view .LVU372
 1338 0068 07B0     		add	sp, sp, #28
 1339              		.cfi_remember_state
 1340              		.cfi_def_cfa_offset 4
 1341              		@ sp needed
 1342 006a 00BD     		pop	{pc}
 1343              	.L85:
 1344              		.cfi_restore_state
 556:Core/Src/main.c ****   }
 1345              		.loc 1 556 5 is_stmt 1 view .LVU373
 1346 006c FFF7FEFF 		bl	Error_Handler
 1347              	.LVL86:
 1348              	.L86:
 572:Core/Src/main.c ****   }
 1349              		.loc 1 572 5 view .LVU374
 1350 0070 FFF7FEFF 		bl	Error_Handler
ARM GAS  /tmp/ccYdMxmM.s 			page 49


 1351              	.LVL87:
 1352              	.L87:
 581:Core/Src/main.c ****   }
 1353              		.loc 1 581 5 view .LVU375
 1354 0074 FFF7FEFF 		bl	Error_Handler
 1355              	.LVL88:
 1356              	.L89:
 1357              		.align	2
 1358              	.L88:
 1359 0078 00000000 		.word	hrtc
 1360 007c 00280040 		.word	1073752064
 1361              		.cfi_endproc
 1362              	.LFE239:
 1364              		.section	.text.MX_I2C2_Init,"ax",%progbits
 1365              		.align	1
 1366              		.syntax unified
 1367              		.thumb
 1368              		.thumb_func
 1370              	MX_I2C2_Init:
 1371              	.LFB234:
 344:Core/Src/main.c **** 
 1372              		.loc 1 344 1 view -0
 1373              		.cfi_startproc
 1374              		@ args = 0, pretend = 0, frame = 0
 1375              		@ frame_needed = 0, uses_anonymous_args = 0
 1376 0000 08B5     		push	{r3, lr}
 1377              		.cfi_def_cfa_offset 8
 1378              		.cfi_offset 3, -8
 1379              		.cfi_offset 14, -4
 353:Core/Src/main.c ****   hi2c2.Init.Timing = 0x10D19CE4;
 1380              		.loc 1 353 3 view .LVU377
 353:Core/Src/main.c ****   hi2c2.Init.Timing = 0x10D19CE4;
 1381              		.loc 1 353 18 is_stmt 0 view .LVU378
 1382 0002 1148     		ldr	r0, .L98
 1383 0004 114B     		ldr	r3, .L98+4
 1384 0006 0360     		str	r3, [r0]
 354:Core/Src/main.c ****   hi2c2.Init.OwnAddress1 = 0;
 1385              		.loc 1 354 3 is_stmt 1 view .LVU379
 354:Core/Src/main.c ****   hi2c2.Init.OwnAddress1 = 0;
 1386              		.loc 1 354 21 is_stmt 0 view .LVU380
 1387 0008 114B     		ldr	r3, .L98+8
 1388 000a 4360     		str	r3, [r0, #4]
 355:Core/Src/main.c ****   hi2c2.Init.AddressingMode = I2C_ADDRESSINGMODE_7BIT;
 1389              		.loc 1 355 3 is_stmt 1 view .LVU381
 355:Core/Src/main.c ****   hi2c2.Init.AddressingMode = I2C_ADDRESSINGMODE_7BIT;
 1390              		.loc 1 355 26 is_stmt 0 view .LVU382
 1391 000c 0023     		movs	r3, #0
 1392 000e 8360     		str	r3, [r0, #8]
 356:Core/Src/main.c ****   hi2c2.Init.DualAddressMode = I2C_DUALADDRESS_DISABLE;
 1393              		.loc 1 356 3 is_stmt 1 view .LVU383
 356:Core/Src/main.c ****   hi2c2.Init.DualAddressMode = I2C_DUALADDRESS_DISABLE;
 1394              		.loc 1 356 29 is_stmt 0 view .LVU384
 1395 0010 0122     		movs	r2, #1
 1396 0012 C260     		str	r2, [r0, #12]
 357:Core/Src/main.c ****   hi2c2.Init.OwnAddress2 = 0;
 1397              		.loc 1 357 3 is_stmt 1 view .LVU385
 357:Core/Src/main.c ****   hi2c2.Init.OwnAddress2 = 0;
ARM GAS  /tmp/ccYdMxmM.s 			page 50


 1398              		.loc 1 357 30 is_stmt 0 view .LVU386
 1399 0014 0361     		str	r3, [r0, #16]
 358:Core/Src/main.c ****   hi2c2.Init.OwnAddress2Masks = I2C_OA2_NOMASK;
 1400              		.loc 1 358 3 is_stmt 1 view .LVU387
 358:Core/Src/main.c ****   hi2c2.Init.OwnAddress2Masks = I2C_OA2_NOMASK;
 1401              		.loc 1 358 26 is_stmt 0 view .LVU388
 1402 0016 4361     		str	r3, [r0, #20]
 359:Core/Src/main.c ****   hi2c2.Init.GeneralCallMode = I2C_GENERALCALL_DISABLE;
 1403              		.loc 1 359 3 is_stmt 1 view .LVU389
 359:Core/Src/main.c ****   hi2c2.Init.GeneralCallMode = I2C_GENERALCALL_DISABLE;
 1404              		.loc 1 359 31 is_stmt 0 view .LVU390
 1405 0018 8361     		str	r3, [r0, #24]
 360:Core/Src/main.c ****   hi2c2.Init.NoStretchMode = I2C_NOSTRETCH_DISABLE;
 1406              		.loc 1 360 3 is_stmt 1 view .LVU391
 360:Core/Src/main.c ****   hi2c2.Init.NoStretchMode = I2C_NOSTRETCH_DISABLE;
 1407              		.loc 1 360 30 is_stmt 0 view .LVU392
 1408 001a C361     		str	r3, [r0, #28]
 361:Core/Src/main.c ****   if (HAL_I2C_Init(&hi2c2) != HAL_OK)
 1409              		.loc 1 361 3 is_stmt 1 view .LVU393
 361:Core/Src/main.c ****   if (HAL_I2C_Init(&hi2c2) != HAL_OK)
 1410              		.loc 1 361 28 is_stmt 0 view .LVU394
 1411 001c 0362     		str	r3, [r0, #32]
 362:Core/Src/main.c ****   {
 1412              		.loc 1 362 3 is_stmt 1 view .LVU395
 362:Core/Src/main.c ****   {
 1413              		.loc 1 362 7 is_stmt 0 view .LVU396
 1414 001e FFF7FEFF 		bl	HAL_I2C_Init
 1415              	.LVL89:
 362:Core/Src/main.c ****   {
 1416              		.loc 1 362 6 discriminator 1 view .LVU397
 1417 0022 50B9     		cbnz	r0, .L95
 369:Core/Src/main.c ****   {
 1418              		.loc 1 369 3 is_stmt 1 view .LVU398
 369:Core/Src/main.c ****   {
 1419              		.loc 1 369 7 is_stmt 0 view .LVU399
 1420 0024 0146     		mov	r1, r0
 1421 0026 0848     		ldr	r0, .L98
 1422 0028 FFF7FEFF 		bl	HAL_I2CEx_ConfigAnalogFilter
 1423              	.LVL90:
 369:Core/Src/main.c ****   {
 1424              		.loc 1 369 6 discriminator 1 view .LVU400
 1425 002c 38B9     		cbnz	r0, .L96
 376:Core/Src/main.c ****   {
 1426              		.loc 1 376 3 is_stmt 1 view .LVU401
 376:Core/Src/main.c ****   {
 1427              		.loc 1 376 7 is_stmt 0 view .LVU402
 1428 002e 0146     		mov	r1, r0
 1429 0030 0548     		ldr	r0, .L98
 1430 0032 FFF7FEFF 		bl	HAL_I2CEx_ConfigDigitalFilter
 1431              	.LVL91:
 376:Core/Src/main.c ****   {
 1432              		.loc 1 376 6 discriminator 1 view .LVU403
 1433 0036 20B9     		cbnz	r0, .L97
 384:Core/Src/main.c **** 
 1434              		.loc 1 384 1 view .LVU404
 1435 0038 08BD     		pop	{r3, pc}
 1436              	.L95:
ARM GAS  /tmp/ccYdMxmM.s 			page 51


 364:Core/Src/main.c ****   }
 1437              		.loc 1 364 5 is_stmt 1 view .LVU405
 1438 003a FFF7FEFF 		bl	Error_Handler
 1439              	.LVL92:
 1440              	.L96:
 371:Core/Src/main.c ****   }
 1441              		.loc 1 371 5 view .LVU406
 1442 003e FFF7FEFF 		bl	Error_Handler
 1443              	.LVL93:
 1444              	.L97:
 378:Core/Src/main.c ****   }
 1445              		.loc 1 378 5 view .LVU407
 1446 0042 FFF7FEFF 		bl	Error_Handler
 1447              	.LVL94:
 1448              	.L99:
 1449 0046 00BF     		.align	2
 1450              	.L98:
 1451 0048 00000000 		.word	hi2c2
 1452 004c 00580040 		.word	1073764352
 1453 0050 E49CD110 		.word	282172644
 1454              		.cfi_endproc
 1455              	.LFE234:
 1457              		.section	.rodata.MX_SDMMC1_SD_Init.str1.4,"aMS",%progbits,1
 1458              		.align	2
 1459              	.LC15:
 1460 0000 53442043 		.ascii	"SD CARD INIT\015\012\000"
 1460      41524420 
 1460      494E4954 
 1460      0D0A00
 1461              		.section	.text.MX_SDMMC1_SD_Init,"ax",%progbits
 1462              		.align	1
 1463              		.syntax unified
 1464              		.thumb
 1465              		.thumb_func
 1467              	MX_SDMMC1_SD_Init:
 1468              	.LFB240:
 595:Core/Src/main.c **** 
 1469              		.loc 1 595 1 view -0
 1470              		.cfi_startproc
 1471              		@ args = 0, pretend = 0, frame = 0
 1472              		@ frame_needed = 0, uses_anonymous_args = 0
 1473 0000 08B5     		push	{r3, lr}
 1474              		.cfi_def_cfa_offset 8
 1475              		.cfi_offset 3, -8
 1476              		.cfi_offset 14, -4
 604:Core/Src/main.c ****   hsd1.Init.ClockEdge = SDMMC_CLOCK_EDGE_RISING;
 1477              		.loc 1 604 3 view .LVU409
 604:Core/Src/main.c ****   hsd1.Init.ClockEdge = SDMMC_CLOCK_EDGE_RISING;
 1478              		.loc 1 604 17 is_stmt 0 view .LVU410
 1479 0002 1048     		ldr	r0, .L106
 1480 0004 104B     		ldr	r3, .L106+4
 1481 0006 0360     		str	r3, [r0]
 605:Core/Src/main.c ****   hsd1.Init.ClockBypass = SDMMC_CLOCK_BYPASS_DISABLE;
 1482              		.loc 1 605 3 is_stmt 1 view .LVU411
 605:Core/Src/main.c ****   hsd1.Init.ClockBypass = SDMMC_CLOCK_BYPASS_DISABLE;
 1483              		.loc 1 605 23 is_stmt 0 view .LVU412
 1484 0008 0023     		movs	r3, #0
ARM GAS  /tmp/ccYdMxmM.s 			page 52


 1485 000a 4360     		str	r3, [r0, #4]
 606:Core/Src/main.c ****   hsd1.Init.ClockPowerSave = SDMMC_CLOCK_POWER_SAVE_DISABLE;
 1486              		.loc 1 606 3 is_stmt 1 view .LVU413
 606:Core/Src/main.c ****   hsd1.Init.ClockPowerSave = SDMMC_CLOCK_POWER_SAVE_DISABLE;
 1487              		.loc 1 606 25 is_stmt 0 view .LVU414
 1488 000c 8360     		str	r3, [r0, #8]
 607:Core/Src/main.c ****   hsd1.Init.BusWide = SDMMC_BUS_WIDE_4B;
 1489              		.loc 1 607 3 is_stmt 1 view .LVU415
 607:Core/Src/main.c ****   hsd1.Init.BusWide = SDMMC_BUS_WIDE_4B;
 1490              		.loc 1 607 28 is_stmt 0 view .LVU416
 1491 000e C360     		str	r3, [r0, #12]
 608:Core/Src/main.c ****   hsd1.Init.HardwareFlowControl = SDMMC_HARDWARE_FLOW_CONTROL_ENABLE;
 1492              		.loc 1 608 3 is_stmt 1 view .LVU417
 608:Core/Src/main.c ****   hsd1.Init.HardwareFlowControl = SDMMC_HARDWARE_FLOW_CONTROL_ENABLE;
 1493              		.loc 1 608 21 is_stmt 0 view .LVU418
 1494 0010 4FF40062 		mov	r2, #2048
 1495 0014 0261     		str	r2, [r0, #16]
 609:Core/Src/main.c ****   hsd1.Init.ClockDiv = 0;
 1496              		.loc 1 609 3 is_stmt 1 view .LVU419
 609:Core/Src/main.c ****   hsd1.Init.ClockDiv = 0;
 1497              		.loc 1 609 33 is_stmt 0 view .LVU420
 1498 0016 4FF48042 		mov	r2, #16384
 1499 001a 4261     		str	r2, [r0, #20]
 610:Core/Src/main.c ****   /* USER CODE BEGIN SDMMC1_Init 2 */
 1500              		.loc 1 610 3 is_stmt 1 view .LVU421
 610:Core/Src/main.c ****   /* USER CODE BEGIN SDMMC1_Init 2 */
 1501              		.loc 1 610 22 is_stmt 0 view .LVU422
 1502 001c 8361     		str	r3, [r0, #24]
 614:Core/Src/main.c ****   if (HAL_SD_Init(&hsd1) != HAL_OK) {
 1503              		.loc 1 614 3 is_stmt 1 view .LVU423
 614:Core/Src/main.c ****   if (HAL_SD_Init(&hsd1) != HAL_OK) {
 1504              		.loc 1 614 21 is_stmt 0 view .LVU424
 1505 001e 0361     		str	r3, [r0, #16]
 615:Core/Src/main.c ****      Error_Handler();
 1506              		.loc 1 615 3 is_stmt 1 view .LVU425
 615:Core/Src/main.c ****      Error_Handler();
 1507              		.loc 1 615 7 is_stmt 0 view .LVU426
 1508 0020 FFF7FEFF 		bl	HAL_SD_Init
 1509              	.LVL95:
 615:Core/Src/main.c ****      Error_Handler();
 1510              		.loc 1 615 6 discriminator 1 view .LVU427
 1511 0024 50B9     		cbnz	r0, .L104
 620:Core/Src/main.c ****     Error_Handler();
 1512              		.loc 1 620 2 is_stmt 1 view .LVU428
 620:Core/Src/main.c ****     Error_Handler();
 1513              		.loc 1 620 6 is_stmt 0 view .LVU429
 1514 0026 4FF40061 		mov	r1, #2048
 1515 002a 0648     		ldr	r0, .L106
 1516 002c FFF7FEFF 		bl	HAL_SD_ConfigWideBusOperation
 1517              	.LVL96:
 620:Core/Src/main.c ****     Error_Handler();
 1518              		.loc 1 620 5 discriminator 1 view .LVU430
 1519 0030 30B9     		cbnz	r0, .L105
 624:Core/Src/main.c ****   
 1520              		.loc 1 624 3 is_stmt 1 view .LVU431
 1521 0032 0649     		ldr	r1, .L106+8
 1522 0034 0648     		ldr	r0, .L106+12
ARM GAS  /tmp/ccYdMxmM.s 			page 53


 1523 0036 FFF7FEFF 		bl	UART_SendString
 1524              	.LVL97:
 630:Core/Src/main.c **** 
 1525              		.loc 1 630 1 is_stmt 0 view .LVU432
 1526 003a 08BD     		pop	{r3, pc}
 1527              	.L104:
 616:Core/Src/main.c ****   }
 1528              		.loc 1 616 6 is_stmt 1 view .LVU433
 1529 003c FFF7FEFF 		bl	Error_Handler
 1530              	.LVL98:
 1531              	.L105:
 621:Core/Src/main.c ****  }
 1532              		.loc 1 621 5 view .LVU434
 1533 0040 FFF7FEFF 		bl	Error_Handler
 1534              	.LVL99:
 1535              	.L107:
 1536              		.align	2
 1537              	.L106:
 1538 0044 00000000 		.word	hsd1
 1539 0048 00280140 		.word	1073817600
 1540 004c 00000000 		.word	.LC15
 1541 0050 00000000 		.word	huart3
 1542              		.cfi_endproc
 1543              	.LFE240:
 1545              		.section	.text.MX_USART1_UART_Init,"ax",%progbits
 1546              		.align	1
 1547              		.syntax unified
 1548              		.thumb
 1549              		.thumb_func
 1551              	MX_USART1_UART_Init:
 1552              	.LFB236:
 426:Core/Src/main.c **** 
 1553              		.loc 1 426 1 view -0
 1554              		.cfi_startproc
 1555              		@ args = 0, pretend = 0, frame = 0
 1556              		@ frame_needed = 0, uses_anonymous_args = 0
 1557 0000 08B5     		push	{r3, lr}
 1558              		.cfi_def_cfa_offset 8
 1559              		.cfi_offset 3, -8
 1560              		.cfi_offset 14, -4
 435:Core/Src/main.c ****   huart1.Init.BaudRate = 115200;
 1561              		.loc 1 435 3 view .LVU436
 435:Core/Src/main.c ****   huart1.Init.BaudRate = 115200;
 1562              		.loc 1 435 19 is_stmt 0 view .LVU437
 1563 0002 0B48     		ldr	r0, .L112
 1564 0004 0B4B     		ldr	r3, .L112+4
 1565 0006 0360     		str	r3, [r0]
 436:Core/Src/main.c ****   huart1.Init.WordLength = UART_WORDLENGTH_8B;
 1566              		.loc 1 436 3 is_stmt 1 view .LVU438
 436:Core/Src/main.c ****   huart1.Init.WordLength = UART_WORDLENGTH_8B;
 1567              		.loc 1 436 24 is_stmt 0 view .LVU439
 1568 0008 4FF4E133 		mov	r3, #115200
 1569 000c 4360     		str	r3, [r0, #4]
 437:Core/Src/main.c ****   huart1.Init.StopBits = UART_STOPBITS_1;
 1570              		.loc 1 437 3 is_stmt 1 view .LVU440
 437:Core/Src/main.c ****   huart1.Init.StopBits = UART_STOPBITS_1;
 1571              		.loc 1 437 26 is_stmt 0 view .LVU441
ARM GAS  /tmp/ccYdMxmM.s 			page 54


 1572 000e 0023     		movs	r3, #0
 1573 0010 8360     		str	r3, [r0, #8]
 438:Core/Src/main.c ****   huart1.Init.Parity = UART_PARITY_NONE;
 1574              		.loc 1 438 3 is_stmt 1 view .LVU442
 438:Core/Src/main.c ****   huart1.Init.Parity = UART_PARITY_NONE;
 1575              		.loc 1 438 24 is_stmt 0 view .LVU443
 1576 0012 C360     		str	r3, [r0, #12]
 439:Core/Src/main.c ****   huart1.Init.Mode = UART_MODE_TX_RX;
 1577              		.loc 1 439 3 is_stmt 1 view .LVU444
 439:Core/Src/main.c ****   huart1.Init.Mode = UART_MODE_TX_RX;
 1578              		.loc 1 439 22 is_stmt 0 view .LVU445
 1579 0014 0361     		str	r3, [r0, #16]
 440:Core/Src/main.c ****   huart1.Init.HwFlowCtl = UART_HWCONTROL_NONE;
 1580              		.loc 1 440 3 is_stmt 1 view .LVU446
 440:Core/Src/main.c ****   huart1.Init.HwFlowCtl = UART_HWCONTROL_NONE;
 1581              		.loc 1 440 20 is_stmt 0 view .LVU447
 1582 0016 0C22     		movs	r2, #12
 1583 0018 4261     		str	r2, [r0, #20]
 441:Core/Src/main.c ****   huart1.Init.OverSampling = UART_OVERSAMPLING_16;
 1584              		.loc 1 441 3 is_stmt 1 view .LVU448
 441:Core/Src/main.c ****   huart1.Init.OverSampling = UART_OVERSAMPLING_16;
 1585              		.loc 1 441 25 is_stmt 0 view .LVU449
 1586 001a 8361     		str	r3, [r0, #24]
 442:Core/Src/main.c ****   huart1.Init.OneBitSampling = UART_ONE_BIT_SAMPLE_DISABLE;
 1587              		.loc 1 442 3 is_stmt 1 view .LVU450
 442:Core/Src/main.c ****   huart1.Init.OneBitSampling = UART_ONE_BIT_SAMPLE_DISABLE;
 1588              		.loc 1 442 28 is_stmt 0 view .LVU451
 1589 001c C361     		str	r3, [r0, #28]
 443:Core/Src/main.c ****   huart1.AdvancedInit.AdvFeatureInit = UART_ADVFEATURE_NO_INIT;
 1590              		.loc 1 443 3 is_stmt 1 view .LVU452
 443:Core/Src/main.c ****   huart1.AdvancedInit.AdvFeatureInit = UART_ADVFEATURE_NO_INIT;
 1591              		.loc 1 443 30 is_stmt 0 view .LVU453
 1592 001e 0362     		str	r3, [r0, #32]
 444:Core/Src/main.c ****   if (HAL_UART_Init(&huart1) != HAL_OK)
 1593              		.loc 1 444 3 is_stmt 1 view .LVU454
 444:Core/Src/main.c ****   if (HAL_UART_Init(&huart1) != HAL_OK)
 1594              		.loc 1 444 38 is_stmt 0 view .LVU455
 1595 0020 4362     		str	r3, [r0, #36]
 445:Core/Src/main.c ****   {
 1596              		.loc 1 445 3 is_stmt 1 view .LVU456
 445:Core/Src/main.c ****   {
 1597              		.loc 1 445 7 is_stmt 0 view .LVU457
 1598 0022 FFF7FEFF 		bl	HAL_UART_Init
 1599              	.LVL100:
 445:Core/Src/main.c ****   {
 1600              		.loc 1 445 6 discriminator 1 view .LVU458
 1601 0026 00B9     		cbnz	r0, .L111
 453:Core/Src/main.c **** 
 1602              		.loc 1 453 1 view .LVU459
 1603 0028 08BD     		pop	{r3, pc}
 1604              	.L111:
 447:Core/Src/main.c ****   }
 1605              		.loc 1 447 5 is_stmt 1 view .LVU460
 1606 002a FFF7FEFF 		bl	Error_Handler
 1607              	.LVL101:
 1608              	.L113:
 1609 002e 00BF     		.align	2
ARM GAS  /tmp/ccYdMxmM.s 			page 55


 1610              	.L112:
 1611 0030 00000000 		.word	huart1
 1612 0034 00380140 		.word	1073821696
 1613              		.cfi_endproc
 1614              	.LFE236:
 1616              		.section	.text.SystemClock_Config,"ax",%progbits
 1617              		.align	1
 1618              		.global	SystemClock_Config
 1619              		.syntax unified
 1620              		.thumb
 1621              		.thumb_func
 1623              	SystemClock_Config:
 1624              	.LFB233:
 292:Core/Src/main.c ****   RCC_OscInitTypeDef RCC_OscInitStruct = {0};
 1625              		.loc 1 292 1 view -0
 1626              		.cfi_startproc
 1627              		@ args = 0, pretend = 0, frame = 88
 1628              		@ frame_needed = 0, uses_anonymous_args = 0
 1629 0000 00B5     		push	{lr}
 1630              		.cfi_def_cfa_offset 4
 1631              		.cfi_offset 14, -4
 1632 0002 97B0     		sub	sp, sp, #92
 1633              		.cfi_def_cfa_offset 96
 293:Core/Src/main.c ****   RCC_ClkInitTypeDef RCC_ClkInitStruct = {0};
 1634              		.loc 1 293 3 view .LVU462
 293:Core/Src/main.c ****   RCC_ClkInitTypeDef RCC_ClkInitStruct = {0};
 1635              		.loc 1 293 22 is_stmt 0 view .LVU463
 1636 0004 4422     		movs	r2, #68
 1637 0006 0021     		movs	r1, #0
 1638 0008 05A8     		add	r0, sp, #20
 1639 000a FFF7FEFF 		bl	memset
 1640              	.LVL102:
 294:Core/Src/main.c **** 
 1641              		.loc 1 294 3 is_stmt 1 view .LVU464
 294:Core/Src/main.c **** 
 1642              		.loc 1 294 22 is_stmt 0 view .LVU465
 1643 000e 0023     		movs	r3, #0
 1644 0010 0093     		str	r3, [sp]
 1645 0012 0193     		str	r3, [sp, #4]
 1646 0014 0293     		str	r3, [sp, #8]
 1647 0016 0393     		str	r3, [sp, #12]
 1648 0018 0493     		str	r3, [sp, #16]
 298:Core/Src/main.c ****   {
 1649              		.loc 1 298 3 is_stmt 1 view .LVU466
 298:Core/Src/main.c ****   {
 1650              		.loc 1 298 7 is_stmt 0 view .LVU467
 1651 001a 4FF40070 		mov	r0, #512
 1652 001e FFF7FEFF 		bl	HAL_PWREx_ControlVoltageScaling
 1653              	.LVL103:
 298:Core/Src/main.c ****   {
 1654              		.loc 1 298 6 discriminator 1 view .LVU468
 1655 0022 20BB     		cbnz	r0, .L119
 306:Core/Src/main.c ****   RCC_OscInitStruct.LSIState = RCC_LSI_ON;
 1656              		.loc 1 306 3 is_stmt 1 view .LVU469
 306:Core/Src/main.c ****   RCC_OscInitStruct.LSIState = RCC_LSI_ON;
 1657              		.loc 1 306 36 is_stmt 0 view .LVU470
 1658 0024 1823     		movs	r3, #24
ARM GAS  /tmp/ccYdMxmM.s 			page 56


 1659 0026 0593     		str	r3, [sp, #20]
 307:Core/Src/main.c ****   RCC_OscInitStruct.MSIState = RCC_MSI_ON;
 1660              		.loc 1 307 3 is_stmt 1 view .LVU471
 307:Core/Src/main.c ****   RCC_OscInitStruct.MSIState = RCC_MSI_ON;
 1661              		.loc 1 307 30 is_stmt 0 view .LVU472
 1662 0028 0123     		movs	r3, #1
 1663 002a 0A93     		str	r3, [sp, #40]
 308:Core/Src/main.c ****   RCC_OscInitStruct.MSICalibrationValue = 0;
 1664              		.loc 1 308 3 is_stmt 1 view .LVU473
 308:Core/Src/main.c ****   RCC_OscInitStruct.MSICalibrationValue = 0;
 1665              		.loc 1 308 30 is_stmt 0 view .LVU474
 1666 002c 0B93     		str	r3, [sp, #44]
 309:Core/Src/main.c ****   RCC_OscInitStruct.MSIClockRange = RCC_MSIRANGE_6;
 1667              		.loc 1 309 3 is_stmt 1 view .LVU475
 309:Core/Src/main.c ****   RCC_OscInitStruct.MSIClockRange = RCC_MSIRANGE_6;
 1668              		.loc 1 309 41 is_stmt 0 view .LVU476
 1669 002e 0C90     		str	r0, [sp, #48]
 310:Core/Src/main.c ****   RCC_OscInitStruct.PLL.PLLState = RCC_PLL_ON;
 1670              		.loc 1 310 3 is_stmt 1 view .LVU477
 310:Core/Src/main.c ****   RCC_OscInitStruct.PLL.PLLState = RCC_PLL_ON;
 1671              		.loc 1 310 35 is_stmt 0 view .LVU478
 1672 0030 6022     		movs	r2, #96
 1673 0032 0D92     		str	r2, [sp, #52]
 311:Core/Src/main.c ****   RCC_OscInitStruct.PLL.PLLSource = RCC_PLLSOURCE_MSI;
 1674              		.loc 1 311 3 is_stmt 1 view .LVU479
 311:Core/Src/main.c ****   RCC_OscInitStruct.PLL.PLLSource = RCC_PLLSOURCE_MSI;
 1675              		.loc 1 311 34 is_stmt 0 view .LVU480
 1676 0034 0222     		movs	r2, #2
 1677 0036 0F92     		str	r2, [sp, #60]
 312:Core/Src/main.c ****   RCC_OscInitStruct.PLL.PLLM = 1;
 1678              		.loc 1 312 3 is_stmt 1 view .LVU481
 312:Core/Src/main.c ****   RCC_OscInitStruct.PLL.PLLM = 1;
 1679              		.loc 1 312 35 is_stmt 0 view .LVU482
 1680 0038 1093     		str	r3, [sp, #64]
 313:Core/Src/main.c ****   RCC_OscInitStruct.PLL.PLLN = 40;
 1681              		.loc 1 313 3 is_stmt 1 view .LVU483
 313:Core/Src/main.c ****   RCC_OscInitStruct.PLL.PLLN = 40;
 1682              		.loc 1 313 30 is_stmt 0 view .LVU484
 1683 003a 1193     		str	r3, [sp, #68]
 314:Core/Src/main.c ****   RCC_OscInitStruct.PLL.PLLP = RCC_PLLP_DIV7;
 1684              		.loc 1 314 3 is_stmt 1 view .LVU485
 314:Core/Src/main.c ****   RCC_OscInitStruct.PLL.PLLP = RCC_PLLP_DIV7;
 1685              		.loc 1 314 30 is_stmt 0 view .LVU486
 1686 003c 2823     		movs	r3, #40
 1687 003e 1293     		str	r3, [sp, #72]
 315:Core/Src/main.c ****   RCC_OscInitStruct.PLL.PLLQ = RCC_PLLQ_DIV4;
 1688              		.loc 1 315 3 is_stmt 1 view .LVU487
 315:Core/Src/main.c ****   RCC_OscInitStruct.PLL.PLLQ = RCC_PLLQ_DIV4;
 1689              		.loc 1 315 30 is_stmt 0 view .LVU488
 1690 0040 0723     		movs	r3, #7
 1691 0042 1393     		str	r3, [sp, #76]
 316:Core/Src/main.c ****   RCC_OscInitStruct.PLL.PLLR = RCC_PLLR_DIV2;
 1692              		.loc 1 316 3 is_stmt 1 view .LVU489
 316:Core/Src/main.c ****   RCC_OscInitStruct.PLL.PLLR = RCC_PLLR_DIV2;
 1693              		.loc 1 316 30 is_stmt 0 view .LVU490
 1694 0044 0423     		movs	r3, #4
 1695 0046 1493     		str	r3, [sp, #80]
ARM GAS  /tmp/ccYdMxmM.s 			page 57


 317:Core/Src/main.c ****   if (HAL_RCC_OscConfig(&RCC_OscInitStruct) != HAL_OK)
 1696              		.loc 1 317 3 is_stmt 1 view .LVU491
 317:Core/Src/main.c ****   if (HAL_RCC_OscConfig(&RCC_OscInitStruct) != HAL_OK)
 1697              		.loc 1 317 30 is_stmt 0 view .LVU492
 1698 0048 1592     		str	r2, [sp, #84]
 318:Core/Src/main.c ****   {
 1699              		.loc 1 318 3 is_stmt 1 view .LVU493
 318:Core/Src/main.c ****   {
 1700              		.loc 1 318 7 is_stmt 0 view .LVU494
 1701 004a 05A8     		add	r0, sp, #20
 1702 004c FFF7FEFF 		bl	HAL_RCC_OscConfig
 1703              	.LVL104:
 318:Core/Src/main.c ****   {
 1704              		.loc 1 318 6 discriminator 1 view .LVU495
 1705 0050 78B9     		cbnz	r0, .L120
 325:Core/Src/main.c ****                               |RCC_CLOCKTYPE_PCLK1|RCC_CLOCKTYPE_PCLK2;
 1706              		.loc 1 325 3 is_stmt 1 view .LVU496
 325:Core/Src/main.c ****                               |RCC_CLOCKTYPE_PCLK1|RCC_CLOCKTYPE_PCLK2;
 1707              		.loc 1 325 31 is_stmt 0 view .LVU497
 1708 0052 0F23     		movs	r3, #15
 1709 0054 0093     		str	r3, [sp]
 327:Core/Src/main.c ****   RCC_ClkInitStruct.AHBCLKDivider = RCC_SYSCLK_DIV1;
 1710              		.loc 1 327 3 is_stmt 1 view .LVU498
 327:Core/Src/main.c ****   RCC_ClkInitStruct.AHBCLKDivider = RCC_SYSCLK_DIV1;
 1711              		.loc 1 327 34 is_stmt 0 view .LVU499
 1712 0056 0323     		movs	r3, #3
 1713 0058 0193     		str	r3, [sp, #4]
 328:Core/Src/main.c ****   RCC_ClkInitStruct.APB1CLKDivider = RCC_HCLK_DIV1;
 1714              		.loc 1 328 3 is_stmt 1 view .LVU500
 328:Core/Src/main.c ****   RCC_ClkInitStruct.APB1CLKDivider = RCC_HCLK_DIV1;
 1715              		.loc 1 328 35 is_stmt 0 view .LVU501
 1716 005a 0290     		str	r0, [sp, #8]
 329:Core/Src/main.c ****   RCC_ClkInitStruct.APB2CLKDivider = RCC_HCLK_DIV1;
 1717              		.loc 1 329 3 is_stmt 1 view .LVU502
 329:Core/Src/main.c ****   RCC_ClkInitStruct.APB2CLKDivider = RCC_HCLK_DIV1;
 1718              		.loc 1 329 36 is_stmt 0 view .LVU503
 1719 005c 0390     		str	r0, [sp, #12]
 330:Core/Src/main.c **** 
 1720              		.loc 1 330 3 is_stmt 1 view .LVU504
 330:Core/Src/main.c **** 
 1721              		.loc 1 330 36 is_stmt 0 view .LVU505
 1722 005e 0490     		str	r0, [sp, #16]
 332:Core/Src/main.c ****   {
 1723              		.loc 1 332 3 is_stmt 1 view .LVU506
 332:Core/Src/main.c ****   {
 1724              		.loc 1 332 7 is_stmt 0 view .LVU507
 1725 0060 0421     		movs	r1, #4
 1726 0062 6846     		mov	r0, sp
 1727 0064 FFF7FEFF 		bl	HAL_RCC_ClockConfig
 1728              	.LVL105:
 332:Core/Src/main.c ****   {
 1729              		.loc 1 332 6 discriminator 1 view .LVU508
 1730 0068 28B9     		cbnz	r0, .L121
 336:Core/Src/main.c **** 
 1731              		.loc 1 336 1 view .LVU509
 1732 006a 17B0     		add	sp, sp, #92
 1733              		.cfi_remember_state
ARM GAS  /tmp/ccYdMxmM.s 			page 58


 1734              		.cfi_def_cfa_offset 4
 1735              		@ sp needed
 1736 006c 00BD     		pop	{pc}
 1737              	.L119:
 1738              		.cfi_restore_state
 300:Core/Src/main.c ****   }
 1739              		.loc 1 300 5 is_stmt 1 view .LVU510
 1740 006e FFF7FEFF 		bl	Error_Handler
 1741              	.LVL106:
 1742              	.L120:
 320:Core/Src/main.c ****   }
 1743              		.loc 1 320 5 view .LVU511
 1744 0072 FFF7FEFF 		bl	Error_Handler
 1745              	.LVL107:
 1746              	.L121:
 334:Core/Src/main.c ****   }
 1747              		.loc 1 334 5 view .LVU512
 1748 0076 FFF7FEFF 		bl	Error_Handler
 1749              	.LVL108:
 1750              		.cfi_endproc
 1751              	.LFE233:
 1753              		.section	.rodata.main.str1.4,"aMS",%progbits,1
 1754              		.align	2
 1755              	.LC16:
 1756 0000 53455455 		.ascii	"SETUP\015\012\000"
 1756      500D0A00 
 1757              		.align	2
 1758              	.LC17:
 1759 0008 53442043 		.ascii	"SD Card Mounted Successfully!\015\012\000"
 1759      61726420 
 1759      4D6F756E 
 1759      74656420 
 1759      53756363 
 1760              		.align	2
 1761              	.LC18:
 1762 0028 46726565 		.ascii	"Free space: %lu KB\015\012\000"
 1762      20737061 
 1762      63653A20 
 1762      256C7520 
 1762      4B420D0A 
 1763 003d 000000   		.align	2
 1764              	.LC19:
 1765 0040 665F6765 		.ascii	"f_getfree FAILED - possible FAT type or config issu"
 1765      74667265 
 1765      65204641 
 1765      494C4544 
 1765      202D2070 
 1766 0073 650D0A00 		.ascii	"e\015\012\000"
 1767 0077 00       		.align	2
 1768              	.LC20:
 1769 0078 54455354 		.ascii	"TEST.txt\000"
 1769      2E747874 
 1769      00
 1770 0081 000000   		.align	2
 1771              	.LC21:
 1772 0084 665F6F70 		.ascii	"f_open TEST.txt result: %d\015\012\000"
 1772      656E2054 
ARM GAS  /tmp/ccYdMxmM.s 			page 59


 1772      4553542E 
 1772      74787420 
 1772      72657375 
 1773 00a1 000000   		.align	2
 1774              	.LC22:
 1775 00a4 68656C6C 		.ascii	"hello\000"
 1775      6F00
 1776 00aa 0000     		.align	2
 1777              	.LC23:
 1778 00ac 665F7772 		.ascii	"f_write result: %d, bytes: %u\015\012\000"
 1778      69746520 
 1778      72657375 
 1778      6C743A20 
 1778      25642C20 
 1779              		.align	2
 1780              	.LC24:
 1781 00cc 665F6F70 		.ascii	"f_open res: %d\015\012\000"
 1781      656E2072 
 1781      65733A20 
 1781      25640D0A 
 1781      00
 1782 00dd 000000   		.align	2
 1783              	.LC25:
 1784 00e0 256C750D 		.ascii	"%lu\015\012\000"
 1784      0A00
 1785 00e6 0000     		.align	2
 1786              	.LC26:
 1787 00e8 55707469 		.ascii	"Uptime written to SD card.\015\012\000"
 1787      6D652077 
 1787      72697474 
 1787      656E2074 
 1787      6F205344 
 1788 0105 000000   		.align	2
 1789              	.LC27:
 1790 0108 4661696C 		.ascii	"Failed to write uptime.\015\012\000"
 1790      65642074 
 1790      6F207772 
 1790      69746520 
 1790      75707469 
 1791 0122 0000     		.align	2
 1792              	.LC28:
 1793 0124 4661696C 		.ascii	"Failed to open uptime file for writing.\015\012\000"
 1793      65642074 
 1793      6F206F70 
 1793      656E2075 
 1793      7074696D 
 1794              		.section	.text.main,"ax",%progbits
 1795              		.align	1
 1796              		.global	main
 1797              		.syntax unified
 1798              		.thumb
 1799              		.thumb_func
 1801              	main:
 1802              	.LFB232:
 127:Core/Src/main.c **** 
 1803              		.loc 1 127 1 view -0
 1804              		.cfi_startproc
ARM GAS  /tmp/ccYdMxmM.s 			page 60


 1805              		@ args = 0, pretend = 0, frame = 88
 1806              		@ frame_needed = 0, uses_anonymous_args = 0
 1807 0000 70B5     		push	{r4, r5, r6, lr}
 1808              		.cfi_def_cfa_offset 16
 1809              		.cfi_offset 4, -16
 1810              		.cfi_offset 5, -12
 1811              		.cfi_offset 6, -8
 1812              		.cfi_offset 14, -4
 1813 0002 98B0     		sub	sp, sp, #96
 1814              		.cfi_def_cfa_offset 112
 136:Core/Src/main.c **** 
 1815              		.loc 1 136 3 view .LVU514
 1816 0004 FFF7FEFF 		bl	HAL_Init
 1817              	.LVL109:
 143:Core/Src/main.c **** 
 1818              		.loc 1 143 3 view .LVU515
 1819 0008 FFF7FEFF 		bl	SystemClock_Config
 1820              	.LVL110:
 151:Core/Src/main.c ****   MX_DMA_Init();
 1821              		.loc 1 151 3 view .LVU516
 1822 000c FFF7FEFF 		bl	MX_GPIO_Init
 1823              	.LVL111:
 152:Core/Src/main.c ****   MX_LPUART1_UART_Init();
 1824              		.loc 1 152 3 view .LVU517
 1825 0010 FFF7FEFF 		bl	MX_DMA_Init
 1826              	.LVL112:
 153:Core/Src/main.c ****   MX_USART2_UART_Init();
 1827              		.loc 1 153 3 view .LVU518
 1828 0014 FFF7FEFF 		bl	MX_LPUART1_UART_Init
 1829              	.LVL113:
 154:Core/Src/main.c ****   MX_USART3_UART_Init();
 1830              		.loc 1 154 3 view .LVU519
 1831 0018 FFF7FEFF 		bl	MX_USART2_UART_Init
 1832              	.LVL114:
 155:Core/Src/main.c ****   MX_SPI1_Init();
 1833              		.loc 1 155 3 view .LVU520
 1834 001c FFF7FEFF 		bl	MX_USART3_UART_Init
 1835              	.LVL115:
 156:Core/Src/main.c ****   MX_RTC_Init();
 1836              		.loc 1 156 3 view .LVU521
 1837 0020 FFF7FEFF 		bl	MX_SPI1_Init
 1838              	.LVL116:
 157:Core/Src/main.c ****   MX_I2C2_Init();
 1839              		.loc 1 157 3 view .LVU522
 1840 0024 FFF7FEFF 		bl	MX_RTC_Init
 1841              	.LVL117:
 158:Core/Src/main.c ****   MX_SDMMC1_SD_Init();
 1842              		.loc 1 158 3 view .LVU523
 1843 0028 FFF7FEFF 		bl	MX_I2C2_Init
 1844              	.LVL118:
 159:Core/Src/main.c ****   MX_FATFS_Init();
 1845              		.loc 1 159 3 view .LVU524
 1846 002c FFF7FEFF 		bl	MX_SDMMC1_SD_Init
 1847              	.LVL119:
 160:Core/Src/main.c ****   MX_USART1_UART_Init();
 1848              		.loc 1 160 3 view .LVU525
 1849 0030 FFF7FEFF 		bl	MX_FATFS_Init
ARM GAS  /tmp/ccYdMxmM.s 			page 61


 1850              	.LVL120:
 161:Core/Src/main.c ****   /* USER CODE BEGIN 2 */
 1851              		.loc 1 161 3 view .LVU526
 1852 0034 FFF7FEFF 		bl	MX_USART1_UART_Init
 1853              	.LVL121:
 164:Core/Src/main.c ****   HAL_GPIO_WritePin(Wi_EN_GPIO_Port, Wi_EN_Pin, GPIO_PIN_SET);
 1854              		.loc 1 164 3 view .LVU527
 1855 0038 0122     		movs	r2, #1
 1856 003a 0221     		movs	r1, #2
 1857 003c 5C48     		ldr	r0, .L133
 1858 003e FFF7FEFF 		bl	HAL_GPIO_WritePin
 1859              	.LVL122:
 165:Core/Src/main.c ****   HAL_GPIO_WritePin(Wi_GPIO_0_GPIO_Port, Wi_GPIO_0_Pin, GPIO_PIN_SET);
 1860              		.loc 1 165 3 view .LVU528
 1861 0042 5C4C     		ldr	r4, .L133+4
 1862 0044 0122     		movs	r2, #1
 1863 0046 0421     		movs	r1, #4
 1864 0048 2046     		mov	r0, r4
 1865 004a FFF7FEFF 		bl	HAL_GPIO_WritePin
 1866              	.LVL123:
 166:Core/Src/main.c **** 
 1867              		.loc 1 166 3 view .LVU529
 1868 004e 0122     		movs	r2, #1
 1869 0050 8021     		movs	r1, #128
 1870 0052 2046     		mov	r0, r4
 1871 0054 FFF7FEFF 		bl	HAL_GPIO_WritePin
 1872              	.LVL124:
 168:Core/Src/main.c **** 
 1873              		.loc 1 168 3 view .LVU530
 1874 0058 5749     		ldr	r1, .L133+8
 1875 005a 5848     		ldr	r0, .L133+12
 1876 005c FFF7FEFF 		bl	UART_SendString
 1877              	.LVL125:
 172:Core/Src/main.c ****   Print_SD_Details();
 1878              		.loc 1 172 3 view .LVU531
 1879 0060 FFF7FEFF 		bl	SD_RawWriteTest
 1880              	.LVL126:
 173:Core/Src/main.c ****   
 1881              		.loc 1 173 3 view .LVU532
 1882 0064 FFF7FEFF 		bl	Print_SD_Details
 1883              	.LVL127:
 208:Core/Src/main.c ****     UART_SendString(&huart3, "SD Card Mounted Successfully!\r\n");
 1884              		.loc 1 208 1 view .LVU533
 208:Core/Src/main.c ****     UART_SendString(&huart3, "SD Card Mounted Successfully!\r\n");
 1885              		.loc 1 208 5 is_stmt 0 view .LVU534
 1886 0068 0122     		movs	r2, #1
 1887 006a 5549     		ldr	r1, .L133+16
 1888 006c 5548     		ldr	r0, .L133+20
 1889 006e FFF7FEFF 		bl	f_mount
 1890              	.LVL128:
 208:Core/Src/main.c ****     UART_SendString(&huart3, "SD Card Mounted Successfully!\r\n");
 1891              		.loc 1 208 4 discriminator 1 view .LVU535
 1892 0072 0028     		cmp	r0, #0
 1893 0074 5DD1     		bne	.L131
 1894              	.LBB15:
 209:Core/Src/main.c **** 
 1895              		.loc 1 209 5 is_stmt 1 view .LVU536
ARM GAS  /tmp/ccYdMxmM.s 			page 62


 1896 0076 5449     		ldr	r1, .L133+24
 1897 0078 5048     		ldr	r0, .L133+12
 1898 007a FFF7FEFF 		bl	UART_SendString
 1899              	.LVL129:
 212:Core/Src/main.c ****     FATFS *pFatFs;
 1900              		.loc 1 212 5 view .LVU537
 213:Core/Src/main.c ****     char diagBuf[64];
 1901              		.loc 1 213 5 view .LVU538
 214:Core/Src/main.c **** 
 1902              		.loc 1 214 5 view .LVU539
 216:Core/Src/main.c ****         uint32_t freeKB = freeClusters * pFatFs->csize * (pFatFs->csize / 1024);
 1903              		.loc 1 216 5 view .LVU540
 216:Core/Src/main.c ****         uint32_t freeKB = freeClusters * pFatFs->csize * (pFatFs->csize / 1024);
 1904              		.loc 1 216 9 is_stmt 0 view .LVU541
 1905 007e 03AA     		add	r2, sp, #12
 1906 0080 02A9     		add	r1, sp, #8
 1907 0082 4F48     		ldr	r0, .L133+16
 1908 0084 FFF7FEFF 		bl	f_getfree
 1909              	.LVL130:
 216:Core/Src/main.c ****         uint32_t freeKB = freeClusters * pFatFs->csize * (pFatFs->csize / 1024);
 1910              		.loc 1 216 8 discriminator 1 view .LVU542
 1911 0088 0028     		cmp	r0, #0
 1912 008a 3AD1     		bne	.L124
 1913              	.LBB16:
 217:Core/Src/main.c ****         snprintf(diagBuf, sizeof(diagBuf), "Free space: %lu KB\r\n", (unsigned long)freeKB);
 1914              		.loc 1 217 9 is_stmt 1 view .LVU543
 217:Core/Src/main.c ****         snprintf(diagBuf, sizeof(diagBuf), "Free space: %lu KB\r\n", (unsigned long)freeKB);
 1915              		.loc 1 217 48 is_stmt 0 view .LVU544
 1916 008c 039B     		ldr	r3, [sp, #12]
 1917 008e 5A89     		ldrh	r2, [r3, #10]
 217:Core/Src/main.c ****         snprintf(diagBuf, sizeof(diagBuf), "Free space: %lu KB\r\n", (unsigned long)freeKB);
 1918              		.loc 1 217 40 view .LVU545
 1919 0090 029B     		ldr	r3, [sp, #8]
 1920 0092 02FB03F3 		mul	r3, r2, r3
 217:Core/Src/main.c ****         snprintf(diagBuf, sizeof(diagBuf), "Free space: %lu KB\r\n", (unsigned long)freeKB);
 1921              		.loc 1 217 73 view .LVU546
 1922 0096 920A     		lsrs	r2, r2, #10
 1923              	.LVL131:
 218:Core/Src/main.c ****         UART_SendString(&huart3, diagBuf);
 1924              		.loc 1 218 9 is_stmt 1 view .LVU547
 1925 0098 08AC     		add	r4, sp, #32
 1926 009a 02FB03F3 		mul	r3, r2, r3
 1927              	.LVL132:
 218:Core/Src/main.c ****         UART_SendString(&huart3, diagBuf);
 1928              		.loc 1 218 9 is_stmt 0 view .LVU548
 1929 009e 4B4A     		ldr	r2, .L133+28
 1930 00a0 4021     		movs	r1, #64
 1931 00a2 2046     		mov	r0, r4
 1932 00a4 FFF7FEFF 		bl	snprintf
 1933              	.LVL133:
 219:Core/Src/main.c ****     } else {
 1934              		.loc 1 219 9 is_stmt 1 view .LVU549
 1935 00a8 2146     		mov	r1, r4
 1936 00aa 4448     		ldr	r0, .L133+12
 1937 00ac FFF7FEFF 		bl	UART_SendString
 1938              	.LVL134:
 1939              	.L125:
ARM GAS  /tmp/ccYdMxmM.s 			page 63


 219:Core/Src/main.c ****     } else {
 1940              		.loc 1 219 9 is_stmt 0 view .LVU550
 1941              	.LBE16:
 225:Core/Src/main.c ****     snprintf(diagBuf, sizeof(diagBuf), "f_open TEST.txt result: %d\r\n", res);
 1942              		.loc 1 225 5 is_stmt 1 view .LVU551
 225:Core/Src/main.c ****     snprintf(diagBuf, sizeof(diagBuf), "f_open TEST.txt result: %d\r\n", res);
 1943              		.loc 1 225 19 is_stmt 0 view .LVU552
 1944 00b0 0A22     		movs	r2, #10
 1945 00b2 4749     		ldr	r1, .L133+32
 1946 00b4 4748     		ldr	r0, .L133+36
 1947 00b6 FFF7FEFF 		bl	f_open
 1948              	.LVL135:
 1949 00ba 0446     		mov	r4, r0
 1950              	.LVL136:
 226:Core/Src/main.c ****     UART_SendString(&huart3, diagBuf);
 1951              		.loc 1 226 5 is_stmt 1 view .LVU553
 1952 00bc 08AD     		add	r5, sp, #32
 1953 00be 0346     		mov	r3, r0
 1954 00c0 454A     		ldr	r2, .L133+40
 1955 00c2 4021     		movs	r1, #64
 1956 00c4 2846     		mov	r0, r5
 1957              	.LVL137:
 226:Core/Src/main.c ****     UART_SendString(&huart3, diagBuf);
 1958              		.loc 1 226 5 is_stmt 0 view .LVU554
 1959 00c6 FFF7FEFF 		bl	snprintf
 1960              	.LVL138:
 227:Core/Src/main.c **** 
 1961              		.loc 1 227 5 is_stmt 1 view .LVU555
 1962 00ca 2946     		mov	r1, r5
 1963 00cc 3B48     		ldr	r0, .L133+12
 1964 00ce FFF7FEFF 		bl	UART_SendString
 1965              	.LVL139:
 229:Core/Src/main.c ****         UINT bw;
 1966              		.loc 1 229 5 view .LVU556
 229:Core/Src/main.c ****         UINT bw;
 1967              		.loc 1 229 8 is_stmt 0 view .LVU557
 1968 00d2 74BB     		cbnz	r4, .L131
 1969              	.LBB17:
 230:Core/Src/main.c ****         FRESULT wres = f_write(&SDFile, "hello", 5, &bw);
 1970              		.loc 1 230 9 is_stmt 1 view .LVU558
 231:Core/Src/main.c ****         snprintf(diagBuf, sizeof(diagBuf), "f_write result: %d, bytes: %u\r\n", wres, bw);
 1971              		.loc 1 231 9 view .LVU559
 231:Core/Src/main.c ****         snprintf(diagBuf, sizeof(diagBuf), "f_write result: %d, bytes: %u\r\n", wres, bw);
 1972              		.loc 1 231 24 is_stmt 0 view .LVU560
 1973 00d4 3F4C     		ldr	r4, .L133+36
 1974 00d6 04AB     		add	r3, sp, #16
 1975 00d8 0522     		movs	r2, #5
 1976 00da 4049     		ldr	r1, .L133+44
 1977 00dc 2046     		mov	r0, r4
 1978 00de FFF7FEFF 		bl	f_write
 1979              	.LVL140:
 1980 00e2 0346     		mov	r3, r0
 1981              	.LVL141:
 232:Core/Src/main.c ****         UART_SendString(&huart3, diagBuf);
 1982              		.loc 1 232 9 is_stmt 1 view .LVU561
 1983 00e4 049A     		ldr	r2, [sp, #16]
 1984 00e6 0092     		str	r2, [sp]
ARM GAS  /tmp/ccYdMxmM.s 			page 64


 1985 00e8 3D4A     		ldr	r2, .L133+48
 1986 00ea 4021     		movs	r1, #64
 1987 00ec 2846     		mov	r0, r5
 1988 00ee FFF7FEFF 		bl	snprintf
 1989              	.LVL142:
 233:Core/Src/main.c ****         f_close(&SDFile);
 1990              		.loc 1 233 9 view .LVU562
 1991 00f2 2946     		mov	r1, r5
 1992 00f4 3148     		ldr	r0, .L133+12
 1993 00f6 FFF7FEFF 		bl	UART_SendString
 1994              	.LVL143:
 234:Core/Src/main.c ****     }
 1995              		.loc 1 234 9 view .LVU563
 1996 00fa 2046     		mov	r0, r4
 1997 00fc FFF7FEFF 		bl	f_close
 1998              	.LVL144:
 1999 0100 17E0     		b	.L131
 2000              	.LVL145:
 2001              	.L124:
 234:Core/Src/main.c ****     }
 2002              		.loc 1 234 9 is_stmt 0 view .LVU564
 2003              	.LBE17:
 221:Core/Src/main.c ****     }
 2004              		.loc 1 221 9 is_stmt 1 view .LVU565
 2005 0102 3849     		ldr	r1, .L133+52
 2006 0104 2D48     		ldr	r0, .L133+12
 2007 0106 FFF7FEFF 		bl	UART_SendString
 2008              	.LVL146:
 2009 010a D1E7     		b	.L125
 2010              	.LVL147:
 2011              	.L128:
 221:Core/Src/main.c ****     }
 2012              		.loc 1 221 9 is_stmt 0 view .LVU566
 2013              	.LBE15:
 2014              	.LBB18:
 2015              	.LBB19:
 264:Core/Src/main.c ****         }
 2016              		.loc 1 264 13 is_stmt 1 view .LVU567
 2017 010c 3649     		ldr	r1, .L133+56
 2018 010e 2B48     		ldr	r0, .L133+12
 2019 0110 FFF7FEFF 		bl	UART_SendString
 2020              	.LVL148:
 2021              	.L129:
 267:Core/Src/main.c ****         f_close(&SDFile);
 2022              		.loc 1 267 9 view .LVU568
 2023 0114 2F4C     		ldr	r4, .L133+36
 2024 0116 2046     		mov	r0, r4
 2025 0118 FFF7FEFF 		bl	f_sync
 2026              	.LVL149:
 268:Core/Src/main.c **** 
 2027              		.loc 1 268 9 view .LVU569
 2028 011c 2046     		mov	r0, r4
 2029 011e FFF7FEFF 		bl	f_close
 2030              	.LVL150:
 2031              	.L130:
 268:Core/Src/main.c **** 
 2032              		.loc 1 268 9 is_stmt 0 view .LVU570
ARM GAS  /tmp/ccYdMxmM.s 			page 65


 2033              	.LBE19:
 275:Core/Src/main.c ****    //  UART_SendString(&huart3, "Hello from EndeavourOS via UART3!\r\n");
 2034              		.loc 1 275 3 is_stmt 1 view .LVU571
 2035 0122 0221     		movs	r1, #2
 2036 0124 2248     		ldr	r0, .L133
 2037 0126 FFF7FEFF 		bl	HAL_GPIO_TogglePin
 2038              	.LVL151:
 278:Core/Src/main.c ****     
 2039              		.loc 1 278 5 view .LVU572
 2040 012a 42F21070 		movw	r0, #10000
 2041 012e FFF7FEFF 		bl	HAL_Delay
 2042              	.LVL152:
 2043              	.LBE18:
 242:Core/Src/main.c ****   { 
 2044              		.loc 1 242 9 view .LVU573
 2045              	.L131:
 242:Core/Src/main.c ****   { 
 2046              		.loc 1 242 3 view .LVU574
 2047              	.LBB21:
 246:Core/Src/main.c ****     char dbg[32];
 2048              		.loc 1 246 5 view .LVU575
 246:Core/Src/main.c ****     char dbg[32];
 2049              		.loc 1 246 19 is_stmt 0 view .LVU576
 2050 0132 2E4D     		ldr	r5, .L133+60
 2051 0134 274C     		ldr	r4, .L133+36
 2052 0136 0A22     		movs	r2, #10
 2053 0138 2946     		mov	r1, r5
 2054 013a 2046     		mov	r0, r4
 2055 013c FFF7FEFF 		bl	f_open
 2056              	.LVL153:
 2057 0140 0346     		mov	r3, r0
 2058              	.LVL154:
 247:Core/Src/main.c ****     snprintf(dbg, sizeof(dbg), "f_open res: %d\r\n", res);
 2059              		.loc 1 247 5 is_stmt 1 view .LVU577
 248:Core/Src/main.c ****     UART_SendString(&huart3, dbg);
 2060              		.loc 1 248 5 view .LVU578
 2061 0142 08AE     		add	r6, sp, #32
 2062 0144 2A4A     		ldr	r2, .L133+64
 2063 0146 2021     		movs	r1, #32
 2064 0148 3046     		mov	r0, r6
 2065 014a FFF7FEFF 		bl	snprintf
 2066              	.LVL155:
 249:Core/Src/main.c ****     //HAL_Delay(3000); // Wait 10 seconds
 2067              		.loc 1 249 5 view .LVU579
 2068 014e 3146     		mov	r1, r6
 2069 0150 1A48     		ldr	r0, .L133+12
 2070 0152 FFF7FEFF 		bl	UART_SendString
 2071              	.LVL156:
 251:Core/Src/main.c **** 
 2072              		.loc 1 251 5 view .LVU580
 251:Core/Src/main.c **** 
 2073              		.loc 1 251 18 is_stmt 0 view .LVU581
 2074 0156 274A     		ldr	r2, .L133+68
 2075 0158 1368     		ldr	r3, [r2]
 2076 015a 0A33     		adds	r3, r3, #10
 2077 015c 1360     		str	r3, [r2]
 254:Core/Src/main.c ****         char writeBuf[16] = {0};
ARM GAS  /tmp/ccYdMxmM.s 			page 66


 2078              		.loc 1 254 5 is_stmt 1 view .LVU582
 254:Core/Src/main.c ****         char writeBuf[16] = {0};
 2079              		.loc 1 254 9 is_stmt 0 view .LVU583
 2080 015e 0A22     		movs	r2, #10
 2081 0160 2946     		mov	r1, r5
 2082 0162 2046     		mov	r0, r4
 2083 0164 FFF7FEFF 		bl	f_open
 2084              	.LVL157:
 254:Core/Src/main.c ****         char writeBuf[16] = {0};
 2085              		.loc 1 254 8 discriminator 1 view .LVU584
 2086 0168 E8B9     		cbnz	r0, .L127
 2087              	.LBB20:
 255:Core/Src/main.c ****         UINT bytesWritten = 0;
 2088              		.loc 1 255 9 is_stmt 1 view .LVU585
 255:Core/Src/main.c ****         UINT bytesWritten = 0;
 2089              		.loc 1 255 14 is_stmt 0 view .LVU586
 2090 016a 04AC     		add	r4, sp, #16
 2091 016c 0490     		str	r0, [sp, #16]
 2092 016e 0590     		str	r0, [sp, #20]
 2093 0170 0690     		str	r0, [sp, #24]
 2094 0172 0790     		str	r0, [sp, #28]
 256:Core/Src/main.c **** 
 2095              		.loc 1 256 9 is_stmt 1 view .LVU587
 256:Core/Src/main.c **** 
 2096              		.loc 1 256 14 is_stmt 0 view .LVU588
 2097 0174 0390     		str	r0, [sp, #12]
 259:Core/Src/main.c **** 
 2098              		.loc 1 259 9 is_stmt 1 view .LVU589
 259:Core/Src/main.c **** 
 2099              		.loc 1 259 19 is_stmt 0 view .LVU590
 2100 0176 1F4B     		ldr	r3, .L133+68
 2101 0178 1B68     		ldr	r3, [r3]
 2102 017a 1F4A     		ldr	r2, .L133+72
 2103 017c 1021     		movs	r1, #16
 2104 017e 2046     		mov	r0, r4
 2105 0180 FFF7FEFF 		bl	snprintf
 2106              	.LVL158:
 2107 0184 0546     		mov	r5, r0
 2108              	.LVL159:
 261:Core/Src/main.c ****             UART_SendString(&huart3, "Uptime written to SD card.\r\n");
 2109              		.loc 1 261 9 is_stmt 1 view .LVU591
 261:Core/Src/main.c ****             UART_SendString(&huart3, "Uptime written to SD card.\r\n");
 2110              		.loc 1 261 13 is_stmt 0 view .LVU592
 2111 0186 03AB     		add	r3, sp, #12
 2112 0188 0246     		mov	r2, r0
 2113 018a 2146     		mov	r1, r4
 2114 018c 1148     		ldr	r0, .L133+36
 2115              	.LVL160:
 261:Core/Src/main.c ****             UART_SendString(&huart3, "Uptime written to SD card.\r\n");
 2116              		.loc 1 261 13 view .LVU593
 2117 018e FFF7FEFF 		bl	f_write
 2118              	.LVL161:
 261:Core/Src/main.c ****             UART_SendString(&huart3, "Uptime written to SD card.\r\n");
 2119              		.loc 1 261 12 discriminator 1 view .LVU594
 2120 0192 0028     		cmp	r0, #0
 2121 0194 BAD1     		bne	.L128
 261:Core/Src/main.c ****             UART_SendString(&huart3, "Uptime written to SD card.\r\n");
ARM GAS  /tmp/ccYdMxmM.s 			page 67


 2122              		.loc 1 261 91 discriminator 2 view .LVU595
 2123 0196 039B     		ldr	r3, [sp, #12]
 261:Core/Src/main.c ****             UART_SendString(&huart3, "Uptime written to SD card.\r\n");
 2124              		.loc 1 261 75 discriminator 2 view .LVU596
 2125 0198 9D42     		cmp	r5, r3
 2126 019a B7D1     		bne	.L128
 262:Core/Src/main.c ****         } else {
 2127              		.loc 1 262 13 is_stmt 1 view .LVU597
 2128 019c 1749     		ldr	r1, .L133+76
 2129 019e 0748     		ldr	r0, .L133+12
 2130 01a0 FFF7FEFF 		bl	UART_SendString
 2131              	.LVL162:
 2132 01a4 B6E7     		b	.L129
 2133              	.LVL163:
 2134              	.L127:
 262:Core/Src/main.c ****         } else {
 2135              		.loc 1 262 13 is_stmt 0 view .LVU598
 2136              	.LBE20:
 271:Core/Src/main.c ****     }
 2137              		.loc 1 271 9 is_stmt 1 view .LVU599
 2138 01a6 1649     		ldr	r1, .L133+80
 2139 01a8 0448     		ldr	r0, .L133+12
 2140 01aa FFF7FEFF 		bl	UART_SendString
 2141              	.LVL164:
 2142 01ae B8E7     		b	.L130
 2143              	.L134:
 2144              		.align	2
 2145              	.L133:
 2146 01b0 00040048 		.word	1207960576
 2147 01b4 00080048 		.word	1207961600
 2148 01b8 00000000 		.word	.LC16
 2149 01bc 00000000 		.word	huart3
 2150 01c0 00000000 		.word	SDPath
 2151 01c4 00000000 		.word	SDFatFS
 2152 01c8 08000000 		.word	.LC17
 2153 01cc 28000000 		.word	.LC18
 2154 01d0 78000000 		.word	.LC20
 2155 01d4 00000000 		.word	SDFile
 2156 01d8 84000000 		.word	.LC21
 2157 01dc A4000000 		.word	.LC22
 2158 01e0 AC000000 		.word	.LC23
 2159 01e4 40000000 		.word	.LC19
 2160 01e8 08010000 		.word	.LC27
 2161 01ec 00000000 		.word	total_uptime_filename
 2162 01f0 CC000000 		.word	.LC24
 2163 01f4 00000000 		.word	total_uptime
 2164 01f8 E0000000 		.word	.LC25
 2165 01fc E8000000 		.word	.LC26
 2166 0200 24010000 		.word	.LC28
 2167              	.LBE21:
 2168              		.cfi_endproc
 2169              	.LFE232:
 2171              		.global	total_uptime_filename
 2172              		.section	.rodata.total_uptime_filename,"a"
 2173              		.align	2
 2176              	total_uptime_filename:
 2177 0000 55505449 		.ascii	"UPTIME.txt\000"
ARM GAS  /tmp/ccYdMxmM.s 			page 68


 2177      4D452E74 
 2177      787400
 2178              		.global	total_uptime
 2179              		.section	.bss.total_uptime,"aw",%nobits
 2180              		.align	2
 2183              	total_uptime:
 2184 0000 00000000 		.space	4
 2185              		.global	hspi1
 2186              		.section	.bss.hspi1,"aw",%nobits
 2187              		.align	2
 2190              	hspi1:
 2191 0000 00000000 		.space	100
 2191      00000000 
 2191      00000000 
 2191      00000000 
 2191      00000000 
 2192              		.global	hsd1
 2193              		.section	.bss.hsd1,"aw",%nobits
 2194              		.align	2
 2197              	hsd1:
 2198 0000 00000000 		.space	132
 2198      00000000 
 2198      00000000 
 2198      00000000 
 2198      00000000 
 2199              		.global	hrtc
 2200              		.section	.bss.hrtc,"aw",%nobits
 2201              		.align	2
 2204              	hrtc:
 2205 0000 00000000 		.space	36
 2205      00000000 
 2205      00000000 
 2205      00000000 
 2205      00000000 
 2206              		.global	hdma_usart1_rx
 2207              		.section	.bss.hdma_usart1_rx,"aw",%nobits
 2208              		.align	2
 2211              	hdma_usart1_rx:
 2212 0000 00000000 		.space	72
 2212      00000000 
 2212      00000000 
 2212      00000000 
 2212      00000000 
 2213              		.global	huart3
 2214              		.section	.bss.huart3,"aw",%nobits
 2215              		.align	2
 2218              	huart3:
 2219 0000 00000000 		.space	136
 2219      00000000 
 2219      00000000 
 2219      00000000 
 2219      00000000 
 2220              		.global	huart2
 2221              		.section	.bss.huart2,"aw",%nobits
 2222              		.align	2
 2225              	huart2:
 2226 0000 00000000 		.space	136
ARM GAS  /tmp/ccYdMxmM.s 			page 69


 2226      00000000 
 2226      00000000 
 2226      00000000 
 2226      00000000 
 2227              		.global	huart1
 2228              		.section	.bss.huart1,"aw",%nobits
 2229              		.align	2
 2232              	huart1:
 2233 0000 00000000 		.space	136
 2233      00000000 
 2233      00000000 
 2233      00000000 
 2233      00000000 
 2234              		.global	hlpuart1
 2235              		.section	.bss.hlpuart1,"aw",%nobits
 2236              		.align	2
 2239              	hlpuart1:
 2240 0000 00000000 		.space	136
 2240      00000000 
 2240      00000000 
 2240      00000000 
 2240      00000000 
 2241              		.global	hi2c2
 2242              		.section	.bss.hi2c2,"aw",%nobits
 2243              		.align	2
 2246              	hi2c2:
 2247 0000 00000000 		.space	84
 2247      00000000 
 2247      00000000 
 2247      00000000 
 2247      00000000 
 2248              		.global	readBuf
 2249              		.section	.bss.readBuf,"aw",%nobits
 2250              		.align	2
 2253              	readBuf:
 2254 0000 00000000 		.space	512
 2254      00000000 
 2254      00000000 
 2254      00000000 
 2254      00000000 
 2255              		.global	writeBuf
 2256              		.section	.bss.writeBuf,"aw",%nobits
 2257              		.align	2
 2260              	writeBuf:
 2261 0000 00000000 		.space	512
 2261      00000000 
 2261      00000000 
 2261      00000000 
 2261      00000000 
 2262              		.global	wake_up_flag
 2263              		.section	.bss.wake_up_flag,"aw",%nobits
 2266              	wake_up_flag:
 2267 0000 00       		.space	1
 2268              		.global	tail
 2269              		.section	.bss.tail,"aw",%nobits
 2270              		.align	2
 2273              	tail:
ARM GAS  /tmp/ccYdMxmM.s 			page 70


 2274 0000 00000000 		.space	4
 2275              		.global	head
 2276              		.section	.bss.head,"aw",%nobits
 2277              		.align	2
 2280              	head:
 2281 0000 00000000 		.space	4
 2282              		.global	dma_transfer_buffer
 2283              		.section	.bss.dma_transfer_buffer,"aw",%nobits
 2284              		.align	5
 2287              	dma_transfer_buffer:
 2288 0000 00000000 		.space	4096
 2288      00000000 
 2288      00000000 
 2288      00000000 
 2288      00000000 
 2289              		.global	ring_buffer
 2290              		.section	.bss.ring_buffer,"aw",%nobits
 2291              		.align	2
 2294              	ring_buffer:
 2295 0000 00000000 		.space	65536
 2295      00000000 
 2295      00000000 
 2295      00000000 
 2295      00000000 
 2296              		.text
 2297              	.Letext0:
 2298              		.file 3 "Drivers/CMSIS/Device/ST/STM32L4xx/Include/stm32l476xx.h"
 2299              		.file 4 "/home/glen/.config/Code/User/globalStorage/bmd.stm32-for-vscode/@xpack-dev-tools/arm-none
 2300              		.file 5 "/home/glen/.config/Code/User/globalStorage/bmd.stm32-for-vscode/@xpack-dev-tools/arm-none
 2301              		.file 6 "/home/glen/.config/Code/User/globalStorage/bmd.stm32-for-vscode/@xpack-dev-tools/arm-none
 2302              		.file 7 "Drivers/STM32L4xx_HAL_Driver/Inc/stm32l4xx_hal_def.h"
 2303              		.file 8 "Drivers/STM32L4xx_HAL_Driver/Inc/stm32l4xx_hal_rcc.h"
 2304              		.file 9 "Drivers/STM32L4xx_HAL_Driver/Inc/stm32l4xx_hal_gpio.h"
 2305              		.file 10 "Drivers/STM32L4xx_HAL_Driver/Inc/stm32l4xx_hal_dma.h"
 2306              		.file 11 "Drivers/STM32L4xx_HAL_Driver/Inc/stm32l4xx_hal_i2c.h"
 2307              		.file 12 "Drivers/STM32L4xx_HAL_Driver/Inc/stm32l4xx_hal_rtc.h"
 2308              		.file 13 "Drivers/STM32L4xx_HAL_Driver/Inc/stm32l4xx_ll_sdmmc.h"
 2309              		.file 14 "Drivers/STM32L4xx_HAL_Driver/Inc/stm32l4xx_hal_sd.h"
 2310              		.file 15 "Drivers/STM32L4xx_HAL_Driver/Inc/stm32l4xx_hal_spi.h"
 2311              		.file 16 "Drivers/STM32L4xx_HAL_Driver/Inc/stm32l4xx_hal_uart.h"
 2312              		.file 17 "Middlewares/Third_Party/FatFs/src/integer.h"
 2313              		.file 18 "Middlewares/Third_Party/FatFs/src/ff.h"
 2314              		.file 19 "FATFS/App/fatfs.h"
 2315              		.file 20 "Drivers/OLED/ssd1306.h"
 2316              		.file 21 "Drivers/STM32L4xx_HAL_Driver/Inc/stm32l4xx_hal_pwr_ex.h"
 2317              		.file 22 "/home/glen/.config/Code/User/globalStorage/bmd.stm32-for-vscode/@xpack-dev-tools/arm-non
 2318              		.file 23 "/home/glen/.config/Code/User/globalStorage/bmd.stm32-for-vscode/@xpack-dev-tools/arm-non
 2319              		.file 24 "Drivers/STM32L4xx_HAL_Driver/Inc/stm32l4xx_hal_i2c_ex.h"
 2320              		.file 25 "Drivers/STM32L4xx_HAL_Driver/Inc/stm32l4xx_hal_cortex.h"
 2321              		.file 26 "Drivers/STM32L4xx_HAL_Driver/Inc/stm32l4xx_hal.h"
 2322              		.file 27 "Drivers/STM32L4xx_HAL_Driver/Inc/stm32l4xx_ll_dma.h"
 2323              		.file 28 "<built-in>"
ARM GAS  /tmp/ccYdMxmM.s 			page 71


DEFINED SYMBOLS
                            *ABS*:00000000 main.c
     /tmp/ccYdMxmM.s:21     .text.MX_GPIO_Init:00000000 $t
     /tmp/ccYdMxmM.s:26     .text.MX_GPIO_Init:00000000 MX_GPIO_Init
     /tmp/ccYdMxmM.s:234    .text.MX_GPIO_Init:00000104 $d
     /tmp/ccYdMxmM.s:241    .text.MX_DMA_Init:00000000 $t
     /tmp/ccYdMxmM.s:246    .text.MX_DMA_Init:00000000 MX_DMA_Init
     /tmp/ccYdMxmM.s:291    .text.MX_DMA_Init:0000002c $d
     /tmp/ccYdMxmM.s:296    .text.UART_SendString:00000000 $t
     /tmp/ccYdMxmM.s:301    .text.UART_SendString:00000000 UART_SendString
     /tmp/ccYdMxmM.s:338    .rodata.SD_RawWriteTest.str1.4:00000000 $d
     /tmp/ccYdMxmM.s:381    .text.SD_RawWriteTest:00000000 $t
     /tmp/ccYdMxmM.s:386    .text.SD_RawWriteTest:00000000 SD_RawWriteTest
     /tmp/ccYdMxmM.s:717    .text.SD_RawWriteTest:00000164 $d
     /tmp/ccYdMxmM.s:2260   .bss.writeBuf:00000000 writeBuf
     /tmp/ccYdMxmM.s:2253   .bss.readBuf:00000000 readBuf
     /tmp/ccYdMxmM.s:2218   .bss.huart3:00000000 huart3
     /tmp/ccYdMxmM.s:2197   .bss.hsd1:00000000 hsd1
     /tmp/ccYdMxmM.s:739    .rodata.Print_SD_Details.str1.4:00000000 $d
     /tmp/ccYdMxmM.s:746    .text.Print_SD_Details:00000000 $t
     /tmp/ccYdMxmM.s:751    .text.Print_SD_Details:00000000 Print_SD_Details
     /tmp/ccYdMxmM.s:796    .text.Print_SD_Details:0000002c $d
     /tmp/ccYdMxmM.s:803    .text.__io_putchar:00000000 $t
     /tmp/ccYdMxmM.s:809    .text.__io_putchar:00000000 __io_putchar
     /tmp/ccYdMxmM.s:842    .text.__io_putchar:0000001c $d
     /tmp/ccYdMxmM.s:847    .text.HAL_GPIO_EXTI_Callback:00000000 $t
     /tmp/ccYdMxmM.s:853    .text.HAL_GPIO_EXTI_Callback:00000000 HAL_GPIO_EXTI_Callback
     /tmp/ccYdMxmM.s:888    .text.HAL_GPIO_EXTI_Callback:0000001c $d
     /tmp/ccYdMxmM.s:2266   .bss.wake_up_flag:00000000 wake_up_flag
     /tmp/ccYdMxmM.s:894    .text.Error_Handler:00000000 $t
     /tmp/ccYdMxmM.s:900    .text.Error_Handler:00000000 Error_Handler
     /tmp/ccYdMxmM.s:932    .text.MX_LPUART1_UART_Init:00000000 $t
     /tmp/ccYdMxmM.s:937    .text.MX_LPUART1_UART_Init:00000000 MX_LPUART1_UART_Init
     /tmp/ccYdMxmM.s:995    .text.MX_LPUART1_UART_Init:00000030 $d
     /tmp/ccYdMxmM.s:2239   .bss.hlpuart1:00000000 hlpuart1
     /tmp/ccYdMxmM.s:1002   .text.MX_USART2_UART_Init:00000000 $t
     /tmp/ccYdMxmM.s:1007   .text.MX_USART2_UART_Init:00000000 MX_USART2_UART_Init
     /tmp/ccYdMxmM.s:1068   .text.MX_USART2_UART_Init:00000034 $d
     /tmp/ccYdMxmM.s:2225   .bss.huart2:00000000 huart2
     /tmp/ccYdMxmM.s:1074   .text.MX_USART3_UART_Init:00000000 $t
     /tmp/ccYdMxmM.s:1079   .text.MX_USART3_UART_Init:00000000 MX_USART3_UART_Init
     /tmp/ccYdMxmM.s:1139   .text.MX_USART3_UART_Init:00000030 $d
     /tmp/ccYdMxmM.s:1145   .text.MX_SPI1_Init:00000000 $t
     /tmp/ccYdMxmM.s:1150   .text.MX_SPI1_Init:00000000 MX_SPI1_Init
     /tmp/ccYdMxmM.s:1225   .text.MX_SPI1_Init:00000040 $d
     /tmp/ccYdMxmM.s:2190   .bss.hspi1:00000000 hspi1
     /tmp/ccYdMxmM.s:1231   .text.MX_RTC_Init:00000000 $t
     /tmp/ccYdMxmM.s:1236   .text.MX_RTC_Init:00000000 MX_RTC_Init
     /tmp/ccYdMxmM.s:1359   .text.MX_RTC_Init:00000078 $d
     /tmp/ccYdMxmM.s:2204   .bss.hrtc:00000000 hrtc
     /tmp/ccYdMxmM.s:1365   .text.MX_I2C2_Init:00000000 $t
     /tmp/ccYdMxmM.s:1370   .text.MX_I2C2_Init:00000000 MX_I2C2_Init
     /tmp/ccYdMxmM.s:1451   .text.MX_I2C2_Init:00000048 $d
     /tmp/ccYdMxmM.s:2246   .bss.hi2c2:00000000 hi2c2
     /tmp/ccYdMxmM.s:1458   .rodata.MX_SDMMC1_SD_Init.str1.4:00000000 $d
     /tmp/ccYdMxmM.s:1462   .text.MX_SDMMC1_SD_Init:00000000 $t
     /tmp/ccYdMxmM.s:1467   .text.MX_SDMMC1_SD_Init:00000000 MX_SDMMC1_SD_Init
ARM GAS  /tmp/ccYdMxmM.s 			page 72


     /tmp/ccYdMxmM.s:1538   .text.MX_SDMMC1_SD_Init:00000044 $d
     /tmp/ccYdMxmM.s:1546   .text.MX_USART1_UART_Init:00000000 $t
     /tmp/ccYdMxmM.s:1551   .text.MX_USART1_UART_Init:00000000 MX_USART1_UART_Init
     /tmp/ccYdMxmM.s:1611   .text.MX_USART1_UART_Init:00000030 $d
     /tmp/ccYdMxmM.s:2232   .bss.huart1:00000000 huart1
     /tmp/ccYdMxmM.s:1617   .text.SystemClock_Config:00000000 $t
     /tmp/ccYdMxmM.s:1623   .text.SystemClock_Config:00000000 SystemClock_Config
     /tmp/ccYdMxmM.s:1754   .rodata.main.str1.4:00000000 $d
     /tmp/ccYdMxmM.s:1795   .text.main:00000000 $t
     /tmp/ccYdMxmM.s:1801   .text.main:00000000 main
     /tmp/ccYdMxmM.s:2146   .text.main:000001b0 $d
     /tmp/ccYdMxmM.s:2176   .rodata.total_uptime_filename:00000000 total_uptime_filename
     /tmp/ccYdMxmM.s:2183   .bss.total_uptime:00000000 total_uptime
     /tmp/ccYdMxmM.s:2173   .rodata.total_uptime_filename:00000000 $d
     /tmp/ccYdMxmM.s:2180   .bss.total_uptime:00000000 $d
     /tmp/ccYdMxmM.s:2187   .bss.hspi1:00000000 $d
     /tmp/ccYdMxmM.s:2194   .bss.hsd1:00000000 $d
     /tmp/ccYdMxmM.s:2201   .bss.hrtc:00000000 $d
     /tmp/ccYdMxmM.s:2211   .bss.hdma_usart1_rx:00000000 hdma_usart1_rx
     /tmp/ccYdMxmM.s:2208   .bss.hdma_usart1_rx:00000000 $d
     /tmp/ccYdMxmM.s:2215   .bss.huart3:00000000 $d
     /tmp/ccYdMxmM.s:2222   .bss.huart2:00000000 $d
     /tmp/ccYdMxmM.s:2229   .bss.huart1:00000000 $d
     /tmp/ccYdMxmM.s:2236   .bss.hlpuart1:00000000 $d
     /tmp/ccYdMxmM.s:2243   .bss.hi2c2:00000000 $d
     /tmp/ccYdMxmM.s:2250   .bss.readBuf:00000000 $d
     /tmp/ccYdMxmM.s:2257   .bss.writeBuf:00000000 $d
     /tmp/ccYdMxmM.s:2267   .bss.wake_up_flag:00000000 $d
     /tmp/ccYdMxmM.s:2273   .bss.tail:00000000 tail
     /tmp/ccYdMxmM.s:2270   .bss.tail:00000000 $d
     /tmp/ccYdMxmM.s:2280   .bss.head:00000000 head
     /tmp/ccYdMxmM.s:2277   .bss.head:00000000 $d
     /tmp/ccYdMxmM.s:2287   .bss.dma_transfer_buffer:00000000 dma_transfer_buffer
     /tmp/ccYdMxmM.s:2284   .bss.dma_transfer_buffer:00000000 $d
     /tmp/ccYdMxmM.s:2294   .bss.ring_buffer:00000000 ring_buffer
     /tmp/ccYdMxmM.s:2291   .bss.ring_buffer:00000000 $d

UNDEFINED SYMBOLS
HAL_GPIO_WritePin
HAL_GPIO_Init
HAL_NVIC_SetPriority
HAL_NVIC_EnableIRQ
strlen
HAL_UART_Transmit
memset
HAL_SD_WriteBlocks
snprintf
HAL_GetTick
HAL_SD_GetCardState
HAL_SD_ReadBlocks
sprintf
HAL_GPIO_TogglePin
HAL_UART_Init
HAL_SPI_Init
HAL_RTC_Init
HAL_RTC_SetTime
HAL_RTC_SetDate
ARM GAS  /tmp/ccYdMxmM.s 			page 73


HAL_I2C_Init
HAL_I2CEx_ConfigAnalogFilter
HAL_I2CEx_ConfigDigitalFilter
HAL_SD_Init
HAL_SD_ConfigWideBusOperation
HAL_PWREx_ControlVoltageScaling
HAL_RCC_OscConfig
HAL_RCC_ClockConfig
HAL_Init
MX_FATFS_Init
f_mount
f_getfree
f_open
f_write
f_close
f_sync
HAL_Delay
SDPath
SDFatFS
SDFile
