ARM GAS  /tmp/cczzewXT.s 			page 1


   1              		.cpu cortex-m4
   2              		.arch armv7e-m
   3              		.fpu fpv4-sp-d16
   4              		.eabi_attribute 27, 1
   5              		.eabi_attribute 28, 1
   6              		.eabi_attribute 20, 1
   7              		.eabi_attribute 21, 1
   8              		.eabi_attribute 23, 3
   9              		.eabi_attribute 24, 1
  10              		.eabi_attribute 25, 1
  11              		.eabi_attribute 26, 1
  12              		.eabi_attribute 30, 1
  13              		.eabi_attribute 34, 1
  14              		.eabi_attribute 18, 4
  15              		.file	"main.c"
  16              		.text
  17              	.Ltext0:
  18              		.cfi_sections	.debug_frame
  19              		.file 1 "Core/Src/main.c"
  20              		.section	.text.MX_GPIO_Init,"ax",%progbits
  21              		.align	1
  22              		.syntax unified
  23              		.thumb
  24              		.thumb_func
  26              	MX_GPIO_Init:
  27              	.LFB243:
   1:Core/Src/main.c **** /* USER CODE BEGIN Header */
   2:Core/Src/main.c **** /**
   3:Core/Src/main.c ****   ******************************************************************************
   4:Core/Src/main.c ****   * @file           : main.c
   5:Core/Src/main.c ****   * @brief          : Main program body
   6:Core/Src/main.c ****   ******************************************************************************
   7:Core/Src/main.c ****   * @attention
   8:Core/Src/main.c ****   *
   9:Core/Src/main.c ****   * Copyright (c) 2026 STMicroelectronics.
  10:Core/Src/main.c ****   * All rights reserved.
  11:Core/Src/main.c ****   *
  12:Core/Src/main.c ****   * This software is licensed under terms that can be found in the LICENSE file
  13:Core/Src/main.c ****   * in the root directory of this software component.
  14:Core/Src/main.c ****   * If no LICENSE file comes with this software, it is provided AS-IS.
  15:Core/Src/main.c ****   *
  16:Core/Src/main.c ****   ******************************************************************************
  17:Core/Src/main.c ****   */
  18:Core/Src/main.c **** /* USER CODE END Header */
  19:Core/Src/main.c **** /* Includes ------------------------------------------------------------------*/
  20:Core/Src/main.c **** #include "main.h"
  21:Core/Src/main.c **** 
  22:Core/Src/main.c **** /* Private includes ----------------------------------------------------------*/
  23:Core/Src/main.c **** /* USER CODE BEGIN Includes */
  24:Core/Src/main.c **** 
  25:Core/Src/main.c **** // OLED Display
  26:Core/Src/main.c **** #include "ssd1306.h"
  27:Core/Src/main.c **** #include "ssd1306_fonts.h"
  28:Core/Src/main.c **** 
  29:Core/Src/main.c **** #include <string.h>
  30:Core/Src/main.c **** #include <stdio.h>
  31:Core/Src/main.c **** 
ARM GAS  /tmp/cczzewXT.s 			page 2


  32:Core/Src/main.c **** #include "SD_IO.h"
  33:Core/Src/main.c **** #include "SD_Stream.h"
  34:Core/Src/main.c **** 
  35:Core/Src/main.c **** /* USER CODE END Includes */
  36:Core/Src/main.c **** 
  37:Core/Src/main.c **** /* Private typedef -----------------------------------------------------------*/
  38:Core/Src/main.c **** /* USER CODE BEGIN PTD */
  39:Core/Src/main.c **** 
  40:Core/Src/main.c **** /* USER CODE END PTD */
  41:Core/Src/main.c **** 
  42:Core/Src/main.c **** /* Private define ------------------------------------------------------------*/
  43:Core/Src/main.c **** /* USER CODE BEGIN PD */
  44:Core/Src/main.c **** 
  45:Core/Src/main.c **** uint8_t ring_buffer[RX_BUF_SIZE];
  46:Core/Src/main.c **** uint8_t dma_transfer_buffer[SD_BLOCK_SIZE] __attribute__((aligned(32))); 
  47:Core/Src/main.c **** 
  48:Core/Src/main.c **** volatile uint32_t head = 0; // Written by UART ISR
  49:Core/Src/main.c **** volatile uint32_t tail = 0; // Read by Main Loop
  50:Core/Src/main.c **** 
  51:Core/Src/main.c **** volatile uint8_t wake_up_flag = 0;
  52:Core/Src/main.c **** 
  53:Core/Src/main.c **** static uint8_t writeBuf[512];
  54:Core/Src/main.c **** static uint8_t readBuf[512];//
  55:Core/Src/main.c **** 
  56:Core/Src/main.c **** // lora
  57:Core/Src/main.c **** 
  58:Core/Src/main.c **** uint8_t  lora_rx_buf[250];
  59:Core/Src/main.c **** uint16_t lora_rx_len   = 0;
  60:Core/Src/main.c **** volatile uint8_t lora_rx_ready = 0; 
  61:Core/Src/main.c **** 
  62:Core/Src/main.c **** /* USER CODE END PD */
  63:Core/Src/main.c **** 
  64:Core/Src/main.c **** /* Private macro -------------------------------------------------------------*/
  65:Core/Src/main.c **** /* USER CODE BEGIN PM */
  66:Core/Src/main.c **** // all for for testing
  67:Core/Src/main.c **** #define LARGE_TEST_TOTAL_SIZE (16 * 1024 * 1024) // 16 MB
  68:Core/Src/main.c **** #define LARGE_TEST_BURST_SIZE (16 * 1024)        // 16 KB bursts (32 blocks)
  69:Core/Src/main.c **** #define LARGE_TEST_BLOCKS     (LARGE_TEST_BURST_SIZE / 512)
  70:Core/Src/main.c **** /* USER CODE END PM */
  71:Core/Src/main.c **** 
  72:Core/Src/main.c **** /* Private variables ---------------------------------------------------------*/
  73:Core/Src/main.c **** I2C_HandleTypeDef hi2c2;
  74:Core/Src/main.c **** 
  75:Core/Src/main.c **** UART_HandleTypeDef hlpuart1;
  76:Core/Src/main.c **** UART_HandleTypeDef huart1;
  77:Core/Src/main.c **** UART_HandleTypeDef huart2;
  78:Core/Src/main.c **** UART_HandleTypeDef huart3;
  79:Core/Src/main.c **** DMA_HandleTypeDef hdma_usart1_rx;
  80:Core/Src/main.c **** 
  81:Core/Src/main.c **** RTC_HandleTypeDef hrtc;
  82:Core/Src/main.c **** 
  83:Core/Src/main.c **** SD_HandleTypeDef hsd1;
  84:Core/Src/main.c **** DMA_HandleTypeDef hdma_sdmmc1_rx;
  85:Core/Src/main.c **** DMA_HandleTypeDef hdma_sdmmc1_tx;
  86:Core/Src/main.c **** 
  87:Core/Src/main.c **** SPI_HandleTypeDef hspi1;
  88:Core/Src/main.c **** 
ARM GAS  /tmp/cczzewXT.s 			page 3


  89:Core/Src/main.c **** /* USER CODE BEGIN PV */
  90:Core/Src/main.c **** uint32_t total_uptime; // Total time SD card has been active, in seconds
  91:Core/Src/main.c **** const char total_uptime_filename[] = "UPTIME.txt";
  92:Core/Src/main.c **** uint8_t rxBuf[512];
  93:Core/Src/main.c **** 
  94:Core/Src/main.c **** 
  95:Core/Src/main.c **** volatile uint8_t wake_source = 0;
  96:Core/Src/main.c **** volatile uint8_t halfTransferFired = 0;
  97:Core/Src/main.c **** 
  98:Core/Src/main.c **** 
  99:Core/Src/main.c **** // USART From SHarc BUOY data
 100:Core/Src/main.c **** volatile uint8_t cb_write_first_half  = 0;  
 101:Core/Src/main.c **** volatile uint8_t cb_write_second_half = 0;
 102:Core/Src/main.c **** volatile uint8_t uart_active          = 0;   /* set by EXTI, cleared on done */
 103:Core/Src/main.c **** extern UART_HandleTypeDef huart1;
 104:Core/Src/main.c **** 
 105:Core/Src/main.c **** 
 106:Core/Src/main.c **** // SHARC BUOY DATA WRITINGS
 107:Core/Src/main.c **** uint8_t rxBuffer[RX_BUF_SIZE];
 108:Core/Src/main.c **** volatile uint16_t rxLen = 0;
 109:Core/Src/main.c **** volatile uint8_t dataReady = 0;
 110:Core/Src/main.c **** 
 111:Core/Src/main.c **** static uint8_t largeTestBuf[LARGE_TEST_BURST_SIZE] __attribute__((aligned(4)));
 112:Core/Src/main.c **** /* USER CODE END PV */
 113:Core/Src/main.c **** 
 114:Core/Src/main.c **** /* Private function prototypes -----------------------------------------------*/
 115:Core/Src/main.c **** void SystemClock_Config(void);
 116:Core/Src/main.c **** static void MX_GPIO_Init(void);
 117:Core/Src/main.c **** static void MX_DMA_Init(void);
 118:Core/Src/main.c **** static void MX_LPUART1_UART_Init(void);
 119:Core/Src/main.c **** static void MX_USART2_UART_Init(void);
 120:Core/Src/main.c **** static void MX_USART3_UART_Init(void);
 121:Core/Src/main.c **** static void MX_SPI1_Init(void);
 122:Core/Src/main.c **** static void MX_RTC_Init(void);
 123:Core/Src/main.c **** static void MX_I2C2_Init(void);
 124:Core/Src/main.c **** static void MX_SDMMC1_SD_Init(void);
 125:Core/Src/main.c **** static void MX_USART1_UART_Init(void);
 126:Core/Src/main.c **** /* USER CODE BEGIN PFP */
 127:Core/Src/main.c **** void UART_SendString(UART_HandleTypeDef *huart, char *str);
 128:Core/Src/main.c **** static uint32_t get_dma_head(void);
 129:Core/Src/main.c **** static void Print_SD_Details(void);
 130:Core/Src/main.c **** static void SD_RawWriteTest(void);
 131:Core/Src/main.c **** void HAL_UARTEx_RxEventCallback(UART_HandleTypeDef *huart, uint16_t Size);
 132:Core/Src/main.c **** //void HAL_UART_RxCpltCallback(UART_HandleTypeDef *huart);
 133:Core/Src/main.c **** void SD_SpeedTest(void);
 134:Core/Src/main.c **** /* USER CODE END PFP */
 135:Core/Src/main.c **** 
 136:Core/Src/main.c **** /* Private user code ---------------------------------------------------------*/
 137:Core/Src/main.c **** /* USER CODE BEGIN 0 */
 138:Core/Src/main.c **** 
 139:Core/Src/main.c ****   #include <stdio.h>
 140:Core/Src/main.c **** 
 141:Core/Src/main.c ****   // SETUP FOR SERIAL COMS TO LAPTOP
 142:Core/Src/main.c ****   #ifdef __GNUC__
 143:Core/Src/main.c ****     #define PUTCHAR_PROTOTYPE int __io_putchar(int ch)
 144:Core/Src/main.c ****   #else
 145:Core/Src/main.c ****     #define PUTCHAR_PROTOTYPE int fputc(int ch, FILE *f)
ARM GAS  /tmp/cczzewXT.s 			page 4


 146:Core/Src/main.c ****   #endif
 147:Core/Src/main.c **** 
 148:Core/Src/main.c ****   PUTCHAR_PROTOTYPE
 149:Core/Src/main.c ****   {
 150:Core/Src/main.c ****     HAL_UART_Transmit(&huart3, (uint8_t *)&ch, 1, HAL_MAX_DELAY);
 151:Core/Src/main.c ****     return ch;
 152:Core/Src/main.c ****   }
 153:Core/Src/main.c **** 
 154:Core/Src/main.c **** 
 155:Core/Src/main.c **** /* USER CODE END 0 */
 156:Core/Src/main.c **** 
 157:Core/Src/main.c **** /**
 158:Core/Src/main.c ****   * @brief  The application entry point.
 159:Core/Src/main.c ****   * @retval int
 160:Core/Src/main.c ****   */
 161:Core/Src/main.c **** int main(void)
 162:Core/Src/main.c **** {
 163:Core/Src/main.c **** 
 164:Core/Src/main.c ****   /* USER CODE BEGIN 1 */
 165:Core/Src/main.c **** 
 166:Core/Src/main.c ****   /* USER CODE END 1 */
 167:Core/Src/main.c **** 
 168:Core/Src/main.c ****   /* MCU Configuration--------------------------------------------------------*/
 169:Core/Src/main.c **** 
 170:Core/Src/main.c ****   /* Reset of all peripherals, Initializes the Flash interface and the Systick. */
 171:Core/Src/main.c ****   HAL_Init();
 172:Core/Src/main.c **** 
 173:Core/Src/main.c ****   /* USER CODE BEGIN Init */
 174:Core/Src/main.c **** 
 175:Core/Src/main.c ****   /* USER CODE END Init */
 176:Core/Src/main.c **** 
 177:Core/Src/main.c ****   /* Configure the system clock */
 178:Core/Src/main.c ****   SystemClock_Config();
 179:Core/Src/main.c **** 
 180:Core/Src/main.c ****   /* USER CODE BEGIN SysInit */
 181:Core/Src/main.c ****   // BEFORE SDMMC FAILS
 182:Core/Src/main.c **** 
 183:Core/Src/main.c **** 
 184:Core/Src/main.c ****   // LPUART CLOCK OVERRIDE TO KEEP HSI ON IN STOP MODE (NB THIS IS ALSO DONE IN MX_LPUART1_UART_Ini
 185:Core/Src/main.c ****       // Set LPUART1 clock to HSI16 and keep HSI alive in Stop mode
 186:Core/Src/main.c ****     RCC_PeriphCLKInitTypeDef PeriphClkInit = {0};
 187:Core/Src/main.c ****     PeriphClkInit.PeriphClockSelection = RCC_PERIPHCLK_LPUART1;
 188:Core/Src/main.c ****     PeriphClkInit.Lpuart1ClockSelection = RCC_LPUART1CLKSOURCE_HSI;
 189:Core/Src/main.c ****     if (HAL_RCCEx_PeriphCLKConfig(&PeriphClkInit) != HAL_OK)
 190:Core/Src/main.c ****     {
 191:Core/Src/main.c ****         Error_Handler();
 192:Core/Src/main.c ****     }
 193:Core/Src/main.c ****     // Replace __HAL_RCC_HSIKERON_ENABLE() with:
 194:Core/Src/main.c ****     SET_BIT(RCC->CR, RCC_CR_HSIKERON);
 195:Core/Src/main.c **** 
 196:Core/Src/main.c ****   /* USER CODE END SysInit */
 197:Core/Src/main.c **** 
 198:Core/Src/main.c ****   /* Initialize all configured peripherals */
 199:Core/Src/main.c ****   MX_GPIO_Init();
 200:Core/Src/main.c ****   MX_DMA_Init();
 201:Core/Src/main.c ****   MX_LPUART1_UART_Init();
 202:Core/Src/main.c ****   MX_USART2_UART_Init();
ARM GAS  /tmp/cczzewXT.s 			page 5


 203:Core/Src/main.c ****   MX_USART3_UART_Init();
 204:Core/Src/main.c ****   MX_SPI1_Init();
 205:Core/Src/main.c ****   MX_RTC_Init();
 206:Core/Src/main.c ****   MX_I2C2_Init();
 207:Core/Src/main.c ****   MX_SDMMC1_SD_Init();
 208:Core/Src/main.c ****   MX_USART1_UART_Init();
 209:Core/Src/main.c ****   /* USER CODE BEGIN 2 */
 210:Core/Src/main.c **** 
 211:Core/Src/main.c **** // SHARC BUOR RX -> DMA setup
 212:Core/Src/main.c ****   HAL_UARTEx_ReceiveToIdle_DMA(&huart1, rxBuffer, RX_BUF_SIZE);
 213:Core/Src/main.c **** 
 214:Core/Src/main.c ****   // LPUART Trigger
 215:Core/Src/main.c **** HAL_UARTEx_ReceiveToIdle_IT(&hlpuart1, lora_rx_buf, sizeof(lora_rx_buf));
 216:Core/Src/main.c ****   // This allows the debugger to keep communicating even if the CPU enters SLEEP, STOP, or STANDBY
 217:Core/Src/main.c ****   HAL_DBGMCU_EnableDBGSleepMode();
 218:Core/Src/main.c ****   HAL_DBGMCU_EnableDBGStopMode();
 219:Core/Src/main.c ****   HAL_DBGMCU_EnableDBGStandbyMode();
 220:Core/Src/main.c **** 
 221:Core/Src/main.c ****   //fHAL_GPIO_WritePin(Lo_PWR_CTRL_GPIO_Port, Lo_PWR_CTRL_Pin, GPIO_PIN_SET);
 222:Core/Src/main.c ****   HAL_GPIO_WritePin(Wi_EN_GPIO_Port, Wi_EN_Pin, GPIO_PIN_SET);
 223:Core/Src/main.c ****   HAL_GPIO_WritePin(Wi_GPIO_0_GPIO_Port, Wi_GPIO_0_Pin, GPIO_PIN_SET);
 224:Core/Src/main.c **** 
 225:Core/Src/main.c ****   UART_SendString(&huart3, "SETUP\r\n");
 226:Core/Src/main.c **** 
 227:Core/Src/main.c ****   // Start UART RX in DMA Circular mode
 228:Core/Src/main.c ****   // The DMA hardware will automatically wrap around to the start of rXuffer
 229:Core/Src/main.c ****   //SD_RawWriteTest();    // NB KEEP THIS COMMENTED OUT worked BECAUSE IT DESTROYS SECTOR 100 BOOT
 230:Core/Src/main.c ****   Print_SD_Details();
 231:Core/Src/main.c ****   SD_IO_Init(&huart3); 
 232:Core/Src/main.c ****   SD_RawWriteTest();
 233:Core/Src/main.c **** 
 234:Core/Src/main.c ****   total_uptime = SD_ReadUptime();
 235:Core/Src/main.c ****   SD_Stream_Init(&huart3);
 236:Core/Src/main.c ****   HAL_Delay(500);
 237:Core/Src/main.c **** 
 238:Core/Src/main.c ****     // SPEED TEST
 239:Core/Src/main.c ****   //SD_SpeedTest();
 240:Core/Src/main.c ****   //HAL_GPIO_WritePin(Wi_GPIO_0_GPIO_Port, Wi_GPIO_0_Pin, GPIO_PIN_RESET);
 241:Core/Src/main.c **** 
 242:Core/Src/main.c ****   /* USER CODE END 2 */
 243:Core/Src/main.c **** 
 244:Core/Src/main.c ****   /* Infinite loop */
 245:Core/Src/main.c ****   /* USER CODE BEGIN WHILE */
 246:Core/Src/main.c ****   int i = 0;
 247:Core/Src/main.c ****   while(0); // stick heref
 248:Core/Src/main.c ****   { HAL_Delay(1000);
 249:Core/Src/main.c ****     //UART_SendString(&huart3, "Hello from main loop\r\n");
 250:Core/Src/main.c ****   }
 251:Core/Src/main.c ****   while (i < 10000000)
 252:Core/Src/main.c ****   { 
 253:Core/Src/main.c ****     i++;
 254:Core/Src/main.c ****     //UART_SendString(&huart3, "From within \rf\n");
 255:Core/Src/main.c ****                 
 256:Core/Src/main.c ****     
 257:Core/Src/main.c **** 
 258:Core/Src/main.c ****     // CONST POLE:
 259:Core/Src/main.c **** 
ARM GAS  /tmp/cczzewXT.s 			page 6


 260:Core/Src/main.c ****       if (lora_rx_ready){
 261:Core/Src/main.c ****         lora_rx_ready = 0;
 262:Core/Src/main.c ****           UART_SendString(&huart3, "LORA DATA READY\r\n"); 
 263:Core/Src/main.c ****           char hex[8];
 264:Core/Src/main.c ****           for (uint16_t i = 0; i < lora_rx_len; i++)
 265:Core/Src/main.c ****           {
 266:Core/Src/main.c ****               snprintf(hex, sizeof(hex), "%02X ", lora_rx_buf[i]);
 267:Core/Src/main.c ****               UART_SendString(&huart3, hex);
 268:Core/Src/main.c ****           }
 269:Core/Src/main.c ****       }
 270:Core/Src/main.c **** 
 271:Core/Src/main.c ****       if (wake_source == 3){
 272:Core/Src/main.c ****       UART_SendString(&huart3, "Woke from LPUART!\r\n"); 
 273:Core/Src/main.c ****       // decode commands
 274:Core/Src/main.c ****       }
 275:Core/Src/main.c **** 
 276:Core/Src/main.c ****       if (wake_source == 2){
 277:Core/Src/main.c ****       UART_SendString(&huart3, "Woke from GPIO!\r\n"); 
 278:Core/Src/main.c ****       // Check time 
 279:Core/Src/main.c ****       }
 280:Core/Src/main.c ****     // Chain of Device data incoming checks
 281:Core/Src/main.c ****     // SHARC BOUY DATA INCOMINGf
 282:Core/Src/main.c ****               // First have a check to indicate that it was a DMA_IDLE interrupt here
 283:Core/Src/main.c ****               if (cb_write_first_half) {
 284:Core/Src/main.c ****                 cb_write_first_half = 0;
 285:Core/Src/main.c ****                 UART_SendString(&huart3, "First half of buffer ready\r\n");
 286:Core/Src/main.c ****                 
 287:Core/Src/main.c ****                 // RE-ENIT SD CARD
 288:Core/Src/main.c ****                 HAL_SD_DeInit(&hsd1);       // cleanly tear down
 289:Core/Src/main.c ****                 MX_SDMMC1_SD_Init();        // re-init SDMMC peripheral
 290:Core/Src/main.c ****                 //HAL_Delay(100);
 291:Core/Src/main.c ****                 
 292:Core/Src/main.c ****                 // Process first half of the buffer
 293:Core/Src/main.c ****                 SD_Stream_WriteHalf(rxBuffer, RX_BUF_SIZE / 2);
 294:Core/Src/main.c ****                 //HAL_GPIO_TogglePin(Lo_GPIO_0_GPIO_Port, Lo_GPIO_0_Pin);
 295:Core/Src/main.c ****                 SD_Stream_Flush();
 296:Core/Src/main.c ****               }
 297:Core/Src/main.c ****               else if (cb_write_second_half){
 298:Core/Src/main.c ****                 cb_write_second_half = 0;
 299:Core/Src/main.c ****                 UART_SendString(&huart3, "Second half of buffer ready\r\n");
 300:Core/Src/main.c ****                 // RE-INIT SD CARD
 301:Core/Src/main.c ****                 HAL_SD_DeInit(&hsd1);       // cleanly tear down
 302:Core/Src/main.c ****                 MX_SDMMC1_SD_Init();        // re-init SDMMC peripheral
 303:Core/Src/main.c ****                 //HAL_Delay(100);
 304:Core/Src/main.c **** 
 305:Core/Src/main.c ****                 // Process second half of the buffer
 306:Core/Src/main.c ****                 SD_Stream_WriteSecondHalf(rxBuffer + RX_BUF_SIZE / 2, RX_BUF_SIZE / 2);
 307:Core/Src/main.c ****                 //HAL_GPIO_TogglePin(Lo_GPIO_0_GPIO_Port, Lo_GPIO_0_Pin);
 308:Core/Src/main.c ****                 SD_Stream_Flush();
 309:Core/Src/main.c ****               }
 310:Core/Src/main.c ****               else if (dataReady)
 311:Core/Src/main.c ****               {
 312:Core/Src/main.c ****                 dataReady = 0;
 313:Core/Src/main.c ****                 // End of transmissoin
 314:Core/Src/main.c ****                 char hdr[48];
 315:Core/Src/main.c ****                 sprintf(hdr, "Received %d bytes:\r\n", rxLen);
 316:Core/Src/main.c ****                 UART_SendString(&huart3, hdr);
ARM GAS  /tmp/cczzewXT.s 			page 7


 317:Core/Src/main.c **** 
 318:Core/Src/main.c ****                 // Write remaining data (if you want to - maybe only in prep for offload)
 319:Core/Src/main.c ****                 //SD_Stream_WriteHalf(rxBuffer, rxLen);
 320:Core/Src/main.c **** 
 321:Core/Src/main.c ****                  SD_Stream_Flush();
 322:Core/Src/main.c ****               }
 323:Core/Src/main.c ****      
 324:Core/Src/main.c ****     HAL_Delay(500); // DElay to allow completion before resleep concerend why this is needded.. may
 325:Core/Src/main.c **** 
 326:Core/Src/main.c ****     // Example: Read the first 5 sectors of your data area
 327:Core/Src/main.c ****     //SD_Stream_ReadDebug(DATA_START_SECTOR, 5);  
 328:Core/Src/main.c ****     //HAL_Delay(1000);
 329:Core/Src/main.c **** 
 330:Core/Src/main.c ****     // LORA DATA INCOMING DATA triggerd by LPUART1_IDLE or LPUART1_HT
 331:Core/Src/main.c ****     // I will trigger the interrupt and get to this point but TAM and SHAUN need to route this inco
 332:Core/Src/main.c ****               // IF WIFI OFFLOAD, HOW DOES SHAUN WANT TO TREAT THIS?
 333:Core/Src/main.c ****               // POWER UP WIFI
 334:Core/Src/main.c ****               // SOME TAM CODE
 335:Core/Src/main.c ****               // OFFLOAD BEGIN?
 336:Core/Src/main.c **** 
 337:Core/Src/main.c **** 
 338:Core/Src/main.c ****     // RTC WAKEUP (Lora window start / stop)
 339:Core/Src/main.c ****     if (wake_source == 1){
 340:Core/Src/main.c ****       UART_SendString(&huart3, "Woke from RTC!\r\n"); 
 341:Core/Src/main.c ****       // Check time 
 342:Core/Src/main.c **** 
 343:Core/Src/main.c ****     }
 344:Core/Src/main.c ****     
 345:Core/Src/main.c ****     // Watchdog timer?
 346:Core/Src/main.c **** 
 347:Core/Src/main.c ****     // Other interrupts?
 348:Core/Src/main.c ****     
 349:Core/Src/main.c **** 
 350:Core/Src/main.c ****     wake_source = 0; // reset wake source for next loop
 351:Core/Src/main.c ****     // Configure RTC wakeup
 352:Core/Src/main.c ****     HAL_RTCEx_SetWakeUpTimer_IT(&hrtc, 10, RTC_WAKEUPCLOCK_CK_SPRE_16BITS);
 353:Core/Src/main.c ****       
 354:Core/Src/main.c **** 
 355:Core/Src/main.c ****     __HAL_GPIO_EXTI_CLEAR_IT(D_WAKE_Pin); // Clear wakeup pin interrupt flag
 356:Core/Src/main.c ****   
 357:Core/Src/main.c ****         
 358:Core/Src/main.c ****    // UART_SendString(&huart3, "Going to bed\r\n");
 359:Core/Src/main.c **** 
 360:Core/Src/main.c **** 
 361:Core/Src/main.c ****     // ENTER STOP MODE
 362:Core/Src/main.c ****     HAL_SuspendTick();    // Need to sleep clock because systick triggers interrupt too
 363:Core/Src/main.c ****     HAL_PWR_EnterSLEEPMode(PWR_MAINREGULATOR_ON, PWR_SLEEPENTRY_WFI);  //SLEEP NOT STOP 
 364:Core/Src/main.c ****     //HAL_PWR_EnterSTOPMode(PWR_MAINREGULATOR_ON, PWR_STOPENTRY_WFI); // LPUART ISNT WORKING IN THI
 365:Core/Src/main.c ****     SystemClock_Config();
 366:Core/Src/main.c ****     HAL_ResumeTick();
 367:Core/Src/main.c **** 
 368:Core/Src/main.c **** 
 369:Core/Src/main.c ****   
 370:Core/Src/main.c ****   /*
 371:Core/Src/main.c ****     
 372:Core/Src/main.c ****     UART_SendString(&huart3, "DEBUG: Checking wake source\r\n");
 373:Core/Src/main.c **** 
ARM GAS  /tmp/cczzewXT.s 			page 8


 374:Core/Src/main.c ****     switch (wake_source) {
 375:Core/Src/main.c ****       case 1: UART_SendString(&huart3, "Woke from RTC\r\n");      break;
 376:Core/Src/main.c ****       case 2: UART_SendString(&huart3, "Woke from GPIO\r\n");     break;
 377:Core/Src/main.c ****       default: UART_SendString(&huart3, "Wake source unknown\r\n"); break;
 378:Core/Src/main.c ****     }
 379:Core/Src/main.c **** 
 380:Core/Src/main.c ****     */
 381:Core/Src/main.c **** 
 382:Core/Src/main.c ****     
 383:Core/Src/main.c **** 
 384:Core/Src/main.c **** 
 385:Core/Src/main.c ****     //HAL_Delay(100);
 386:Core/Src/main.c **** 
 387:Core/Src/main.c **** 
 388:Core/Src/main.c ****     
 389:Core/Src/main.c **** 
 390:Core/Src/main.c ****  
 391:Core/Src/main.c ****     /* USER CODE END WHILE */
 392:Core/Src/main.c **** 
 393:Core/Src/main.c ****     /* USER CODE BEGIN 3 */
 394:Core/Src/main.c ****   }
 395:Core/Src/main.c **** 
 396:Core/Src/main.c **** 
 397:Core/Src/main.c ****   // POST WHILE LOOP
 398:Core/Src/main.c ****   SD_Stream_Flush();
 399:Core/Src/main.c ****   HAL_Delay(500);  // give card time to settle
 400:Core/Src/main.c ****   UART_SendString(&huart3, "While exit\n");
 401:Core/Src/main.c ****   uint32_t sectors_written_read = SD_Stream_GetCurrentSector() - DATA_START_SECTOR;
 402:Core/Src/main.c **** 
 403:Core/Src/main.c **** 
 404:Core/Src/main.c ****   SD_Stream_ReadDebug(DATA_START_SECTOR, DATA_START_SECTOR + sectors_written_read);
 405:Core/Src/main.c ****   //SD_Stream_ReadDebug(DATA_START_SECTOR, sectors_written_read);
 406:Core/Src/main.c **** 
 407:Core/Src/main.c **** 
 408:Core/Src/main.c ****   
 409:Core/Src/main.c **** 
 410:Core/Src/main.c ****   /* USER CODE END 3 */
 411:Core/Src/main.c **** }
 412:Core/Src/main.c **** 
 413:Core/Src/main.c **** /**
 414:Core/Src/main.c ****   * @brief System Clock Configuration
 415:Core/Src/main.c ****   * @retval None
 416:Core/Src/main.c ****   */
 417:Core/Src/main.c **** void SystemClock_Config(void)
 418:Core/Src/main.c **** {
 419:Core/Src/main.c ****   RCC_OscInitTypeDef RCC_OscInitStruct = {0};
 420:Core/Src/main.c ****   RCC_ClkInitTypeDef RCC_ClkInitStruct = {0};
 421:Core/Src/main.c **** 
 422:Core/Src/main.c ****   /** Configure the main internal regulator output voltage
 423:Core/Src/main.c ****   */
 424:Core/Src/main.c ****   if (HAL_PWREx_ControlVoltageScaling(PWR_REGULATOR_VOLTAGE_SCALE1) != HAL_OK)
 425:Core/Src/main.c ****   {
 426:Core/Src/main.c ****     Error_Handler();
 427:Core/Src/main.c ****   }
 428:Core/Src/main.c **** 
 429:Core/Src/main.c ****   /** Initializes the RCC Oscillators according to the specified parameters
 430:Core/Src/main.c ****   * in the RCC_OscInitTypeDef structure.
ARM GAS  /tmp/cczzewXT.s 			page 9


 431:Core/Src/main.c ****   */
 432:Core/Src/main.c ****   RCC_OscInitStruct.OscillatorType = RCC_OSCILLATORTYPE_HSI|RCC_OSCILLATORTYPE_LSI
 433:Core/Src/main.c ****                               |RCC_OSCILLATORTYPE_MSI;
 434:Core/Src/main.c ****   RCC_OscInitStruct.HSIState = RCC_HSI_ON;
 435:Core/Src/main.c ****   RCC_OscInitStruct.HSICalibrationValue = RCC_HSICALIBRATION_DEFAULT;
 436:Core/Src/main.c ****   RCC_OscInitStruct.LSIState = RCC_LSI_ON;
 437:Core/Src/main.c ****   RCC_OscInitStruct.MSIState = RCC_MSI_ON;
 438:Core/Src/main.c ****   RCC_OscInitStruct.MSICalibrationValue = 0;
 439:Core/Src/main.c ****   RCC_OscInitStruct.MSIClockRange = RCC_MSIRANGE_6;
 440:Core/Src/main.c ****   RCC_OscInitStruct.PLL.PLLState = RCC_PLL_ON;
 441:Core/Src/main.c ****   RCC_OscInitStruct.PLL.PLLSource = RCC_PLLSOURCE_MSI;
 442:Core/Src/main.c ****   RCC_OscInitStruct.PLL.PLLM = 1;
 443:Core/Src/main.c ****   RCC_OscInitStruct.PLL.PLLN = 40;
 444:Core/Src/main.c ****   RCC_OscInitStruct.PLL.PLLP = RCC_PLLP_DIV7;
 445:Core/Src/main.c ****   RCC_OscInitStruct.PLL.PLLQ = RCC_PLLQ_DIV4;
 446:Core/Src/main.c ****   RCC_OscInitStruct.PLL.PLLR = RCC_PLLR_DIV2;
 447:Core/Src/main.c ****   if (HAL_RCC_OscConfig(&RCC_OscInitStruct) != HAL_OK)
 448:Core/Src/main.c ****   {
 449:Core/Src/main.c ****     Error_Handler();
 450:Core/Src/main.c ****   }
 451:Core/Src/main.c **** 
 452:Core/Src/main.c ****   /** Initializes the CPU, AHB and APB buses clocks
 453:Core/Src/main.c ****   */
 454:Core/Src/main.c ****   RCC_ClkInitStruct.ClockType = RCC_CLOCKTYPE_HCLK|RCC_CLOCKTYPE_SYSCLK
 455:Core/Src/main.c ****                               |RCC_CLOCKTYPE_PCLK1|RCC_CLOCKTYPE_PCLK2;
 456:Core/Src/main.c ****   RCC_ClkInitStruct.SYSCLKSource = RCC_SYSCLKSOURCE_PLLCLK;
 457:Core/Src/main.c ****   RCC_ClkInitStruct.AHBCLKDivider = RCC_SYSCLK_DIV1;
 458:Core/Src/main.c ****   RCC_ClkInitStruct.APB1CLKDivider = RCC_HCLK_DIV1;
 459:Core/Src/main.c ****   RCC_ClkInitStruct.APB2CLKDivider = RCC_HCLK_DIV1;
 460:Core/Src/main.c **** 
 461:Core/Src/main.c ****   if (HAL_RCC_ClockConfig(&RCC_ClkInitStruct, FLASH_LATENCY_4) != HAL_OK)
 462:Core/Src/main.c ****   {
 463:Core/Src/main.c ****     Error_Handler();
 464:Core/Src/main.c ****   }
 465:Core/Src/main.c **** }
 466:Core/Src/main.c **** 
 467:Core/Src/main.c **** /**
 468:Core/Src/main.c ****   * @brief I2C2 Initialization Function
 469:Core/Src/main.c ****   * @param None
 470:Core/Src/main.c ****   * @retval None
 471:Core/Src/main.c ****   */
 472:Core/Src/main.c **** static void MX_I2C2_Init(void)
 473:Core/Src/main.c **** {
 474:Core/Src/main.c **** 
 475:Core/Src/main.c ****   /* USER CODE BEGIN I2C2_Init 0 */
 476:Core/Src/main.c **** 
 477:Core/Src/main.c ****   /* USER CODE END I2C2_Init 0 */
 478:Core/Src/main.c **** 
 479:Core/Src/main.c ****   /* USER CODE BEGIN I2C2_Init 1 */
 480:Core/Src/main.c **** 
 481:Core/Src/main.c ****   /* USER CODE END I2C2_Init 1 */
 482:Core/Src/main.c ****   hi2c2.Instance = I2C2;
 483:Core/Src/main.c ****   hi2c2.Init.Timing = 0x10D19CE4;
 484:Core/Src/main.c ****   hi2c2.Init.OwnAddress1 = 0;
 485:Core/Src/main.c ****   hi2c2.Init.AddressingMode = I2C_ADDRESSINGMODE_7BIT;
 486:Core/Src/main.c ****   hi2c2.Init.DualAddressMode = I2C_DUALADDRESS_DISABLE;
 487:Core/Src/main.c ****   hi2c2.Init.OwnAddress2 = 0;
ARM GAS  /tmp/cczzewXT.s 			page 10


 488:Core/Src/main.c ****   hi2c2.Init.OwnAddress2Masks = I2C_OA2_NOMASK;
 489:Core/Src/main.c ****   hi2c2.Init.GeneralCallMode = I2C_GENERALCALL_DISABLE;
 490:Core/Src/main.c ****   hi2c2.Init.NoStretchMode = I2C_NOSTRETCH_DISABLE;
 491:Core/Src/main.c ****   if (HAL_I2C_Init(&hi2c2) != HAL_OK)
 492:Core/Src/main.c ****   {
 493:Core/Src/main.c ****     Error_Handler();
 494:Core/Src/main.c ****   }
 495:Core/Src/main.c **** 
 496:Core/Src/main.c ****   /** Configure Analogue filter
 497:Core/Src/main.c ****   */
 498:Core/Src/main.c ****   if (HAL_I2CEx_ConfigAnalogFilter(&hi2c2, I2C_ANALOGFILTER_ENABLE) != HAL_OK)
 499:Core/Src/main.c ****   {
 500:Core/Src/main.c ****     Error_Handler();
 501:Core/Src/main.c ****   }
 502:Core/Src/main.c **** 
 503:Core/Src/main.c ****   /** Configure Digital filter
 504:Core/Src/main.c ****   */
 505:Core/Src/main.c ****   if (HAL_I2CEx_ConfigDigitalFilter(&hi2c2, 0) != HAL_OK)
 506:Core/Src/main.c ****   {
 507:Core/Src/main.c ****     Error_Handler();
 508:Core/Src/main.c ****   }
 509:Core/Src/main.c ****   /* USER CODE BEGIN I2C2_Init 2 */
 510:Core/Src/main.c **** 
 511:Core/Src/main.c ****   /* USER CODE END I2C2_Init 2 */
 512:Core/Src/main.c **** 
 513:Core/Src/main.c **** }
 514:Core/Src/main.c **** 
 515:Core/Src/main.c **** /**
 516:Core/Src/main.c ****   * @brief LPUART1 Initialization Function
 517:Core/Src/main.c ****   * @param None
 518:Core/Src/main.c ****   * @retval None
 519:Core/Src/main.c ****   */
 520:Core/Src/main.c **** static void MX_LPUART1_UART_Init(void)
 521:Core/Src/main.c **** {
 522:Core/Src/main.c **** 
 523:Core/Src/main.c ****   /* USER CODE BEGIN LPUART1_Init 0 */
 524:Core/Src/main.c **** 
 525:Core/Src/main.c ****   /* USER CODE END LPUART1_Init 0 */
 526:Core/Src/main.c **** 
 527:Core/Src/main.c ****   /* USER CODE BEGIN LPUART1_Init 1 */
 528:Core/Src/main.c **** 
 529:Core/Src/main.c ****   /* USER CODE END LPUART1_Init 1 */
 530:Core/Src/main.c ****   hlpuart1.Instance = LPUART1;
 531:Core/Src/main.c ****   hlpuart1.Init.BaudRate = 115200;
 532:Core/Src/main.c ****   hlpuart1.Init.WordLength = UART_WORDLENGTH_8B;
 533:Core/Src/main.c ****   hlpuart1.Init.StopBits = UART_STOPBITS_1;
 534:Core/Src/main.c ****   hlpuart1.Init.Parity = UART_PARITY_NONE;
 535:Core/Src/main.c ****   hlpuart1.Init.Mode = UART_MODE_TX_RX;
 536:Core/Src/main.c ****   hlpuart1.Init.HwFlowCtl = UART_HWCONTROL_NONE;
 537:Core/Src/main.c ****   hlpuart1.Init.OneBitSampling = UART_ONE_BIT_SAMPLE_DISABLE;
 538:Core/Src/main.c ****   hlpuart1.AdvancedInit.AdvFeatureInit = UART_ADVFEATURE_NO_INIT;
 539:Core/Src/main.c ****   if (HAL_UART_Init(&hlpuart1) != HAL_OK)
 540:Core/Src/main.c ****   {
 541:Core/Src/main.c ****     Error_Handler();
 542:Core/Src/main.c ****   }
 543:Core/Src/main.c ****   /* USER CODE BEGIN LPUART1_Init 2 */
 544:Core/Src/main.c **** 
ARM GAS  /tmp/cczzewXT.s 			page 11


 545:Core/Src/main.c ****   /* USER CODE END LPUART1_Init 2 */
 546:Core/Src/main.c **** 
 547:Core/Src/main.c **** }
 548:Core/Src/main.c **** 
 549:Core/Src/main.c **** /**
 550:Core/Src/main.c ****   * @brief USART1 Initialization Function
 551:Core/Src/main.c ****   * @param None
 552:Core/Src/main.c ****   * @retval None
 553:Core/Src/main.c ****   */
 554:Core/Src/main.c **** static void MX_USART1_UART_Init(void)
 555:Core/Src/main.c **** {
 556:Core/Src/main.c **** 
 557:Core/Src/main.c ****   /* USER CODE BEGIN USART1_Init 0 */
 558:Core/Src/main.c **** 
 559:Core/Src/main.c ****   /* USER CODE END USART1_Init 0 */
 560:Core/Src/main.c **** 
 561:Core/Src/main.c ****   /* USER CODE BEGIN USART1_Init 1 */
 562:Core/Src/main.c **** 
 563:Core/Src/main.c ****   /* USER CODE END USART1_Init 1 */
 564:Core/Src/main.c ****   huart1.Instance = USART1;
 565:Core/Src/main.c ****   huart1.Init.BaudRate = 115200;
 566:Core/Src/main.c ****   huart1.Init.WordLength = UART_WORDLENGTH_8B;
 567:Core/Src/main.c ****   huart1.Init.StopBits = UART_STOPBITS_1;
 568:Core/Src/main.c ****   huart1.Init.Parity = UART_PARITY_NONE;
 569:Core/Src/main.c ****   huart1.Init.Mode = UART_MODE_TX_RX;
 570:Core/Src/main.c ****   huart1.Init.HwFlowCtl = UART_HWCONTROL_NONE;
 571:Core/Src/main.c ****   huart1.Init.OverSampling = UART_OVERSAMPLING_16;
 572:Core/Src/main.c ****   huart1.Init.OneBitSampling = UART_ONE_BIT_SAMPLE_DISABLE;
 573:Core/Src/main.c ****   huart1.AdvancedInit.AdvFeatureInit = UART_ADVFEATURE_NO_INIT;
 574:Core/Src/main.c ****   if (HAL_UART_Init(&huart1) != HAL_OK)
 575:Core/Src/main.c ****   {
 576:Core/Src/main.c ****     Error_Handler();
 577:Core/Src/main.c ****   }
 578:Core/Src/main.c ****   /* USER CODE BEGIN USART1_Init 2 */
 579:Core/Src/main.c **** 
 580:Core/Src/main.c ****   /* USER CODE END USART1_Init 2 */
 581:Core/Src/main.c **** 
 582:Core/Src/main.c **** }
 583:Core/Src/main.c **** 
 584:Core/Src/main.c **** /**
 585:Core/Src/main.c ****   * @brief USART2 Initialization Function
 586:Core/Src/main.c ****   * @param None
 587:Core/Src/main.c ****   * @retval None
 588:Core/Src/main.c ****   */
 589:Core/Src/main.c **** static void MX_USART2_UART_Init(void)
 590:Core/Src/main.c **** {
 591:Core/Src/main.c **** 
 592:Core/Src/main.c ****   /* USER CODE BEGIN USART2_Init 0 */
 593:Core/Src/main.c **** 
 594:Core/Src/main.c ****   /* USER CODE END USART2_Init 0 */
 595:Core/Src/main.c **** 
 596:Core/Src/main.c ****   /* USER CODE BEGIN USART2_Init 1 */
 597:Core/Src/main.c **** 
 598:Core/Src/main.c ****   /* USER CODE END USART2_Init 1 */
 599:Core/Src/main.c ****   huart2.Instance = USART2;
 600:Core/Src/main.c ****   huart2.Init.BaudRate = 115200;
 601:Core/Src/main.c ****   huart2.Init.WordLength = UART_WORDLENGTH_8B;
ARM GAS  /tmp/cczzewXT.s 			page 12


 602:Core/Src/main.c ****   huart2.Init.StopBits = UART_STOPBITS_1;
 603:Core/Src/main.c ****   huart2.Init.Parity = UART_PARITY_NONE;
 604:Core/Src/main.c ****   huart2.Init.Mode = UART_MODE_TX_RX;
 605:Core/Src/main.c ****   huart2.Init.HwFlowCtl = UART_HWCONTROL_RTS_CTS;
 606:Core/Src/main.c ****   huart2.Init.OverSampling = UART_OVERSAMPLING_16;
 607:Core/Src/main.c ****   huart2.Init.OneBitSampling = UART_ONE_BIT_SAMPLE_DISABLE;
 608:Core/Src/main.c ****   huart2.AdvancedInit.AdvFeatureInit = UART_ADVFEATURE_NO_INIT;
 609:Core/Src/main.c ****   if (HAL_UART_Init(&huart2) != HAL_OK)
 610:Core/Src/main.c ****   {
 611:Core/Src/main.c ****     Error_Handler();
 612:Core/Src/main.c ****   }
 613:Core/Src/main.c ****   /* USER CODE BEGIN USART2_Init 2 */
 614:Core/Src/main.c **** 
 615:Core/Src/main.c ****   /* USER CODE END USART2_Init 2 */
 616:Core/Src/main.c **** 
 617:Core/Src/main.c **** }
 618:Core/Src/main.c **** 
 619:Core/Src/main.c **** /**
 620:Core/Src/main.c ****   * @brief USART3 Initialization Function
 621:Core/Src/main.c ****   * @param None
 622:Core/Src/main.c ****   * @retval None
 623:Core/Src/main.c ****   */
 624:Core/Src/main.c **** static void MX_USART3_UART_Init(void)
 625:Core/Src/main.c **** {
 626:Core/Src/main.c **** 
 627:Core/Src/main.c ****   /* USER CODE BEGIN USART3_Init 0 */
 628:Core/Src/main.c **** 
 629:Core/Src/main.c ****   /* USER CODE END USART3_Init 0 */
 630:Core/Src/main.c **** 
 631:Core/Src/main.c ****   /* USER CODE BEGIN USART3_Init 1 */
 632:Core/Src/main.c **** 
 633:Core/Src/main.c ****   /* USER CODE END USART3_Init 1 */
 634:Core/Src/main.c ****   huart3.Instance = USART3;
 635:Core/Src/main.c ****   huart3.Init.BaudRate = 115200;
 636:Core/Src/main.c ****   huart3.Init.WordLength = UART_WORDLENGTH_8B;
 637:Core/Src/main.c ****   huart3.Init.StopBits = UART_STOPBITS_1;
 638:Core/Src/main.c ****   huart3.Init.Parity = UART_PARITY_NONE;
 639:Core/Src/main.c ****   huart3.Init.Mode = UART_MODE_TX_RX;
 640:Core/Src/main.c ****   huart3.Init.HwFlowCtl = UART_HWCONTROL_NONE;
 641:Core/Src/main.c ****   huart3.Init.OverSampling = UART_OVERSAMPLING_16;
 642:Core/Src/main.c ****   huart3.Init.OneBitSampling = UART_ONE_BIT_SAMPLE_DISABLE;
 643:Core/Src/main.c ****   huart3.AdvancedInit.AdvFeatureInit = UART_ADVFEATURE_NO_INIT;
 644:Core/Src/main.c ****   if (HAL_UART_Init(&huart3) != HAL_OK)
 645:Core/Src/main.c ****   {
 646:Core/Src/main.c ****     Error_Handler();
 647:Core/Src/main.c ****   }
 648:Core/Src/main.c ****   /* USER CODE BEGIN USART3_Init 2 */
 649:Core/Src/main.c **** 
 650:Core/Src/main.c ****   /* USER CODE END USART3_Init 2 */
 651:Core/Src/main.c **** 
 652:Core/Src/main.c **** }
 653:Core/Src/main.c **** 
 654:Core/Src/main.c **** /**
 655:Core/Src/main.c ****   * @brief RTC Initialization Function
 656:Core/Src/main.c ****   * @param None
 657:Core/Src/main.c ****   * @retval None
 658:Core/Src/main.c ****   */
ARM GAS  /tmp/cczzewXT.s 			page 13


 659:Core/Src/main.c **** static void MX_RTC_Init(void)
 660:Core/Src/main.c **** {
 661:Core/Src/main.c **** 
 662:Core/Src/main.c ****   /* USER CODE BEGIN RTC_Init 0 */
 663:Core/Src/main.c **** 
 664:Core/Src/main.c ****   /* USER CODE END RTC_Init 0 */
 665:Core/Src/main.c **** 
 666:Core/Src/main.c ****   RTC_TimeTypeDef sTime = {0};
 667:Core/Src/main.c ****   RTC_DateTypeDef sDate = {0};
 668:Core/Src/main.c **** 
 669:Core/Src/main.c ****   /* USER CODE BEGIN RTC_Init 1 */
 670:Core/Src/main.c **** 
 671:Core/Src/main.c ****   /* USER CODE END RTC_Init 1 */
 672:Core/Src/main.c **** 
 673:Core/Src/main.c ****   /** Initialize RTC Only
 674:Core/Src/main.c ****   */
 675:Core/Src/main.c ****   hrtc.Instance = RTC;
 676:Core/Src/main.c ****   hrtc.Init.HourFormat = RTC_HOURFORMAT_24;
 677:Core/Src/main.c ****   hrtc.Init.AsynchPrediv = 127;
 678:Core/Src/main.c ****   hrtc.Init.SynchPrediv = 255;
 679:Core/Src/main.c ****   hrtc.Init.OutPut = RTC_OUTPUT_DISABLE;
 680:Core/Src/main.c ****   hrtc.Init.OutPutRemap = RTC_OUTPUT_REMAP_NONE;
 681:Core/Src/main.c ****   hrtc.Init.OutPutPolarity = RTC_OUTPUT_POLARITY_HIGH;
 682:Core/Src/main.c ****   hrtc.Init.OutPutType = RTC_OUTPUT_TYPE_OPENDRAIN;
 683:Core/Src/main.c ****   if (HAL_RTC_Init(&hrtc) != HAL_OK)
 684:Core/Src/main.c ****   {
 685:Core/Src/main.c ****     Error_Handler();
 686:Core/Src/main.c ****   }
 687:Core/Src/main.c **** 
 688:Core/Src/main.c ****   /* USER CODE BEGIN Check_RTC_BKUP */
 689:Core/Src/main.c **** 
 690:Core/Src/main.c ****   /* USER CODE END Check_RTC_BKUP */
 691:Core/Src/main.c **** 
 692:Core/Src/main.c ****   /** Initialize RTC and set the Time and Date
 693:Core/Src/main.c ****   */
 694:Core/Src/main.c ****   sTime.Hours = 0x0;
 695:Core/Src/main.c ****   sTime.Minutes = 0x0;
 696:Core/Src/main.c ****   sTime.Seconds = 0x0;
 697:Core/Src/main.c ****   sTime.DayLightSaving = RTC_DAYLIGHTSAVING_NONE;
 698:Core/Src/main.c ****   sTime.StoreOperation = RTC_STOREOPERATION_RESET;
 699:Core/Src/main.c ****   if (HAL_RTC_SetTime(&hrtc, &sTime, RTC_FORMAT_BCD) != HAL_OK)
 700:Core/Src/main.c ****   {
 701:Core/Src/main.c ****     Error_Handler();
 702:Core/Src/main.c ****   }
 703:Core/Src/main.c ****   sDate.WeekDay = RTC_WEEKDAY_MONDAY;
 704:Core/Src/main.c ****   sDate.Month = RTC_MONTH_JANUARY;
 705:Core/Src/main.c ****   sDate.Date = 0x1;
 706:Core/Src/main.c ****   sDate.Year = 0x0;
 707:Core/Src/main.c **** 
 708:Core/Src/main.c ****   if (HAL_RTC_SetDate(&hrtc, &sDate, RTC_FORMAT_BCD) != HAL_OK)
 709:Core/Src/main.c ****   {
 710:Core/Src/main.c ****     Error_Handler();
 711:Core/Src/main.c ****   }
 712:Core/Src/main.c ****   /* USER CODE BEGIN RTC_Init 2 */
 713:Core/Src/main.c **** 
 714:Core/Src/main.c ****   /* USER CODE END RTC_Init 2 */
 715:Core/Src/main.c **** 
ARM GAS  /tmp/cczzewXT.s 			page 14


 716:Core/Src/main.c **** }
 717:Core/Src/main.c **** 
 718:Core/Src/main.c **** /**
 719:Core/Src/main.c ****   * @brief SDMMC1 Initialization Function
 720:Core/Src/main.c ****   * @param None
 721:Core/Src/main.c ****   * @retval None
 722:Core/Src/main.c ****   */
 723:Core/Src/main.c **** static void MX_SDMMC1_SD_Init(void)
 724:Core/Src/main.c **** {
 725:Core/Src/main.c **** 
 726:Core/Src/main.c ****   /* USER CODE BEGIN SDMMC1_Init 0 */
 727:Core/Src/main.c **** 
 728:Core/Src/main.c ****   /* USER CODE END SDMMC1_Init 0 */
 729:Core/Src/main.c **** 
 730:Core/Src/main.c ****   /* USER CODE BEGIN SDMMC1_Init 1 */
 731:Core/Src/main.c **** 
 732:Core/Src/main.c ****   /* USER CODE END SDMMC1_Init 1 */
 733:Core/Src/main.c ****   hsd1.Instance = SDMMC1;
 734:Core/Src/main.c ****   hsd1.Init.ClockEdge = SDMMC_CLOCK_EDGE_RISING;
 735:Core/Src/main.c ****   hsd1.Init.ClockBypass = SDMMC_CLOCK_BYPASS_DISABLE;
 736:Core/Src/main.c ****   hsd1.Init.ClockPowerSave = SDMMC_CLOCK_POWER_SAVE_DISABLE;
 737:Core/Src/main.c ****   hsd1.Init.BusWide = SDMMC_BUS_WIDE_4B;
 738:Core/Src/main.c ****   hsd1.Init.HardwareFlowControl = SDMMC_HARDWARE_FLOW_CONTROL_ENABLE;
 739:Core/Src/main.c ****   hsd1.Init.ClockDiv = 0;
 740:Core/Src/main.c ****   if (HAL_SD_Init(&hsd1) != HAL_OK)
 741:Core/Src/main.c ****   {
 742:Core/Src/main.c ****     Error_Handler();
 743:Core/Src/main.c ****   }
 744:Core/Src/main.c ****   if (HAL_SD_ConfigWideBusOperation(&hsd1, SDMMC_BUS_WIDE_4B) != HAL_OK)
 745:Core/Src/main.c ****   {
 746:Core/Src/main.c ****     Error_Handler();
 747:Core/Src/main.c ****   }
 748:Core/Src/main.c ****   /* USER CODE BEGIN SDMMC1_Init 2 */
 749:Core/Src/main.c **** 
 750:Core/Src/main.c ****   // First init with 1B bust, SD card not initifalising with 4 bits
 751:Core/Src/main.c ****   hsd1.Init.BusWide = SDMMC_BUS_WIDE_1B;
 752:Core/Src/main.c ****   if (HAL_SD_Init(&hsd1) != HAL_OK) {
 753:Core/Src/main.c ****      Error_Handler();
 754:Core/Src/main.c ****   }
 755:Core/Src/main.c ****   
 756:Core/Src/main.c ****   // Now switch to 4 bit mode
 757:Core/Src/main.c ****  if (HAL_SD_ConfigWideBusOperation(&hsd1, SDMMC_BUS_WIDE_4B) != HAL_OK) {
 758:Core/Src/main.c ****     Error_Handler();
 759:Core/Src/main.c ****  }
 760:Core/Src/main.c **** 
 761:Core/Src/main.c ****   UART_SendString(&huart3, "SD CARD INIT\r\n");
 762:Core/Src/main.c ****   
 763:Core/Src/main.c **** 
 764:Core/Src/main.c **** 
 765:Core/Src/main.c ****   /* USER CODE END SDMMC1_Init 2 */
 766:Core/Src/main.c **** 
 767:Core/Src/main.c **** }
 768:Core/Src/main.c **** 
 769:Core/Src/main.c **** /**
 770:Core/Src/main.c ****   * @brief SPI1 Initialization Function
 771:Core/Src/main.c ****   * @param None
 772:Core/Src/main.c ****   * @retval None
ARM GAS  /tmp/cczzewXT.s 			page 15


 773:Core/Src/main.c ****   */
 774:Core/Src/main.c **** static void MX_SPI1_Init(void)
 775:Core/Src/main.c **** {
 776:Core/Src/main.c **** 
 777:Core/Src/main.c ****   /* USER CODE BEGIN SPI1_Init 0 */
 778:Core/Src/main.c **** 
 779:Core/Src/main.c ****   /* USER CODE END SPI1_Init 0 */
 780:Core/Src/main.c **** 
 781:Core/Src/main.c ****   /* USER CODE BEGIN SPI1_Init 1 */
 782:Core/Src/main.c **** 
 783:Core/Src/main.c ****   /* USER CODE END SPI1_Init 1 */
 784:Core/Src/main.c ****   /* SPI1 parameter configuration*/
 785:Core/Src/main.c ****   hspi1.Instance = SPI1;
 786:Core/Src/main.c ****   hspi1.Init.Mode = SPI_MODE_MASTER;
 787:Core/Src/main.c ****   hspi1.Init.Direction = SPI_DIRECTION_2LINES;
 788:Core/Src/main.c ****   hspi1.Init.DataSize = SPI_DATASIZE_4BIT;
 789:Core/Src/main.c ****   hspi1.Init.CLKPolarity = SPI_POLARITY_LOW;
 790:Core/Src/main.c ****   hspi1.Init.CLKPhase = SPI_PHASE_1EDGE;
 791:Core/Src/main.c ****   hspi1.Init.NSS = SPI_NSS_SOFT;
 792:Core/Src/main.c ****   hspi1.Init.BaudRatePrescaler = SPI_BAUDRATEPRESCALER_2;
 793:Core/Src/main.c ****   hspi1.Init.FirstBit = SPI_FIRSTBIT_MSB;
 794:Core/Src/main.c ****   hspi1.Init.TIMode = SPI_TIMODE_DISABLE;
 795:Core/Src/main.c ****   hspi1.Init.CRCCalculation = SPI_CRCCALCULATION_DISABLE;
 796:Core/Src/main.c ****   hspi1.Init.CRCPolynomial = 7;
 797:Core/Src/main.c ****   hspi1.Init.CRCLength = SPI_CRC_LENGTH_DATASIZE;
 798:Core/Src/main.c ****   hspi1.Init.NSSPMode = SPI_NSS_PULSE_ENABLE;
 799:Core/Src/main.c ****   if (HAL_SPI_Init(&hspi1) != HAL_OK)
 800:Core/Src/main.c ****   {
 801:Core/Src/main.c ****     Error_Handler();
 802:Core/Src/main.c ****   }
 803:Core/Src/main.c ****   /* USER CODE BEGIN SPI1_Init 2 */
 804:Core/Src/main.c **** 
 805:Core/Src/main.c ****   /* USER CODE END SPI1_Init 2 */
 806:Core/Src/main.c **** 
 807:Core/Src/main.c **** }
 808:Core/Src/main.c **** 
 809:Core/Src/main.c **** /**
 810:Core/Src/main.c ****   * Enable DMA controller clock
 811:Core/Src/main.c ****   */
 812:Core/Src/main.c **** static void MX_DMA_Init(void)
 813:Core/Src/main.c **** {
 814:Core/Src/main.c **** 
 815:Core/Src/main.c ****   /* DMA controller clock enable */
 816:Core/Src/main.c ****   __HAL_RCC_DMA1_CLK_ENABLE();
 817:Core/Src/main.c ****   __HAL_RCC_DMA2_CLK_ENABLE();
 818:Core/Src/main.c **** 
 819:Core/Src/main.c ****   /* DMA interrupt init */
 820:Core/Src/main.c ****   /* DMA1_Channel5_IRQn interrupt configuration */
 821:Core/Src/main.c ****   HAL_NVIC_SetPriority(DMA1_Channel5_IRQn, 14, 0);
 822:Core/Src/main.c ****   HAL_NVIC_EnableIRQ(DMA1_Channel5_IRQn);
 823:Core/Src/main.c ****   /* DMA2_Channel4_IRQn interrupt configuration */
 824:Core/Src/main.c ****   HAL_NVIC_SetPriority(DMA2_Channel4_IRQn, 0, 0);
 825:Core/Src/main.c ****   HAL_NVIC_EnableIRQ(DMA2_Channel4_IRQn);
 826:Core/Src/main.c ****   /* DMA2_Channel5_IRQn interrupt configuration */
 827:Core/Src/main.c ****   HAL_NVIC_SetPriority(DMA2_Channel5_IRQn, 0, 0);
 828:Core/Src/main.c ****   HAL_NVIC_EnableIRQ(DMA2_Channel5_IRQn);
 829:Core/Src/main.c **** 
ARM GAS  /tmp/cczzewXT.s 			page 16


 830:Core/Src/main.c **** }
 831:Core/Src/main.c **** 
 832:Core/Src/main.c **** /**
 833:Core/Src/main.c ****   * @brief GPIO Initialization Function
 834:Core/Src/main.c ****   * @param None
 835:Core/Src/main.c ****   * @retval None
 836:Core/Src/main.c ****   */
 837:Core/Src/main.c **** static void MX_GPIO_Init(void)
 838:Core/Src/main.c **** {
  28              		.loc 1 838 1 view -0
  29              		.cfi_startproc
  30              		@ args = 0, pretend = 0, frame = 40
  31              		@ frame_needed = 0, uses_anonymous_args = 0
  32 0000 2DE9F041 		push	{r4, r5, r6, r7, r8, lr}
  33              		.cfi_def_cfa_offset 24
  34              		.cfi_offset 4, -24
  35              		.cfi_offset 5, -20
  36              		.cfi_offset 6, -16
  37              		.cfi_offset 7, -12
  38              		.cfi_offset 8, -8
  39              		.cfi_offset 14, -4
  40 0004 8AB0     		sub	sp, sp, #40
  41              		.cfi_def_cfa_offset 64
 839:Core/Src/main.c ****   GPIO_InitTypeDef GPIO_InitStruct = {0};
  42              		.loc 1 839 3 view .LVU1
  43              		.loc 1 839 20 is_stmt 0 view .LVU2
  44 0006 05AD     		add	r5, sp, #20
  45 0008 0024     		movs	r4, #0
  46 000a 0594     		str	r4, [sp, #20]
  47 000c 0694     		str	r4, [sp, #24]
  48 000e 0794     		str	r4, [sp, #28]
  49 0010 0894     		str	r4, [sp, #32]
  50 0012 0994     		str	r4, [sp, #36]
 840:Core/Src/main.c ****   /* USER CODE BEGIN MX_GPIO_Init_1 */
 841:Core/Src/main.c **** 
 842:Core/Src/main.c ****   /* USER CODE END MX_GPIO_Init_1 */
 843:Core/Src/main.c **** 
 844:Core/Src/main.c ****   /* GPIO Ports Clock Enable */
 845:Core/Src/main.c ****   __HAL_RCC_GPIOC_CLK_ENABLE();
  51              		.loc 1 845 3 is_stmt 1 view .LVU3
  52              	.LBB4:
  53              		.loc 1 845 3 view .LVU4
  54              		.loc 1 845 3 view .LVU5
  55 0014 3B4B     		ldr	r3, .L3
  56 0016 DA6C     		ldr	r2, [r3, #76]
  57 0018 42F00402 		orr	r2, r2, #4
  58 001c DA64     		str	r2, [r3, #76]
  59              		.loc 1 845 3 view .LVU6
  60 001e DA6C     		ldr	r2, [r3, #76]
  61 0020 02F00402 		and	r2, r2, #4
  62 0024 0192     		str	r2, [sp, #4]
  63              		.loc 1 845 3 view .LVU7
  64 0026 019A     		ldr	r2, [sp, #4]
  65              	.LBE4:
  66              		.loc 1 845 3 view .LVU8
 846:Core/Src/main.c ****   __HAL_RCC_GPIOA_CLK_ENABLE();
  67              		.loc 1 846 3 view .LVU9
ARM GAS  /tmp/cczzewXT.s 			page 17


  68              	.LBB5:
  69              		.loc 1 846 3 view .LVU10
  70              		.loc 1 846 3 view .LVU11
  71 0028 DA6C     		ldr	r2, [r3, #76]
  72 002a 42F00102 		orr	r2, r2, #1
  73 002e DA64     		str	r2, [r3, #76]
  74              		.loc 1 846 3 view .LVU12
  75 0030 DA6C     		ldr	r2, [r3, #76]
  76 0032 02F00102 		and	r2, r2, #1
  77 0036 0292     		str	r2, [sp, #8]
  78              		.loc 1 846 3 view .LVU13
  79 0038 029A     		ldr	r2, [sp, #8]
  80              	.LBE5:
  81              		.loc 1 846 3 view .LVU14
 847:Core/Src/main.c ****   __HAL_RCC_GPIOB_CLK_ENABLE();
  82              		.loc 1 847 3 view .LVU15
  83              	.LBB6:
  84              		.loc 1 847 3 view .LVU16
  85              		.loc 1 847 3 view .LVU17
  86 003a DA6C     		ldr	r2, [r3, #76]
  87 003c 42F00202 		orr	r2, r2, #2
  88 0040 DA64     		str	r2, [r3, #76]
  89              		.loc 1 847 3 view .LVU18
  90 0042 DA6C     		ldr	r2, [r3, #76]
  91 0044 02F00202 		and	r2, r2, #2
  92 0048 0392     		str	r2, [sp, #12]
  93              		.loc 1 847 3 view .LVU19
  94 004a 039A     		ldr	r2, [sp, #12]
  95              	.LBE6:
  96              		.loc 1 847 3 view .LVU20
 848:Core/Src/main.c ****   __HAL_RCC_GPIOD_CLK_ENABLE();
  97              		.loc 1 848 3 view .LVU21
  98              	.LBB7:
  99              		.loc 1 848 3 view .LVU22
 100              		.loc 1 848 3 view .LVU23
 101 004c DA6C     		ldr	r2, [r3, #76]
 102 004e 42F00802 		orr	r2, r2, #8
 103 0052 DA64     		str	r2, [r3, #76]
 104              		.loc 1 848 3 view .LVU24
 105 0054 DB6C     		ldr	r3, [r3, #76]
 106 0056 03F00803 		and	r3, r3, #8
 107 005a 0493     		str	r3, [sp, #16]
 108              		.loc 1 848 3 view .LVU25
 109 005c 049B     		ldr	r3, [sp, #16]
 110              	.LBE7:
 111              		.loc 1 848 3 view .LVU26
 849:Core/Src/main.c **** 
 850:Core/Src/main.c ****   /*Configure GPIO pin Output Level */
 851:Core/Src/main.c ****   HAL_GPIO_WritePin(GPIOC, Wi_EN_Pin|Wi_RST_Pin|Wi_WAKE_Pin|Wi_GPIO_0_Pin, GPIO_PIN_RESET);
 112              		.loc 1 851 3 view .LVU27
 113 005e DFF8AC80 		ldr	r8, .L3+8
 114 0062 2246     		mov	r2, r4
 115 0064 CC21     		movs	r1, #204
 116 0066 4046     		mov	r0, r8
 117 0068 FFF7FEFF 		bl	HAL_GPIO_WritePin
 118              	.LVL0:
 852:Core/Src/main.c **** 
ARM GAS  /tmp/cczzewXT.s 			page 18


 853:Core/Src/main.c ****   /*Configure GPIO pin Output Level */
 854:Core/Src/main.c ****   HAL_GPIO_WritePin(GPIOB, Wi_PWR_CTRL_Pin|Lo_PWR_CTRL_Pin|SD0_PWR_CTRL_Pin|Lo_GPIO_0_Pin
 119              		.loc 1 854 3 view .LVU28
 120 006c 264E     		ldr	r6, .L3+4
 121 006e 2246     		mov	r2, r4
 122 0070 41F60741 		movw	r1, #7175
 123 0074 3046     		mov	r0, r6
 124 0076 FFF7FEFF 		bl	HAL_GPIO_WritePin
 125              	.LVL1:
 855:Core/Src/main.c ****                           |Lo_GPIO_1_Pin|Lo_GPIO_2_Pin, GPIO_PIN_RESET);
 856:Core/Src/main.c **** 
 857:Core/Src/main.c ****   /*Configure GPIO pins : Wi_EN_Pin Wi_RST_Pin Wi_WAKE_Pin Wi_GPIO_0_Pin */
 858:Core/Src/main.c ****   GPIO_InitStruct.Pin = Wi_EN_Pin|Wi_RST_Pin|Wi_WAKE_Pin|Wi_GPIO_0_Pin;
 126              		.loc 1 858 3 view .LVU29
 127              		.loc 1 858 23 is_stmt 0 view .LVU30
 128 007a CC23     		movs	r3, #204
 129 007c 0593     		str	r3, [sp, #20]
 859:Core/Src/main.c ****   GPIO_InitStruct.Mode = GPIO_MODE_OUTPUT_PP;
 130              		.loc 1 859 3 is_stmt 1 view .LVU31
 131              		.loc 1 859 24 is_stmt 0 view .LVU32
 132 007e 0127     		movs	r7, #1
 133 0080 0697     		str	r7, [sp, #24]
 860:Core/Src/main.c ****   GPIO_InitStruct.Pull = GPIO_NOPULL;
 134              		.loc 1 860 3 is_stmt 1 view .LVU33
 135              		.loc 1 860 24 is_stmt 0 view .LVU34
 136 0082 0794     		str	r4, [sp, #28]
 861:Core/Src/main.c ****   GPIO_InitStruct.Speed = GPIO_SPEED_FREQ_LOW;
 137              		.loc 1 861 3 is_stmt 1 view .LVU35
 138              		.loc 1 861 25 is_stmt 0 view .LVU36
 139 0084 0894     		str	r4, [sp, #32]
 862:Core/Src/main.c ****   HAL_GPIO_Init(GPIOC, &GPIO_InitStruct);
 140              		.loc 1 862 3 is_stmt 1 view .LVU37
 141 0086 2946     		mov	r1, r5
 142 0088 4046     		mov	r0, r8
 143 008a FFF7FEFF 		bl	HAL_GPIO_Init
 144              	.LVL2:
 863:Core/Src/main.c **** 
 864:Core/Src/main.c ****   /*Configure GPIO pin : SD_GPIO_INPUT_Pin */
 865:Core/Src/main.c ****   GPIO_InitStruct.Pin = SD_GPIO_INPUT_Pin;
 145              		.loc 1 865 3 view .LVU38
 146              		.loc 1 865 23 is_stmt 0 view .LVU39
 147 008e 1023     		movs	r3, #16
 148 0090 0593     		str	r3, [sp, #20]
 866:Core/Src/main.c ****   GPIO_InitStruct.Mode = GPIO_MODE_INPUT;
 149              		.loc 1 866 3 is_stmt 1 view .LVU40
 150              		.loc 1 866 24 is_stmt 0 view .LVU41
 151 0092 0694     		str	r4, [sp, #24]
 867:Core/Src/main.c ****   GPIO_InitStruct.Pull = GPIO_PULLDOWN;
 152              		.loc 1 867 3 is_stmt 1 view .LVU42
 153              		.loc 1 867 24 is_stmt 0 view .LVU43
 154 0094 0223     		movs	r3, #2
 155 0096 0793     		str	r3, [sp, #28]
 868:Core/Src/main.c ****   HAL_GPIO_Init(SD_GPIO_INPUT_GPIO_Port, &GPIO_InitStruct);
 156              		.loc 1 868 3 is_stmt 1 view .LVU44
 157 0098 2946     		mov	r1, r5
 158 009a 4FF09040 		mov	r0, #1207959552
 159 009e FFF7FEFF 		bl	HAL_GPIO_Init
ARM GAS  /tmp/cczzewXT.s 			page 19


 160              	.LVL3:
 869:Core/Src/main.c **** 
 870:Core/Src/main.c ****   /*Configure GPIO pins : Wi_PWR_CTRL_Pin Lo_PWR_CTRL_Pin SD0_PWR_CTRL_Pin Lo_GPIO_0_Pin
 871:Core/Src/main.c ****                            Lo_GPIO_1_Pin Lo_GPIO_2_Pin */
 872:Core/Src/main.c ****   GPIO_InitStruct.Pin = Wi_PWR_CTRL_Pin|Lo_PWR_CTRL_Pin|SD0_PWR_CTRL_Pin|Lo_GPIO_0_Pin
 161              		.loc 1 872 3 view .LVU45
 162              		.loc 1 872 23 is_stmt 0 view .LVU46
 163 00a2 41F60743 		movw	r3, #7175
 164 00a6 0593     		str	r3, [sp, #20]
 873:Core/Src/main.c ****                           |Lo_GPIO_1_Pin|Lo_GPIO_2_Pin;
 874:Core/Src/main.c ****   GPIO_InitStruct.Mode = GPIO_MODE_OUTPUT_PP;
 165              		.loc 1 874 3 is_stmt 1 view .LVU47
 166              		.loc 1 874 24 is_stmt 0 view .LVU48
 167 00a8 0697     		str	r7, [sp, #24]
 875:Core/Src/main.c ****   GPIO_InitStruct.Pull = GPIO_NOPULL;
 168              		.loc 1 875 3 is_stmt 1 view .LVU49
 169              		.loc 1 875 24 is_stmt 0 view .LVU50
 170 00aa 0794     		str	r4, [sp, #28]
 876:Core/Src/main.c ****   GPIO_InitStruct.Speed = GPIO_SPEED_FREQ_LOW;
 171              		.loc 1 876 3 is_stmt 1 view .LVU51
 172              		.loc 1 876 25 is_stmt 0 view .LVU52
 173 00ac 0894     		str	r4, [sp, #32]
 877:Core/Src/main.c ****   HAL_GPIO_Init(GPIOB, &GPIO_InitStruct);
 174              		.loc 1 877 3 is_stmt 1 view .LVU53
 175 00ae 2946     		mov	r1, r5
 176 00b0 3046     		mov	r0, r6
 177 00b2 FFF7FEFF 		bl	HAL_GPIO_Init
 178              	.LVL4:
 878:Core/Src/main.c **** 
 879:Core/Src/main.c ****   /*Configure GPIO pin : D_WAKE_Pin */
 880:Core/Src/main.c ****   GPIO_InitStruct.Pin = D_WAKE_Pin;
 179              		.loc 1 880 3 view .LVU54
 180              		.loc 1 880 23 is_stmt 0 view .LVU55
 181 00b6 4FF40063 		mov	r3, #2048
 182 00ba 0593     		str	r3, [sp, #20]
 881:Core/Src/main.c ****   GPIO_InitStruct.Mode = GPIO_MODE_IT_RISING;
 183              		.loc 1 881 3 is_stmt 1 view .LVU56
 184              		.loc 1 881 24 is_stmt 0 view .LVU57
 185 00bc 4FF48813 		mov	r3, #1114112
 186 00c0 0693     		str	r3, [sp, #24]
 882:Core/Src/main.c ****   GPIO_InitStruct.Pull = GPIO_NOPULL;
 187              		.loc 1 882 3 is_stmt 1 view .LVU58
 188              		.loc 1 882 24 is_stmt 0 view .LVU59
 189 00c2 0794     		str	r4, [sp, #28]
 883:Core/Src/main.c ****   HAL_GPIO_Init(D_WAKE_GPIO_Port, &GPIO_InitStruct);
 190              		.loc 1 883 3 is_stmt 1 view .LVU60
 191 00c4 2946     		mov	r1, r5
 192 00c6 4FF09040 		mov	r0, #1207959552
 193 00ca FFF7FEFF 		bl	HAL_GPIO_Init
 194              	.LVL5:
 884:Core/Src/main.c **** 
 885:Core/Src/main.c ****   /*Configure GPIO pin : D_GPIO0_Pin */
 886:Core/Src/main.c ****   GPIO_InitStruct.Pin = D_GPIO0_Pin;
 195              		.loc 1 886 3 view .LVU61
 196              		.loc 1 886 23 is_stmt 0 view .LVU62
 197 00ce 4FF48053 		mov	r3, #4096
 198 00d2 0593     		str	r3, [sp, #20]
ARM GAS  /tmp/cczzewXT.s 			page 20


 887:Core/Src/main.c ****   GPIO_InitStruct.Mode = GPIO_MODE_INPUT;
 199              		.loc 1 887 3 is_stmt 1 view .LVU63
 200              		.loc 1 887 24 is_stmt 0 view .LVU64
 201 00d4 0694     		str	r4, [sp, #24]
 888:Core/Src/main.c ****   GPIO_InitStruct.Pull = GPIO_NOPULL;
 202              		.loc 1 888 3 is_stmt 1 view .LVU65
 203              		.loc 1 888 24 is_stmt 0 view .LVU66
 204 00d6 0794     		str	r4, [sp, #28]
 889:Core/Src/main.c ****   HAL_GPIO_Init(D_GPIO0_GPIO_Port, &GPIO_InitStruct);
 205              		.loc 1 889 3 is_stmt 1 view .LVU67
 206 00d8 2946     		mov	r1, r5
 207 00da 4FF09040 		mov	r0, #1207959552
 208 00de FFF7FEFF 		bl	HAL_GPIO_Init
 209              	.LVL6:
 890:Core/Src/main.c **** 
 891:Core/Src/main.c ****   /* EXTI interrupt init*/
 892:Core/Src/main.c ****   HAL_NVIC_SetPriority(EXTI15_10_IRQn, 14, 0);
 210              		.loc 1 892 3 view .LVU68
 211 00e2 2246     		mov	r2, r4
 212 00e4 0E21     		movs	r1, #14
 213 00e6 2820     		movs	r0, #40
 214 00e8 FFF7FEFF 		bl	HAL_NVIC_SetPriority
 215              	.LVL7:
 893:Core/Src/main.c ****   HAL_NVIC_EnableIRQ(EXTI15_10_IRQn);
 216              		.loc 1 893 3 view .LVU69
 217 00ec 2820     		movs	r0, #40
 218 00ee FFF7FEFF 		bl	HAL_NVIC_EnableIRQ
 219              	.LVL8:
 894:Core/Src/main.c **** 
 895:Core/Src/main.c ****   /* USER CODE BEGIN MX_GPIO_Init_2 */
 896:Core/Src/main.c ****   // SET SD CARD HIGH FOR TESTING : TODO REMOVE
 897:Core/Src/main.c ****   HAL_GPIO_WritePin(SD0_PWR_CTRL_GPIO_Port, SD0_PWR_CTRL_Pin, GPIO_PIN_SET);
 220              		.loc 1 897 3 view .LVU70
 221 00f2 3A46     		mov	r2, r7
 222 00f4 0421     		movs	r1, #4
 223 00f6 3046     		mov	r0, r6
 224 00f8 FFF7FEFF 		bl	HAL_GPIO_WritePin
 225              	.LVL9:
 898:Core/Src/main.c ****   /* USER CODE END MX_GPIO_Init_2 */
 899:Core/Src/main.c **** }
 226              		.loc 1 899 1 is_stmt 0 view .LVU71
 227 00fc 0AB0     		add	sp, sp, #40
 228              		.cfi_def_cfa_offset 24
 229              		@ sp needed
 230 00fe BDE8F081 		pop	{r4, r5, r6, r7, r8, pc}
 231              	.L4:
 232 0102 00BF     		.align	2
 233              	.L3:
 234 0104 00100240 		.word	1073876992
 235 0108 00040048 		.word	1207960576
 236 010c 00080048 		.word	1207961600
 237              		.cfi_endproc
 238              	.LFE243:
 240              		.section	.text.MX_DMA_Init,"ax",%progbits
 241              		.align	1
 242              		.syntax unified
 243              		.thumb
ARM GAS  /tmp/cczzewXT.s 			page 21


 244              		.thumb_func
 246              	MX_DMA_Init:
 247              	.LFB242:
 813:Core/Src/main.c **** 
 248              		.loc 1 813 1 is_stmt 1 view -0
 249              		.cfi_startproc
 250              		@ args = 0, pretend = 0, frame = 8
 251              		@ frame_needed = 0, uses_anonymous_args = 0
 252 0000 00B5     		push	{lr}
 253              		.cfi_def_cfa_offset 4
 254              		.cfi_offset 14, -4
 255 0002 83B0     		sub	sp, sp, #12
 256              		.cfi_def_cfa_offset 16
 816:Core/Src/main.c ****   __HAL_RCC_DMA2_CLK_ENABLE();
 257              		.loc 1 816 3 view .LVU73
 258              	.LBB8:
 816:Core/Src/main.c ****   __HAL_RCC_DMA2_CLK_ENABLE();
 259              		.loc 1 816 3 view .LVU74
 816:Core/Src/main.c ****   __HAL_RCC_DMA2_CLK_ENABLE();
 260              		.loc 1 816 3 view .LVU75
 261 0004 164B     		ldr	r3, .L7
 262 0006 9A6C     		ldr	r2, [r3, #72]
 263 0008 42F00102 		orr	r2, r2, #1
 264 000c 9A64     		str	r2, [r3, #72]
 816:Core/Src/main.c ****   __HAL_RCC_DMA2_CLK_ENABLE();
 265              		.loc 1 816 3 view .LVU76
 266 000e 9A6C     		ldr	r2, [r3, #72]
 267 0010 02F00102 		and	r2, r2, #1
 268 0014 0092     		str	r2, [sp]
 816:Core/Src/main.c ****   __HAL_RCC_DMA2_CLK_ENABLE();
 269              		.loc 1 816 3 view .LVU77
 270 0016 009A     		ldr	r2, [sp]
 271              	.LBE8:
 816:Core/Src/main.c ****   __HAL_RCC_DMA2_CLK_ENABLE();
 272              		.loc 1 816 3 view .LVU78
 817:Core/Src/main.c **** 
 273              		.loc 1 817 3 view .LVU79
 274              	.LBB9:
 817:Core/Src/main.c **** 
 275              		.loc 1 817 3 view .LVU80
 817:Core/Src/main.c **** 
 276              		.loc 1 817 3 view .LVU81
 277 0018 9A6C     		ldr	r2, [r3, #72]
 278 001a 42F00202 		orr	r2, r2, #2
 279 001e 9A64     		str	r2, [r3, #72]
 817:Core/Src/main.c **** 
 280              		.loc 1 817 3 view .LVU82
 281 0020 9B6C     		ldr	r3, [r3, #72]
 282 0022 03F00203 		and	r3, r3, #2
 283 0026 0193     		str	r3, [sp, #4]
 817:Core/Src/main.c **** 
 284              		.loc 1 817 3 view .LVU83
 285 0028 019B     		ldr	r3, [sp, #4]
 286              	.LBE9:
 817:Core/Src/main.c **** 
 287              		.loc 1 817 3 view .LVU84
 821:Core/Src/main.c ****   HAL_NVIC_EnableIRQ(DMA1_Channel5_IRQn);
ARM GAS  /tmp/cczzewXT.s 			page 22


 288              		.loc 1 821 3 view .LVU85
 289 002a 0022     		movs	r2, #0
 290 002c 0E21     		movs	r1, #14
 291 002e 0F20     		movs	r0, #15
 292 0030 FFF7FEFF 		bl	HAL_NVIC_SetPriority
 293              	.LVL10:
 822:Core/Src/main.c ****   /* DMA2_Channel4_IRQn interrupt configuration */
 294              		.loc 1 822 3 view .LVU86
 295 0034 0F20     		movs	r0, #15
 296 0036 FFF7FEFF 		bl	HAL_NVIC_EnableIRQ
 297              	.LVL11:
 824:Core/Src/main.c ****   HAL_NVIC_EnableIRQ(DMA2_Channel4_IRQn);
 298              		.loc 1 824 3 view .LVU87
 299 003a 0022     		movs	r2, #0
 300 003c 1146     		mov	r1, r2
 301 003e 3B20     		movs	r0, #59
 302 0040 FFF7FEFF 		bl	HAL_NVIC_SetPriority
 303              	.LVL12:
 825:Core/Src/main.c ****   /* DMA2_Channel5_IRQn interrupt configuration */
 304              		.loc 1 825 3 view .LVU88
 305 0044 3B20     		movs	r0, #59
 306 0046 FFF7FEFF 		bl	HAL_NVIC_EnableIRQ
 307              	.LVL13:
 827:Core/Src/main.c ****   HAL_NVIC_EnableIRQ(DMA2_Channel5_IRQn);
 308              		.loc 1 827 3 view .LVU89
 309 004a 0022     		movs	r2, #0
 310 004c 1146     		mov	r1, r2
 311 004e 3C20     		movs	r0, #60
 312 0050 FFF7FEFF 		bl	HAL_NVIC_SetPriority
 313              	.LVL14:
 828:Core/Src/main.c **** 
 314              		.loc 1 828 3 view .LVU90
 315 0054 3C20     		movs	r0, #60
 316 0056 FFF7FEFF 		bl	HAL_NVIC_EnableIRQ
 317              	.LVL15:
 830:Core/Src/main.c **** 
 318              		.loc 1 830 1 is_stmt 0 view .LVU91
 319 005a 03B0     		add	sp, sp, #12
 320              		.cfi_def_cfa_offset 4
 321              		@ sp needed
 322 005c 00BD     		pop	{pc}
 323              	.L8:
 324 005e 00BF     		.align	2
 325              	.L7:
 326 0060 00100240 		.word	1073876992
 327              		.cfi_endproc
 328              	.LFE242:
 330              		.section	.text.__io_putchar,"ax",%progbits
 331              		.align	1
 332              		.global	__io_putchar
 333              		.syntax unified
 334              		.thumb
 335              		.thumb_func
 337              	__io_putchar:
 338              	.LVL16:
 339              	.LFB231:
 149:Core/Src/main.c ****     HAL_UART_Transmit(&huart3, (uint8_t *)&ch, 1, HAL_MAX_DELAY);
ARM GAS  /tmp/cczzewXT.s 			page 23


 340              		.loc 1 149 3 is_stmt 1 view -0
 341              		.cfi_startproc
 342              		@ args = 0, pretend = 0, frame = 8
 343              		@ frame_needed = 0, uses_anonymous_args = 0
 149:Core/Src/main.c ****     HAL_UART_Transmit(&huart3, (uint8_t *)&ch, 1, HAL_MAX_DELAY);
 344              		.loc 1 149 3 is_stmt 0 view .LVU93
 345 0000 00B5     		push	{lr}
 346              		.cfi_def_cfa_offset 4
 347              		.cfi_offset 14, -4
 348 0002 83B0     		sub	sp, sp, #12
 349              		.cfi_def_cfa_offset 16
 350 0004 0190     		str	r0, [sp, #4]
 150:Core/Src/main.c ****     return ch;
 351              		.loc 1 150 5 is_stmt 1 view .LVU94
 352 0006 4FF0FF33 		mov	r3, #-1
 353 000a 0122     		movs	r2, #1
 354 000c 01A9     		add	r1, sp, #4
 355 000e 0348     		ldr	r0, .L11
 356              	.LVL17:
 150:Core/Src/main.c ****     return ch;
 357              		.loc 1 150 5 is_stmt 0 view .LVU95
 358 0010 FFF7FEFF 		bl	HAL_UART_Transmit
 359              	.LVL18:
 151:Core/Src/main.c ****   }
 360              		.loc 1 151 5 is_stmt 1 view .LVU96
 152:Core/Src/main.c **** 
 361              		.loc 1 152 3 is_stmt 0 view .LVU97
 362 0014 0198     		ldr	r0, [sp, #4]
 363 0016 03B0     		add	sp, sp, #12
 364              		.cfi_def_cfa_offset 4
 365              		@ sp needed
 366 0018 00BD     		pop	{pc}
 367              	.L12:
 368 001a 00BF     		.align	2
 369              	.L11:
 370 001c 00000000 		.word	huart3
 371              		.cfi_endproc
 372              	.LFE231:
 374              		.section	.text.UART_SendString,"ax",%progbits
 375              		.align	1
 376              		.global	UART_SendString
 377              		.syntax unified
 378              		.thumb
 379              		.thumb_func
 381              	UART_SendString:
 382              	.LVL19:
 383              	.LFB244:
 900:Core/Src/main.c **** 
 901:Core/Src/main.c **** /* USER CODE BEGIN 4 */
 902:Core/Src/main.c **** /**
 903:Core/Src/main.c ****  * @brief Sends a string over the specified UART peripheral.
 904:Core/Src/main.c ****  * @param huart: Pointer to the UART handle (e.g., &huart3)
 905:Core/Src/main.c ****  * @param str: The string to be sent
 906:Core/Src/main.c ****  */
 907:Core/Src/main.c **** void UART_SendString(UART_HandleTypeDef *huart, char *str) {
 384              		.loc 1 907 60 is_stmt 1 view -0
 385              		.cfi_startproc
ARM GAS  /tmp/cczzewXT.s 			page 24


 386              		@ args = 0, pretend = 0, frame = 0
 387              		@ frame_needed = 0, uses_anonymous_args = 0
 388              		.loc 1 907 60 is_stmt 0 view .LVU99
 389 0000 38B5     		push	{r3, r4, r5, lr}
 390              		.cfi_def_cfa_offset 16
 391              		.cfi_offset 3, -16
 392              		.cfi_offset 4, -12
 393              		.cfi_offset 5, -8
 394              		.cfi_offset 14, -4
 395 0002 0546     		mov	r5, r0
 396 0004 0C46     		mov	r4, r1
 908:Core/Src/main.c ****     HAL_UART_Transmit(huart, (uint8_t*)str, strlen(str), HAL_MAX_DELAY);
 397              		.loc 1 908 5 is_stmt 1 view .LVU100
 398              		.loc 1 908 45 is_stmt 0 view .LVU101
 399 0006 0846     		mov	r0, r1
 400              	.LVL20:
 401              		.loc 1 908 45 view .LVU102
 402 0008 FFF7FEFF 		bl	strlen
 403              	.LVL21:
 404              		.loc 1 908 5 discriminator 1 view .LVU103
 405 000c 4FF0FF33 		mov	r3, #-1
 406 0010 82B2     		uxth	r2, r0
 407 0012 2146     		mov	r1, r4
 408 0014 2846     		mov	r0, r5
 409 0016 FFF7FEFF 		bl	HAL_UART_Transmit
 410              	.LVL22:
 909:Core/Src/main.c **** }
 411              		.loc 1 909 1 view .LVU104
 412 001a 38BD     		pop	{r3, r4, r5, pc}
 413              		.loc 1 909 1 view .LVU105
 414              		.cfi_endproc
 415              	.LFE244:
 417              		.section	.rodata.Print_SD_Details.str1.4,"aMS",%progbits,1
 418              		.align	2
 419              	.LC0:
 420 0000 0D0A2D2D 		.ascii	"\015\012--- SD Card Info ---\015\012Version:   %lu\015"
 420      2D205344 
 420      20436172 
 420      6420496E 
 420      666F202D 
 421 0027 0A426C6F 		.ascii	"\012Block Size: %lu bytes\015\012Block Nbr:  %lu\015"
 421      636B2053 
 421      697A653A 
 421      20256C75 
 421      20627974 
 422 004f 0A546F74 		.ascii	"\012Total Size: %lu KB\015\012--------------------\015"
 422      616C2053 
 422      697A653A 
 422      20256C75 
 422      204B420D 
 423 0079 0A00     		.ascii	"\012\000"
 424 007b 00       		.align	2
 425              	.LC1:
 426 007c 656E6420 		.ascii	"end of setup test\015\012\000"
 426      6F662073 
 426      65747570 
 426      20746573 
ARM GAS  /tmp/cczzewXT.s 			page 25


 426      740D0A00 
 427              		.section	.text.Print_SD_Details,"ax",%progbits
 428              		.align	1
 429              		.syntax unified
 430              		.thumb
 431              		.thumb_func
 433              	Print_SD_Details:
 434              	.LFB245:
 910:Core/Src/main.c **** 
 911:Core/Src/main.c **** 
 912:Core/Src/main.c **** 
 913:Core/Src/main.c **** void Print_SD_Details(void) {
 435              		.loc 1 913 29 is_stmt 1 view -0
 436              		.cfi_startproc
 437              		@ args = 0, pretend = 0, frame = 128
 438              		@ frame_needed = 0, uses_anonymous_args = 0
 439 0000 30B5     		push	{r4, r5, lr}
 440              		.cfi_def_cfa_offset 12
 441              		.cfi_offset 4, -12
 442              		.cfi_offset 5, -8
 443              		.cfi_offset 14, -4
 444 0002 A3B0     		sub	sp, sp, #140
 445              		.cfi_def_cfa_offset 152
 914:Core/Src/main.c ****     char msg[128]; // Increased buffer size to fit all details
 446              		.loc 1 914 5 view .LVU107
 915:Core/Src/main.c **** 
 916:Core/Src/main.c ****     // Formatting multiple variables into one string
 917:Core/Src/main.c ****     // %lu is used for 32-bit unsigned integers (uint32_t)
 918:Core/Src/main.c ****     int len = sprintf(msg, 
 447              		.loc 1 918 5 view .LVU108
 919:Core/Src/main.c ****         "\r\n--- SD Card Info ---\r\n"
 920:Core/Src/main.c ****         "Version:   %lu\r\n"
 921:Core/Src/main.c ****         "Block Size: %lu bytes\r\n"
 922:Core/Src/main.c ****         "Block Nbr:  %lu\r\n"
 923:Core/Src/main.c ****         "Total Size: %lu KB\r\n"
 924:Core/Src/main.c ****         "--------------------\r\n",
 925:Core/Src/main.c ****         (uint32_t)hsd1.SdCard.CardVersion,
 448              		.loc 1 925 30 is_stmt 0 view .LVU109
 449 0004 0C4A     		ldr	r2, .L17
 926:Core/Src/main.c ****         (uint32_t)hsd1.SdCard.BlockSize,
 450              		.loc 1 926 30 view .LVU110
 451 0006 936D     		ldr	r3, [r2, #88]
 927:Core/Src/main.c ****         (uint32_t)hsd1.SdCard.BlockNbr,
 452              		.loc 1 927 30 view .LVU111
 453 0008 506D     		ldr	r0, [r2, #84]
 928:Core/Src/main.c ****         (uint32_t)(hsd1.SdCard.BlockNbr * hsd1.SdCard.BlockSize / 1024) // Calculated Size
 454              		.loc 1 928 41 view .LVU112
 455 000a 00FB03F1 		mul	r1, r0, r3
 918:Core/Src/main.c ****         "\r\n--- SD Card Info ---\r\n"
 456              		.loc 1 918 15 view .LVU113
 457 000e 02AD     		add	r5, sp, #8
 458 0010 890A     		lsrs	r1, r1, #10
 459 0012 0191     		str	r1, [sp, #4]
 460 0014 0090     		str	r0, [sp]
 461 0016 926C     		ldr	r2, [r2, #72]
 462 0018 0849     		ldr	r1, .L17+4
 463 001a 2846     		mov	r0, r5
ARM GAS  /tmp/cczzewXT.s 			page 26


 464 001c FFF7FEFF 		bl	sprintf
 465              	.LVL23:
 929:Core/Src/main.c ****     );
 930:Core/Src/main.c **** 
 931:Core/Src/main.c ****     // Send the formatted string via your UART function
 932:Core/Src/main.c ****     UART_SendString(&huart3, msg);
 466              		.loc 1 932 5 is_stmt 1 view .LVU114
 467 0020 074C     		ldr	r4, .L17+8
 468 0022 2946     		mov	r1, r5
 469 0024 2046     		mov	r0, r4
 470 0026 FFF7FEFF 		bl	UART_SendString
 471              	.LVL24:
 933:Core/Src/main.c ****     UART_SendString(&huart3, "end of setup test\r\n");
 472              		.loc 1 933 5 view .LVU115
 473 002a 0649     		ldr	r1, .L17+12
 474 002c 2046     		mov	r0, r4
 475 002e FFF7FEFF 		bl	UART_SendString
 476              	.LVL25:
 934:Core/Src/main.c **** 
 935:Core/Src/main.c **** }
 477              		.loc 1 935 1 is_stmt 0 view .LVU116
 478 0032 23B0     		add	sp, sp, #140
 479              		.cfi_def_cfa_offset 12
 480              		@ sp needed
 481 0034 30BD     		pop	{r4, r5, pc}
 482              	.L18:
 483 0036 00BF     		.align	2
 484              	.L17:
 485 0038 00000000 		.word	hsd1
 486 003c 00000000 		.word	.LC0
 487 0040 00000000 		.word	huart3
 488 0044 7C000000 		.word	.LC1
 489              		.cfi_endproc
 490              	.LFE245:
 492              		.section	.rodata.SD_RawWriteTest.str1.4,"aMS",%progbits,1
 493              		.align	2
 494              	.LC2:
 495 0000 48414C5F 		.ascii	"HAL_OK\000"
 495      4F4B00
 496 0007 00       		.align	2
 497              	.LC3:
 498 0008 4641494C 		.ascii	"FAILED\000"
 498      454400
 499 000f 00       		.align	2
 500              	.LC4:
 501 0010 50415353 		.ascii	"PASS\000"
 501      00
 502 0015 000000   		.align	2
 503              	.LC5:
 504 0018 4641494C 		.ascii	"FAIL\000"
 504      00
 505 001d 000000   		.align	2
 506              	.LC6:
 507 0020 0D0A2D2D 		.ascii	"\015\012--- RAW HAL SD TEST ---\015\012\000"
 507      2D205241 
 507      57204841 
 507      4C205344 
ARM GAS  /tmp/cczzewXT.s 			page 27


 507      20544553 
 508              		.align	2
 509              	.LC7:
 510 003c 57726974 		.ascii	"WriteBlocks: %s (%d)\015\012\000"
 510      65426C6F 
 510      636B733A 
 510      20257320 
 510      28256429 
 511 0053 00       		.align	2
 512              	.LC8:
 513 0054 43617264 		.ascii	"Card state after write: %d\015\012\000"
 513      20737461 
 513      74652061 
 513      66746572 
 513      20777269 
 514 0071 000000   		.align	2
 515              	.LC9:
 516 0074 53442045 		.ascii	"SD ErrorCode: 0x%08lX\015\012\000"
 516      72726F72 
 516      436F6465 
 516      3A203078 
 516      2530386C 
 517              		.align	2
 518              	.LC10:
 519 008c 54696D65 		.ascii	"Timeout waiting for card after write!\015\012\000"
 519      6F757420 
 519      77616974 
 519      696E6720 
 519      666F7220 
 520              		.align	2
 521              	.LC11:
 522 00b4 43617264 		.ascii	"Card ready after write.\015\012\000"
 522      20726561 
 522      64792061 
 522      66746572 
 522      20777269 
 523 00ce 0000     		.align	2
 524              	.LC12:
 525 00d0 52656164 		.ascii	"ReadBlocks:  %s (%d)\015\012\000"
 525      426C6F63 
 525      6B733A20 
 525      20257320 
 525      28256429 
 526 00e7 00       		.align	2
 527              	.LC13:
 528 00e8 54696D65 		.ascii	"Timeout waiting for card after read!\015\012\000"
 528      6F757420 
 528      77616974 
 528      696E6720 
 528      666F7220 
 529 010f 00       		.align	2
 530              	.LC14:
 531 0110 56657269 		.ascii	"Verify: %s (%d mismatches)\015\012\000"
 531      66793A20 
 531      25732028 
 531      2564206D 
 531      69736D61 
ARM GAS  /tmp/cczzewXT.s 			page 28


 532 012d 000000   		.align	2
 533              	.LC15:
 534 0130 2D2D2D20 		.ascii	"--- END RAW TEST ---\015\012\015\012\000"
 534      454E4420 
 534      52415720 
 534      54455354 
 534      202D2D2D 
 535              		.section	.text.SD_RawWriteTest,"ax",%progbits
 536              		.align	1
 537              		.syntax unified
 538              		.thumb
 539              		.thumb_func
 541              	SD_RawWriteTest:
 542              	.LFB246:
 936:Core/Src/main.c **** 
 937:Core/Src/main.c **** // Direct SDMMC write/read-back test — no FatFS involved
 938:Core/Src/main.c **** void SD_RawWriteTest(void) {
 543              		.loc 1 938 28 is_stmt 1 view -0
 544              		.cfi_startproc
 545              		@ args = 0, pretend = 0, frame = 64
 546              		@ frame_needed = 0, uses_anonymous_args = 0
 547 0000 30B5     		push	{r4, r5, lr}
 548              		.cfi_def_cfa_offset 12
 549              		.cfi_offset 4, -12
 550              		.cfi_offset 5, -8
 551              		.cfi_offset 14, -4
 552 0002 93B0     		sub	sp, sp, #76
 553              		.cfi_def_cfa_offset 88
 939:Core/Src/main.c ****     char uart[64];
 554              		.loc 1 939 5 view .LVU118
 940:Core/Src/main.c **** 
 941:Core/Src/main.c ****     // Fill write buffer with known pattern
 942:Core/Src/main.c ****     for (int i = 0; i < 512; i++) {
 555              		.loc 1 942 5 view .LVU119
 556              	.LBB10:
 557              		.loc 1 942 10 view .LVU120
 558              	.LVL26:
 559              		.loc 1 942 14 is_stmt 0 view .LVU121
 560 0004 0023     		movs	r3, #0
 561              		.loc 1 942 5 view .LVU122
 562 0006 02E0     		b	.L20
 563              	.LVL27:
 564              	.L21:
 943:Core/Src/main.c ****         writeBuf[i] = (uint8_t)(i & 0xFF);
 565              		.loc 1 943 9 is_stmt 1 view .LVU123
 566              		.loc 1 943 21 is_stmt 0 view .LVU124
 567 0008 564A     		ldr	r2, .L43
 568 000a D354     		strb	r3, [r2, r3]
 942:Core/Src/main.c ****         writeBuf[i] = (uint8_t)(i & 0xFF);
 569              		.loc 1 942 31 is_stmt 1 discriminator 3 view .LVU125
 570 000c 0133     		adds	r3, r3, #1
 571              	.LVL28:
 572              	.L20:
 942:Core/Src/main.c ****         writeBuf[i] = (uint8_t)(i & 0xFF);
 573              		.loc 1 942 23 discriminator 1 view .LVU126
 574 000e B3F5007F 		cmp	r3, #512
 575 0012 F9DB     		blt	.L21
ARM GAS  /tmp/cczzewXT.s 			page 29


 576              	.LBE10:
 944:Core/Src/main.c ****     }
 945:Core/Src/main.c ****     memset(readBuf, 0xAA, sizeof(readBuf)); // fill read buf with garbage first
 577              		.loc 1 945 5 view .LVU127
 578 0014 4FF40072 		mov	r2, #512
 579 0018 AA21     		movs	r1, #170
 580 001a 5348     		ldr	r0, .L43+4
 581 001c FFF7FEFF 		bl	memset
 582              	.LVL29:
 946:Core/Src/main.c **** 
 947:Core/Src/main.c ****     UART_SendString(&huart3, "\r\n--- RAW HAL SD TEST ---\r\n");
 583              		.loc 1 947 5 view .LVU128
 584 0020 5249     		ldr	r1, .L43+8
 585 0022 5348     		ldr	r0, .L43+12
 586 0024 FFF7FEFF 		bl	UART_SendString
 587              	.LVL30:
 948:Core/Src/main.c **** 
 949:Core/Src/main.c ****     // --- WRITE ---
 950:Core/Src/main.c ****     HAL_StatusTypeDef wStat = HAL_SD_WriteBlocks(&hsd1, writeBuf, 100, 1, 5000);
 588              		.loc 1 950 5 view .LVU129
 589              		.loc 1 950 31 is_stmt 0 view .LVU130
 590 0028 41F28833 		movw	r3, #5000
 591 002c 0093     		str	r3, [sp]
 592 002e 0123     		movs	r3, #1
 593 0030 6422     		movs	r2, #100
 594 0032 4C49     		ldr	r1, .L43
 595 0034 4F48     		ldr	r0, .L43+16
 596 0036 FFF7FEFF 		bl	HAL_SD_WriteBlocks
 597              	.LVL31:
 951:Core/Src/main.c ****     snprintf(uart, sizeof(uart), "WriteBlocks: %s (%d)\r\n",
 598              		.loc 1 951 5 is_stmt 1 view .LVU131
 599 003a 0446     		mov	r4, r0
 600 003c F8B9     		cbnz	r0, .L35
 601              		.loc 1 951 5 is_stmt 0 discriminator 1 view .LVU132
 602 003e 4E4B     		ldr	r3, .L43+20
 603              	.L22:
 604              		.loc 1 951 5 discriminator 4 view .LVU133
 605 0040 02AD     		add	r5, sp, #8
 606 0042 0094     		str	r4, [sp]
 607 0044 4D4A     		ldr	r2, .L43+24
 608 0046 4021     		movs	r1, #64
 609 0048 2846     		mov	r0, r5
 610              	.LVL32:
 611              		.loc 1 951 5 discriminator 4 view .LVU134
 612 004a FFF7FEFF 		bl	snprintf
 613              	.LVL33:
 952:Core/Src/main.c ****              wStat == HAL_OK ? "HAL_OK" : "FAILED", wStat);
 953:Core/Src/main.c ****     UART_SendString(&huart3, uart);
 614              		.loc 1 953 5 is_stmt 1 view .LVU135
 615 004e 2946     		mov	r1, r5
 616 0050 4748     		ldr	r0, .L43+12
 617 0052 FFF7FEFF 		bl	UART_SendString
 618              	.LVL34:
 954:Core/Src/main.c **** 
 955:Core/Src/main.c ****     if (wStat != HAL_OK) {
 619              		.loc 1 955 5 view .LVU136
 620              		.loc 1 955 8 is_stmt 0 view .LVU137
ARM GAS  /tmp/cczzewXT.s 			page 30


 621 0056 A4B9     		cbnz	r4, .L39
 956:Core/Src/main.c ****         // Dump SD error state for more detail
 957:Core/Src/main.c ****         HAL_SD_CardStateTypeDef state = HAL_SD_GetCardState(&hsd1);
 958:Core/Src/main.c ****         snprintf(uart, sizeof(uart), "Card state after write: %d\r\n", (int)state);
 959:Core/Src/main.c ****         UART_SendString(&huart3, uart);
 960:Core/Src/main.c **** 
 961:Core/Src/main.c ****         uint32_t sdErr = hsd1.ErrorCode;    // FAILS WITH SDMMC_ERROR_CMD_CRC_FAIL implying signal 
 962:Core/Src/main.c ****         snprintf(uart, sizeof(uart), "SD ErrorCode: 0x%08lX\r\n", (unsigned long)sdErr);
 963:Core/Src/main.c ****         UART_SendString(&huart3, uart);
 964:Core/Src/main.c ****         return;
 965:Core/Src/main.c ****     }
 966:Core/Src/main.c **** 
 967:Core/Src/main.c **** 
 968:Core/Src/main.c ****     // --- WAIT for card to finish ---
 969:Core/Src/main.c ****     uint32_t t = HAL_GetTick();
 622              		.loc 1 969 5 is_stmt 1 view .LVU138
 623              		.loc 1 969 18 is_stmt 0 view .LVU139
 624 0058 FFF7FEFF 		bl	HAL_GetTick
 625              	.LVL35:
 626 005c 0446     		mov	r4, r0
 627              	.LVL36:
 970:Core/Src/main.c ****     while (HAL_SD_GetCardState(&hsd1) != HAL_SD_CARD_TRANSFER) {
 628              		.loc 1 970 5 is_stmt 1 view .LVU140
 629              	.L25:
 630              		.loc 1 970 39 view .LVU141
 631              		.loc 1 970 12 is_stmt 0 view .LVU142
 632 005e 4548     		ldr	r0, .L43+16
 633 0060 FFF7FEFF 		bl	HAL_SD_GetCardState
 634              	.LVL37:
 635              		.loc 1 970 39 discriminator 1 view .LVU143
 636 0064 0428     		cmp	r0, #4
 637 0066 27D0     		beq	.L40
 971:Core/Src/main.c ****         if (HAL_GetTick() - t > 2000) {
 638              		.loc 1 971 9 is_stmt 1 view .LVU144
 639              		.loc 1 971 13 is_stmt 0 view .LVU145
 640 0068 FFF7FEFF 		bl	HAL_GetTick
 641              	.LVL38:
 642              		.loc 1 971 27 discriminator 1 view .LVU146
 643 006c 001B     		subs	r0, r0, r4
 644              		.loc 1 971 12 discriminator 1 view .LVU147
 645 006e B0F5FA6F 		cmp	r0, #2000
 646 0072 F4D9     		bls	.L25
 972:Core/Src/main.c ****             UART_SendString(&huart3, "Timeout waiting for card after write!\r\n");
 647              		.loc 1 972 13 is_stmt 1 view .LVU148
 648 0074 4249     		ldr	r1, .L43+28
 649 0076 3E48     		ldr	r0, .L43+12
 650 0078 FFF7FEFF 		bl	UART_SendString
 651              	.LVL39:
 973:Core/Src/main.c ****             return;
 652              		.loc 1 973 13 view .LVU149
 653 007c 1AE0     		b	.L19
 654              	.LVL40:
 655              	.L35:
 951:Core/Src/main.c ****              wStat == HAL_OK ? "HAL_OK" : "FAILED", wStat);
 656              		.loc 1 951 5 is_stmt 0 discriminator 2 view .LVU150
 657 007e 414B     		ldr	r3, .L43+32
 658 0080 DEE7     		b	.L22
ARM GAS  /tmp/cczzewXT.s 			page 31


 659              	.LVL41:
 660              	.L39:
 661              	.LBB11:
 957:Core/Src/main.c ****         snprintf(uart, sizeof(uart), "Card state after write: %d\r\n", (int)state);
 662              		.loc 1 957 9 is_stmt 1 view .LVU151
 957:Core/Src/main.c ****         snprintf(uart, sizeof(uart), "Card state after write: %d\r\n", (int)state);
 663              		.loc 1 957 41 is_stmt 0 view .LVU152
 664 0082 3C4D     		ldr	r5, .L43+16
 665 0084 2846     		mov	r0, r5
 666 0086 FFF7FEFF 		bl	HAL_SD_GetCardState
 667              	.LVL42:
 668 008a 0346     		mov	r3, r0
 669              	.LVL43:
 958:Core/Src/main.c ****         UART_SendString(&huart3, uart);
 670              		.loc 1 958 9 is_stmt 1 view .LVU153
 671 008c 02AC     		add	r4, sp, #8
 672              	.LVL44:
 958:Core/Src/main.c ****         UART_SendString(&huart3, uart);
 673              		.loc 1 958 9 is_stmt 0 view .LVU154
 674 008e 3E4A     		ldr	r2, .L43+36
 675 0090 4021     		movs	r1, #64
 676 0092 2046     		mov	r0, r4
 677              	.LVL45:
 958:Core/Src/main.c ****         UART_SendString(&huart3, uart);
 678              		.loc 1 958 9 view .LVU155
 679 0094 FFF7FEFF 		bl	snprintf
 680              	.LVL46:
 959:Core/Src/main.c **** 
 681              		.loc 1 959 9 is_stmt 1 view .LVU156
 682 0098 2146     		mov	r1, r4
 683 009a 3548     		ldr	r0, .L43+12
 684 009c FFF7FEFF 		bl	UART_SendString
 685              	.LVL47:
 961:Core/Src/main.c ****         snprintf(uart, sizeof(uart), "SD ErrorCode: 0x%08lX\r\n", (unsigned long)sdErr);
 686              		.loc 1 961 9 view .LVU157
 961:Core/Src/main.c ****         snprintf(uart, sizeof(uart), "SD ErrorCode: 0x%08lX\r\n", (unsigned long)sdErr);
 687              		.loc 1 961 18 is_stmt 0 view .LVU158
 688 00a0 AB6B     		ldr	r3, [r5, #56]
 689              	.LVL48:
 962:Core/Src/main.c ****         UART_SendString(&huart3, uart);
 690              		.loc 1 962 9 is_stmt 1 view .LVU159
 691 00a2 3A4A     		ldr	r2, .L43+40
 692 00a4 4021     		movs	r1, #64
 693 00a6 2046     		mov	r0, r4
 694 00a8 FFF7FEFF 		bl	snprintf
 695              	.LVL49:
 963:Core/Src/main.c ****         return;
 696              		.loc 1 963 9 view .LVU160
 697 00ac 2146     		mov	r1, r4
 698 00ae 3048     		ldr	r0, .L43+12
 699 00b0 FFF7FEFF 		bl	UART_SendString
 700              	.LVL50:
 964:Core/Src/main.c ****     }
 701              		.loc 1 964 9 view .LVU161
 702              	.L19:
 964:Core/Src/main.c ****     }
 703              		.loc 1 964 9 is_stmt 0 view .LVU162
ARM GAS  /tmp/cczzewXT.s 			page 32


 704              	.LBE11:
 974:Core/Src/main.c ****         }
 975:Core/Src/main.c ****     }
 976:Core/Src/main.c ****     UART_SendString(&huart3, "Card ready after write.\r\n");
 977:Core/Src/main.c **** 
 978:Core/Src/main.c ****     // --- READ BACK ---
 979:Core/Src/main.c ****     HAL_StatusTypeDef rStat = HAL_SD_ReadBlocks(&hsd1, readBuf, 100, 1, 2000);
 980:Core/Src/main.c ****     snprintf(uart, sizeof(uart), "ReadBlocks:  %s (%d)\r\n",
 981:Core/Src/main.c ****              rStat == HAL_OK ? "HAL_OK" : "FAILED", rStat);
 982:Core/Src/main.c ****     UART_SendString(&huart3, uart);
 983:Core/Src/main.c **** 
 984:Core/Src/main.c ****     if (rStat != HAL_OK) return;
 985:Core/Src/main.c **** 
 986:Core/Src/main.c ****     // Wait for card again
 987:Core/Src/main.c ****     t = HAL_GetTick();
 988:Core/Src/main.c ****     while (HAL_SD_GetCardState(&hsd1) != HAL_SD_CARD_TRANSFER) {
 989:Core/Src/main.c ****         if (HAL_GetTick() - t > 2000) {
 990:Core/Src/main.c ****             UART_SendString(&huart3, "Timeout waiting for card after read!\r\n");
 991:Core/Src/main.c ****             return;
 992:Core/Src/main.c ****         }
 993:Core/Src/main.c ****     }
 994:Core/Src/main.c **** 
 995:Core/Src/main.c ****     // --- VERIFY ---
 996:Core/Src/main.c ****     int mismatches = 0;
 997:Core/Src/main.c ****     for (int i = 0; i < 512; i++) {
 998:Core/Src/main.c ****         if (readBuf[i] != writeBuf[i]) mismatches++;
 999:Core/Src/main.c ****     }
1000:Core/Src/main.c **** 
1001:Core/Src/main.c ****     snprintf(uart, sizeof(uart), "Verify: %s (%d mismatches)\r\n",
1002:Core/Src/main.c ****              mismatches == 0 ? "PASS" : "FAIL", mismatches);
1003:Core/Src/main.c ****     UART_SendString(&huart3, uart);
1004:Core/Src/main.c ****     UART_SendString(&huart3, "--- END RAW TEST ---\r\n\r\n");
1005:Core/Src/main.c **** }
 705              		.loc 1 1005 1 view .LVU163
 706 00b4 13B0     		add	sp, sp, #76
 707              		.cfi_remember_state
 708              		.cfi_def_cfa_offset 12
 709              		@ sp needed
 710 00b6 30BD     		pop	{r4, r5, pc}
 711              	.LVL51:
 712              	.L40:
 713              		.cfi_restore_state
 976:Core/Src/main.c **** 
 714              		.loc 1 976 5 is_stmt 1 view .LVU164
 715 00b8 3549     		ldr	r1, .L43+44
 716 00ba 2D48     		ldr	r0, .L43+12
 717 00bc FFF7FEFF 		bl	UART_SendString
 718              	.LVL52:
 979:Core/Src/main.c ****     snprintf(uart, sizeof(uart), "ReadBlocks:  %s (%d)\r\n",
 719              		.loc 1 979 5 view .LVU165
 979:Core/Src/main.c ****     snprintf(uart, sizeof(uart), "ReadBlocks:  %s (%d)\r\n",
 720              		.loc 1 979 31 is_stmt 0 view .LVU166
 721 00c0 4FF4FA63 		mov	r3, #2000
 722 00c4 0093     		str	r3, [sp]
 723 00c6 0123     		movs	r3, #1
 724 00c8 6422     		movs	r2, #100
 725 00ca 2749     		ldr	r1, .L43+4
ARM GAS  /tmp/cczzewXT.s 			page 33


 726 00cc 2948     		ldr	r0, .L43+16
 727 00ce FFF7FEFF 		bl	HAL_SD_ReadBlocks
 728              	.LVL53:
 980:Core/Src/main.c ****              rStat == HAL_OK ? "HAL_OK" : "FAILED", rStat);
 729              		.loc 1 980 5 is_stmt 1 view .LVU167
 730 00d2 0446     		mov	r4, r0
 731              	.LVL54:
 980:Core/Src/main.c ****              rStat == HAL_OK ? "HAL_OK" : "FAILED", rStat);
 732              		.loc 1 980 5 is_stmt 0 view .LVU168
 733 00d4 00BB     		cbnz	r0, .L36
 980:Core/Src/main.c ****              rStat == HAL_OK ? "HAL_OK" : "FAILED", rStat);
 734              		.loc 1 980 5 discriminator 1 view .LVU169
 735 00d6 284B     		ldr	r3, .L43+20
 736              	.L27:
 980:Core/Src/main.c ****              rStat == HAL_OK ? "HAL_OK" : "FAILED", rStat);
 737              		.loc 1 980 5 discriminator 4 view .LVU170
 738 00d8 02AD     		add	r5, sp, #8
 739 00da 0094     		str	r4, [sp]
 740 00dc 2D4A     		ldr	r2, .L43+48
 741 00de 4021     		movs	r1, #64
 742 00e0 2846     		mov	r0, r5
 743              	.LVL55:
 980:Core/Src/main.c ****              rStat == HAL_OK ? "HAL_OK" : "FAILED", rStat);
 744              		.loc 1 980 5 discriminator 4 view .LVU171
 745 00e2 FFF7FEFF 		bl	snprintf
 746              	.LVL56:
 982:Core/Src/main.c **** 
 747              		.loc 1 982 5 is_stmt 1 view .LVU172
 748 00e6 2946     		mov	r1, r5
 749 00e8 2148     		ldr	r0, .L43+12
 750 00ea FFF7FEFF 		bl	UART_SendString
 751              	.LVL57:
 984:Core/Src/main.c **** 
 752              		.loc 1 984 5 view .LVU173
 984:Core/Src/main.c **** 
 753              		.loc 1 984 8 is_stmt 0 view .LVU174
 754 00ee 002C     		cmp	r4, #0
 755 00f0 E0D1     		bne	.L19
 987:Core/Src/main.c ****     while (HAL_SD_GetCardState(&hsd1) != HAL_SD_CARD_TRANSFER) {
 756              		.loc 1 987 5 is_stmt 1 view .LVU175
 987:Core/Src/main.c ****     while (HAL_SD_GetCardState(&hsd1) != HAL_SD_CARD_TRANSFER) {
 757              		.loc 1 987 9 is_stmt 0 view .LVU176
 758 00f2 FFF7FEFF 		bl	HAL_GetTick
 759              	.LVL58:
 760 00f6 0446     		mov	r4, r0
 761              	.LVL59:
 988:Core/Src/main.c ****         if (HAL_GetTick() - t > 2000) {
 762              		.loc 1 988 5 is_stmt 1 view .LVU177
 763              	.L28:
 988:Core/Src/main.c ****         if (HAL_GetTick() - t > 2000) {
 764              		.loc 1 988 39 view .LVU178
 988:Core/Src/main.c ****         if (HAL_GetTick() - t > 2000) {
 765              		.loc 1 988 12 is_stmt 0 view .LVU179
 766 00f8 1E48     		ldr	r0, .L43+16
 767 00fa FFF7FEFF 		bl	HAL_SD_GetCardState
 768              	.LVL60:
 988:Core/Src/main.c ****         if (HAL_GetTick() - t > 2000) {
ARM GAS  /tmp/cczzewXT.s 			page 34


 769              		.loc 1 988 39 discriminator 1 view .LVU180
 770 00fe 0428     		cmp	r0, #4
 771 0100 0CD0     		beq	.L41
 989:Core/Src/main.c ****             UART_SendString(&huart3, "Timeout waiting for card after read!\r\n");
 772              		.loc 1 989 9 is_stmt 1 view .LVU181
 989:Core/Src/main.c ****             UART_SendString(&huart3, "Timeout waiting for card after read!\r\n");
 773              		.loc 1 989 13 is_stmt 0 view .LVU182
 774 0102 FFF7FEFF 		bl	HAL_GetTick
 775              	.LVL61:
 989:Core/Src/main.c ****             UART_SendString(&huart3, "Timeout waiting for card after read!\r\n");
 776              		.loc 1 989 27 discriminator 1 view .LVU183
 777 0106 031B     		subs	r3, r0, r4
 989:Core/Src/main.c ****             UART_SendString(&huart3, "Timeout waiting for card after read!\r\n");
 778              		.loc 1 989 12 discriminator 1 view .LVU184
 779 0108 B3F5FA6F 		cmp	r3, #2000
 780 010c F4D9     		bls	.L28
 990:Core/Src/main.c ****             return;
 781              		.loc 1 990 13 is_stmt 1 view .LVU185
 782 010e 2249     		ldr	r1, .L43+52
 783 0110 1748     		ldr	r0, .L43+12
 784 0112 FFF7FEFF 		bl	UART_SendString
 785              	.LVL62:
 991:Core/Src/main.c ****         }
 786              		.loc 1 991 13 view .LVU186
 787 0116 CDE7     		b	.L19
 788              	.LVL63:
 789              	.L36:
 980:Core/Src/main.c ****              rStat == HAL_OK ? "HAL_OK" : "FAILED", rStat);
 790              		.loc 1 980 5 is_stmt 0 discriminator 2 view .LVU187
 791 0118 1A4B     		ldr	r3, .L43+32
 792 011a DDE7     		b	.L27
 793              	.LVL64:
 794              	.L41:
 795              	.LBB12:
 997:Core/Src/main.c ****         if (readBuf[i] != writeBuf[i]) mismatches++;
 796              		.loc 1 997 14 view .LVU188
 797 011c 0023     		movs	r3, #0
 798              	.LBE12:
 996:Core/Src/main.c ****     for (int i = 0; i < 512; i++) {
 799              		.loc 1 996 9 view .LVU189
 800 011e 1846     		mov	r0, r3
 801 0120 00E0     		b	.L30
 802              	.LVL65:
 803              	.L31:
 804              	.LBB13:
 997:Core/Src/main.c ****         if (readBuf[i] != writeBuf[i]) mismatches++;
 805              		.loc 1 997 31 is_stmt 1 discriminator 2 view .LVU190
 806 0122 0133     		adds	r3, r3, #1
 807              	.LVL66:
 808              	.L30:
 997:Core/Src/main.c ****         if (readBuf[i] != writeBuf[i]) mismatches++;
 809              		.loc 1 997 23 discriminator 1 view .LVU191
 810 0124 B3F5007F 		cmp	r3, #512
 811 0128 07DA     		bge	.L42
 998:Core/Src/main.c ****     }
 812              		.loc 1 998 9 view .LVU192
 998:Core/Src/main.c ****     }
ARM GAS  /tmp/cczzewXT.s 			page 35


 813              		.loc 1 998 20 is_stmt 0 view .LVU193
 814 012a 0F4A     		ldr	r2, .L43+4
 815 012c D15C     		ldrb	r1, [r2, r3]	@ zero_extendqisi2
 998:Core/Src/main.c ****     }
 816              		.loc 1 998 35 view .LVU194
 817 012e 0D4A     		ldr	r2, .L43
 818 0130 D25C     		ldrb	r2, [r2, r3]	@ zero_extendqisi2
 998:Core/Src/main.c ****     }
 819              		.loc 1 998 12 view .LVU195
 820 0132 9142     		cmp	r1, r2
 821 0134 F5D0     		beq	.L31
 998:Core/Src/main.c ****     }
 822              		.loc 1 998 40 is_stmt 1 discriminator 1 view .LVU196
 998:Core/Src/main.c ****     }
 823              		.loc 1 998 50 is_stmt 0 discriminator 1 view .LVU197
 824 0136 0130     		adds	r0, r0, #1
 825              	.LVL67:
 998:Core/Src/main.c ****     }
 826              		.loc 1 998 50 discriminator 1 view .LVU198
 827 0138 F3E7     		b	.L31
 828              	.LVL68:
 829              	.L42:
 998:Core/Src/main.c ****     }
 830              		.loc 1 998 50 discriminator 1 view .LVU199
 831              	.LBE13:
1001:Core/Src/main.c ****              mismatches == 0 ? "PASS" : "FAIL", mismatches);
 832              		.loc 1 1001 5 is_stmt 1 view .LVU200
 833 013a 88B9     		cbnz	r0, .L37
1001:Core/Src/main.c ****              mismatches == 0 ? "PASS" : "FAIL", mismatches);
 834              		.loc 1 1001 5 is_stmt 0 discriminator 1 view .LVU201
 835 013c 174B     		ldr	r3, .L43+56
 836              	.LVL69:
 837              	.L33:
1001:Core/Src/main.c ****              mismatches == 0 ? "PASS" : "FAIL", mismatches);
 838              		.loc 1 1001 5 discriminator 4 view .LVU202
 839 013e 02AD     		add	r5, sp, #8
 840 0140 0090     		str	r0, [sp]
 841 0142 174A     		ldr	r2, .L43+60
 842 0144 4021     		movs	r1, #64
 843 0146 2846     		mov	r0, r5
 844              	.LVL70:
1001:Core/Src/main.c ****              mismatches == 0 ? "PASS" : "FAIL", mismatches);
 845              		.loc 1 1001 5 discriminator 4 view .LVU203
 846 0148 FFF7FEFF 		bl	snprintf
 847              	.LVL71:
1003:Core/Src/main.c ****     UART_SendString(&huart3, "--- END RAW TEST ---\r\n\r\n");
 848              		.loc 1 1003 5 is_stmt 1 view .LVU204
 849 014c 084C     		ldr	r4, .L43+12
 850              	.LVL72:
1003:Core/Src/main.c ****     UART_SendString(&huart3, "--- END RAW TEST ---\r\n\r\n");
 851              		.loc 1 1003 5 is_stmt 0 view .LVU205
 852 014e 2946     		mov	r1, r5
 853 0150 2046     		mov	r0, r4
 854 0152 FFF7FEFF 		bl	UART_SendString
 855              	.LVL73:
1004:Core/Src/main.c **** }
 856              		.loc 1 1004 5 is_stmt 1 view .LVU206
ARM GAS  /tmp/cczzewXT.s 			page 36


 857 0156 1349     		ldr	r1, .L43+64
 858 0158 2046     		mov	r0, r4
 859 015a FFF7FEFF 		bl	UART_SendString
 860              	.LVL74:
 861 015e A9E7     		b	.L19
 862              	.LVL75:
 863              	.L37:
1001:Core/Src/main.c ****              mismatches == 0 ? "PASS" : "FAIL", mismatches);
 864              		.loc 1 1001 5 is_stmt 0 discriminator 2 view .LVU207
 865 0160 114B     		ldr	r3, .L43+68
 866              	.LVL76:
1001:Core/Src/main.c ****              mismatches == 0 ? "PASS" : "FAIL", mismatches);
 867              		.loc 1 1001 5 discriminator 2 view .LVU208
 868 0162 ECE7     		b	.L33
 869              	.L44:
 870              		.align	2
 871              	.L43:
 872 0164 00000000 		.word	writeBuf
 873 0168 00000000 		.word	readBuf
 874 016c 20000000 		.word	.LC6
 875 0170 00000000 		.word	huart3
 876 0174 00000000 		.word	hsd1
 877 0178 00000000 		.word	.LC2
 878 017c 3C000000 		.word	.LC7
 879 0180 8C000000 		.word	.LC10
 880 0184 08000000 		.word	.LC3
 881 0188 54000000 		.word	.LC8
 882 018c 74000000 		.word	.LC9
 883 0190 B4000000 		.word	.LC11
 884 0194 D0000000 		.word	.LC12
 885 0198 E8000000 		.word	.LC13
 886 019c 10000000 		.word	.LC4
 887 01a0 10010000 		.word	.LC14
 888 01a4 30010000 		.word	.LC15
 889 01a8 18000000 		.word	.LC5
 890              		.cfi_endproc
 891              	.LFE246:
 893              		.section	.text.HAL_UARTEx_RxEventCallback,"ax",%progbits
 894              		.align	1
 895              		.global	HAL_UARTEx_RxEventCallback
 896              		.syntax unified
 897              		.thumb
 898              		.thumb_func
 900              	HAL_UARTEx_RxEventCallback:
 901              	.LVL77:
 902              	.LFB247:
1006:Core/Src/main.c **** 
1007:Core/Src/main.c **** void HAL_UARTEx_RxEventCallback(UART_HandleTypeDef *huart, uint16_t Size)
1008:Core/Src/main.c **** {
 903              		.loc 1 1008 1 is_stmt 1 view -0
 904              		.cfi_startproc
 905              		@ args = 0, pretend = 0, frame = 80
 906              		@ frame_needed = 0, uses_anonymous_args = 0
 907              		.loc 1 1008 1 is_stmt 0 view .LVU210
 908 0000 30B5     		push	{r4, r5, lr}
 909              		.cfi_def_cfa_offset 12
 910              		.cfi_offset 4, -12
ARM GAS  /tmp/cczzewXT.s 			page 37


 911              		.cfi_offset 5, -8
 912              		.cfi_offset 14, -4
 913 0002 95B0     		sub	sp, sp, #84
 914              		.cfi_def_cfa_offset 96
 915 0004 0446     		mov	r4, r0
 916 0006 0D46     		mov	r5, r1
1009:Core/Src/main.c **** 
1010:Core/Src/main.c **** 
1011:Core/Src/main.c ****     if (huart->Instance == LPUART1)
 917              		.loc 1 1011 5 is_stmt 1 view .LVU211
 918              		.loc 1 1011 14 is_stmt 0 view .LVU212
 919 0008 0268     		ldr	r2, [r0]
 920              		.loc 1 1011 8 view .LVU213
 921 000a 1B4B     		ldr	r3, .L55
 922 000c 9A42     		cmp	r2, r3
 923 000e 05D0     		beq	.L53
 924              	.LVL78:
 925              	.L46:
1012:Core/Src/main.c ****     {
1013:Core/Src/main.c ****         // lora_rx_buf already contains the data, Size bytes valid
1014:Core/Src/main.c ****         lora_rx_buf[Size] = '\0';  // null-terminate for easy string use
1015:Core/Src/main.c **** 
1016:Core/Src/main.c ****         // Set a flag for main loop to process — keep ISR short
1017:Core/Src/main.c ****         lora_rx_len   = Size;
1018:Core/Src/main.c ****         lora_rx_ready = 1;
1019:Core/Src/main.c **** 
1020:Core/Src/main.c ****         // Re-arm — matching call for this callback
1021:Core/Src/main.c ****         HAL_UARTEx_ReceiveToIdle_IT(&hlpuart1, lora_rx_buf, sizeof(lora_rx_buf));
1022:Core/Src/main.c ****     }
1023:Core/Src/main.c **** 
1024:Core/Src/main.c **** 
1025:Core/Src/main.c **** // Fires  at N/2, N, or idle
1026:Core/Src/main.c **** 
1027:Core/Src/main.c ****     if (huart->Instance == USART1)
 926              		.loc 1 1027 5 is_stmt 1 view .LVU214
 927              		.loc 1 1027 14 is_stmt 0 view .LVU215
 928 0010 2268     		ldr	r2, [r4]
 929              		.loc 1 1027 8 view .LVU216
 930 0012 1A4B     		ldr	r3, .L55+4
 931 0014 9A42     		cmp	r2, r3
 932 0016 0ED0     		beq	.L54
 933              	.L45:
1028:Core/Src/main.c ****     {
1029:Core/Src/main.c ****         HAL_UART_RxEventTypeTypeDef event = HAL_UARTEx_GetRxEventType(huart);
1030:Core/Src/main.c **** 
1031:Core/Src/main.c ****         switch (event)
1032:Core/Src/main.c ****         {
1033:Core/Src/main.c ****             case HAL_UART_RXEVENT_HT:
1034:Core/Src/main.c ****                 // First half of rxBuffer ready
1035:Core/Src/main.c ****                 // rxBuffer[0] to rxBuffer[RX_BUF_SIZE/2 - 1]
1036:Core/Src/main.c ****                     char dbg[80];
1037:Core/Src/main.c ****                // snprintf(dbg, sizeof(dbg), "HT: first bytes: %02X %02X %02X %02X\r\n", rxBuffer[0
1038:Core/Src/main.c ****                 UART_SendString(&huart3, dbg);
1039:Core/Src/main.c ****                 cb_write_first_half = 1;
1040:Core/Src/main.c ****                 break;
1041:Core/Src/main.c **** 
1042:Core/Src/main.c ****             case HAL_UART_RXEVENT_TC:
ARM GAS  /tmp/cczzewXT.s 			page 38


1043:Core/Src/main.c ****                 // Second half of rxBuffer ready
1044:Core/Src/main.c ****                 // rxBuffer[RX_BUF_SIZE/2] to rxBuffer[RX_BUF_SIZE - 1]
1045:Core/Src/main.c ****                 cb_write_second_half = 1;
1046:Core/Src/main.c ****                 break;
1047:Core/Src/main.c **** 
1048:Core/Src/main.c ****             case HAL_UART_RXEVENT_IDLE:
1049:Core/Src/main.c ****                 // Partial chunk — line went quiet
1050:Core/Src/main.c ****                 // rxBuffer[0] to rxBuffer[Size - 1]
1051:Core/Src/main.c **** 
1052:Core/Src/main.c ****                 rxLen   = Size;
1053:Core/Src/main.c ****                 dataReady = 1;
1054:Core/Src/main.c ****                 HAL_UARTEx_ReceiveToIdle_DMA(&huart1, rxBuffer, RX_BUF_SIZE);
1055:Core/Src/main.c ****                 break;
1056:Core/Src/main.c ****         }
1057:Core/Src/main.c ****     }
1058:Core/Src/main.c **** }
 934              		.loc 1 1058 1 view .LVU217
 935 0018 15B0     		add	sp, sp, #84
 936              		.cfi_remember_state
 937              		.cfi_def_cfa_offset 12
 938              		@ sp needed
 939 001a 30BD     		pop	{r4, r5, pc}
 940              	.LVL79:
 941              	.L53:
 942              		.cfi_restore_state
1014:Core/Src/main.c **** 
 943              		.loc 1 1014 9 is_stmt 1 view .LVU218
1014:Core/Src/main.c **** 
 944              		.loc 1 1014 27 is_stmt 0 view .LVU219
 945 001c 1849     		ldr	r1, .L55+8
 946              	.LVL80:
1014:Core/Src/main.c **** 
 947              		.loc 1 1014 27 view .LVU220
 948 001e 0023     		movs	r3, #0
 949 0020 4B55     		strb	r3, [r1, r5]
1017:Core/Src/main.c ****         lora_rx_ready = 1;
 950              		.loc 1 1017 9 is_stmt 1 view .LVU221
1017:Core/Src/main.c ****         lora_rx_ready = 1;
 951              		.loc 1 1017 23 is_stmt 0 view .LVU222
 952 0022 184B     		ldr	r3, .L55+12
 953 0024 1D80     		strh	r5, [r3]	@ movhi
1018:Core/Src/main.c **** 
 954              		.loc 1 1018 9 is_stmt 1 view .LVU223
1018:Core/Src/main.c **** 
 955              		.loc 1 1018 23 is_stmt 0 view .LVU224
 956 0026 184B     		ldr	r3, .L55+16
 957 0028 0122     		movs	r2, #1
 958 002a 1A70     		strb	r2, [r3]
1021:Core/Src/main.c ****     }
 959              		.loc 1 1021 9 is_stmt 1 view .LVU225
 960 002c FA22     		movs	r2, #250
 961 002e 1748     		ldr	r0, .L55+20
 962              	.LVL81:
1021:Core/Src/main.c ****     }
 963              		.loc 1 1021 9 is_stmt 0 view .LVU226
 964 0030 FFF7FEFF 		bl	HAL_UARTEx_ReceiveToIdle_IT
 965              	.LVL82:
ARM GAS  /tmp/cczzewXT.s 			page 39


 966 0034 ECE7     		b	.L46
 967              	.L54:
 968              	.LBB14:
1029:Core/Src/main.c **** 
 969              		.loc 1 1029 9 is_stmt 1 view .LVU227
1029:Core/Src/main.c **** 
 970              		.loc 1 1029 45 is_stmt 0 view .LVU228
 971 0036 2046     		mov	r0, r4
 972 0038 FFF7FEFF 		bl	HAL_UARTEx_GetRxEventType
 973              	.LVL83:
1031:Core/Src/main.c ****         {
 974              		.loc 1 1031 9 is_stmt 1 view .LVU229
 975 003c 0128     		cmp	r0, #1
 976 003e 07D0     		beq	.L48
 977 0040 0228     		cmp	r0, #2
 978 0042 0DD0     		beq	.L49
 979 0044 0028     		cmp	r0, #0
 980 0046 E7D1     		bne	.L45
 981              	.LBB15:
1045:Core/Src/main.c ****                 break;
 982              		.loc 1 1045 17 view .LVU230
1045:Core/Src/main.c ****                 break;
 983              		.loc 1 1045 38 is_stmt 0 view .LVU231
 984 0048 114B     		ldr	r3, .L55+24
 985 004a 0122     		movs	r2, #1
 986 004c 1A70     		strb	r2, [r3]
1046:Core/Src/main.c **** 
 987              		.loc 1 1046 17 is_stmt 1 view .LVU232
 988 004e E3E7     		b	.L45
 989              	.L48:
1036:Core/Src/main.c ****                // snprintf(dbg, sizeof(dbg), "HT: first bytes: %02X %02X %02X %02X\r\n", rxBuffer[0
 990              		.loc 1 1036 21 view .LVU233
1038:Core/Src/main.c ****                 cb_write_first_half = 1;
 991              		.loc 1 1038 17 view .LVU234
 992 0050 6946     		mov	r1, sp
 993 0052 1048     		ldr	r0, .L55+28
 994              	.LVL84:
1038:Core/Src/main.c ****                 cb_write_first_half = 1;
 995              		.loc 1 1038 17 is_stmt 0 view .LVU235
 996 0054 FFF7FEFF 		bl	UART_SendString
 997              	.LVL85:
1039:Core/Src/main.c ****                 break;
 998              		.loc 1 1039 17 is_stmt 1 view .LVU236
1039:Core/Src/main.c ****                 break;
 999              		.loc 1 1039 37 is_stmt 0 view .LVU237
 1000 0058 0F4B     		ldr	r3, .L55+32
 1001 005a 0122     		movs	r2, #1
 1002 005c 1A70     		strb	r2, [r3]
1040:Core/Src/main.c **** 
 1003              		.loc 1 1040 17 is_stmt 1 view .LVU238
 1004 005e DBE7     		b	.L45
 1005              	.LVL86:
 1006              	.L49:
1052:Core/Src/main.c ****                 dataReady = 1;
 1007              		.loc 1 1052 17 view .LVU239
1052:Core/Src/main.c ****                 dataReady = 1;
 1008              		.loc 1 1052 25 is_stmt 0 view .LVU240
ARM GAS  /tmp/cczzewXT.s 			page 40


 1009 0060 0E4B     		ldr	r3, .L55+36
 1010 0062 1D80     		strh	r5, [r3]	@ movhi
1053:Core/Src/main.c ****                 HAL_UARTEx_ReceiveToIdle_DMA(&huart1, rxBuffer, RX_BUF_SIZE);
 1011              		.loc 1 1053 17 is_stmt 1 view .LVU241
1053:Core/Src/main.c ****                 HAL_UARTEx_ReceiveToIdle_DMA(&huart1, rxBuffer, RX_BUF_SIZE);
 1012              		.loc 1 1053 27 is_stmt 0 view .LVU242
 1013 0064 0E4B     		ldr	r3, .L55+40
 1014 0066 0122     		movs	r2, #1
 1015 0068 1A70     		strb	r2, [r3]
1054:Core/Src/main.c ****                 break;
 1016              		.loc 1 1054 17 is_stmt 1 view .LVU243
 1017 006a 4FF44052 		mov	r2, #12288
 1018 006e 0D49     		ldr	r1, .L55+44
 1019 0070 0D48     		ldr	r0, .L55+48
 1020              	.LVL87:
1054:Core/Src/main.c ****                 break;
 1021              		.loc 1 1054 17 is_stmt 0 view .LVU244
 1022 0072 FFF7FEFF 		bl	HAL_UARTEx_ReceiveToIdle_DMA
 1023              	.LVL88:
1055:Core/Src/main.c ****         }
 1024              		.loc 1 1055 17 is_stmt 1 view .LVU245
 1025              	.LBE15:
 1026              	.LBE14:
 1027              		.loc 1 1058 1 is_stmt 0 view .LVU246
 1028 0076 CFE7     		b	.L45
 1029              	.L56:
 1030              		.align	2
 1031              	.L55:
 1032 0078 00800040 		.word	1073774592
 1033 007c 00380140 		.word	1073821696
 1034 0080 00000000 		.word	lora_rx_buf
 1035 0084 00000000 		.word	lora_rx_len
 1036 0088 00000000 		.word	lora_rx_ready
 1037 008c 00000000 		.word	hlpuart1
 1038 0090 00000000 		.word	cb_write_second_half
 1039 0094 00000000 		.word	huart3
 1040 0098 00000000 		.word	cb_write_first_half
 1041 009c 00000000 		.word	rxLen
 1042 00a0 00000000 		.word	dataReady
 1043 00a4 00000000 		.word	rxBuffer
 1044 00a8 00000000 		.word	huart1
 1045              		.cfi_endproc
 1046              	.LFE247:
 1048              		.section	.rodata.SD_SpeedTest.str1.4,"aMS",%progbits,1
 1049              		.align	2
 1050              	.LC16:
 1051 0000 0D0A2D2D 		.ascii	"\015\012--- STARTING 16MB STRESS TEST (Blocking) --"
 1051      2D205354 
 1051      41525449 
 1051      4E472031 
 1051      364D4220 
 1052 002d 2D0D0A00 		.ascii	"-\015\012\000"
 1053 0031 000000   		.align	2
 1054              	.LC17:
 1055 0034 50726570 		.ascii	"Preparing 16KB pattern...\015\012\000"
 1055      6172696E 
 1055      67203136 
ARM GAS  /tmp/cczzewXT.s 			page 41


 1055      4B422070 
 1055      61747465 
 1056              		.align	2
 1057              	.LC18:
 1058 0050 50726F67 		.ascii	"Progress: %lu / %lu MB written...\015\012\000"
 1058      72657373 
 1058      3A20256C 
 1058      75202F20 
 1058      256C7520 
 1059              		.align	2
 1060              	.LC19:
 1061 0074 0D0A4641 		.ascii	"\015\012FATAL: Write failed at Iteration %lu | Code"
 1061      54414C3A 
 1061      20577269 
 1061      74652066 
 1061      61696C65 
 1062 00a1 3A203078 		.ascii	": 0x%08lX\015\012\000"
 1062      2530386C 
 1062      580D0A00 
 1063 00ad 000000   		.align	2
 1064              	.LC20:
 1065 00b0 54696D65 		.ascii	"Timeout waiting for card!\015\012\000"
 1065      6F757420 
 1065      77616974 
 1065      696E6720 
 1065      666F7220 
 1066              		.align	2
 1067              	.LC21:
 1068 00cc 0D0A2D2D 		.ascii	"\015\012--- TEST COMPLETE ---\015\012\000"
 1068      2D205445 
 1068      53542043 
 1068      4F4D504C 
 1068      45544520 
 1069 00e6 0000     		.align	2
 1070              	.LC22:
 1071 00e8 546F7461 		.ascii	"Total Data: %.2f MB\015\012\000"
 1071      6C204461 
 1071      74613A20 
 1071      252E3266 
 1071      204D420D 
 1072 00fe 0000     		.align	2
 1073              	.LC23:
 1074 0100 546F7461 		.ascii	"Total Time: %.2f seconds\015\012\000"
 1074      6C205469 
 1074      6D653A20 
 1074      252E3266 
 1074      20736563 
 1075 011b 00       		.align	2
 1076              	.LC24:
 1077 011c 46696E61 		.ascii	"Final Speed: %.2f KB/s\015\012\000"
 1077      6C205370 
 1077      6565643A 
 1077      20252E32 
 1077      66204B42 
 1078              		.section	.text.SD_SpeedTest,"ax",%progbits
 1079              		.align	1
 1080              		.global	SD_SpeedTest
ARM GAS  /tmp/cczzewXT.s 			page 42


 1081              		.syntax unified
 1082              		.thumb
 1083              		.thumb_func
 1085              	SD_SpeedTest:
 1086              	.LFB248:
1059:Core/Src/main.c **** 
1060:Core/Src/main.c **** // OVERRIDE OF WEAK LORA INTERRUPT:
1061:Core/Src/main.c **** 
1062:Core/Src/main.c **** 
1063:Core/Src/main.c **** 
1064:Core/Src/main.c **** 
1065:Core/Src/main.c **** void SD_SpeedTest(void) {
 1087              		.loc 1 1065 25 is_stmt 1 view -0
 1088              		.cfi_startproc
 1089              		@ args = 0, pretend = 0, frame = 128
 1090              		@ frame_needed = 0, uses_anonymous_args = 0
 1091 0000 70B5     		push	{r4, r5, r6, lr}
 1092              		.cfi_def_cfa_offset 16
 1093              		.cfi_offset 4, -16
 1094              		.cfi_offset 5, -12
 1095              		.cfi_offset 6, -8
 1096              		.cfi_offset 14, -4
 1097 0002 2DED028B 		vpush.64	{d8}
 1098              		.cfi_def_cfa_offset 24
 1099              		.cfi_offset 80, -24
 1100              		.cfi_offset 81, -20
 1101 0006 A2B0     		sub	sp, sp, #136
 1102              		.cfi_def_cfa_offset 160
1066:Core/Src/main.c ****     char uart[128];
 1103              		.loc 1 1066 5 view .LVU248
1067:Core/Src/main.c ****     uint32_t startTime, endTime, totalTime;
 1104              		.loc 1 1067 5 view .LVU249
1068:Core/Src/main.c ****     uint32_t currentSector = 10000; // Start far away from headers
 1105              		.loc 1 1068 5 view .LVU250
 1106              	.LVL89:
1069:Core/Src/main.c ****     HAL_StatusTypeDef status;
 1107              		.loc 1 1069 5 view .LVU251
1070:Core/Src/main.c **** 
1071:Core/Src/main.c ****     UART_SendString(&huart3, "\r\n--- STARTING 16MB STRESS TEST (Blocking) ---\r\n");
 1108              		.loc 1 1071 5 view .LVU252
 1109 0008 504C     		ldr	r4, .L72
 1110 000a 5149     		ldr	r1, .L72+4
 1111 000c 2046     		mov	r0, r4
 1112 000e FFF7FEFF 		bl	UART_SendString
 1113              	.LVL90:
1072:Core/Src/main.c ****     UART_SendString(&huart3, "Preparing 16KB pattern...\r\n");
 1114              		.loc 1 1072 5 view .LVU253
 1115 0012 5049     		ldr	r1, .L72+8
 1116 0014 2046     		mov	r0, r4
 1117 0016 FFF7FEFF 		bl	UART_SendString
 1118              	.LVL91:
1073:Core/Src/main.c **** 
1074:Core/Src/main.c ****     // Initialize with a simple pattern
1075:Core/Src/main.c ****     for (int i = 0; i < LARGE_TEST_BURST_SIZE; i++) {
 1119              		.loc 1 1075 5 view .LVU254
 1120              	.LBB16:
 1121              		.loc 1 1075 10 view .LVU255
ARM GAS  /tmp/cczzewXT.s 			page 43


 1122              		.loc 1 1075 14 is_stmt 0 view .LVU256
 1123 001a 0023     		movs	r3, #0
 1124              		.loc 1 1075 5 view .LVU257
 1125 001c 07E0     		b	.L58
 1126              	.LVL92:
 1127              	.L59:
1076:Core/Src/main.c ****         largeTestBuf[i] = (uint8_t)(i % 256);
 1128              		.loc 1 1076 9 is_stmt 1 view .LVU258
 1129              		.loc 1 1076 39 is_stmt 0 view .LVU259
 1130 001e 5942     		rsbs	r1, r3, #0
 1131 0020 DAB2     		uxtb	r2, r3
 1132 0022 C9B2     		uxtb	r1, r1
 1133 0024 58BF     		it	pl
 1134 0026 4A42     		rsbpl	r2, r1, #0
 1135              		.loc 1 1076 25 view .LVU260
 1136 0028 4B49     		ldr	r1, .L72+12
 1137 002a CA54     		strb	r2, [r1, r3]
1075:Core/Src/main.c ****         largeTestBuf[i] = (uint8_t)(i % 256);
 1138              		.loc 1 1075 49 is_stmt 1 discriminator 3 view .LVU261
 1139 002c 0133     		adds	r3, r3, #1
 1140              	.LVL93:
 1141              	.L58:
1075:Core/Src/main.c ****         largeTestBuf[i] = (uint8_t)(i % 256);
 1142              		.loc 1 1075 23 discriminator 1 view .LVU262
 1143 002e B3F5804F 		cmp	r3, #16384
 1144 0032 F4DB     		blt	.L59
 1145              	.LBE16:
1077:Core/Src/main.c ****     }
1078:Core/Src/main.c **** 
1079:Core/Src/main.c ****     startTime = HAL_GetTick();
 1146              		.loc 1 1079 5 view .LVU263
 1147              		.loc 1 1079 17 is_stmt 0 view .LVU264
 1148 0034 FFF7FEFF 		bl	HAL_GetTick
 1149              	.LVL94:
 1150              		.loc 1 1079 17 view .LVU265
 1151 0038 0446     		mov	r4, r0
 1152              	.LVL95:
1080:Core/Src/main.c **** 
1081:Core/Src/main.c ****     // 1024 iterations * 16KB = 16MB
1082:Core/Src/main.c ****     uint32_t iterations = LARGE_TEST_TOTAL_SIZE / LARGE_TEST_BURST_SIZE;
 1153              		.loc 1 1082 5 is_stmt 1 view .LVU266
1083:Core/Src/main.c **** 
1084:Core/Src/main.c ****     for (uint32_t i = 0; i < iterations; i++) {
 1154              		.loc 1 1084 5 view .LVU267
 1155              	.LBB17:
 1156              		.loc 1 1084 10 view .LVU268
 1157              		.loc 1 1084 19 is_stmt 0 view .LVU269
 1158 003a 0025     		movs	r5, #0
 1159              	.LBE17:
1068:Core/Src/main.c ****     HAL_StatusTypeDef status;
 1160              		.loc 1 1068 14 view .LVU270
 1161 003c 42F21076 		movw	r6, #10000
 1162              	.LVL96:
 1163              	.L60:
 1164              	.LBB18:
 1165              		.loc 1 1084 28 is_stmt 1 discriminator 1 view .LVU271
 1166 0040 B5F5806F 		cmp	r5, #1024
ARM GAS  /tmp/cczzewXT.s 			page 44


 1167 0044 3DD2     		bcs	.L68
1085:Core/Src/main.c ****         // Periodically print progress
1086:Core/Src/main.c ****         if (i % 128 == 0 && i != 0) {
 1168              		.loc 1 1086 9 view .LVU272
 1169              		.loc 1 1086 12 is_stmt 0 view .LVU273
 1170 0046 15F07F0F 		tst	r5, #127
 1171 004a 00D1     		bne	.L61
 1172              		.loc 1 1086 26 discriminator 1 view .LVU274
 1173 004c EDB9     		cbnz	r5, .L69
 1174              	.L61:
1087:Core/Src/main.c ****             sprintf(uart, "Progress: %lu / %lu MB written...\r\n", (i * LARGE_TEST_BURST_SIZE) / (1
1088:Core/Src/main.c ****             UART_SendString(&huart3, uart);
1089:Core/Src/main.c ****         }
1090:Core/Src/main.c **** 
1091:Core/Src/main.c ****         // WRITE
1092:Core/Src/main.c ****         status = HAL_SD_WriteBlocks(&hsd1, largeTestBuf, currentSector, LARGE_TEST_BLOCKS, 5000);
 1175              		.loc 1 1092 9 is_stmt 1 view .LVU275
 1176              		.loc 1 1092 18 is_stmt 0 view .LVU276
 1177 004e 41F28833 		movw	r3, #5000
 1178 0052 0093     		str	r3, [sp]
 1179 0054 2023     		movs	r3, #32
 1180 0056 3246     		mov	r2, r6
 1181 0058 3F49     		ldr	r1, .L72+12
 1182 005a 4048     		ldr	r0, .L72+16
 1183 005c FFF7FEFF 		bl	HAL_SD_WriteBlocks
 1184              	.LVL97:
1093:Core/Src/main.c ****         
1094:Core/Src/main.c ****         if (status != HAL_OK) {
 1185              		.loc 1 1094 9 is_stmt 1 view .LVU277
 1186              		.loc 1 1094 12 is_stmt 0 view .LVU278
 1187 0060 F8B9     		cbnz	r0, .L70
 1188              	.LVL98:
 1189              	.L62:
1095:Core/Src/main.c ****             sprintf(uart, "\r\nFATAL: Write failed at Iteration %lu | Code: 0x%08lX\r\n", i, hsd1.E
1096:Core/Src/main.c ****             UART_SendString(&huart3, uart);
1097:Core/Src/main.c ****             return;
1098:Core/Src/main.c ****         }
1099:Core/Src/main.c **** 
1100:Core/Src/main.c ****         // WAIT for card to settle
1101:Core/Src/main.c ****         while (HAL_SD_GetCardState(&hsd1) != HAL_SD_CARD_TRANSFER) {
 1190              		.loc 1 1101 43 is_stmt 1 view .LVU279
 1191              		.loc 1 1101 16 is_stmt 0 view .LVU280
 1192 0062 3E48     		ldr	r0, .L72+16
 1193 0064 FFF7FEFF 		bl	HAL_SD_GetCardState
 1194              	.LVL99:
 1195              		.loc 1 1101 43 discriminator 1 view .LVU281
 1196 0068 0428     		cmp	r0, #4
 1197 006a 27D0     		beq	.L71
1102:Core/Src/main.c ****             if (HAL_GetTick() - startTime > 60000) { // 60s total timeout
 1198              		.loc 1 1102 13 is_stmt 1 view .LVU282
 1199              		.loc 1 1102 17 is_stmt 0 view .LVU283
 1200 006c FFF7FEFF 		bl	HAL_GetTick
 1201              	.LVL100:
 1202              		.loc 1 1102 31 discriminator 1 view .LVU284
 1203 0070 001B     		subs	r0, r0, r4
 1204              		.loc 1 1102 16 discriminator 1 view .LVU285
 1205 0072 4EF66023 		movw	r3, #60000
ARM GAS  /tmp/cczzewXT.s 			page 45


 1206 0076 9842     		cmp	r0, r3
 1207 0078 F3D9     		bls	.L62
1103:Core/Src/main.c ****                 UART_SendString(&huart3, "Timeout waiting for card!\r\n");
 1208              		.loc 1 1103 17 is_stmt 1 view .LVU286
 1209 007a 3949     		ldr	r1, .L72+20
 1210 007c 3348     		ldr	r0, .L72
 1211 007e FFF7FEFF 		bl	UART_SendString
 1212              	.LVL101:
1104:Core/Src/main.c ****                 return;
 1213              		.loc 1 1104 17 view .LVU287
 1214              	.L57:
 1215              		.loc 1 1104 17 is_stmt 0 view .LVU288
 1216              	.LBE18:
1105:Core/Src/main.c ****             }
1106:Core/Src/main.c ****         }
1107:Core/Src/main.c **** 
1108:Core/Src/main.c ****         currentSector += LARGE_TEST_BLOCKS;
1109:Core/Src/main.c ****     }
1110:Core/Src/main.c **** 
1111:Core/Src/main.c ****     endTime = HAL_GetTick();
1112:Core/Src/main.c ****     totalTime = endTime - startTime;
1113:Core/Src/main.c ****     
1114:Core/Src/main.c ****     // Calculate final stats
1115:Core/Src/main.c ****     float totalMB = (float)LARGE_TEST_TOTAL_SIZE / (1024.0f * 1024.0f);
1116:Core/Src/main.c ****     float seconds = (float)totalTime / 1000.0f;
1117:Core/Src/main.c ****     float speedKBps = ((float)LARGE_TEST_TOTAL_SIZE / 1024.0f) / seconds;
1118:Core/Src/main.c **** 
1119:Core/Src/main.c ****     sprintf(uart, "\r\n--- TEST COMPLETE ---\r\n");
1120:Core/Src/main.c ****     UART_SendString(&huart3, uart);
1121:Core/Src/main.c ****     sprintf(uart, "Total Data: %.2f MB\r\n", totalMB);
1122:Core/Src/main.c ****     UART_SendString(&huart3, uart);
1123:Core/Src/main.c ****     sprintf(uart, "Total Time: %.2f seconds\r\n", seconds);
1124:Core/Src/main.c ****     UART_SendString(&huart3, uart);
1125:Core/Src/main.c ****     sprintf(uart, "Final Speed: %.2f KB/s\r\n", speedKBps);
1126:Core/Src/main.c ****     UART_SendString(&huart3, uart);
1127:Core/Src/main.c **** }
 1217              		.loc 1 1127 1 view .LVU289
 1218 0082 22B0     		add	sp, sp, #136
 1219              		.cfi_remember_state
 1220              		.cfi_def_cfa_offset 24
 1221              		@ sp needed
 1222 0084 BDEC028B 		vldm	sp!, {d8}
 1223              		.cfi_restore 80
 1224              		.cfi_restore 81
 1225              		.cfi_def_cfa_offset 16
 1226 0088 70BD     		pop	{r4, r5, r6, pc}
 1227              	.LVL102:
 1228              	.L69:
 1229              		.cfi_restore_state
 1230              	.LBB19:
1087:Core/Src/main.c ****             UART_SendString(&huart3, uart);
 1231              		.loc 1 1087 13 is_stmt 1 view .LVU290
 1232 008a 1023     		movs	r3, #16
 1233 008c C5F38B12 		ubfx	r2, r5, #6, #12
 1234 0090 3449     		ldr	r1, .L72+24
 1235 0092 02A8     		add	r0, sp, #8
 1236 0094 FFF7FEFF 		bl	sprintf
ARM GAS  /tmp/cczzewXT.s 			page 46


 1237              	.LVL103:
1088:Core/Src/main.c ****         }
 1238              		.loc 1 1088 13 view .LVU291
 1239 0098 02A9     		add	r1, sp, #8
 1240 009a 2C48     		ldr	r0, .L72
 1241 009c FFF7FEFF 		bl	UART_SendString
 1242              	.LVL104:
 1243 00a0 D5E7     		b	.L61
 1244              	.LVL105:
 1245              	.L70:
1095:Core/Src/main.c ****             UART_SendString(&huart3, uart);
 1246              		.loc 1 1095 13 view .LVU292
1095:Core/Src/main.c ****             UART_SendString(&huart3, uart);
 1247              		.loc 1 1095 98 is_stmt 0 view .LVU293
 1248 00a2 2E4B     		ldr	r3, .L72+16
 1249 00a4 9B6B     		ldr	r3, [r3, #56]
1095:Core/Src/main.c ****             UART_SendString(&huart3, uart);
 1250              		.loc 1 1095 13 view .LVU294
 1251 00a6 02AC     		add	r4, sp, #8
 1252              	.LVL106:
1095:Core/Src/main.c ****             UART_SendString(&huart3, uart);
 1253              		.loc 1 1095 13 view .LVU295
 1254 00a8 2A46     		mov	r2, r5
 1255 00aa 2F49     		ldr	r1, .L72+28
 1256 00ac 2046     		mov	r0, r4
 1257              	.LVL107:
1095:Core/Src/main.c ****             UART_SendString(&huart3, uart);
 1258              		.loc 1 1095 13 view .LVU296
 1259 00ae FFF7FEFF 		bl	sprintf
 1260              	.LVL108:
1096:Core/Src/main.c ****             return;
 1261              		.loc 1 1096 13 is_stmt 1 view .LVU297
 1262 00b2 2146     		mov	r1, r4
 1263 00b4 2548     		ldr	r0, .L72
 1264 00b6 FFF7FEFF 		bl	UART_SendString
 1265              	.LVL109:
1097:Core/Src/main.c ****         }
 1266              		.loc 1 1097 13 view .LVU298
 1267 00ba E2E7     		b	.L57
 1268              	.LVL110:
 1269              	.L71:
1108:Core/Src/main.c ****     }
 1270              		.loc 1 1108 9 view .LVU299
1108:Core/Src/main.c ****     }
 1271              		.loc 1 1108 23 is_stmt 0 view .LVU300
 1272 00bc 2036     		adds	r6, r6, #32
 1273              	.LVL111:
1084:Core/Src/main.c ****         // Periodically print progress
 1274              		.loc 1 1084 43 is_stmt 1 discriminator 2 view .LVU301
 1275 00be 0135     		adds	r5, r5, #1
 1276              	.LVL112:
1084:Core/Src/main.c ****         // Periodically print progress
 1277              		.loc 1 1084 43 is_stmt 0 discriminator 2 view .LVU302
 1278 00c0 BEE7     		b	.L60
 1279              	.LVL113:
 1280              	.L68:
1084:Core/Src/main.c ****         // Periodically print progress
ARM GAS  /tmp/cczzewXT.s 			page 47


 1281              		.loc 1 1084 43 discriminator 2 view .LVU303
 1282              	.LBE19:
1111:Core/Src/main.c ****     totalTime = endTime - startTime;
 1283              		.loc 1 1111 5 is_stmt 1 view .LVU304
1111:Core/Src/main.c ****     totalTime = endTime - startTime;
 1284              		.loc 1 1111 15 is_stmt 0 view .LVU305
 1285 00c2 FFF7FEFF 		bl	HAL_GetTick
 1286              	.LVL114:
1112:Core/Src/main.c ****     
 1287              		.loc 1 1112 5 is_stmt 1 view .LVU306
1112:Core/Src/main.c ****     
 1288              		.loc 1 1112 15 is_stmt 0 view .LVU307
 1289 00c6 001B     		subs	r0, r0, r4
 1290              	.LVL115:
1115:Core/Src/main.c ****     float seconds = (float)totalTime / 1000.0f;
 1291              		.loc 1 1115 5 is_stmt 1 view .LVU308
1116:Core/Src/main.c ****     float speedKBps = ((float)LARGE_TEST_TOTAL_SIZE / 1024.0f) / seconds;
 1292              		.loc 1 1116 5 view .LVU309
1116:Core/Src/main.c ****     float speedKBps = ((float)LARGE_TEST_TOTAL_SIZE / 1024.0f) / seconds;
 1293              		.loc 1 1116 21 is_stmt 0 view .LVU310
 1294 00c8 07EE900A 		vmov	s15, r0	@ int
 1295 00cc F8EE677A 		vcvt.f32.u32	s15, s15
1116:Core/Src/main.c ****     float speedKBps = ((float)LARGE_TEST_TOTAL_SIZE / 1024.0f) / seconds;
 1296              		.loc 1 1116 11 view .LVU311
 1297 00d0 9FED267A 		vldr.32	s14, .L72+32
 1298 00d4 87EE878A 		vdiv.f32	s16, s15, s14
 1299              	.LVL116:
1117:Core/Src/main.c **** 
 1300              		.loc 1 1117 5 is_stmt 1 view .LVU312
1117:Core/Src/main.c **** 
 1301              		.loc 1 1117 11 is_stmt 0 view .LVU313
 1302 00d8 DFED257A 		vldr.32	s15, .L72+36
 1303 00dc C7EE888A 		vdiv.f32	s17, s15, s16
 1304              	.LVL117:
1119:Core/Src/main.c ****     UART_SendString(&huart3, uart);
 1305              		.loc 1 1119 5 is_stmt 1 view .LVU314
 1306 00e0 02AE     		add	r6, sp, #8
 1307              	.LVL118:
1119:Core/Src/main.c ****     UART_SendString(&huart3, uart);
 1308              		.loc 1 1119 5 is_stmt 0 view .LVU315
 1309 00e2 3446     		mov	r4, r6
 1310              	.LVL119:
1119:Core/Src/main.c ****     UART_SendString(&huart3, uart);
 1311              		.loc 1 1119 5 view .LVU316
 1312 00e4 234D     		ldr	r5, .L72+40
 1313              	.LVL120:
1119:Core/Src/main.c ****     UART_SendString(&huart3, uart);
 1314              		.loc 1 1119 5 view .LVU317
 1315 00e6 0FCD     		ldmia	r5!, {r0, r1, r2, r3}
 1316              	.LVL121:
1119:Core/Src/main.c ****     UART_SendString(&huart3, uart);
 1317              		.loc 1 1119 5 view .LVU318
 1318 00e8 0FC4     		stmia	r4!, {r0, r1, r2, r3}
 1319 00ea 95E80700 		ldm	r5, {r0, r1, r2}
 1320 00ee 03C4     		stmia	r4!, {r0, r1}
 1321 00f0 2280     		strh	r2, [r4]	@ movhi
1120:Core/Src/main.c ****     sprintf(uart, "Total Data: %.2f MB\r\n", totalMB);
ARM GAS  /tmp/cczzewXT.s 			page 48


 1322              		.loc 1 1120 5 is_stmt 1 view .LVU319
 1323 00f2 164C     		ldr	r4, .L72
 1324 00f4 3146     		mov	r1, r6
 1325 00f6 2046     		mov	r0, r4
 1326 00f8 FFF7FEFF 		bl	UART_SendString
 1327              	.LVL122:
1121:Core/Src/main.c ****     UART_SendString(&huart3, uart);
 1328              		.loc 1 1121 5 view .LVU320
 1329 00fc 0022     		movs	r2, #0
 1330 00fe 1E4B     		ldr	r3, .L72+44
 1331 0100 1E49     		ldr	r1, .L72+48
 1332 0102 3046     		mov	r0, r6
 1333 0104 FFF7FEFF 		bl	sprintf
 1334              	.LVL123:
1122:Core/Src/main.c ****     sprintf(uart, "Total Time: %.2f seconds\r\n", seconds);
 1335              		.loc 1 1122 5 view .LVU321
 1336 0108 3146     		mov	r1, r6
 1337 010a 2046     		mov	r0, r4
 1338 010c FFF7FEFF 		bl	UART_SendString
 1339              	.LVL124:
1123:Core/Src/main.c ****     UART_SendString(&huart3, uart);
 1340              		.loc 1 1123 5 view .LVU322
 1341 0110 18EE100A 		vmov	r0, s16
 1342 0114 FFF7FEFF 		bl	__aeabi_f2d
 1343              	.LVL125:
 1344 0118 0246     		mov	r2, r0
 1345 011a 0B46     		mov	r3, r1
 1346 011c 1849     		ldr	r1, .L72+52
 1347 011e 3046     		mov	r0, r6
 1348 0120 FFF7FEFF 		bl	sprintf
 1349              	.LVL126:
1124:Core/Src/main.c ****     sprintf(uart, "Final Speed: %.2f KB/s\r\n", speedKBps);
 1350              		.loc 1 1124 5 view .LVU323
 1351 0124 3146     		mov	r1, r6
 1352 0126 2046     		mov	r0, r4
 1353 0128 FFF7FEFF 		bl	UART_SendString
 1354              	.LVL127:
1125:Core/Src/main.c ****     UART_SendString(&huart3, uart);
 1355              		.loc 1 1125 5 view .LVU324
 1356 012c 18EE900A 		vmov	r0, s17
 1357 0130 FFF7FEFF 		bl	__aeabi_f2d
 1358              	.LVL128:
 1359 0134 0246     		mov	r2, r0
 1360 0136 0B46     		mov	r3, r1
 1361 0138 1249     		ldr	r1, .L72+56
 1362 013a 3046     		mov	r0, r6
 1363 013c FFF7FEFF 		bl	sprintf
 1364              	.LVL129:
1126:Core/Src/main.c **** }
 1365              		.loc 1 1126 5 view .LVU325
 1366 0140 3146     		mov	r1, r6
 1367 0142 2046     		mov	r0, r4
 1368 0144 FFF7FEFF 		bl	UART_SendString
 1369              	.LVL130:
 1370 0148 9BE7     		b	.L57
 1371              	.L73:
 1372 014a 00BF     		.align	2
ARM GAS  /tmp/cczzewXT.s 			page 49


 1373              	.L72:
 1374 014c 00000000 		.word	huart3
 1375 0150 00000000 		.word	.LC16
 1376 0154 34000000 		.word	.LC17
 1377 0158 00000000 		.word	largeTestBuf
 1378 015c 00000000 		.word	hsd1
 1379 0160 B0000000 		.word	.LC20
 1380 0164 50000000 		.word	.LC18
 1381 0168 74000000 		.word	.LC19
 1382 016c 00007A44 		.word	1148846080
 1383 0170 00008046 		.word	1182793728
 1384 0174 CC000000 		.word	.LC21
 1385 0178 00003040 		.word	1076887552
 1386 017c E8000000 		.word	.LC22
 1387 0180 00010000 		.word	.LC23
 1388 0184 1C010000 		.word	.LC24
 1389              		.cfi_endproc
 1390              	.LFE248:
 1392              		.section	.text.Error_Handler,"ax",%progbits
 1393              		.align	1
 1394              		.global	Error_Handler
 1395              		.syntax unified
 1396              		.thumb
 1397              		.thumb_func
 1399              	Error_Handler:
 1400              	.LFB249:
1128:Core/Src/main.c **** 
1129:Core/Src/main.c **** /* USER CODE END 4 */
1130:Core/Src/main.c **** 
1131:Core/Src/main.c **** /**
1132:Core/Src/main.c ****   * @brief  This function is executed in case of error occurrence.
1133:Core/Src/main.c ****   * @retval None
1134:Core/Src/main.c ****   */
1135:Core/Src/main.c **** void Error_Handler(void)
1136:Core/Src/main.c **** {
 1401              		.loc 1 1136 1 view -0
 1402              		.cfi_startproc
 1403              		@ Volatile: function does not return.
 1404              		@ args = 0, pretend = 0, frame = 0
 1405              		@ frame_needed = 0, uses_anonymous_args = 0
 1406              		@ link register save eliminated.
1137:Core/Src/main.c ****   /* USER CODE BEGIN Error_Handler_Debug */
1138:Core/Src/main.c ****   /* User can add his own implementation to report the HAL error return state */
1139:Core/Src/main.c ****   __disable_irq();
 1407              		.loc 1 1139 3 view .LVU327
 1408              	.LBB20:
 1409              	.LBI20:
 1410              		.file 2 "Drivers/CMSIS/Include/cmsis_gcc.h"
   1:Drivers/CMSIS/Include/cmsis_gcc.h **** /**************************************************************************//**
   2:Drivers/CMSIS/Include/cmsis_gcc.h ****  * @file     cmsis_gcc.h
   3:Drivers/CMSIS/Include/cmsis_gcc.h ****  * @brief    CMSIS compiler GCC header file
   4:Drivers/CMSIS/Include/cmsis_gcc.h ****  * @version  V5.2.0
   5:Drivers/CMSIS/Include/cmsis_gcc.h ****  * @date     08. May 2019
   6:Drivers/CMSIS/Include/cmsis_gcc.h ****  ******************************************************************************/
   7:Drivers/CMSIS/Include/cmsis_gcc.h **** /*
   8:Drivers/CMSIS/Include/cmsis_gcc.h ****  * Copyright (c) 2009-2019 Arm Limited. All rights reserved.
   9:Drivers/CMSIS/Include/cmsis_gcc.h ****  *
ARM GAS  /tmp/cczzewXT.s 			page 50


  10:Drivers/CMSIS/Include/cmsis_gcc.h ****  * SPDX-License-Identifier: Apache-2.0
  11:Drivers/CMSIS/Include/cmsis_gcc.h ****  *
  12:Drivers/CMSIS/Include/cmsis_gcc.h ****  * Licensed under the Apache License, Version 2.0 (the License); you may
  13:Drivers/CMSIS/Include/cmsis_gcc.h ****  * not use this file except in compliance with the License.
  14:Drivers/CMSIS/Include/cmsis_gcc.h ****  * You may obtain a copy of the License at
  15:Drivers/CMSIS/Include/cmsis_gcc.h ****  *
  16:Drivers/CMSIS/Include/cmsis_gcc.h ****  * www.apache.org/licenses/LICENSE-2.0
  17:Drivers/CMSIS/Include/cmsis_gcc.h ****  *
  18:Drivers/CMSIS/Include/cmsis_gcc.h ****  * Unless required by applicable law or agreed to in writing, software
  19:Drivers/CMSIS/Include/cmsis_gcc.h ****  * distributed under the License is distributed on an AS IS BASIS, WITHOUT
  20:Drivers/CMSIS/Include/cmsis_gcc.h ****  * WARRANTIES OR CONDITIONS OF ANY KIND, either express or implied.
  21:Drivers/CMSIS/Include/cmsis_gcc.h ****  * See the License for the specific language governing permissions and
  22:Drivers/CMSIS/Include/cmsis_gcc.h ****  * limitations under the License.
  23:Drivers/CMSIS/Include/cmsis_gcc.h ****  */
  24:Drivers/CMSIS/Include/cmsis_gcc.h **** 
  25:Drivers/CMSIS/Include/cmsis_gcc.h **** #ifndef __CMSIS_GCC_H
  26:Drivers/CMSIS/Include/cmsis_gcc.h **** #define __CMSIS_GCC_H
  27:Drivers/CMSIS/Include/cmsis_gcc.h **** 
  28:Drivers/CMSIS/Include/cmsis_gcc.h **** /* ignore some GCC warnings */
  29:Drivers/CMSIS/Include/cmsis_gcc.h **** #pragma GCC diagnostic push
  30:Drivers/CMSIS/Include/cmsis_gcc.h **** #pragma GCC diagnostic ignored "-Wsign-conversion"
  31:Drivers/CMSIS/Include/cmsis_gcc.h **** #pragma GCC diagnostic ignored "-Wconversion"
  32:Drivers/CMSIS/Include/cmsis_gcc.h **** #pragma GCC diagnostic ignored "-Wunused-parameter"
  33:Drivers/CMSIS/Include/cmsis_gcc.h **** 
  34:Drivers/CMSIS/Include/cmsis_gcc.h **** /* Fallback for __has_builtin */
  35:Drivers/CMSIS/Include/cmsis_gcc.h **** #ifndef __has_builtin
  36:Drivers/CMSIS/Include/cmsis_gcc.h ****   #define __has_builtin(x) (0)
  37:Drivers/CMSIS/Include/cmsis_gcc.h **** #endif
  38:Drivers/CMSIS/Include/cmsis_gcc.h **** 
  39:Drivers/CMSIS/Include/cmsis_gcc.h **** /* CMSIS compiler specific defines */
  40:Drivers/CMSIS/Include/cmsis_gcc.h **** #ifndef   __ASM
  41:Drivers/CMSIS/Include/cmsis_gcc.h ****   #define __ASM                                  __asm
  42:Drivers/CMSIS/Include/cmsis_gcc.h **** #endif
  43:Drivers/CMSIS/Include/cmsis_gcc.h **** #ifndef   __INLINE
  44:Drivers/CMSIS/Include/cmsis_gcc.h ****   #define __INLINE                               inline
  45:Drivers/CMSIS/Include/cmsis_gcc.h **** #endif
  46:Drivers/CMSIS/Include/cmsis_gcc.h **** #ifndef   __STATIC_INLINE
  47:Drivers/CMSIS/Include/cmsis_gcc.h ****   #define __STATIC_INLINE                        static inline
  48:Drivers/CMSIS/Include/cmsis_gcc.h **** #endif
  49:Drivers/CMSIS/Include/cmsis_gcc.h **** #ifndef   __STATIC_FORCEINLINE                 
  50:Drivers/CMSIS/Include/cmsis_gcc.h ****   #define __STATIC_FORCEINLINE                   __attribute__((always_inline)) static inline
  51:Drivers/CMSIS/Include/cmsis_gcc.h **** #endif                                           
  52:Drivers/CMSIS/Include/cmsis_gcc.h **** #ifndef   __NO_RETURN
  53:Drivers/CMSIS/Include/cmsis_gcc.h ****   #define __NO_RETURN                            __attribute__((__noreturn__))
  54:Drivers/CMSIS/Include/cmsis_gcc.h **** #endif
  55:Drivers/CMSIS/Include/cmsis_gcc.h **** #ifndef   __USED
  56:Drivers/CMSIS/Include/cmsis_gcc.h ****   #define __USED                                 __attribute__((used))
  57:Drivers/CMSIS/Include/cmsis_gcc.h **** #endif
  58:Drivers/CMSIS/Include/cmsis_gcc.h **** #ifndef   __WEAK
  59:Drivers/CMSIS/Include/cmsis_gcc.h ****   #define __WEAK                                 __attribute__((weak))
  60:Drivers/CMSIS/Include/cmsis_gcc.h **** #endif
  61:Drivers/CMSIS/Include/cmsis_gcc.h **** #ifndef   __PACKED
  62:Drivers/CMSIS/Include/cmsis_gcc.h ****   #define __PACKED                               __attribute__((packed, aligned(1)))
  63:Drivers/CMSIS/Include/cmsis_gcc.h **** #endif
  64:Drivers/CMSIS/Include/cmsis_gcc.h **** #ifndef   __PACKED_STRUCT
  65:Drivers/CMSIS/Include/cmsis_gcc.h ****   #define __PACKED_STRUCT                        struct __attribute__((packed, aligned(1)))
  66:Drivers/CMSIS/Include/cmsis_gcc.h **** #endif
ARM GAS  /tmp/cczzewXT.s 			page 51


  67:Drivers/CMSIS/Include/cmsis_gcc.h **** #ifndef   __PACKED_UNION
  68:Drivers/CMSIS/Include/cmsis_gcc.h ****   #define __PACKED_UNION                         union __attribute__((packed, aligned(1)))
  69:Drivers/CMSIS/Include/cmsis_gcc.h **** #endif
  70:Drivers/CMSIS/Include/cmsis_gcc.h **** #ifndef   __UNALIGNED_UINT32        /* deprecated */
  71:Drivers/CMSIS/Include/cmsis_gcc.h ****   #pragma GCC diagnostic push
  72:Drivers/CMSIS/Include/cmsis_gcc.h ****   #pragma GCC diagnostic ignored "-Wpacked"
  73:Drivers/CMSIS/Include/cmsis_gcc.h ****   #pragma GCC diagnostic ignored "-Wattributes"
  74:Drivers/CMSIS/Include/cmsis_gcc.h ****   struct __attribute__((packed)) T_UINT32 { uint32_t v; };
  75:Drivers/CMSIS/Include/cmsis_gcc.h ****   #pragma GCC diagnostic pop
  76:Drivers/CMSIS/Include/cmsis_gcc.h ****   #define __UNALIGNED_UINT32(x)                  (((struct T_UINT32 *)(x))->v)
  77:Drivers/CMSIS/Include/cmsis_gcc.h **** #endif
  78:Drivers/CMSIS/Include/cmsis_gcc.h **** #ifndef   __UNALIGNED_UINT16_WRITE
  79:Drivers/CMSIS/Include/cmsis_gcc.h ****   #pragma GCC diagnostic push
  80:Drivers/CMSIS/Include/cmsis_gcc.h ****   #pragma GCC diagnostic ignored "-Wpacked"
  81:Drivers/CMSIS/Include/cmsis_gcc.h ****   #pragma GCC diagnostic ignored "-Wattributes"
  82:Drivers/CMSIS/Include/cmsis_gcc.h ****   __PACKED_STRUCT T_UINT16_WRITE { uint16_t v; };
  83:Drivers/CMSIS/Include/cmsis_gcc.h ****   #pragma GCC diagnostic pop
  84:Drivers/CMSIS/Include/cmsis_gcc.h ****   #define __UNALIGNED_UINT16_WRITE(addr, val)    (void)((((struct T_UINT16_WRITE *)(void *)(addr))-
  85:Drivers/CMSIS/Include/cmsis_gcc.h **** #endif
  86:Drivers/CMSIS/Include/cmsis_gcc.h **** #ifndef   __UNALIGNED_UINT16_READ
  87:Drivers/CMSIS/Include/cmsis_gcc.h ****   #pragma GCC diagnostic push
  88:Drivers/CMSIS/Include/cmsis_gcc.h ****   #pragma GCC diagnostic ignored "-Wpacked"
  89:Drivers/CMSIS/Include/cmsis_gcc.h ****   #pragma GCC diagnostic ignored "-Wattributes"
  90:Drivers/CMSIS/Include/cmsis_gcc.h ****   __PACKED_STRUCT T_UINT16_READ { uint16_t v; };
  91:Drivers/CMSIS/Include/cmsis_gcc.h ****   #pragma GCC diagnostic pop
  92:Drivers/CMSIS/Include/cmsis_gcc.h ****   #define __UNALIGNED_UINT16_READ(addr)          (((const struct T_UINT16_READ *)(const void *)(add
  93:Drivers/CMSIS/Include/cmsis_gcc.h **** #endif
  94:Drivers/CMSIS/Include/cmsis_gcc.h **** #ifndef   __UNALIGNED_UINT32_WRITE
  95:Drivers/CMSIS/Include/cmsis_gcc.h ****   #pragma GCC diagnostic push
  96:Drivers/CMSIS/Include/cmsis_gcc.h ****   #pragma GCC diagnostic ignored "-Wpacked"
  97:Drivers/CMSIS/Include/cmsis_gcc.h ****   #pragma GCC diagnostic ignored "-Wattributes"
  98:Drivers/CMSIS/Include/cmsis_gcc.h ****   __PACKED_STRUCT T_UINT32_WRITE { uint32_t v; };
  99:Drivers/CMSIS/Include/cmsis_gcc.h ****   #pragma GCC diagnostic pop
 100:Drivers/CMSIS/Include/cmsis_gcc.h ****   #define __UNALIGNED_UINT32_WRITE(addr, val)    (void)((((struct T_UINT32_WRITE *)(void *)(addr))-
 101:Drivers/CMSIS/Include/cmsis_gcc.h **** #endif
 102:Drivers/CMSIS/Include/cmsis_gcc.h **** #ifndef   __UNALIGNED_UINT32_READ
 103:Drivers/CMSIS/Include/cmsis_gcc.h ****   #pragma GCC diagnostic push
 104:Drivers/CMSIS/Include/cmsis_gcc.h ****   #pragma GCC diagnostic ignored "-Wpacked"
 105:Drivers/CMSIS/Include/cmsis_gcc.h ****   #pragma GCC diagnostic ignored "-Wattributes"
 106:Drivers/CMSIS/Include/cmsis_gcc.h ****   __PACKED_STRUCT T_UINT32_READ { uint32_t v; };
 107:Drivers/CMSIS/Include/cmsis_gcc.h ****   #pragma GCC diagnostic pop
 108:Drivers/CMSIS/Include/cmsis_gcc.h ****   #define __UNALIGNED_UINT32_READ(addr)          (((const struct T_UINT32_READ *)(const void *)(add
 109:Drivers/CMSIS/Include/cmsis_gcc.h **** #endif
 110:Drivers/CMSIS/Include/cmsis_gcc.h **** #ifndef   __ALIGNED
 111:Drivers/CMSIS/Include/cmsis_gcc.h ****   #define __ALIGNED(x)                           __attribute__((aligned(x)))
 112:Drivers/CMSIS/Include/cmsis_gcc.h **** #endif
 113:Drivers/CMSIS/Include/cmsis_gcc.h **** #ifndef   __RESTRICT
 114:Drivers/CMSIS/Include/cmsis_gcc.h ****   #define __RESTRICT                             __restrict
 115:Drivers/CMSIS/Include/cmsis_gcc.h **** #endif
 116:Drivers/CMSIS/Include/cmsis_gcc.h **** #ifndef   __COMPILER_BARRIER
 117:Drivers/CMSIS/Include/cmsis_gcc.h ****   #define __COMPILER_BARRIER()                   __ASM volatile("":::"memory")
 118:Drivers/CMSIS/Include/cmsis_gcc.h **** #endif
 119:Drivers/CMSIS/Include/cmsis_gcc.h **** 
 120:Drivers/CMSIS/Include/cmsis_gcc.h **** /* #########################  Startup and Lowlevel Init  ######################## */
 121:Drivers/CMSIS/Include/cmsis_gcc.h **** 
 122:Drivers/CMSIS/Include/cmsis_gcc.h **** #ifndef __PROGRAM_START
 123:Drivers/CMSIS/Include/cmsis_gcc.h **** 
ARM GAS  /tmp/cczzewXT.s 			page 52


 124:Drivers/CMSIS/Include/cmsis_gcc.h **** /**
 125:Drivers/CMSIS/Include/cmsis_gcc.h ****   \brief   Initializes data and bss sections
 126:Drivers/CMSIS/Include/cmsis_gcc.h ****   \details This default implementations initialized all data and additional bss
 127:Drivers/CMSIS/Include/cmsis_gcc.h ****            sections relying on .copy.table and .zero.table specified properly
 128:Drivers/CMSIS/Include/cmsis_gcc.h ****            in the used linker script.
 129:Drivers/CMSIS/Include/cmsis_gcc.h ****   
 130:Drivers/CMSIS/Include/cmsis_gcc.h ****  */
 131:Drivers/CMSIS/Include/cmsis_gcc.h **** __STATIC_FORCEINLINE __NO_RETURN void __cmsis_start(void)
 132:Drivers/CMSIS/Include/cmsis_gcc.h **** {
 133:Drivers/CMSIS/Include/cmsis_gcc.h ****   extern void _start(void) __NO_RETURN;
 134:Drivers/CMSIS/Include/cmsis_gcc.h ****   
 135:Drivers/CMSIS/Include/cmsis_gcc.h ****   typedef struct {
 136:Drivers/CMSIS/Include/cmsis_gcc.h ****     uint32_t const* src;
 137:Drivers/CMSIS/Include/cmsis_gcc.h ****     uint32_t* dest;
 138:Drivers/CMSIS/Include/cmsis_gcc.h ****     uint32_t  wlen;
 139:Drivers/CMSIS/Include/cmsis_gcc.h ****   } __copy_table_t;
 140:Drivers/CMSIS/Include/cmsis_gcc.h ****   
 141:Drivers/CMSIS/Include/cmsis_gcc.h ****   typedef struct {
 142:Drivers/CMSIS/Include/cmsis_gcc.h ****     uint32_t* dest;
 143:Drivers/CMSIS/Include/cmsis_gcc.h ****     uint32_t  wlen;
 144:Drivers/CMSIS/Include/cmsis_gcc.h ****   } __zero_table_t;
 145:Drivers/CMSIS/Include/cmsis_gcc.h ****   
 146:Drivers/CMSIS/Include/cmsis_gcc.h ****   extern const __copy_table_t __copy_table_start__;
 147:Drivers/CMSIS/Include/cmsis_gcc.h ****   extern const __copy_table_t __copy_table_end__;
 148:Drivers/CMSIS/Include/cmsis_gcc.h ****   extern const __zero_table_t __zero_table_start__;
 149:Drivers/CMSIS/Include/cmsis_gcc.h ****   extern const __zero_table_t __zero_table_end__;
 150:Drivers/CMSIS/Include/cmsis_gcc.h **** 
 151:Drivers/CMSIS/Include/cmsis_gcc.h ****   for (__copy_table_t const* pTable = &__copy_table_start__; pTable < &__copy_table_end__; ++pTable
 152:Drivers/CMSIS/Include/cmsis_gcc.h ****     for(uint32_t i=0u; i<pTable->wlen; ++i) {
 153:Drivers/CMSIS/Include/cmsis_gcc.h ****       pTable->dest[i] = pTable->src[i];
 154:Drivers/CMSIS/Include/cmsis_gcc.h ****     }
 155:Drivers/CMSIS/Include/cmsis_gcc.h ****   }
 156:Drivers/CMSIS/Include/cmsis_gcc.h ****  
 157:Drivers/CMSIS/Include/cmsis_gcc.h ****   for (__zero_table_t const* pTable = &__zero_table_start__; pTable < &__zero_table_end__; ++pTable
 158:Drivers/CMSIS/Include/cmsis_gcc.h ****     for(uint32_t i=0u; i<pTable->wlen; ++i) {
 159:Drivers/CMSIS/Include/cmsis_gcc.h ****       pTable->dest[i] = 0u;
 160:Drivers/CMSIS/Include/cmsis_gcc.h ****     }
 161:Drivers/CMSIS/Include/cmsis_gcc.h ****   }
 162:Drivers/CMSIS/Include/cmsis_gcc.h ****  
 163:Drivers/CMSIS/Include/cmsis_gcc.h ****   _start();
 164:Drivers/CMSIS/Include/cmsis_gcc.h **** }
 165:Drivers/CMSIS/Include/cmsis_gcc.h ****   
 166:Drivers/CMSIS/Include/cmsis_gcc.h **** #define __PROGRAM_START           __cmsis_start
 167:Drivers/CMSIS/Include/cmsis_gcc.h **** #endif
 168:Drivers/CMSIS/Include/cmsis_gcc.h **** 
 169:Drivers/CMSIS/Include/cmsis_gcc.h **** #ifndef __INITIAL_SP
 170:Drivers/CMSIS/Include/cmsis_gcc.h **** #define __INITIAL_SP              __StackTop
 171:Drivers/CMSIS/Include/cmsis_gcc.h **** #endif
 172:Drivers/CMSIS/Include/cmsis_gcc.h **** 
 173:Drivers/CMSIS/Include/cmsis_gcc.h **** #ifndef __STACK_LIMIT
 174:Drivers/CMSIS/Include/cmsis_gcc.h **** #define __STACK_LIMIT             __StackLimit
 175:Drivers/CMSIS/Include/cmsis_gcc.h **** #endif
 176:Drivers/CMSIS/Include/cmsis_gcc.h **** 
 177:Drivers/CMSIS/Include/cmsis_gcc.h **** #ifndef __VECTOR_TABLE
 178:Drivers/CMSIS/Include/cmsis_gcc.h **** #define __VECTOR_TABLE            __Vectors
 179:Drivers/CMSIS/Include/cmsis_gcc.h **** #endif
 180:Drivers/CMSIS/Include/cmsis_gcc.h **** 
ARM GAS  /tmp/cczzewXT.s 			page 53


 181:Drivers/CMSIS/Include/cmsis_gcc.h **** #ifndef __VECTOR_TABLE_ATTRIBUTE
 182:Drivers/CMSIS/Include/cmsis_gcc.h **** #define __VECTOR_TABLE_ATTRIBUTE  __attribute((used, section(".vectors")))
 183:Drivers/CMSIS/Include/cmsis_gcc.h **** #endif
 184:Drivers/CMSIS/Include/cmsis_gcc.h **** 
 185:Drivers/CMSIS/Include/cmsis_gcc.h **** /* ###########################  Core Function Access  ########################### */
 186:Drivers/CMSIS/Include/cmsis_gcc.h **** /** \ingroup  CMSIS_Core_FunctionInterface
 187:Drivers/CMSIS/Include/cmsis_gcc.h ****     \defgroup CMSIS_Core_RegAccFunctions CMSIS Core Register Access Functions
 188:Drivers/CMSIS/Include/cmsis_gcc.h ****   @{
 189:Drivers/CMSIS/Include/cmsis_gcc.h ****  */
 190:Drivers/CMSIS/Include/cmsis_gcc.h **** 
 191:Drivers/CMSIS/Include/cmsis_gcc.h **** /**
 192:Drivers/CMSIS/Include/cmsis_gcc.h ****   \brief   Enable IRQ Interrupts
 193:Drivers/CMSIS/Include/cmsis_gcc.h ****   \details Enables IRQ interrupts by clearing the I-bit in the CPSR.
 194:Drivers/CMSIS/Include/cmsis_gcc.h ****            Can only be executed in Privileged modes.
 195:Drivers/CMSIS/Include/cmsis_gcc.h ****  */
 196:Drivers/CMSIS/Include/cmsis_gcc.h **** __STATIC_FORCEINLINE void __enable_irq(void)
 197:Drivers/CMSIS/Include/cmsis_gcc.h **** {
 198:Drivers/CMSIS/Include/cmsis_gcc.h ****   __ASM volatile ("cpsie i" : : : "memory");
 199:Drivers/CMSIS/Include/cmsis_gcc.h **** }
 200:Drivers/CMSIS/Include/cmsis_gcc.h **** 
 201:Drivers/CMSIS/Include/cmsis_gcc.h **** 
 202:Drivers/CMSIS/Include/cmsis_gcc.h **** /**
 203:Drivers/CMSIS/Include/cmsis_gcc.h ****   \brief   Disable IRQ Interrupts
 204:Drivers/CMSIS/Include/cmsis_gcc.h ****   \details Disables IRQ interrupts by setting the I-bit in the CPSR.
 205:Drivers/CMSIS/Include/cmsis_gcc.h ****            Can only be executed in Privileged modes.
 206:Drivers/CMSIS/Include/cmsis_gcc.h ****  */
 207:Drivers/CMSIS/Include/cmsis_gcc.h **** __STATIC_FORCEINLINE void __disable_irq(void)
 1411              		.loc 2 207 27 view .LVU328
 1412              	.LBB21:
 208:Drivers/CMSIS/Include/cmsis_gcc.h **** {
 209:Drivers/CMSIS/Include/cmsis_gcc.h ****   __ASM volatile ("cpsid i" : : : "memory");
 1413              		.loc 2 209 3 view .LVU329
 1414              		.syntax unified
 1415              	@ 209 "Drivers/CMSIS/Include/cmsis_gcc.h" 1
 1416 0000 72B6     		cpsid i
 1417              	@ 0 "" 2
 1418              		.thumb
 1419              		.syntax unified
 1420              	.L75:
 1421              	.LBE21:
 1422              	.LBE20:
1140:Core/Src/main.c ****   while (1)
 1423              		.loc 1 1140 3 view .LVU330
1141:Core/Src/main.c ****   {
1142:Core/Src/main.c ****   }
 1424              		.loc 1 1142 3 view .LVU331
1140:Core/Src/main.c ****   while (1)
 1425              		.loc 1 1140 9 view .LVU332
 1426 0002 FEE7     		b	.L75
 1427              		.cfi_endproc
 1428              	.LFE249:
 1430              		.section	.text.MX_LPUART1_UART_Init,"ax",%progbits
 1431              		.align	1
 1432              		.syntax unified
 1433              		.thumb
 1434              		.thumb_func
 1436              	MX_LPUART1_UART_Init:
ARM GAS  /tmp/cczzewXT.s 			page 54


 1437              	.LFB235:
 521:Core/Src/main.c **** 
 1438              		.loc 1 521 1 view -0
 1439              		.cfi_startproc
 1440              		@ args = 0, pretend = 0, frame = 0
 1441              		@ frame_needed = 0, uses_anonymous_args = 0
 1442 0000 08B5     		push	{r3, lr}
 1443              		.cfi_def_cfa_offset 8
 1444              		.cfi_offset 3, -8
 1445              		.cfi_offset 14, -4
 530:Core/Src/main.c ****   hlpuart1.Init.BaudRate = 115200;
 1446              		.loc 1 530 3 view .LVU334
 530:Core/Src/main.c ****   hlpuart1.Init.BaudRate = 115200;
 1447              		.loc 1 530 21 is_stmt 0 view .LVU335
 1448 0002 0A48     		ldr	r0, .L80
 1449 0004 0A4B     		ldr	r3, .L80+4
 1450 0006 0360     		str	r3, [r0]
 531:Core/Src/main.c ****   hlpuart1.Init.WordLength = UART_WORDLENGTH_8B;
 1451              		.loc 1 531 3 is_stmt 1 view .LVU336
 531:Core/Src/main.c ****   hlpuart1.Init.WordLength = UART_WORDLENGTH_8B;
 1452              		.loc 1 531 26 is_stmt 0 view .LVU337
 1453 0008 4FF4E133 		mov	r3, #115200
 1454 000c 4360     		str	r3, [r0, #4]
 532:Core/Src/main.c ****   hlpuart1.Init.StopBits = UART_STOPBITS_1;
 1455              		.loc 1 532 3 is_stmt 1 view .LVU338
 532:Core/Src/main.c ****   hlpuart1.Init.StopBits = UART_STOPBITS_1;
 1456              		.loc 1 532 28 is_stmt 0 view .LVU339
 1457 000e 0023     		movs	r3, #0
 1458 0010 8360     		str	r3, [r0, #8]
 533:Core/Src/main.c ****   hlpuart1.Init.Parity = UART_PARITY_NONE;
 1459              		.loc 1 533 3 is_stmt 1 view .LVU340
 533:Core/Src/main.c ****   hlpuart1.Init.Parity = UART_PARITY_NONE;
 1460              		.loc 1 533 26 is_stmt 0 view .LVU341
 1461 0012 C360     		str	r3, [r0, #12]
 534:Core/Src/main.c ****   hlpuart1.Init.Mode = UART_MODE_TX_RX;
 1462              		.loc 1 534 3 is_stmt 1 view .LVU342
 534:Core/Src/main.c ****   hlpuart1.Init.Mode = UART_MODE_TX_RX;
 1463              		.loc 1 534 24 is_stmt 0 view .LVU343
 1464 0014 0361     		str	r3, [r0, #16]
 535:Core/Src/main.c ****   hlpuart1.Init.HwFlowCtl = UART_HWCONTROL_NONE;
 1465              		.loc 1 535 3 is_stmt 1 view .LVU344
 535:Core/Src/main.c ****   hlpuart1.Init.HwFlowCtl = UART_HWCONTROL_NONE;
 1466              		.loc 1 535 22 is_stmt 0 view .LVU345
 1467 0016 0C22     		movs	r2, #12
 1468 0018 4261     		str	r2, [r0, #20]
 536:Core/Src/main.c ****   hlpuart1.Init.OneBitSampling = UART_ONE_BIT_SAMPLE_DISABLE;
 1469              		.loc 1 536 3 is_stmt 1 view .LVU346
 536:Core/Src/main.c ****   hlpuart1.Init.OneBitSampling = UART_ONE_BIT_SAMPLE_DISABLE;
 1470              		.loc 1 536 27 is_stmt 0 view .LVU347
 1471 001a 8361     		str	r3, [r0, #24]
 537:Core/Src/main.c ****   hlpuart1.AdvancedInit.AdvFeatureInit = UART_ADVFEATURE_NO_INIT;
 1472              		.loc 1 537 3 is_stmt 1 view .LVU348
 537:Core/Src/main.c ****   hlpuart1.AdvancedInit.AdvFeatureInit = UART_ADVFEATURE_NO_INIT;
 1473              		.loc 1 537 32 is_stmt 0 view .LVU349
 1474 001c 0362     		str	r3, [r0, #32]
 538:Core/Src/main.c ****   if (HAL_UART_Init(&hlpuart1) != HAL_OK)
 1475              		.loc 1 538 3 is_stmt 1 view .LVU350
ARM GAS  /tmp/cczzewXT.s 			page 55


 538:Core/Src/main.c ****   if (HAL_UART_Init(&hlpuart1) != HAL_OK)
 1476              		.loc 1 538 40 is_stmt 0 view .LVU351
 1477 001e 4362     		str	r3, [r0, #36]
 539:Core/Src/main.c ****   {
 1478              		.loc 1 539 3 is_stmt 1 view .LVU352
 539:Core/Src/main.c ****   {
 1479              		.loc 1 539 7 is_stmt 0 view .LVU353
 1480 0020 FFF7FEFF 		bl	HAL_UART_Init
 1481              	.LVL131:
 539:Core/Src/main.c ****   {
 1482              		.loc 1 539 6 discriminator 1 view .LVU354
 1483 0024 00B9     		cbnz	r0, .L79
 547:Core/Src/main.c **** 
 1484              		.loc 1 547 1 view .LVU355
 1485 0026 08BD     		pop	{r3, pc}
 1486              	.L79:
 541:Core/Src/main.c ****   }
 1487              		.loc 1 541 5 is_stmt 1 view .LVU356
 1488 0028 FFF7FEFF 		bl	Error_Handler
 1489              	.LVL132:
 1490              	.L81:
 1491              		.align	2
 1492              	.L80:
 1493 002c 00000000 		.word	hlpuart1
 1494 0030 00800040 		.word	1073774592
 1495              		.cfi_endproc
 1496              	.LFE235:
 1498              		.section	.text.MX_USART2_UART_Init,"ax",%progbits
 1499              		.align	1
 1500              		.syntax unified
 1501              		.thumb
 1502              		.thumb_func
 1504              	MX_USART2_UART_Init:
 1505              	.LFB237:
 590:Core/Src/main.c **** 
 1506              		.loc 1 590 1 view -0
 1507              		.cfi_startproc
 1508              		@ args = 0, pretend = 0, frame = 0
 1509              		@ frame_needed = 0, uses_anonymous_args = 0
 1510 0000 08B5     		push	{r3, lr}
 1511              		.cfi_def_cfa_offset 8
 1512              		.cfi_offset 3, -8
 1513              		.cfi_offset 14, -4
 599:Core/Src/main.c ****   huart2.Init.BaudRate = 115200;
 1514              		.loc 1 599 3 view .LVU358
 599:Core/Src/main.c ****   huart2.Init.BaudRate = 115200;
 1515              		.loc 1 599 19 is_stmt 0 view .LVU359
 1516 0002 0C48     		ldr	r0, .L86
 1517 0004 0C4B     		ldr	r3, .L86+4
 1518 0006 0360     		str	r3, [r0]
 600:Core/Src/main.c ****   huart2.Init.WordLength = UART_WORDLENGTH_8B;
 1519              		.loc 1 600 3 is_stmt 1 view .LVU360
 600:Core/Src/main.c ****   huart2.Init.WordLength = UART_WORDLENGTH_8B;
 1520              		.loc 1 600 24 is_stmt 0 view .LVU361
 1521 0008 4FF4E133 		mov	r3, #115200
 1522 000c 4360     		str	r3, [r0, #4]
 601:Core/Src/main.c ****   huart2.Init.StopBits = UART_STOPBITS_1;
ARM GAS  /tmp/cczzewXT.s 			page 56


 1523              		.loc 1 601 3 is_stmt 1 view .LVU362
 601:Core/Src/main.c ****   huart2.Init.StopBits = UART_STOPBITS_1;
 1524              		.loc 1 601 26 is_stmt 0 view .LVU363
 1525 000e 0023     		movs	r3, #0
 1526 0010 8360     		str	r3, [r0, #8]
 602:Core/Src/main.c ****   huart2.Init.Parity = UART_PARITY_NONE;
 1527              		.loc 1 602 3 is_stmt 1 view .LVU364
 602:Core/Src/main.c ****   huart2.Init.Parity = UART_PARITY_NONE;
 1528              		.loc 1 602 24 is_stmt 0 view .LVU365
 1529 0012 C360     		str	r3, [r0, #12]
 603:Core/Src/main.c ****   huart2.Init.Mode = UART_MODE_TX_RX;
 1530              		.loc 1 603 3 is_stmt 1 view .LVU366
 603:Core/Src/main.c ****   huart2.Init.Mode = UART_MODE_TX_RX;
 1531              		.loc 1 603 22 is_stmt 0 view .LVU367
 1532 0014 0361     		str	r3, [r0, #16]
 604:Core/Src/main.c ****   huart2.Init.HwFlowCtl = UART_HWCONTROL_RTS_CTS;
 1533              		.loc 1 604 3 is_stmt 1 view .LVU368
 604:Core/Src/main.c ****   huart2.Init.HwFlowCtl = UART_HWCONTROL_RTS_CTS;
 1534              		.loc 1 604 20 is_stmt 0 view .LVU369
 1535 0016 0C22     		movs	r2, #12
 1536 0018 4261     		str	r2, [r0, #20]
 605:Core/Src/main.c ****   huart2.Init.OverSampling = UART_OVERSAMPLING_16;
 1537              		.loc 1 605 3 is_stmt 1 view .LVU370
 605:Core/Src/main.c ****   huart2.Init.OverSampling = UART_OVERSAMPLING_16;
 1538              		.loc 1 605 25 is_stmt 0 view .LVU371
 1539 001a 4FF44072 		mov	r2, #768
 1540 001e 8261     		str	r2, [r0, #24]
 606:Core/Src/main.c ****   huart2.Init.OneBitSampling = UART_ONE_BIT_SAMPLE_DISABLE;
 1541              		.loc 1 606 3 is_stmt 1 view .LVU372
 606:Core/Src/main.c ****   huart2.Init.OneBitSampling = UART_ONE_BIT_SAMPLE_DISABLE;
 1542              		.loc 1 606 28 is_stmt 0 view .LVU373
 1543 0020 C361     		str	r3, [r0, #28]
 607:Core/Src/main.c ****   huart2.AdvancedInit.AdvFeatureInit = UART_ADVFEATURE_NO_INIT;
 1544              		.loc 1 607 3 is_stmt 1 view .LVU374
 607:Core/Src/main.c ****   huart2.AdvancedInit.AdvFeatureInit = UART_ADVFEATURE_NO_INIT;
 1545              		.loc 1 607 30 is_stmt 0 view .LVU375
 1546 0022 0362     		str	r3, [r0, #32]
 608:Core/Src/main.c ****   if (HAL_UART_Init(&huart2) != HAL_OK)
 1547              		.loc 1 608 3 is_stmt 1 view .LVU376
 608:Core/Src/main.c ****   if (HAL_UART_Init(&huart2) != HAL_OK)
 1548              		.loc 1 608 38 is_stmt 0 view .LVU377
 1549 0024 4362     		str	r3, [r0, #36]
 609:Core/Src/main.c ****   {
 1550              		.loc 1 609 3 is_stmt 1 view .LVU378
 609:Core/Src/main.c ****   {
 1551              		.loc 1 609 7 is_stmt 0 view .LVU379
 1552 0026 FFF7FEFF 		bl	HAL_UART_Init
 1553              	.LVL133:
 609:Core/Src/main.c ****   {
 1554              		.loc 1 609 6 discriminator 1 view .LVU380
 1555 002a 00B9     		cbnz	r0, .L85
 617:Core/Src/main.c **** 
 1556              		.loc 1 617 1 view .LVU381
 1557 002c 08BD     		pop	{r3, pc}
 1558              	.L85:
 611:Core/Src/main.c ****   }
 1559              		.loc 1 611 5 is_stmt 1 view .LVU382
ARM GAS  /tmp/cczzewXT.s 			page 57


 1560 002e FFF7FEFF 		bl	Error_Handler
 1561              	.LVL134:
 1562              	.L87:
 1563 0032 00BF     		.align	2
 1564              	.L86:
 1565 0034 00000000 		.word	huart2
 1566 0038 00440040 		.word	1073759232
 1567              		.cfi_endproc
 1568              	.LFE237:
 1570              		.section	.text.MX_USART3_UART_Init,"ax",%progbits
 1571              		.align	1
 1572              		.syntax unified
 1573              		.thumb
 1574              		.thumb_func
 1576              	MX_USART3_UART_Init:
 1577              	.LFB238:
 625:Core/Src/main.c **** 
 1578              		.loc 1 625 1 view -0
 1579              		.cfi_startproc
 1580              		@ args = 0, pretend = 0, frame = 0
 1581              		@ frame_needed = 0, uses_anonymous_args = 0
 1582 0000 08B5     		push	{r3, lr}
 1583              		.cfi_def_cfa_offset 8
 1584              		.cfi_offset 3, -8
 1585              		.cfi_offset 14, -4
 634:Core/Src/main.c ****   huart3.Init.BaudRate = 115200;
 1586              		.loc 1 634 3 view .LVU384
 634:Core/Src/main.c ****   huart3.Init.BaudRate = 115200;
 1587              		.loc 1 634 19 is_stmt 0 view .LVU385
 1588 0002 0B48     		ldr	r0, .L92
 1589 0004 0B4B     		ldr	r3, .L92+4
 1590 0006 0360     		str	r3, [r0]
 635:Core/Src/main.c ****   huart3.Init.WordLength = UART_WORDLENGTH_8B;
 1591              		.loc 1 635 3 is_stmt 1 view .LVU386
 635:Core/Src/main.c ****   huart3.Init.WordLength = UART_WORDLENGTH_8B;
 1592              		.loc 1 635 24 is_stmt 0 view .LVU387
 1593 0008 4FF4E133 		mov	r3, #115200
 1594 000c 4360     		str	r3, [r0, #4]
 636:Core/Src/main.c ****   huart3.Init.StopBits = UART_STOPBITS_1;
 1595              		.loc 1 636 3 is_stmt 1 view .LVU388
 636:Core/Src/main.c ****   huart3.Init.StopBits = UART_STOPBITS_1;
 1596              		.loc 1 636 26 is_stmt 0 view .LVU389
 1597 000e 0023     		movs	r3, #0
 1598 0010 8360     		str	r3, [r0, #8]
 637:Core/Src/main.c ****   huart3.Init.Parity = UART_PARITY_NONE;
 1599              		.loc 1 637 3 is_stmt 1 view .LVU390
 637:Core/Src/main.c ****   huart3.Init.Parity = UART_PARITY_NONE;
 1600              		.loc 1 637 24 is_stmt 0 view .LVU391
 1601 0012 C360     		str	r3, [r0, #12]
 638:Core/Src/main.c ****   huart3.Init.Mode = UART_MODE_TX_RX;
 1602              		.loc 1 638 3 is_stmt 1 view .LVU392
 638:Core/Src/main.c ****   huart3.Init.Mode = UART_MODE_TX_RX;
 1603              		.loc 1 638 22 is_stmt 0 view .LVU393
 1604 0014 0361     		str	r3, [r0, #16]
 639:Core/Src/main.c ****   huart3.Init.HwFlowCtl = UART_HWCONTROL_NONE;
 1605              		.loc 1 639 3 is_stmt 1 view .LVU394
 639:Core/Src/main.c ****   huart3.Init.HwFlowCtl = UART_HWCONTROL_NONE;
ARM GAS  /tmp/cczzewXT.s 			page 58


 1606              		.loc 1 639 20 is_stmt 0 view .LVU395
 1607 0016 0C22     		movs	r2, #12
 1608 0018 4261     		str	r2, [r0, #20]
 640:Core/Src/main.c ****   huart3.Init.OverSampling = UART_OVERSAMPLING_16;
 1609              		.loc 1 640 3 is_stmt 1 view .LVU396
 640:Core/Src/main.c ****   huart3.Init.OverSampling = UART_OVERSAMPLING_16;
 1610              		.loc 1 640 25 is_stmt 0 view .LVU397
 1611 001a 8361     		str	r3, [r0, #24]
 641:Core/Src/main.c ****   huart3.Init.OneBitSampling = UART_ONE_BIT_SAMPLE_DISABLE;
 1612              		.loc 1 641 3 is_stmt 1 view .LVU398
 641:Core/Src/main.c ****   huart3.Init.OneBitSampling = UART_ONE_BIT_SAMPLE_DISABLE;
 1613              		.loc 1 641 28 is_stmt 0 view .LVU399
 1614 001c C361     		str	r3, [r0, #28]
 642:Core/Src/main.c ****   huart3.AdvancedInit.AdvFeatureInit = UART_ADVFEATURE_NO_INIT;
 1615              		.loc 1 642 3 is_stmt 1 view .LVU400
 642:Core/Src/main.c ****   huart3.AdvancedInit.AdvFeatureInit = UART_ADVFEATURE_NO_INIT;
 1616              		.loc 1 642 30 is_stmt 0 view .LVU401
 1617 001e 0362     		str	r3, [r0, #32]
 643:Core/Src/main.c ****   if (HAL_UART_Init(&huart3) != HAL_OK)
 1618              		.loc 1 643 3 is_stmt 1 view .LVU402
 643:Core/Src/main.c ****   if (HAL_UART_Init(&huart3) != HAL_OK)
 1619              		.loc 1 643 38 is_stmt 0 view .LVU403
 1620 0020 4362     		str	r3, [r0, #36]
 644:Core/Src/main.c ****   {
 1621              		.loc 1 644 3 is_stmt 1 view .LVU404
 644:Core/Src/main.c ****   {
 1622              		.loc 1 644 7 is_stmt 0 view .LVU405
 1623 0022 FFF7FEFF 		bl	HAL_UART_Init
 1624              	.LVL135:
 644:Core/Src/main.c ****   {
 1625              		.loc 1 644 6 discriminator 1 view .LVU406
 1626 0026 00B9     		cbnz	r0, .L91
 652:Core/Src/main.c **** 
 1627              		.loc 1 652 1 view .LVU407
 1628 0028 08BD     		pop	{r3, pc}
 1629              	.L91:
 646:Core/Src/main.c ****   }
 1630              		.loc 1 646 5 is_stmt 1 view .LVU408
 1631 002a FFF7FEFF 		bl	Error_Handler
 1632              	.LVL136:
 1633              	.L93:
 1634 002e 00BF     		.align	2
 1635              	.L92:
 1636 0030 00000000 		.word	huart3
 1637 0034 00480040 		.word	1073760256
 1638              		.cfi_endproc
 1639              	.LFE238:
 1641              		.section	.text.MX_SPI1_Init,"ax",%progbits
 1642              		.align	1
 1643              		.syntax unified
 1644              		.thumb
 1645              		.thumb_func
 1647              	MX_SPI1_Init:
 1648              	.LFB241:
 775:Core/Src/main.c **** 
 1649              		.loc 1 775 1 view -0
 1650              		.cfi_startproc
ARM GAS  /tmp/cczzewXT.s 			page 59


 1651              		@ args = 0, pretend = 0, frame = 0
 1652              		@ frame_needed = 0, uses_anonymous_args = 0
 1653 0000 08B5     		push	{r3, lr}
 1654              		.cfi_def_cfa_offset 8
 1655              		.cfi_offset 3, -8
 1656              		.cfi_offset 14, -4
 785:Core/Src/main.c ****   hspi1.Init.Mode = SPI_MODE_MASTER;
 1657              		.loc 1 785 3 view .LVU410
 785:Core/Src/main.c ****   hspi1.Init.Mode = SPI_MODE_MASTER;
 1658              		.loc 1 785 18 is_stmt 0 view .LVU411
 1659 0002 0F48     		ldr	r0, .L98
 1660 0004 0F4B     		ldr	r3, .L98+4
 1661 0006 0360     		str	r3, [r0]
 786:Core/Src/main.c ****   hspi1.Init.Direction = SPI_DIRECTION_2LINES;
 1662              		.loc 1 786 3 is_stmt 1 view .LVU412
 786:Core/Src/main.c ****   hspi1.Init.Direction = SPI_DIRECTION_2LINES;
 1663              		.loc 1 786 19 is_stmt 0 view .LVU413
 1664 0008 4FF48273 		mov	r3, #260
 1665 000c 4360     		str	r3, [r0, #4]
 787:Core/Src/main.c ****   hspi1.Init.DataSize = SPI_DATASIZE_4BIT;
 1666              		.loc 1 787 3 is_stmt 1 view .LVU414
 787:Core/Src/main.c ****   hspi1.Init.DataSize = SPI_DATASIZE_4BIT;
 1667              		.loc 1 787 24 is_stmt 0 view .LVU415
 1668 000e 0023     		movs	r3, #0
 1669 0010 8360     		str	r3, [r0, #8]
 788:Core/Src/main.c ****   hspi1.Init.CLKPolarity = SPI_POLARITY_LOW;
 1670              		.loc 1 788 3 is_stmt 1 view .LVU416
 788:Core/Src/main.c ****   hspi1.Init.CLKPolarity = SPI_POLARITY_LOW;
 1671              		.loc 1 788 23 is_stmt 0 view .LVU417
 1672 0012 4FF44072 		mov	r2, #768
 1673 0016 C260     		str	r2, [r0, #12]
 789:Core/Src/main.c ****   hspi1.Init.CLKPhase = SPI_PHASE_1EDGE;
 1674              		.loc 1 789 3 is_stmt 1 view .LVU418
 789:Core/Src/main.c ****   hspi1.Init.CLKPhase = SPI_PHASE_1EDGE;
 1675              		.loc 1 789 26 is_stmt 0 view .LVU419
 1676 0018 0361     		str	r3, [r0, #16]
 790:Core/Src/main.c ****   hspi1.Init.NSS = SPI_NSS_SOFT;
 1677              		.loc 1 790 3 is_stmt 1 view .LVU420
 790:Core/Src/main.c ****   hspi1.Init.NSS = SPI_NSS_SOFT;
 1678              		.loc 1 790 23 is_stmt 0 view .LVU421
 1679 001a 4361     		str	r3, [r0, #20]
 791:Core/Src/main.c ****   hspi1.Init.BaudRatePrescaler = SPI_BAUDRATEPRESCALER_2;
 1680              		.loc 1 791 3 is_stmt 1 view .LVU422
 791:Core/Src/main.c ****   hspi1.Init.BaudRatePrescaler = SPI_BAUDRATEPRESCALER_2;
 1681              		.loc 1 791 18 is_stmt 0 view .LVU423
 1682 001c 4FF40072 		mov	r2, #512
 1683 0020 8261     		str	r2, [r0, #24]
 792:Core/Src/main.c ****   hspi1.Init.FirstBit = SPI_FIRSTBIT_MSB;
 1684              		.loc 1 792 3 is_stmt 1 view .LVU424
 792:Core/Src/main.c ****   hspi1.Init.FirstBit = SPI_FIRSTBIT_MSB;
 1685              		.loc 1 792 32 is_stmt 0 view .LVU425
 1686 0022 C361     		str	r3, [r0, #28]
 793:Core/Src/main.c ****   hspi1.Init.TIMode = SPI_TIMODE_DISABLE;
 1687              		.loc 1 793 3 is_stmt 1 view .LVU426
 793:Core/Src/main.c ****   hspi1.Init.TIMode = SPI_TIMODE_DISABLE;
 1688              		.loc 1 793 23 is_stmt 0 view .LVU427
 1689 0024 0362     		str	r3, [r0, #32]
ARM GAS  /tmp/cczzewXT.s 			page 60


 794:Core/Src/main.c ****   hspi1.Init.CRCCalculation = SPI_CRCCALCULATION_DISABLE;
 1690              		.loc 1 794 3 is_stmt 1 view .LVU428
 794:Core/Src/main.c ****   hspi1.Init.CRCCalculation = SPI_CRCCALCULATION_DISABLE;
 1691              		.loc 1 794 21 is_stmt 0 view .LVU429
 1692 0026 4362     		str	r3, [r0, #36]
 795:Core/Src/main.c ****   hspi1.Init.CRCPolynomial = 7;
 1693              		.loc 1 795 3 is_stmt 1 view .LVU430
 795:Core/Src/main.c ****   hspi1.Init.CRCPolynomial = 7;
 1694              		.loc 1 795 29 is_stmt 0 view .LVU431
 1695 0028 8362     		str	r3, [r0, #40]
 796:Core/Src/main.c ****   hspi1.Init.CRCLength = SPI_CRC_LENGTH_DATASIZE;
 1696              		.loc 1 796 3 is_stmt 1 view .LVU432
 796:Core/Src/main.c ****   hspi1.Init.CRCLength = SPI_CRC_LENGTH_DATASIZE;
 1697              		.loc 1 796 28 is_stmt 0 view .LVU433
 1698 002a 0722     		movs	r2, #7
 1699 002c C262     		str	r2, [r0, #44]
 797:Core/Src/main.c ****   hspi1.Init.NSSPMode = SPI_NSS_PULSE_ENABLE;
 1700              		.loc 1 797 3 is_stmt 1 view .LVU434
 797:Core/Src/main.c ****   hspi1.Init.NSSPMode = SPI_NSS_PULSE_ENABLE;
 1701              		.loc 1 797 24 is_stmt 0 view .LVU435
 1702 002e 0363     		str	r3, [r0, #48]
 798:Core/Src/main.c ****   if (HAL_SPI_Init(&hspi1) != HAL_OK)
 1703              		.loc 1 798 3 is_stmt 1 view .LVU436
 798:Core/Src/main.c ****   if (HAL_SPI_Init(&hspi1) != HAL_OK)
 1704              		.loc 1 798 23 is_stmt 0 view .LVU437
 1705 0030 0823     		movs	r3, #8
 1706 0032 4363     		str	r3, [r0, #52]
 799:Core/Src/main.c ****   {
 1707              		.loc 1 799 3 is_stmt 1 view .LVU438
 799:Core/Src/main.c ****   {
 1708              		.loc 1 799 7 is_stmt 0 view .LVU439
 1709 0034 FFF7FEFF 		bl	HAL_SPI_Init
 1710              	.LVL137:
 799:Core/Src/main.c ****   {
 1711              		.loc 1 799 6 discriminator 1 view .LVU440
 1712 0038 00B9     		cbnz	r0, .L97
 807:Core/Src/main.c **** 
 1713              		.loc 1 807 1 view .LVU441
 1714 003a 08BD     		pop	{r3, pc}
 1715              	.L97:
 801:Core/Src/main.c ****   }
 1716              		.loc 1 801 5 is_stmt 1 view .LVU442
 1717 003c FFF7FEFF 		bl	Error_Handler
 1718              	.LVL138:
 1719              	.L99:
 1720              		.align	2
 1721              	.L98:
 1722 0040 00000000 		.word	hspi1
 1723 0044 00300140 		.word	1073819648
 1724              		.cfi_endproc
 1725              	.LFE241:
 1727              		.section	.text.MX_RTC_Init,"ax",%progbits
 1728              		.align	1
 1729              		.syntax unified
 1730              		.thumb
 1731              		.thumb_func
 1733              	MX_RTC_Init:
ARM GAS  /tmp/cczzewXT.s 			page 61


 1734              	.LFB239:
 660:Core/Src/main.c **** 
 1735              		.loc 1 660 1 view -0
 1736              		.cfi_startproc
 1737              		@ args = 0, pretend = 0, frame = 24
 1738              		@ frame_needed = 0, uses_anonymous_args = 0
 1739 0000 00B5     		push	{lr}
 1740              		.cfi_def_cfa_offset 4
 1741              		.cfi_offset 14, -4
 1742 0002 87B0     		sub	sp, sp, #28
 1743              		.cfi_def_cfa_offset 32
 666:Core/Src/main.c ****   RTC_DateTypeDef sDate = {0};
 1744              		.loc 1 666 3 view .LVU444
 666:Core/Src/main.c ****   RTC_DateTypeDef sDate = {0};
 1745              		.loc 1 666 19 is_stmt 0 view .LVU445
 1746 0004 0023     		movs	r3, #0
 1747 0006 0193     		str	r3, [sp, #4]
 1748 0008 0293     		str	r3, [sp, #8]
 1749 000a 0393     		str	r3, [sp, #12]
 1750 000c 0493     		str	r3, [sp, #16]
 1751 000e 0593     		str	r3, [sp, #20]
 667:Core/Src/main.c **** 
 1752              		.loc 1 667 3 is_stmt 1 view .LVU446
 667:Core/Src/main.c **** 
 1753              		.loc 1 667 19 is_stmt 0 view .LVU447
 1754 0010 0093     		str	r3, [sp]
 675:Core/Src/main.c ****   hrtc.Init.HourFormat = RTC_HOURFORMAT_24;
 1755              		.loc 1 675 3 is_stmt 1 view .LVU448
 675:Core/Src/main.c ****   hrtc.Init.HourFormat = RTC_HOURFORMAT_24;
 1756              		.loc 1 675 17 is_stmt 0 view .LVU449
 1757 0012 1948     		ldr	r0, .L108
 1758 0014 194A     		ldr	r2, .L108+4
 1759 0016 0260     		str	r2, [r0]
 676:Core/Src/main.c ****   hrtc.Init.AsynchPrediv = 127;
 1760              		.loc 1 676 3 is_stmt 1 view .LVU450
 676:Core/Src/main.c ****   hrtc.Init.AsynchPrediv = 127;
 1761              		.loc 1 676 24 is_stmt 0 view .LVU451
 1762 0018 4360     		str	r3, [r0, #4]
 677:Core/Src/main.c ****   hrtc.Init.SynchPrediv = 255;
 1763              		.loc 1 677 3 is_stmt 1 view .LVU452
 677:Core/Src/main.c ****   hrtc.Init.SynchPrediv = 255;
 1764              		.loc 1 677 26 is_stmt 0 view .LVU453
 1765 001a 7F22     		movs	r2, #127
 1766 001c 8260     		str	r2, [r0, #8]
 678:Core/Src/main.c ****   hrtc.Init.OutPut = RTC_OUTPUT_DISABLE;
 1767              		.loc 1 678 3 is_stmt 1 view .LVU454
 678:Core/Src/main.c ****   hrtc.Init.OutPut = RTC_OUTPUT_DISABLE;
 1768              		.loc 1 678 25 is_stmt 0 view .LVU455
 1769 001e FF22     		movs	r2, #255
 1770 0020 C260     		str	r2, [r0, #12]
 679:Core/Src/main.c ****   hrtc.Init.OutPutRemap = RTC_OUTPUT_REMAP_NONE;
 1771              		.loc 1 679 3 is_stmt 1 view .LVU456
 679:Core/Src/main.c ****   hrtc.Init.OutPutRemap = RTC_OUTPUT_REMAP_NONE;
 1772              		.loc 1 679 20 is_stmt 0 view .LVU457
 1773 0022 0361     		str	r3, [r0, #16]
 680:Core/Src/main.c ****   hrtc.Init.OutPutPolarity = RTC_OUTPUT_POLARITY_HIGH;
 1774              		.loc 1 680 3 is_stmt 1 view .LVU458
ARM GAS  /tmp/cczzewXT.s 			page 62


 680:Core/Src/main.c ****   hrtc.Init.OutPutPolarity = RTC_OUTPUT_POLARITY_HIGH;
 1775              		.loc 1 680 25 is_stmt 0 view .LVU459
 1776 0024 4361     		str	r3, [r0, #20]
 681:Core/Src/main.c ****   hrtc.Init.OutPutType = RTC_OUTPUT_TYPE_OPENDRAIN;
 1777              		.loc 1 681 3 is_stmt 1 view .LVU460
 681:Core/Src/main.c ****   hrtc.Init.OutPutType = RTC_OUTPUT_TYPE_OPENDRAIN;
 1778              		.loc 1 681 28 is_stmt 0 view .LVU461
 1779 0026 8361     		str	r3, [r0, #24]
 682:Core/Src/main.c ****   if (HAL_RTC_Init(&hrtc) != HAL_OK)
 1780              		.loc 1 682 3 is_stmt 1 view .LVU462
 682:Core/Src/main.c ****   if (HAL_RTC_Init(&hrtc) != HAL_OK)
 1781              		.loc 1 682 24 is_stmt 0 view .LVU463
 1782 0028 C361     		str	r3, [r0, #28]
 683:Core/Src/main.c ****   {
 1783              		.loc 1 683 3 is_stmt 1 view .LVU464
 683:Core/Src/main.c ****   {
 1784              		.loc 1 683 7 is_stmt 0 view .LVU465
 1785 002a FFF7FEFF 		bl	HAL_RTC_Init
 1786              	.LVL139:
 683:Core/Src/main.c ****   {
 1787              		.loc 1 683 6 discriminator 1 view .LVU466
 1788 002e E8B9     		cbnz	r0, .L105
 694:Core/Src/main.c ****   sTime.Minutes = 0x0;
 1789              		.loc 1 694 3 is_stmt 1 view .LVU467
 694:Core/Src/main.c ****   sTime.Minutes = 0x0;
 1790              		.loc 1 694 15 is_stmt 0 view .LVU468
 1791 0030 8DF80400 		strb	r0, [sp, #4]
 695:Core/Src/main.c ****   sTime.Seconds = 0x0;
 1792              		.loc 1 695 3 is_stmt 1 view .LVU469
 695:Core/Src/main.c ****   sTime.Seconds = 0x0;
 1793              		.loc 1 695 17 is_stmt 0 view .LVU470
 1794 0034 8DF80500 		strb	r0, [sp, #5]
 696:Core/Src/main.c ****   sTime.DayLightSaving = RTC_DAYLIGHTSAVING_NONE;
 1795              		.loc 1 696 3 is_stmt 1 view .LVU471
 696:Core/Src/main.c ****   sTime.DayLightSaving = RTC_DAYLIGHTSAVING_NONE;
 1796              		.loc 1 696 17 is_stmt 0 view .LVU472
 1797 0038 8DF80600 		strb	r0, [sp, #6]
 697:Core/Src/main.c ****   sTime.StoreOperation = RTC_STOREOPERATION_RESET;
 1798              		.loc 1 697 3 is_stmt 1 view .LVU473
 697:Core/Src/main.c ****   sTime.StoreOperation = RTC_STOREOPERATION_RESET;
 1799              		.loc 1 697 24 is_stmt 0 view .LVU474
 1800 003c 0490     		str	r0, [sp, #16]
 698:Core/Src/main.c ****   if (HAL_RTC_SetTime(&hrtc, &sTime, RTC_FORMAT_BCD) != HAL_OK)
 1801              		.loc 1 698 3 is_stmt 1 view .LVU475
 698:Core/Src/main.c ****   if (HAL_RTC_SetTime(&hrtc, &sTime, RTC_FORMAT_BCD) != HAL_OK)
 1802              		.loc 1 698 24 is_stmt 0 view .LVU476
 1803 003e 0590     		str	r0, [sp, #20]
 699:Core/Src/main.c ****   {
 1804              		.loc 1 699 3 is_stmt 1 view .LVU477
 699:Core/Src/main.c ****   {
 1805              		.loc 1 699 7 is_stmt 0 view .LVU478
 1806 0040 0122     		movs	r2, #1
 1807 0042 01A9     		add	r1, sp, #4
 1808 0044 0C48     		ldr	r0, .L108
 1809 0046 FFF7FEFF 		bl	HAL_RTC_SetTime
 1810              	.LVL140:
 699:Core/Src/main.c ****   {
ARM GAS  /tmp/cczzewXT.s 			page 63


 1811              		.loc 1 699 6 discriminator 1 view .LVU479
 1812 004a 88B9     		cbnz	r0, .L106
 703:Core/Src/main.c ****   sDate.Month = RTC_MONTH_JANUARY;
 1813              		.loc 1 703 3 is_stmt 1 view .LVU480
 703:Core/Src/main.c ****   sDate.Month = RTC_MONTH_JANUARY;
 1814              		.loc 1 703 17 is_stmt 0 view .LVU481
 1815 004c 0122     		movs	r2, #1
 1816 004e 8DF80020 		strb	r2, [sp]
 704:Core/Src/main.c ****   sDate.Date = 0x1;
 1817              		.loc 1 704 3 is_stmt 1 view .LVU482
 704:Core/Src/main.c ****   sDate.Date = 0x1;
 1818              		.loc 1 704 15 is_stmt 0 view .LVU483
 1819 0052 8DF80120 		strb	r2, [sp, #1]
 705:Core/Src/main.c ****   sDate.Year = 0x0;
 1820              		.loc 1 705 3 is_stmt 1 view .LVU484
 705:Core/Src/main.c ****   sDate.Year = 0x0;
 1821              		.loc 1 705 14 is_stmt 0 view .LVU485
 1822 0056 8DF80220 		strb	r2, [sp, #2]
 706:Core/Src/main.c **** 
 1823              		.loc 1 706 3 is_stmt 1 view .LVU486
 706:Core/Src/main.c **** 
 1824              		.loc 1 706 14 is_stmt 0 view .LVU487
 1825 005a 8DF80300 		strb	r0, [sp, #3]
 708:Core/Src/main.c ****   {
 1826              		.loc 1 708 3 is_stmt 1 view .LVU488
 708:Core/Src/main.c ****   {
 1827              		.loc 1 708 7 is_stmt 0 view .LVU489
 1828 005e 6946     		mov	r1, sp
 1829 0060 0548     		ldr	r0, .L108
 1830 0062 FFF7FEFF 		bl	HAL_RTC_SetDate
 1831              	.LVL141:
 708:Core/Src/main.c ****   {
 1832              		.loc 1 708 6 discriminator 1 view .LVU490
 1833 0066 28B9     		cbnz	r0, .L107
 716:Core/Src/main.c **** 
 1834              		.loc 1 716 1 view .LVU491
 1835 0068 07B0     		add	sp, sp, #28
 1836              		.cfi_remember_state
 1837              		.cfi_def_cfa_offset 4
 1838              		@ sp needed
 1839 006a 00BD     		pop	{pc}
 1840              	.L105:
 1841              		.cfi_restore_state
 685:Core/Src/main.c ****   }
 1842              		.loc 1 685 5 is_stmt 1 view .LVU492
 1843 006c FFF7FEFF 		bl	Error_Handler
 1844              	.LVL142:
 1845              	.L106:
 701:Core/Src/main.c ****   }
 1846              		.loc 1 701 5 view .LVU493
 1847 0070 FFF7FEFF 		bl	Error_Handler
 1848              	.LVL143:
 1849              	.L107:
 710:Core/Src/main.c ****   }
 1850              		.loc 1 710 5 view .LVU494
 1851 0074 FFF7FEFF 		bl	Error_Handler
 1852              	.LVL144:
ARM GAS  /tmp/cczzewXT.s 			page 64


 1853              	.L109:
 1854              		.align	2
 1855              	.L108:
 1856 0078 00000000 		.word	hrtc
 1857 007c 00280040 		.word	1073752064
 1858              		.cfi_endproc
 1859              	.LFE239:
 1861              		.section	.text.MX_I2C2_Init,"ax",%progbits
 1862              		.align	1
 1863              		.syntax unified
 1864              		.thumb
 1865              		.thumb_func
 1867              	MX_I2C2_Init:
 1868              	.LFB234:
 473:Core/Src/main.c **** 
 1869              		.loc 1 473 1 view -0
 1870              		.cfi_startproc
 1871              		@ args = 0, pretend = 0, frame = 0
 1872              		@ frame_needed = 0, uses_anonymous_args = 0
 1873 0000 08B5     		push	{r3, lr}
 1874              		.cfi_def_cfa_offset 8
 1875              		.cfi_offset 3, -8
 1876              		.cfi_offset 14, -4
 482:Core/Src/main.c ****   hi2c2.Init.Timing = 0x10D19CE4;
 1877              		.loc 1 482 3 view .LVU496
 482:Core/Src/main.c ****   hi2c2.Init.Timing = 0x10D19CE4;
 1878              		.loc 1 482 18 is_stmt 0 view .LVU497
 1879 0002 1148     		ldr	r0, .L118
 1880 0004 114B     		ldr	r3, .L118+4
 1881 0006 0360     		str	r3, [r0]
 483:Core/Src/main.c ****   hi2c2.Init.OwnAddress1 = 0;
 1882              		.loc 1 483 3 is_stmt 1 view .LVU498
 483:Core/Src/main.c ****   hi2c2.Init.OwnAddress1 = 0;
 1883              		.loc 1 483 21 is_stmt 0 view .LVU499
 1884 0008 114B     		ldr	r3, .L118+8
 1885 000a 4360     		str	r3, [r0, #4]
 484:Core/Src/main.c ****   hi2c2.Init.AddressingMode = I2C_ADDRESSINGMODE_7BIT;
 1886              		.loc 1 484 3 is_stmt 1 view .LVU500
 484:Core/Src/main.c ****   hi2c2.Init.AddressingMode = I2C_ADDRESSINGMODE_7BIT;
 1887              		.loc 1 484 26 is_stmt 0 view .LVU501
 1888 000c 0023     		movs	r3, #0
 1889 000e 8360     		str	r3, [r0, #8]
 485:Core/Src/main.c ****   hi2c2.Init.DualAddressMode = I2C_DUALADDRESS_DISABLE;
 1890              		.loc 1 485 3 is_stmt 1 view .LVU502
 485:Core/Src/main.c ****   hi2c2.Init.DualAddressMode = I2C_DUALADDRESS_DISABLE;
 1891              		.loc 1 485 29 is_stmt 0 view .LVU503
 1892 0010 0122     		movs	r2, #1
 1893 0012 C260     		str	r2, [r0, #12]
 486:Core/Src/main.c ****   hi2c2.Init.OwnAddress2 = 0;
 1894              		.loc 1 486 3 is_stmt 1 view .LVU504
 486:Core/Src/main.c ****   hi2c2.Init.OwnAddress2 = 0;
 1895              		.loc 1 486 30 is_stmt 0 view .LVU505
 1896 0014 0361     		str	r3, [r0, #16]
 487:Core/Src/main.c ****   hi2c2.Init.OwnAddress2Masks = I2C_OA2_NOMASK;
 1897              		.loc 1 487 3 is_stmt 1 view .LVU506
 487:Core/Src/main.c ****   hi2c2.Init.OwnAddress2Masks = I2C_OA2_NOMASK;
 1898              		.loc 1 487 26 is_stmt 0 view .LVU507
ARM GAS  /tmp/cczzewXT.s 			page 65


 1899 0016 4361     		str	r3, [r0, #20]
 488:Core/Src/main.c ****   hi2c2.Init.GeneralCallMode = I2C_GENERALCALL_DISABLE;
 1900              		.loc 1 488 3 is_stmt 1 view .LVU508
 488:Core/Src/main.c ****   hi2c2.Init.GeneralCallMode = I2C_GENERALCALL_DISABLE;
 1901              		.loc 1 488 31 is_stmt 0 view .LVU509
 1902 0018 8361     		str	r3, [r0, #24]
 489:Core/Src/main.c ****   hi2c2.Init.NoStretchMode = I2C_NOSTRETCH_DISABLE;
 1903              		.loc 1 489 3 is_stmt 1 view .LVU510
 489:Core/Src/main.c ****   hi2c2.Init.NoStretchMode = I2C_NOSTRETCH_DISABLE;
 1904              		.loc 1 489 30 is_stmt 0 view .LVU511
 1905 001a C361     		str	r3, [r0, #28]
 490:Core/Src/main.c ****   if (HAL_I2C_Init(&hi2c2) != HAL_OK)
 1906              		.loc 1 490 3 is_stmt 1 view .LVU512
 490:Core/Src/main.c ****   if (HAL_I2C_Init(&hi2c2) != HAL_OK)
 1907              		.loc 1 490 28 is_stmt 0 view .LVU513
 1908 001c 0362     		str	r3, [r0, #32]
 491:Core/Src/main.c ****   {
 1909              		.loc 1 491 3 is_stmt 1 view .LVU514
 491:Core/Src/main.c ****   {
 1910              		.loc 1 491 7 is_stmt 0 view .LVU515
 1911 001e FFF7FEFF 		bl	HAL_I2C_Init
 1912              	.LVL145:
 491:Core/Src/main.c ****   {
 1913              		.loc 1 491 6 discriminator 1 view .LVU516
 1914 0022 50B9     		cbnz	r0, .L115
 498:Core/Src/main.c ****   {
 1915              		.loc 1 498 3 is_stmt 1 view .LVU517
 498:Core/Src/main.c ****   {
 1916              		.loc 1 498 7 is_stmt 0 view .LVU518
 1917 0024 0146     		mov	r1, r0
 1918 0026 0848     		ldr	r0, .L118
 1919 0028 FFF7FEFF 		bl	HAL_I2CEx_ConfigAnalogFilter
 1920              	.LVL146:
 498:Core/Src/main.c ****   {
 1921              		.loc 1 498 6 discriminator 1 view .LVU519
 1922 002c 38B9     		cbnz	r0, .L116
 505:Core/Src/main.c ****   {
 1923              		.loc 1 505 3 is_stmt 1 view .LVU520
 505:Core/Src/main.c ****   {
 1924              		.loc 1 505 7 is_stmt 0 view .LVU521
 1925 002e 0146     		mov	r1, r0
 1926 0030 0548     		ldr	r0, .L118
 1927 0032 FFF7FEFF 		bl	HAL_I2CEx_ConfigDigitalFilter
 1928              	.LVL147:
 505:Core/Src/main.c ****   {
 1929              		.loc 1 505 6 discriminator 1 view .LVU522
 1930 0036 20B9     		cbnz	r0, .L117
 513:Core/Src/main.c **** 
 1931              		.loc 1 513 1 view .LVU523
 1932 0038 08BD     		pop	{r3, pc}
 1933              	.L115:
 493:Core/Src/main.c ****   }
 1934              		.loc 1 493 5 is_stmt 1 view .LVU524
 1935 003a FFF7FEFF 		bl	Error_Handler
 1936              	.LVL148:
 1937              	.L116:
 500:Core/Src/main.c ****   }
ARM GAS  /tmp/cczzewXT.s 			page 66


 1938              		.loc 1 500 5 view .LVU525
 1939 003e FFF7FEFF 		bl	Error_Handler
 1940              	.LVL149:
 1941              	.L117:
 507:Core/Src/main.c ****   }
 1942              		.loc 1 507 5 view .LVU526
 1943 0042 FFF7FEFF 		bl	Error_Handler
 1944              	.LVL150:
 1945              	.L119:
 1946 0046 00BF     		.align	2
 1947              	.L118:
 1948 0048 00000000 		.word	hi2c2
 1949 004c 00580040 		.word	1073764352
 1950 0050 E49CD110 		.word	282172644
 1951              		.cfi_endproc
 1952              	.LFE234:
 1954              		.section	.text.MX_USART1_UART_Init,"ax",%progbits
 1955              		.align	1
 1956              		.syntax unified
 1957              		.thumb
 1958              		.thumb_func
 1960              	MX_USART1_UART_Init:
 1961              	.LFB236:
 555:Core/Src/main.c **** 
 1962              		.loc 1 555 1 view -0
 1963              		.cfi_startproc
 1964              		@ args = 0, pretend = 0, frame = 0
 1965              		@ frame_needed = 0, uses_anonymous_args = 0
 1966 0000 08B5     		push	{r3, lr}
 1967              		.cfi_def_cfa_offset 8
 1968              		.cfi_offset 3, -8
 1969              		.cfi_offset 14, -4
 564:Core/Src/main.c ****   huart1.Init.BaudRate = 115200;
 1970              		.loc 1 564 3 view .LVU528
 564:Core/Src/main.c ****   huart1.Init.BaudRate = 115200;
 1971              		.loc 1 564 19 is_stmt 0 view .LVU529
 1972 0002 0B48     		ldr	r0, .L124
 1973 0004 0B4B     		ldr	r3, .L124+4
 1974 0006 0360     		str	r3, [r0]
 565:Core/Src/main.c ****   huart1.Init.WordLength = UART_WORDLENGTH_8B;
 1975              		.loc 1 565 3 is_stmt 1 view .LVU530
 565:Core/Src/main.c ****   huart1.Init.WordLength = UART_WORDLENGTH_8B;
 1976              		.loc 1 565 24 is_stmt 0 view .LVU531
 1977 0008 4FF4E133 		mov	r3, #115200
 1978 000c 4360     		str	r3, [r0, #4]
 566:Core/Src/main.c ****   huart1.Init.StopBits = UART_STOPBITS_1;
 1979              		.loc 1 566 3 is_stmt 1 view .LVU532
 566:Core/Src/main.c ****   huart1.Init.StopBits = UART_STOPBITS_1;
 1980              		.loc 1 566 26 is_stmt 0 view .LVU533
 1981 000e 0023     		movs	r3, #0
 1982 0010 8360     		str	r3, [r0, #8]
 567:Core/Src/main.c ****   huart1.Init.Parity = UART_PARITY_NONE;
 1983              		.loc 1 567 3 is_stmt 1 view .LVU534
 567:Core/Src/main.c ****   huart1.Init.Parity = UART_PARITY_NONE;
 1984              		.loc 1 567 24 is_stmt 0 view .LVU535
 1985 0012 C360     		str	r3, [r0, #12]
 568:Core/Src/main.c ****   huart1.Init.Mode = UART_MODE_TX_RX;
ARM GAS  /tmp/cczzewXT.s 			page 67


 1986              		.loc 1 568 3 is_stmt 1 view .LVU536
 568:Core/Src/main.c ****   huart1.Init.Mode = UART_MODE_TX_RX;
 1987              		.loc 1 568 22 is_stmt 0 view .LVU537
 1988 0014 0361     		str	r3, [r0, #16]
 569:Core/Src/main.c ****   huart1.Init.HwFlowCtl = UART_HWCONTROL_NONE;
 1989              		.loc 1 569 3 is_stmt 1 view .LVU538
 569:Core/Src/main.c ****   huart1.Init.HwFlowCtl = UART_HWCONTROL_NONE;
 1990              		.loc 1 569 20 is_stmt 0 view .LVU539
 1991 0016 0C22     		movs	r2, #12
 1992 0018 4261     		str	r2, [r0, #20]
 570:Core/Src/main.c ****   huart1.Init.OverSampling = UART_OVERSAMPLING_16;
 1993              		.loc 1 570 3 is_stmt 1 view .LVU540
 570:Core/Src/main.c ****   huart1.Init.OverSampling = UART_OVERSAMPLING_16;
 1994              		.loc 1 570 25 is_stmt 0 view .LVU541
 1995 001a 8361     		str	r3, [r0, #24]
 571:Core/Src/main.c ****   huart1.Init.OneBitSampling = UART_ONE_BIT_SAMPLE_DISABLE;
 1996              		.loc 1 571 3 is_stmt 1 view .LVU542
 571:Core/Src/main.c ****   huart1.Init.OneBitSampling = UART_ONE_BIT_SAMPLE_DISABLE;
 1997              		.loc 1 571 28 is_stmt 0 view .LVU543
 1998 001c C361     		str	r3, [r0, #28]
 572:Core/Src/main.c ****   huart1.AdvancedInit.AdvFeatureInit = UART_ADVFEATURE_NO_INIT;
 1999              		.loc 1 572 3 is_stmt 1 view .LVU544
 572:Core/Src/main.c ****   huart1.AdvancedInit.AdvFeatureInit = UART_ADVFEATURE_NO_INIT;
 2000              		.loc 1 572 30 is_stmt 0 view .LVU545
 2001 001e 0362     		str	r3, [r0, #32]
 573:Core/Src/main.c ****   if (HAL_UART_Init(&huart1) != HAL_OK)
 2002              		.loc 1 573 3 is_stmt 1 view .LVU546
 573:Core/Src/main.c ****   if (HAL_UART_Init(&huart1) != HAL_OK)
 2003              		.loc 1 573 38 is_stmt 0 view .LVU547
 2004 0020 4362     		str	r3, [r0, #36]
 574:Core/Src/main.c ****   {
 2005              		.loc 1 574 3 is_stmt 1 view .LVU548
 574:Core/Src/main.c ****   {
 2006              		.loc 1 574 7 is_stmt 0 view .LVU549
 2007 0022 FFF7FEFF 		bl	HAL_UART_Init
 2008              	.LVL151:
 574:Core/Src/main.c ****   {
 2009              		.loc 1 574 6 discriminator 1 view .LVU550
 2010 0026 00B9     		cbnz	r0, .L123
 582:Core/Src/main.c **** 
 2011              		.loc 1 582 1 view .LVU551
 2012 0028 08BD     		pop	{r3, pc}
 2013              	.L123:
 576:Core/Src/main.c ****   }
 2014              		.loc 1 576 5 is_stmt 1 view .LVU552
 2015 002a FFF7FEFF 		bl	Error_Handler
 2016              	.LVL152:
 2017              	.L125:
 2018 002e 00BF     		.align	2
 2019              	.L124:
 2020 0030 00000000 		.word	huart1
 2021 0034 00380140 		.word	1073821696
 2022              		.cfi_endproc
 2023              	.LFE236:
 2025              		.section	.rodata.MX_SDMMC1_SD_Init.str1.4,"aMS",%progbits,1
 2026              		.align	2
 2027              	.LC25:
ARM GAS  /tmp/cczzewXT.s 			page 68


 2028 0000 53442043 		.ascii	"SD CARD INIT\015\012\000"
 2028      41524420 
 2028      494E4954 
 2028      0D0A00
 2029              		.section	.text.MX_SDMMC1_SD_Init,"ax",%progbits
 2030              		.align	1
 2031              		.syntax unified
 2032              		.thumb
 2033              		.thumb_func
 2035              	MX_SDMMC1_SD_Init:
 2036              	.LFB240:
 724:Core/Src/main.c **** 
 2037              		.loc 1 724 1 view -0
 2038              		.cfi_startproc
 2039              		@ args = 0, pretend = 0, frame = 0
 2040              		@ frame_needed = 0, uses_anonymous_args = 0
 2041 0000 08B5     		push	{r3, lr}
 2042              		.cfi_def_cfa_offset 8
 2043              		.cfi_offset 3, -8
 2044              		.cfi_offset 14, -4
 733:Core/Src/main.c ****   hsd1.Init.ClockEdge = SDMMC_CLOCK_EDGE_RISING;
 2045              		.loc 1 733 3 view .LVU554
 733:Core/Src/main.c ****   hsd1.Init.ClockEdge = SDMMC_CLOCK_EDGE_RISING;
 2046              		.loc 1 733 17 is_stmt 0 view .LVU555
 2047 0002 1848     		ldr	r0, .L136
 2048 0004 184B     		ldr	r3, .L136+4
 2049 0006 0360     		str	r3, [r0]
 734:Core/Src/main.c ****   hsd1.Init.ClockBypass = SDMMC_CLOCK_BYPASS_DISABLE;
 2050              		.loc 1 734 3 is_stmt 1 view .LVU556
 734:Core/Src/main.c ****   hsd1.Init.ClockBypass = SDMMC_CLOCK_BYPASS_DISABLE;
 2051              		.loc 1 734 23 is_stmt 0 view .LVU557
 2052 0008 0023     		movs	r3, #0
 2053 000a 4360     		str	r3, [r0, #4]
 735:Core/Src/main.c ****   hsd1.Init.ClockPowerSave = SDMMC_CLOCK_POWER_SAVE_DISABLE;
 2054              		.loc 1 735 3 is_stmt 1 view .LVU558
 735:Core/Src/main.c ****   hsd1.Init.ClockPowerSave = SDMMC_CLOCK_POWER_SAVE_DISABLE;
 2055              		.loc 1 735 25 is_stmt 0 view .LVU559
 2056 000c 8360     		str	r3, [r0, #8]
 736:Core/Src/main.c ****   hsd1.Init.BusWide = SDMMC_BUS_WIDE_4B;
 2057              		.loc 1 736 3 is_stmt 1 view .LVU560
 736:Core/Src/main.c ****   hsd1.Init.BusWide = SDMMC_BUS_WIDE_4B;
 2058              		.loc 1 736 28 is_stmt 0 view .LVU561
 2059 000e C360     		str	r3, [r0, #12]
 737:Core/Src/main.c ****   hsd1.Init.HardwareFlowControl = SDMMC_HARDWARE_FLOW_CONTROL_ENABLE;
 2060              		.loc 1 737 3 is_stmt 1 view .LVU562
 737:Core/Src/main.c ****   hsd1.Init.HardwareFlowControl = SDMMC_HARDWARE_FLOW_CONTROL_ENABLE;
 2061              		.loc 1 737 21 is_stmt 0 view .LVU563
 2062 0010 4FF40062 		mov	r2, #2048
 2063 0014 0261     		str	r2, [r0, #16]
 738:Core/Src/main.c ****   hsd1.Init.ClockDiv = 0;
 2064              		.loc 1 738 3 is_stmt 1 view .LVU564
 738:Core/Src/main.c ****   hsd1.Init.ClockDiv = 0;
 2065              		.loc 1 738 33 is_stmt 0 view .LVU565
 2066 0016 4FF48042 		mov	r2, #16384
 2067 001a 4261     		str	r2, [r0, #20]
 739:Core/Src/main.c ****   if (HAL_SD_Init(&hsd1) != HAL_OK)
 2068              		.loc 1 739 3 is_stmt 1 view .LVU566
ARM GAS  /tmp/cczzewXT.s 			page 69


 739:Core/Src/main.c ****   if (HAL_SD_Init(&hsd1) != HAL_OK)
 2069              		.loc 1 739 22 is_stmt 0 view .LVU567
 2070 001c 8361     		str	r3, [r0, #24]
 740:Core/Src/main.c ****   {
 2071              		.loc 1 740 3 is_stmt 1 view .LVU568
 740:Core/Src/main.c ****   {
 2072              		.loc 1 740 7 is_stmt 0 view .LVU569
 2073 001e FFF7FEFF 		bl	HAL_SD_Init
 2074              	.LVL153:
 740:Core/Src/main.c ****   {
 2075              		.loc 1 740 6 discriminator 1 view .LVU570
 2076 0022 B0B9     		cbnz	r0, .L132
 744:Core/Src/main.c ****   {
 2077              		.loc 1 744 3 is_stmt 1 view .LVU571
 744:Core/Src/main.c ****   {
 2078              		.loc 1 744 7 is_stmt 0 view .LVU572
 2079 0024 4FF40061 		mov	r1, #2048
 2080 0028 0E48     		ldr	r0, .L136
 2081 002a FFF7FEFF 		bl	HAL_SD_ConfigWideBusOperation
 2082              	.LVL154:
 744:Core/Src/main.c ****   {
 2083              		.loc 1 744 6 discriminator 1 view .LVU573
 2084 002e 90B9     		cbnz	r0, .L133
 751:Core/Src/main.c ****   if (HAL_SD_Init(&hsd1) != HAL_OK) {
 2085              		.loc 1 751 3 is_stmt 1 view .LVU574
 751:Core/Src/main.c ****   if (HAL_SD_Init(&hsd1) != HAL_OK) {
 2086              		.loc 1 751 21 is_stmt 0 view .LVU575
 2087 0030 0C48     		ldr	r0, .L136
 2088 0032 0023     		movs	r3, #0
 2089 0034 0361     		str	r3, [r0, #16]
 752:Core/Src/main.c ****      Error_Handler();
 2090              		.loc 1 752 3 is_stmt 1 view .LVU576
 752:Core/Src/main.c ****      Error_Handler();
 2091              		.loc 1 752 7 is_stmt 0 view .LVU577
 2092 0036 FFF7FEFF 		bl	HAL_SD_Init
 2093              	.LVL155:
 752:Core/Src/main.c ****      Error_Handler();
 2094              		.loc 1 752 6 discriminator 1 view .LVU578
 2095 003a 70B9     		cbnz	r0, .L134
 757:Core/Src/main.c ****     Error_Handler();
 2096              		.loc 1 757 2 is_stmt 1 view .LVU579
 757:Core/Src/main.c ****     Error_Handler();
 2097              		.loc 1 757 6 is_stmt 0 view .LVU580
 2098 003c 4FF40061 		mov	r1, #2048
 2099 0040 0848     		ldr	r0, .L136
 2100 0042 FFF7FEFF 		bl	HAL_SD_ConfigWideBusOperation
 2101              	.LVL156:
 757:Core/Src/main.c ****     Error_Handler();
 2102              		.loc 1 757 5 discriminator 1 view .LVU581
 2103 0046 50B9     		cbnz	r0, .L135
 761:Core/Src/main.c ****   
 2104              		.loc 1 761 3 is_stmt 1 view .LVU582
 2105 0048 0849     		ldr	r1, .L136+8
 2106 004a 0948     		ldr	r0, .L136+12
 2107 004c FFF7FEFF 		bl	UART_SendString
 2108              	.LVL157:
 767:Core/Src/main.c **** 
ARM GAS  /tmp/cczzewXT.s 			page 70


 2109              		.loc 1 767 1 is_stmt 0 view .LVU583
 2110 0050 08BD     		pop	{r3, pc}
 2111              	.L132:
 742:Core/Src/main.c ****   }
 2112              		.loc 1 742 5 is_stmt 1 view .LVU584
 2113 0052 FFF7FEFF 		bl	Error_Handler
 2114              	.LVL158:
 2115              	.L133:
 746:Core/Src/main.c ****   }
 2116              		.loc 1 746 5 view .LVU585
 2117 0056 FFF7FEFF 		bl	Error_Handler
 2118              	.LVL159:
 2119              	.L134:
 753:Core/Src/main.c ****   }
 2120              		.loc 1 753 6 view .LVU586
 2121 005a FFF7FEFF 		bl	Error_Handler
 2122              	.LVL160:
 2123              	.L135:
 758:Core/Src/main.c ****  }
 2124              		.loc 1 758 5 view .LVU587
 2125 005e FFF7FEFF 		bl	Error_Handler
 2126              	.LVL161:
 2127              	.L137:
 2128 0062 00BF     		.align	2
 2129              	.L136:
 2130 0064 00000000 		.word	hsd1
 2131 0068 00280140 		.word	1073817600
 2132 006c 00000000 		.word	.LC25
 2133 0070 00000000 		.word	huart3
 2134              		.cfi_endproc
 2135              	.LFE240:
 2137              		.section	.text.SystemClock_Config,"ax",%progbits
 2138              		.align	1
 2139              		.global	SystemClock_Config
 2140              		.syntax unified
 2141              		.thumb
 2142              		.thumb_func
 2144              	SystemClock_Config:
 2145              	.LFB233:
 418:Core/Src/main.c ****   RCC_OscInitTypeDef RCC_OscInitStruct = {0};
 2146              		.loc 1 418 1 view -0
 2147              		.cfi_startproc
 2148              		@ args = 0, pretend = 0, frame = 88
 2149              		@ frame_needed = 0, uses_anonymous_args = 0
 2150 0000 00B5     		push	{lr}
 2151              		.cfi_def_cfa_offset 4
 2152              		.cfi_offset 14, -4
 2153 0002 97B0     		sub	sp, sp, #92
 2154              		.cfi_def_cfa_offset 96
 419:Core/Src/main.c ****   RCC_ClkInitTypeDef RCC_ClkInitStruct = {0};
 2155              		.loc 1 419 3 view .LVU589
 419:Core/Src/main.c ****   RCC_ClkInitTypeDef RCC_ClkInitStruct = {0};
 2156              		.loc 1 419 22 is_stmt 0 view .LVU590
 2157 0004 4422     		movs	r2, #68
 2158 0006 0021     		movs	r1, #0
 2159 0008 05A8     		add	r0, sp, #20
 2160 000a FFF7FEFF 		bl	memset
ARM GAS  /tmp/cczzewXT.s 			page 71


 2161              	.LVL162:
 420:Core/Src/main.c **** 
 2162              		.loc 1 420 3 is_stmt 1 view .LVU591
 420:Core/Src/main.c **** 
 2163              		.loc 1 420 22 is_stmt 0 view .LVU592
 2164 000e 0023     		movs	r3, #0
 2165 0010 0093     		str	r3, [sp]
 2166 0012 0193     		str	r3, [sp, #4]
 2167 0014 0293     		str	r3, [sp, #8]
 2168 0016 0393     		str	r3, [sp, #12]
 2169 0018 0493     		str	r3, [sp, #16]
 424:Core/Src/main.c ****   {
 2170              		.loc 1 424 3 is_stmt 1 view .LVU593
 424:Core/Src/main.c ****   {
 2171              		.loc 1 424 7 is_stmt 0 view .LVU594
 2172 001a 4FF40070 		mov	r0, #512
 2173 001e FFF7FEFF 		bl	HAL_PWREx_ControlVoltageScaling
 2174              	.LVL163:
 424:Core/Src/main.c ****   {
 2175              		.loc 1 424 6 discriminator 1 view .LVU595
 2176 0022 48BB     		cbnz	r0, .L143
 432:Core/Src/main.c ****                               |RCC_OSCILLATORTYPE_MSI;
 2177              		.loc 1 432 3 is_stmt 1 view .LVU596
 432:Core/Src/main.c ****                               |RCC_OSCILLATORTYPE_MSI;
 2178              		.loc 1 432 36 is_stmt 0 view .LVU597
 2179 0024 1A23     		movs	r3, #26
 2180 0026 0593     		str	r3, [sp, #20]
 434:Core/Src/main.c ****   RCC_OscInitStruct.HSICalibrationValue = RCC_HSICALIBRATION_DEFAULT;
 2181              		.loc 1 434 3 is_stmt 1 view .LVU598
 434:Core/Src/main.c ****   RCC_OscInitStruct.HSICalibrationValue = RCC_HSICALIBRATION_DEFAULT;
 2182              		.loc 1 434 30 is_stmt 0 view .LVU599
 2183 0028 4FF48073 		mov	r3, #256
 2184 002c 0893     		str	r3, [sp, #32]
 435:Core/Src/main.c ****   RCC_OscInitStruct.LSIState = RCC_LSI_ON;
 2185              		.loc 1 435 3 is_stmt 1 view .LVU600
 435:Core/Src/main.c ****   RCC_OscInitStruct.LSIState = RCC_LSI_ON;
 2186              		.loc 1 435 41 is_stmt 0 view .LVU601
 2187 002e 1023     		movs	r3, #16
 2188 0030 0993     		str	r3, [sp, #36]
 436:Core/Src/main.c ****   RCC_OscInitStruct.MSIState = RCC_MSI_ON;
 2189              		.loc 1 436 3 is_stmt 1 view .LVU602
 436:Core/Src/main.c ****   RCC_OscInitStruct.MSIState = RCC_MSI_ON;
 2190              		.loc 1 436 30 is_stmt 0 view .LVU603
 2191 0032 0123     		movs	r3, #1
 2192 0034 0A93     		str	r3, [sp, #40]
 437:Core/Src/main.c ****   RCC_OscInitStruct.MSICalibrationValue = 0;
 2193              		.loc 1 437 3 is_stmt 1 view .LVU604
 437:Core/Src/main.c ****   RCC_OscInitStruct.MSICalibrationValue = 0;
 2194              		.loc 1 437 30 is_stmt 0 view .LVU605
 2195 0036 0B93     		str	r3, [sp, #44]
 438:Core/Src/main.c ****   RCC_OscInitStruct.MSIClockRange = RCC_MSIRANGE_6;
 2196              		.loc 1 438 3 is_stmt 1 view .LVU606
 438:Core/Src/main.c ****   RCC_OscInitStruct.MSIClockRange = RCC_MSIRANGE_6;
 2197              		.loc 1 438 41 is_stmt 0 view .LVU607
 2198 0038 0C90     		str	r0, [sp, #48]
 439:Core/Src/main.c ****   RCC_OscInitStruct.PLL.PLLState = RCC_PLL_ON;
 2199              		.loc 1 439 3 is_stmt 1 view .LVU608
ARM GAS  /tmp/cczzewXT.s 			page 72


 439:Core/Src/main.c ****   RCC_OscInitStruct.PLL.PLLState = RCC_PLL_ON;
 2200              		.loc 1 439 35 is_stmt 0 view .LVU609
 2201 003a 6022     		movs	r2, #96
 2202 003c 0D92     		str	r2, [sp, #52]
 440:Core/Src/main.c ****   RCC_OscInitStruct.PLL.PLLSource = RCC_PLLSOURCE_MSI;
 2203              		.loc 1 440 3 is_stmt 1 view .LVU610
 440:Core/Src/main.c ****   RCC_OscInitStruct.PLL.PLLSource = RCC_PLLSOURCE_MSI;
 2204              		.loc 1 440 34 is_stmt 0 view .LVU611
 2205 003e 0222     		movs	r2, #2
 2206 0040 0F92     		str	r2, [sp, #60]
 441:Core/Src/main.c ****   RCC_OscInitStruct.PLL.PLLM = 1;
 2207              		.loc 1 441 3 is_stmt 1 view .LVU612
 441:Core/Src/main.c ****   RCC_OscInitStruct.PLL.PLLM = 1;
 2208              		.loc 1 441 35 is_stmt 0 view .LVU613
 2209 0042 1093     		str	r3, [sp, #64]
 442:Core/Src/main.c ****   RCC_OscInitStruct.PLL.PLLN = 40;
 2210              		.loc 1 442 3 is_stmt 1 view .LVU614
 442:Core/Src/main.c ****   RCC_OscInitStruct.PLL.PLLN = 40;
 2211              		.loc 1 442 30 is_stmt 0 view .LVU615
 2212 0044 1193     		str	r3, [sp, #68]
 443:Core/Src/main.c ****   RCC_OscInitStruct.PLL.PLLP = RCC_PLLP_DIV7;
 2213              		.loc 1 443 3 is_stmt 1 view .LVU616
 443:Core/Src/main.c ****   RCC_OscInitStruct.PLL.PLLP = RCC_PLLP_DIV7;
 2214              		.loc 1 443 30 is_stmt 0 view .LVU617
 2215 0046 2823     		movs	r3, #40
 2216 0048 1293     		str	r3, [sp, #72]
 444:Core/Src/main.c ****   RCC_OscInitStruct.PLL.PLLQ = RCC_PLLQ_DIV4;
 2217              		.loc 1 444 3 is_stmt 1 view .LVU618
 444:Core/Src/main.c ****   RCC_OscInitStruct.PLL.PLLQ = RCC_PLLQ_DIV4;
 2218              		.loc 1 444 30 is_stmt 0 view .LVU619
 2219 004a 0723     		movs	r3, #7
 2220 004c 1393     		str	r3, [sp, #76]
 445:Core/Src/main.c ****   RCC_OscInitStruct.PLL.PLLR = RCC_PLLR_DIV2;
 2221              		.loc 1 445 3 is_stmt 1 view .LVU620
 445:Core/Src/main.c ****   RCC_OscInitStruct.PLL.PLLR = RCC_PLLR_DIV2;
 2222              		.loc 1 445 30 is_stmt 0 view .LVU621
 2223 004e 0423     		movs	r3, #4
 2224 0050 1493     		str	r3, [sp, #80]
 446:Core/Src/main.c ****   if (HAL_RCC_OscConfig(&RCC_OscInitStruct) != HAL_OK)
 2225              		.loc 1 446 3 is_stmt 1 view .LVU622
 446:Core/Src/main.c ****   if (HAL_RCC_OscConfig(&RCC_OscInitStruct) != HAL_OK)
 2226              		.loc 1 446 30 is_stmt 0 view .LVU623
 2227 0052 1592     		str	r2, [sp, #84]
 447:Core/Src/main.c ****   {
 2228              		.loc 1 447 3 is_stmt 1 view .LVU624
 447:Core/Src/main.c ****   {
 2229              		.loc 1 447 7 is_stmt 0 view .LVU625
 2230 0054 05A8     		add	r0, sp, #20
 2231 0056 FFF7FEFF 		bl	HAL_RCC_OscConfig
 2232              	.LVL164:
 447:Core/Src/main.c ****   {
 2233              		.loc 1 447 6 discriminator 1 view .LVU626
 2234 005a 78B9     		cbnz	r0, .L144
 454:Core/Src/main.c ****                               |RCC_CLOCKTYPE_PCLK1|RCC_CLOCKTYPE_PCLK2;
 2235              		.loc 1 454 3 is_stmt 1 view .LVU627
 454:Core/Src/main.c ****                               |RCC_CLOCKTYPE_PCLK1|RCC_CLOCKTYPE_PCLK2;
 2236              		.loc 1 454 31 is_stmt 0 view .LVU628
ARM GAS  /tmp/cczzewXT.s 			page 73


 2237 005c 0F23     		movs	r3, #15
 2238 005e 0093     		str	r3, [sp]
 456:Core/Src/main.c ****   RCC_ClkInitStruct.AHBCLKDivider = RCC_SYSCLK_DIV1;
 2239              		.loc 1 456 3 is_stmt 1 view .LVU629
 456:Core/Src/main.c ****   RCC_ClkInitStruct.AHBCLKDivider = RCC_SYSCLK_DIV1;
 2240              		.loc 1 456 34 is_stmt 0 view .LVU630
 2241 0060 0323     		movs	r3, #3
 2242 0062 0193     		str	r3, [sp, #4]
 457:Core/Src/main.c ****   RCC_ClkInitStruct.APB1CLKDivider = RCC_HCLK_DIV1;
 2243              		.loc 1 457 3 is_stmt 1 view .LVU631
 457:Core/Src/main.c ****   RCC_ClkInitStruct.APB1CLKDivider = RCC_HCLK_DIV1;
 2244              		.loc 1 457 35 is_stmt 0 view .LVU632
 2245 0064 0290     		str	r0, [sp, #8]
 458:Core/Src/main.c ****   RCC_ClkInitStruct.APB2CLKDivider = RCC_HCLK_DIV1;
 2246              		.loc 1 458 3 is_stmt 1 view .LVU633
 458:Core/Src/main.c ****   RCC_ClkInitStruct.APB2CLKDivider = RCC_HCLK_DIV1;
 2247              		.loc 1 458 36 is_stmt 0 view .LVU634
 2248 0066 0390     		str	r0, [sp, #12]
 459:Core/Src/main.c **** 
 2249              		.loc 1 459 3 is_stmt 1 view .LVU635
 459:Core/Src/main.c **** 
 2250              		.loc 1 459 36 is_stmt 0 view .LVU636
 2251 0068 0490     		str	r0, [sp, #16]
 461:Core/Src/main.c ****   {
 2252              		.loc 1 461 3 is_stmt 1 view .LVU637
 461:Core/Src/main.c ****   {
 2253              		.loc 1 461 7 is_stmt 0 view .LVU638
 2254 006a 0421     		movs	r1, #4
 2255 006c 6846     		mov	r0, sp
 2256 006e FFF7FEFF 		bl	HAL_RCC_ClockConfig
 2257              	.LVL165:
 461:Core/Src/main.c ****   {
 2258              		.loc 1 461 6 discriminator 1 view .LVU639
 2259 0072 28B9     		cbnz	r0, .L145
 465:Core/Src/main.c **** 
 2260              		.loc 1 465 1 view .LVU640
 2261 0074 17B0     		add	sp, sp, #92
 2262              		.cfi_remember_state
 2263              		.cfi_def_cfa_offset 4
 2264              		@ sp needed
 2265 0076 00BD     		pop	{pc}
 2266              	.L143:
 2267              		.cfi_restore_state
 426:Core/Src/main.c ****   }
 2268              		.loc 1 426 5 is_stmt 1 view .LVU641
 2269 0078 FFF7FEFF 		bl	Error_Handler
 2270              	.LVL166:
 2271              	.L144:
 449:Core/Src/main.c ****   }
 2272              		.loc 1 449 5 view .LVU642
 2273 007c FFF7FEFF 		bl	Error_Handler
 2274              	.LVL167:
 2275              	.L145:
 463:Core/Src/main.c ****   }
 2276              		.loc 1 463 5 view .LVU643
 2277 0080 FFF7FEFF 		bl	Error_Handler
 2278              	.LVL168:
ARM GAS  /tmp/cczzewXT.s 			page 74


 2279              		.cfi_endproc
 2280              	.LFE233:
 2282              		.section	.rodata.main.str1.4,"aMS",%progbits,1
 2283              		.align	2
 2284              	.LC26:
 2285 0000 53455455 		.ascii	"SETUP\015\012\000"
 2285      500D0A00 
 2286              		.align	2
 2287              	.LC27:
 2288 0008 4C4F5241 		.ascii	"LORA DATA READY\015\012\000"
 2288      20444154 
 2288      41205245 
 2288      4144590D 
 2288      0A00
 2289 001a 0000     		.align	2
 2290              	.LC28:
 2291 001c 25303258 		.ascii	"%02X \000"
 2291      2000
 2292 0022 0000     		.align	2
 2293              	.LC29:
 2294 0024 576F6B65 		.ascii	"Woke from LPUART!\015\012\000"
 2294      2066726F 
 2294      6D204C50 
 2294      55415254 
 2294      210D0A00 
 2295              		.align	2
 2296              	.LC30:
 2297 0038 576F6B65 		.ascii	"Woke from GPIO!\015\012\000"
 2297      2066726F 
 2297      6D204750 
 2297      494F210D 
 2297      0A00
 2298 004a 0000     		.align	2
 2299              	.LC31:
 2300 004c 46697273 		.ascii	"First half of buffer ready\015\012\000"
 2300      74206861 
 2300      6C66206F 
 2300      66206275 
 2300      66666572 
 2301 0069 000000   		.align	2
 2302              	.LC32:
 2303 006c 5365636F 		.ascii	"Second half of buffer ready\015\012\000"
 2303      6E642068 
 2303      616C6620 
 2303      6F662062 
 2303      75666665 
 2304 008a 0000     		.align	2
 2305              	.LC33:
 2306 008c 52656365 		.ascii	"Received %d bytes:\015\012\000"
 2306      69766564 
 2306      20256420 
 2306      62797465 
 2306      733A0D0A 
 2307 00a1 000000   		.align	2
 2308              	.LC34:
 2309 00a4 576F6B65 		.ascii	"Woke from RTC!\015\012\000"
 2309      2066726F 
ARM GAS  /tmp/cczzewXT.s 			page 75


 2309      6D205254 
 2309      43210D0A 
 2309      00
 2310 00b5 000000   		.align	2
 2311              	.LC35:
 2312 00b8 5768696C 		.ascii	"While exit\012\000"
 2312      65206578 
 2312      69740A00 
 2313              		.section	.text.main,"ax",%progbits
 2314              		.align	1
 2315              		.global	main
 2316              		.syntax unified
 2317              		.thumb
 2318              		.thumb_func
 2320              	main:
 2321              	.LFB232:
 162:Core/Src/main.c **** 
 2322              		.loc 1 162 1 view -0
 2323              		.cfi_startproc
 2324              		@ args = 0, pretend = 0, frame = 184
 2325              		@ frame_needed = 0, uses_anonymous_args = 0
 2326 0000 70B5     		push	{r4, r5, r6, lr}
 2327              		.cfi_def_cfa_offset 16
 2328              		.cfi_offset 4, -16
 2329              		.cfi_offset 5, -12
 2330              		.cfi_offset 6, -8
 2331              		.cfi_offset 14, -4
 2332 0002 AEB0     		sub	sp, sp, #184
 2333              		.cfi_def_cfa_offset 200
 171:Core/Src/main.c **** 
 2334              		.loc 1 171 3 view .LVU645
 2335 0004 FFF7FEFF 		bl	HAL_Init
 2336              	.LVL169:
 178:Core/Src/main.c **** 
 2337              		.loc 1 178 3 view .LVU646
 2338 0008 FFF7FEFF 		bl	SystemClock_Config
 2339              	.LVL170:
 186:Core/Src/main.c ****     PeriphClkInit.PeriphClockSelection = RCC_PERIPHCLK_LPUART1;
 2340              		.loc 1 186 5 view .LVU647
 186:Core/Src/main.c ****     PeriphClkInit.PeriphClockSelection = RCC_PERIPHCLK_LPUART1;
 2341              		.loc 1 186 30 is_stmt 0 view .LVU648
 2342 000c 0CAC     		add	r4, sp, #48
 2343 000e 8822     		movs	r2, #136
 2344 0010 0021     		movs	r1, #0
 2345 0012 2046     		mov	r0, r4
 2346 0014 FFF7FEFF 		bl	memset
 2347              	.LVL171:
 187:Core/Src/main.c ****     PeriphClkInit.Lpuart1ClockSelection = RCC_LPUART1CLKSOURCE_HSI;
 2348              		.loc 1 187 5 is_stmt 1 view .LVU649
 187:Core/Src/main.c ****     PeriphClkInit.Lpuart1ClockSelection = RCC_LPUART1CLKSOURCE_HSI;
 2349              		.loc 1 187 40 is_stmt 0 view .LVU650
 2350 0018 2023     		movs	r3, #32
 2351 001a 0C93     		str	r3, [sp, #48]
 188:Core/Src/main.c ****     if (HAL_RCCEx_PeriphCLKConfig(&PeriphClkInit) != HAL_OK)
 2352              		.loc 1 188 5 is_stmt 1 view .LVU651
 188:Core/Src/main.c ****     if (HAL_RCCEx_PeriphCLKConfig(&PeriphClkInit) != HAL_OK)
 2353              		.loc 1 188 41 is_stmt 0 view .LVU652
ARM GAS  /tmp/cczzewXT.s 			page 76


 2354 001c 4FF40063 		mov	r3, #2048
 2355 0020 1F93     		str	r3, [sp, #124]
 189:Core/Src/main.c ****     {
 2356              		.loc 1 189 5 is_stmt 1 view .LVU653
 189:Core/Src/main.c ****     {
 2357              		.loc 1 189 9 is_stmt 0 view .LVU654
 2358 0022 2046     		mov	r0, r4
 2359 0024 FFF7FEFF 		bl	HAL_RCCEx_PeriphCLKConfig
 2360              	.LVL172:
 189:Core/Src/main.c ****     {
 2361              		.loc 1 189 8 discriminator 1 view .LVU655
 2362 0028 0028     		cmp	r0, #0
 2363 002a 51D1     		bne	.L160
 194:Core/Src/main.c **** 
 2364              		.loc 1 194 5 is_stmt 1 view .LVU656
 2365 002c 804A     		ldr	r2, .L168
 2366 002e 1368     		ldr	r3, [r2]
 2367 0030 43F40073 		orr	r3, r3, #512
 2368 0034 1360     		str	r3, [r2]
 199:Core/Src/main.c ****   MX_DMA_Init();
 2369              		.loc 1 199 3 view .LVU657
 2370 0036 FFF7FEFF 		bl	MX_GPIO_Init
 2371              	.LVL173:
 200:Core/Src/main.c ****   MX_LPUART1_UART_Init();
 2372              		.loc 1 200 3 view .LVU658
 2373 003a FFF7FEFF 		bl	MX_DMA_Init
 2374              	.LVL174:
 201:Core/Src/main.c ****   MX_USART2_UART_Init();
 2375              		.loc 1 201 3 view .LVU659
 2376 003e FFF7FEFF 		bl	MX_LPUART1_UART_Init
 2377              	.LVL175:
 202:Core/Src/main.c ****   MX_USART3_UART_Init();
 2378              		.loc 1 202 3 view .LVU660
 2379 0042 FFF7FEFF 		bl	MX_USART2_UART_Init
 2380              	.LVL176:
 203:Core/Src/main.c ****   MX_SPI1_Init();
 2381              		.loc 1 203 3 view .LVU661
 2382 0046 FFF7FEFF 		bl	MX_USART3_UART_Init
 2383              	.LVL177:
 204:Core/Src/main.c ****   MX_RTC_Init();
 2384              		.loc 1 204 3 view .LVU662
 2385 004a FFF7FEFF 		bl	MX_SPI1_Init
 2386              	.LVL178:
 205:Core/Src/main.c ****   MX_I2C2_Init();
 2387              		.loc 1 205 3 view .LVU663
 2388 004e FFF7FEFF 		bl	MX_RTC_Init
 2389              	.LVL179:
 206:Core/Src/main.c ****   MX_SDMMC1_SD_Init();
 2390              		.loc 1 206 3 view .LVU664
 2391 0052 FFF7FEFF 		bl	MX_I2C2_Init
 2392              	.LVL180:
 207:Core/Src/main.c ****   MX_USART1_UART_Init();
 2393              		.loc 1 207 3 view .LVU665
 2394 0056 FFF7FEFF 		bl	MX_SDMMC1_SD_Init
 2395              	.LVL181:
 208:Core/Src/main.c ****   /* USER CODE BEGIN 2 */
 2396              		.loc 1 208 3 view .LVU666
ARM GAS  /tmp/cczzewXT.s 			page 77


 2397 005a FFF7FEFF 		bl	MX_USART1_UART_Init
 2398              	.LVL182:
 212:Core/Src/main.c **** 
 2399              		.loc 1 212 3 view .LVU667
 2400 005e 4FF44052 		mov	r2, #12288
 2401 0062 7449     		ldr	r1, .L168+4
 2402 0064 7448     		ldr	r0, .L168+8
 2403 0066 FFF7FEFF 		bl	HAL_UARTEx_ReceiveToIdle_DMA
 2404              	.LVL183:
 215:Core/Src/main.c ****   // This allows the debugger to keep communicating even if the CPU enters SLEEP, STOP, or STANDBY
 2405              		.loc 1 215 1 view .LVU668
 2406 006a FA22     		movs	r2, #250
 2407 006c 7349     		ldr	r1, .L168+12
 2408 006e 7448     		ldr	r0, .L168+16
 2409 0070 FFF7FEFF 		bl	HAL_UARTEx_ReceiveToIdle_IT
 2410              	.LVL184:
 217:Core/Src/main.c ****   HAL_DBGMCU_EnableDBGStopMode();
 2411              		.loc 1 217 3 view .LVU669
 2412 0074 FFF7FEFF 		bl	HAL_DBGMCU_EnableDBGSleepMode
 2413              	.LVL185:
 218:Core/Src/main.c ****   HAL_DBGMCU_EnableDBGStandbyMode();
 2414              		.loc 1 218 3 view .LVU670
 2415 0078 FFF7FEFF 		bl	HAL_DBGMCU_EnableDBGStopMode
 2416              	.LVL186:
 219:Core/Src/main.c **** 
 2417              		.loc 1 219 3 view .LVU671
 2418 007c FFF7FEFF 		bl	HAL_DBGMCU_EnableDBGStandbyMode
 2419              	.LVL187:
 222:Core/Src/main.c ****   HAL_GPIO_WritePin(Wi_GPIO_0_GPIO_Port, Wi_GPIO_0_Pin, GPIO_PIN_SET);
 2420              		.loc 1 222 3 view .LVU672
 2421 0080 704C     		ldr	r4, .L168+20
 2422 0082 0122     		movs	r2, #1
 2423 0084 0421     		movs	r1, #4
 2424 0086 2046     		mov	r0, r4
 2425 0088 FFF7FEFF 		bl	HAL_GPIO_WritePin
 2426              	.LVL188:
 223:Core/Src/main.c **** 
 2427              		.loc 1 223 3 view .LVU673
 2428 008c 0122     		movs	r2, #1
 2429 008e 8021     		movs	r1, #128
 2430 0090 2046     		mov	r0, r4
 2431 0092 FFF7FEFF 		bl	HAL_GPIO_WritePin
 2432              	.LVL189:
 225:Core/Src/main.c **** 
 2433              		.loc 1 225 3 view .LVU674
 2434 0096 6C4C     		ldr	r4, .L168+24
 2435 0098 6C49     		ldr	r1, .L168+28
 2436 009a 2046     		mov	r0, r4
 2437 009c FFF7FEFF 		bl	UART_SendString
 2438              	.LVL190:
 230:Core/Src/main.c ****   SD_IO_Init(&huart3); 
 2439              		.loc 1 230 3 view .LVU675
 2440 00a0 FFF7FEFF 		bl	Print_SD_Details
 2441              	.LVL191:
 231:Core/Src/main.c ****   SD_RawWriteTest();
 2442              		.loc 1 231 3 view .LVU676
 2443 00a4 2046     		mov	r0, r4
ARM GAS  /tmp/cczzewXT.s 			page 78


 2444 00a6 FFF7FEFF 		bl	SD_IO_Init
 2445              	.LVL192:
 232:Core/Src/main.c **** 
 2446              		.loc 1 232 3 view .LVU677
 2447 00aa FFF7FEFF 		bl	SD_RawWriteTest
 2448              	.LVL193:
 234:Core/Src/main.c ****   SD_Stream_Init(&huart3);
 2449              		.loc 1 234 3 view .LVU678
 234:Core/Src/main.c ****   SD_Stream_Init(&huart3);
 2450              		.loc 1 234 18 is_stmt 0 view .LVU679
 2451 00ae FFF7FEFF 		bl	SD_ReadUptime
 2452              	.LVL194:
 234:Core/Src/main.c ****   SD_Stream_Init(&huart3);
 2453              		.loc 1 234 16 discriminator 1 view .LVU680
 2454 00b2 674B     		ldr	r3, .L168+32
 2455 00b4 1860     		str	r0, [r3]
 235:Core/Src/main.c ****   HAL_Delay(500);
 2456              		.loc 1 235 3 is_stmt 1 view .LVU681
 2457 00b6 2046     		mov	r0, r4
 2458 00b8 FFF7FEFF 		bl	SD_Stream_Init
 2459              	.LVL195:
 236:Core/Src/main.c **** 
 2460              		.loc 1 236 3 view .LVU682
 2461 00bc 4FF4FA70 		mov	r0, #500
 2462 00c0 FFF7FEFF 		bl	HAL_Delay
 2463              	.LVL196:
 246:Core/Src/main.c ****   while(0); // stick heref
 2464              		.loc 1 246 3 view .LVU683
 247:Core/Src/main.c ****   { HAL_Delay(1000);
 2465              		.loc 1 247 3 view .LVU684
 247:Core/Src/main.c ****   { HAL_Delay(1000);
 2466              		.loc 1 247 8 view .LVU685
 248:Core/Src/main.c ****     //UART_SendString(&huart3, "Hello from main loop\r\n");
 2467              		.loc 1 248 5 view .LVU686
 2468 00c4 4FF47A70 		mov	r0, #1000
 2469 00c8 FFF7FEFF 		bl	HAL_Delay
 2470              	.LVL197:
 251:Core/Src/main.c ****   { 
 2471              		.loc 1 251 3 view .LVU687
 246:Core/Src/main.c ****   while(0); // stick heref
 2472              		.loc 1 246 7 is_stmt 0 view .LVU688
 2473 00cc 0026     		movs	r6, #0
 251:Core/Src/main.c ****   { 
 2474              		.loc 1 251 9 view .LVU689
 2475 00ce 56E0     		b	.L148
 2476              	.LVL198:
 2477              	.L160:
 191:Core/Src/main.c ****     }
 2478              		.loc 1 191 9 is_stmt 1 view .LVU690
 2479 00d0 FFF7FEFF 		bl	Error_Handler
 2480              	.LVL199:
 2481              	.L163:
 2482              	.LBB22:
 261:Core/Src/main.c ****           UART_SendString(&huart3, "LORA DATA READY\r\n"); 
 2483              		.loc 1 261 9 view .LVU691
 261:Core/Src/main.c ****           UART_SendString(&huart3, "LORA DATA READY\r\n"); 
 2484              		.loc 1 261 23 is_stmt 0 view .LVU692
ARM GAS  /tmp/cczzewXT.s 			page 79


 2485 00d4 0024     		movs	r4, #0
 2486 00d6 5F4B     		ldr	r3, .L168+36
 2487 00d8 1C70     		strb	r4, [r3]
 262:Core/Src/main.c ****           char hex[8];
 2488              		.loc 1 262 11 is_stmt 1 view .LVU693
 2489 00da 5F49     		ldr	r1, .L168+40
 2490 00dc 5A48     		ldr	r0, .L168+24
 2491 00de FFF7FEFF 		bl	UART_SendString
 2492              	.LVL200:
 263:Core/Src/main.c ****           for (uint16_t i = 0; i < lora_rx_len; i++)
 2493              		.loc 1 263 11 view .LVU694
 264:Core/Src/main.c ****           {
 2494              		.loc 1 264 11 view .LVU695
 2495              	.LBB23:
 264:Core/Src/main.c ****           {
 2496              		.loc 1 264 16 view .LVU696
 264:Core/Src/main.c ****           {
 2497              		.loc 1 264 11 is_stmt 0 view .LVU697
 2498 00e2 0CE0     		b	.L150
 2499              	.LVL201:
 2500              	.L151:
 266:Core/Src/main.c ****               UART_SendString(&huart3, hex);
 2501              		.loc 1 266 15 is_stmt 1 view .LVU698
 2502 00e4 554B     		ldr	r3, .L168+12
 2503 00e6 1B5D     		ldrb	r3, [r3, r4]	@ zero_extendqisi2
 2504 00e8 5C4A     		ldr	r2, .L168+44
 2505 00ea 0821     		movs	r1, #8
 2506 00ec 6846     		mov	r0, sp
 2507 00ee FFF7FEFF 		bl	snprintf
 2508              	.LVL202:
 267:Core/Src/main.c ****           }
 2509              		.loc 1 267 15 view .LVU699
 2510 00f2 6946     		mov	r1, sp
 2511 00f4 5448     		ldr	r0, .L168+24
 2512 00f6 FFF7FEFF 		bl	UART_SendString
 2513              	.LVL203:
 264:Core/Src/main.c ****           {
 2514              		.loc 1 264 50 discriminator 3 view .LVU700
 2515 00fa 0134     		adds	r4, r4, #1
 2516              	.LVL204:
 264:Core/Src/main.c ****           {
 2517              		.loc 1 264 50 is_stmt 0 discriminator 3 view .LVU701
 2518 00fc A4B2     		uxth	r4, r4
 2519              	.LVL205:
 2520              	.L150:
 264:Core/Src/main.c ****           {
 2521              		.loc 1 264 34 is_stmt 1 discriminator 1 view .LVU702
 2522 00fe 584B     		ldr	r3, .L168+48
 2523 0100 1B88     		ldrh	r3, [r3]
 2524 0102 A342     		cmp	r3, r4
 2525 0104 EED8     		bhi	.L151
 2526 0106 42E0     		b	.L149
 2527              	.LVL206:
 2528              	.L164:
 264:Core/Src/main.c ****           {
 2529              		.loc 1 264 34 is_stmt 0 discriminator 1 view .LVU703
 2530              	.LBE23:
ARM GAS  /tmp/cczzewXT.s 			page 80


 2531              	.LBE22:
 272:Core/Src/main.c ****       // decode commands
 2532              		.loc 1 272 7 is_stmt 1 view .LVU704
 2533 0108 5649     		ldr	r1, .L168+52
 2534 010a 4F48     		ldr	r0, .L168+24
 2535 010c FFF7FEFF 		bl	UART_SendString
 2536              	.LVL207:
 2537 0110 41E0     		b	.L152
 2538              	.L165:
 277:Core/Src/main.c ****       // Check time 
 2539              		.loc 1 277 7 view .LVU705
 2540 0112 5549     		ldr	r1, .L168+56
 2541 0114 4C48     		ldr	r0, .L168+24
 2542 0116 FFF7FEFF 		bl	UART_SendString
 2543              	.LVL208:
 2544 011a 40E0     		b	.L153
 2545              	.L166:
 284:Core/Src/main.c ****                 UART_SendString(&huart3, "First half of buffer ready\r\n");
 2546              		.loc 1 284 17 view .LVU706
 284:Core/Src/main.c ****                 UART_SendString(&huart3, "First half of buffer ready\r\n");
 2547              		.loc 1 284 37 is_stmt 0 view .LVU707
 2548 011c 534B     		ldr	r3, .L168+60
 2549 011e 0022     		movs	r2, #0
 2550 0120 1A70     		strb	r2, [r3]
 285:Core/Src/main.c ****                 
 2551              		.loc 1 285 17 is_stmt 1 view .LVU708
 2552 0122 5349     		ldr	r1, .L168+64
 2553 0124 4848     		ldr	r0, .L168+24
 2554 0126 FFF7FEFF 		bl	UART_SendString
 2555              	.LVL209:
 288:Core/Src/main.c ****                 MX_SDMMC1_SD_Init();        // re-init SDMMC peripheral
 2556              		.loc 1 288 17 view .LVU709
 2557 012a 5248     		ldr	r0, .L168+68
 2558 012c FFF7FEFF 		bl	HAL_SD_DeInit
 2559              	.LVL210:
 289:Core/Src/main.c ****                 //HAL_Delay(100);
 2560              		.loc 1 289 17 view .LVU710
 2561 0130 FFF7FEFF 		bl	MX_SDMMC1_SD_Init
 2562              	.LVL211:
 293:Core/Src/main.c ****                 //HAL_GPIO_TogglePin(Lo_GPIO_0_GPIO_Port, Lo_GPIO_0_Pin);
 2563              		.loc 1 293 17 view .LVU711
 2564 0134 4FF4C051 		mov	r1, #6144
 2565 0138 3E48     		ldr	r0, .L168+4
 2566 013a FFF7FEFF 		bl	SD_Stream_WriteHalf
 2567              	.LVL212:
 295:Core/Src/main.c ****               }
 2568              		.loc 1 295 17 view .LVU712
 2569 013e FFF7FEFF 		bl	SD_Stream_Flush
 2570              	.LVL213:
 2571              	.L155:
 324:Core/Src/main.c **** 
 2572              		.loc 1 324 5 view .LVU713
 2573 0142 4FF4FA70 		mov	r0, #500
 2574 0146 FFF7FEFF 		bl	HAL_Delay
 2575              	.LVL214:
 339:Core/Src/main.c ****       UART_SendString(&huart3, "Woke from RTC!\r\n"); 
 2576              		.loc 1 339 5 view .LVU714
ARM GAS  /tmp/cczzewXT.s 			page 81


 339:Core/Src/main.c ****       UART_SendString(&huart3, "Woke from RTC!\r\n"); 
 2577              		.loc 1 339 21 is_stmt 0 view .LVU715
 2578 014a 4B4B     		ldr	r3, .L168+72
 2579 014c 1B78     		ldrb	r3, [r3]	@ zero_extendqisi2
 339:Core/Src/main.c ****       UART_SendString(&huart3, "Woke from RTC!\r\n"); 
 2580              		.loc 1 339 8 view .LVU716
 2581 014e 012B     		cmp	r3, #1
 2582 0150 55D0     		beq	.L161
 2583              	.L157:
 350:Core/Src/main.c ****     // Configure RTC wakeup
 2584              		.loc 1 350 5 is_stmt 1 view .LVU717
 350:Core/Src/main.c ****     // Configure RTC wakeup
 2585              		.loc 1 350 17 is_stmt 0 view .LVU718
 2586 0152 0024     		movs	r4, #0
 2587 0154 484B     		ldr	r3, .L168+72
 2588 0156 1C70     		strb	r4, [r3]
 352:Core/Src/main.c ****       
 2589              		.loc 1 352 5 is_stmt 1 view .LVU719
 2590 0158 0422     		movs	r2, #4
 2591 015a 0A21     		movs	r1, #10
 2592 015c 4748     		ldr	r0, .L168+76
 2593 015e FFF7FEFF 		bl	HAL_RTCEx_SetWakeUpTimer_IT
 2594              	.LVL215:
 355:Core/Src/main.c ****   
 2595              		.loc 1 355 5 view .LVU720
 2596 0162 474B     		ldr	r3, .L168+80
 2597 0164 4FF40062 		mov	r2, #2048
 2598 0168 5A61     		str	r2, [r3, #20]
 362:Core/Src/main.c ****     HAL_PWR_EnterSLEEPMode(PWR_MAINREGULATOR_ON, PWR_SLEEPENTRY_WFI);  //SLEEP NOT STOP 
 2599              		.loc 1 362 5 view .LVU721
 2600 016a FFF7FEFF 		bl	HAL_SuspendTick
 2601              	.LVL216:
 363:Core/Src/main.c ****     //HAL_PWR_EnterSTOPMode(PWR_MAINREGULATOR_ON, PWR_STOPENTRY_WFI); // LPUART ISNT WORKING IN THI
 2602              		.loc 1 363 5 view .LVU722
 2603 016e 0121     		movs	r1, #1
 2604 0170 2046     		mov	r0, r4
 2605 0172 FFF7FEFF 		bl	HAL_PWR_EnterSLEEPMode
 2606              	.LVL217:
 365:Core/Src/main.c ****     HAL_ResumeTick();
 2607              		.loc 1 365 5 view .LVU723
 2608 0176 FFF7FEFF 		bl	SystemClock_Config
 2609              	.LVL218:
 366:Core/Src/main.c **** 
 2610              		.loc 1 366 5 view .LVU724
 2611 017a FFF7FEFF 		bl	HAL_ResumeTick
 2612              	.LVL219:
 2613              	.L148:
 251:Core/Src/main.c ****   { 
 2614              		.loc 1 251 12 view .LVU725
 2615 017e 414B     		ldr	r3, .L168+84
 2616 0180 9E42     		cmp	r6, r3
 2617 0182 41DA     		bge	.L162
 253:Core/Src/main.c ****     //UART_SendString(&huart3, "From within \rf\n");
 2618              		.loc 1 253 5 view .LVU726
 253:Core/Src/main.c ****     //UART_SendString(&huart3, "From within \rf\n");
 2619              		.loc 1 253 6 is_stmt 0 view .LVU727
 2620 0184 0136     		adds	r6, r6, #1
ARM GAS  /tmp/cczzewXT.s 			page 82


 2621              	.LVL220:
 260:Core/Src/main.c ****         lora_rx_ready = 0;
 2622              		.loc 1 260 7 is_stmt 1 view .LVU728
 260:Core/Src/main.c ****         lora_rx_ready = 0;
 2623              		.loc 1 260 11 is_stmt 0 view .LVU729
 2624 0186 334B     		ldr	r3, .L168+36
 2625 0188 1B78     		ldrb	r3, [r3]	@ zero_extendqisi2
 260:Core/Src/main.c ****         lora_rx_ready = 0;
 2626              		.loc 1 260 10 view .LVU730
 2627 018a 002B     		cmp	r3, #0
 2628 018c A2D1     		bne	.L163
 2629              	.L149:
 271:Core/Src/main.c ****       UART_SendString(&huart3, "Woke from LPUART!\r\n"); 
 2630              		.loc 1 271 7 is_stmt 1 view .LVU731
 271:Core/Src/main.c ****       UART_SendString(&huart3, "Woke from LPUART!\r\n"); 
 2631              		.loc 1 271 23 is_stmt 0 view .LVU732
 2632 018e 3A4B     		ldr	r3, .L168+72
 2633 0190 1B78     		ldrb	r3, [r3]	@ zero_extendqisi2
 271:Core/Src/main.c ****       UART_SendString(&huart3, "Woke from LPUART!\r\n"); 
 2634              		.loc 1 271 10 view .LVU733
 2635 0192 032B     		cmp	r3, #3
 2636 0194 B8D0     		beq	.L164
 2637              	.L152:
 276:Core/Src/main.c ****       UART_SendString(&huart3, "Woke from GPIO!\r\n"); 
 2638              		.loc 1 276 7 is_stmt 1 view .LVU734
 276:Core/Src/main.c ****       UART_SendString(&huart3, "Woke from GPIO!\r\n"); 
 2639              		.loc 1 276 23 is_stmt 0 view .LVU735
 2640 0196 384B     		ldr	r3, .L168+72
 2641 0198 1B78     		ldrb	r3, [r3]	@ zero_extendqisi2
 276:Core/Src/main.c ****       UART_SendString(&huart3, "Woke from GPIO!\r\n"); 
 2642              		.loc 1 276 10 view .LVU736
 2643 019a 022B     		cmp	r3, #2
 2644 019c B9D0     		beq	.L165
 2645              	.L153:
 283:Core/Src/main.c ****                 cb_write_first_half = 0;
 2646              		.loc 1 283 15 is_stmt 1 view .LVU737
 283:Core/Src/main.c ****                 cb_write_first_half = 0;
 2647              		.loc 1 283 19 is_stmt 0 view .LVU738
 2648 019e 334B     		ldr	r3, .L168+60
 2649 01a0 1B78     		ldrb	r3, [r3]	@ zero_extendqisi2
 283:Core/Src/main.c ****                 cb_write_first_half = 0;
 2650              		.loc 1 283 18 view .LVU739
 2651 01a2 002B     		cmp	r3, #0
 2652 01a4 BAD1     		bne	.L166
 297:Core/Src/main.c ****                 cb_write_second_half = 0;
 2653              		.loc 1 297 20 is_stmt 1 view .LVU740
 297:Core/Src/main.c ****                 cb_write_second_half = 0;
 2654              		.loc 1 297 24 is_stmt 0 view .LVU741
 2655 01a6 384B     		ldr	r3, .L168+88
 2656 01a8 1B78     		ldrb	r3, [r3]	@ zero_extendqisi2
 297:Core/Src/main.c ****                 cb_write_second_half = 0;
 2657              		.loc 1 297 23 view .LVU742
 2658 01aa A3B9     		cbnz	r3, .L167
 310:Core/Src/main.c ****               {
 2659              		.loc 1 310 20 is_stmt 1 view .LVU743
 310:Core/Src/main.c ****               {
 2660              		.loc 1 310 24 is_stmt 0 view .LVU744
ARM GAS  /tmp/cczzewXT.s 			page 83


 2661 01ac 374B     		ldr	r3, .L168+92
 2662 01ae 1B78     		ldrb	r3, [r3]	@ zero_extendqisi2
 310:Core/Src/main.c ****               {
 2663              		.loc 1 310 23 view .LVU745
 2664 01b0 002B     		cmp	r3, #0
 2665 01b2 C6D0     		beq	.L155
 2666              	.LBB24:
 312:Core/Src/main.c ****                 // End of transmissoin
 2667              		.loc 1 312 17 is_stmt 1 view .LVU746
 312:Core/Src/main.c ****                 // End of transmissoin
 2668              		.loc 1 312 27 is_stmt 0 view .LVU747
 2669 01b4 354B     		ldr	r3, .L168+92
 2670 01b6 0022     		movs	r2, #0
 2671 01b8 1A70     		strb	r2, [r3]
 314:Core/Src/main.c ****                 sprintf(hdr, "Received %d bytes:\r\n", rxLen);
 2672              		.loc 1 314 17 is_stmt 1 view .LVU748
 315:Core/Src/main.c ****                 UART_SendString(&huart3, hdr);
 2673              		.loc 1 315 17 view .LVU749
 2674 01ba 354B     		ldr	r3, .L168+96
 2675 01bc 1A88     		ldrh	r2, [r3]
 2676 01be 92B2     		uxth	r2, r2
 2677 01c0 3449     		ldr	r1, .L168+100
 2678 01c2 6846     		mov	r0, sp
 2679 01c4 FFF7FEFF 		bl	sprintf
 2680              	.LVL221:
 316:Core/Src/main.c **** 
 2681              		.loc 1 316 17 view .LVU750
 2682 01c8 6946     		mov	r1, sp
 2683 01ca 1F48     		ldr	r0, .L168+24
 2684 01cc FFF7FEFF 		bl	UART_SendString
 2685              	.LVL222:
 321:Core/Src/main.c ****               }
 2686              		.loc 1 321 18 view .LVU751
 2687 01d0 FFF7FEFF 		bl	SD_Stream_Flush
 2688              	.LVL223:
 2689 01d4 B5E7     		b	.L155
 2690              	.L167:
 2691              	.LBE24:
 298:Core/Src/main.c ****                 UART_SendString(&huart3, "Second half of buffer ready\r\n");
 2692              		.loc 1 298 17 view .LVU752
 298:Core/Src/main.c ****                 UART_SendString(&huart3, "Second half of buffer ready\r\n");
 2693              		.loc 1 298 38 is_stmt 0 view .LVU753
 2694 01d6 2C4B     		ldr	r3, .L168+88
 2695 01d8 0022     		movs	r2, #0
 2696 01da 1A70     		strb	r2, [r3]
 299:Core/Src/main.c ****                 // RE-INIT SD CARD
 2697              		.loc 1 299 17 is_stmt 1 view .LVU754
 2698 01dc 2E49     		ldr	r1, .L168+104
 2699 01de 1A48     		ldr	r0, .L168+24
 2700 01e0 FFF7FEFF 		bl	UART_SendString
 2701              	.LVL224:
 301:Core/Src/main.c ****                 MX_SDMMC1_SD_Init();        // re-init SDMMC peripheral
 2702              		.loc 1 301 17 view .LVU755
 2703 01e4 2348     		ldr	r0, .L168+68
 2704 01e6 FFF7FEFF 		bl	HAL_SD_DeInit
 2705              	.LVL225:
 302:Core/Src/main.c ****                 //HAL_Delay(100);
ARM GAS  /tmp/cczzewXT.s 			page 84


 2706              		.loc 1 302 17 view .LVU756
 2707 01ea FFF7FEFF 		bl	MX_SDMMC1_SD_Init
 2708              	.LVL226:
 306:Core/Src/main.c ****                 //HAL_GPIO_TogglePin(Lo_GPIO_0_GPIO_Port, Lo_GPIO_0_Pin);
 2709              		.loc 1 306 17 view .LVU757
 2710 01ee 4FF4C051 		mov	r1, #6144
 2711 01f2 2A48     		ldr	r0, .L168+108
 2712 01f4 FFF7FEFF 		bl	SD_Stream_WriteSecondHalf
 2713              	.LVL227:
 308:Core/Src/main.c ****               }
 2714              		.loc 1 308 17 view .LVU758
 2715 01f8 FFF7FEFF 		bl	SD_Stream_Flush
 2716              	.LVL228:
 2717 01fc A1E7     		b	.L155
 2718              	.L161:
 340:Core/Src/main.c ****       // Check time 
 2719              		.loc 1 340 7 view .LVU759
 2720 01fe 2849     		ldr	r1, .L168+112
 2721 0200 1148     		ldr	r0, .L168+24
 2722 0202 FFF7FEFF 		bl	UART_SendString
 2723              	.LVL229:
 2724 0206 A4E7     		b	.L157
 2725              	.L162:
 398:Core/Src/main.c ****   HAL_Delay(500);  // give card time to settle
 2726              		.loc 1 398 3 view .LVU760
 2727 0208 FFF7FEFF 		bl	SD_Stream_Flush
 2728              	.LVL230:
 399:Core/Src/main.c ****   UART_SendString(&huart3, "While exit\n");
 2729              		.loc 1 399 3 view .LVU761
 2730 020c 4FF4FA70 		mov	r0, #500
 2731 0210 FFF7FEFF 		bl	HAL_Delay
 2732              	.LVL231:
 400:Core/Src/main.c ****   uint32_t sectors_written_read = SD_Stream_GetCurrentSector() - DATA_START_SECTOR;
 2733              		.loc 1 400 3 view .LVU762
 2734 0214 2349     		ldr	r1, .L168+116
 2735 0216 0C48     		ldr	r0, .L168+24
 2736 0218 FFF7FEFF 		bl	UART_SendString
 2737              	.LVL232:
 401:Core/Src/main.c **** 
 2738              		.loc 1 401 3 view .LVU763
 401:Core/Src/main.c **** 
 2739              		.loc 1 401 35 is_stmt 0 view .LVU764
 2740 021c FFF7FEFF 		bl	SD_Stream_GetCurrentSector
 2741              	.LVL233:
 2742 0220 0146     		mov	r1, r0
 2743              	.LVL234:
 404:Core/Src/main.c ****   //SD_Stream_ReadDebug(DATA_START_SECTOR, sectors_written_read);
 2744              		.loc 1 404 3 is_stmt 1 view .LVU765
 2745 0222 4FF40060 		mov	r0, #2048
 2746              	.LVL235:
 404:Core/Src/main.c ****   //SD_Stream_ReadDebug(DATA_START_SECTOR, sectors_written_read);
 2747              		.loc 1 404 3 is_stmt 0 view .LVU766
 2748 0226 FFF7FEFF 		bl	SD_Stream_ReadDebug
 2749              	.LVL236:
 411:Core/Src/main.c **** 
 2750              		.loc 1 411 1 view .LVU767
 2751 022a 0020     		movs	r0, #0
ARM GAS  /tmp/cczzewXT.s 			page 85


 2752 022c 2EB0     		add	sp, sp, #184
 2753              		.cfi_def_cfa_offset 16
 2754              		@ sp needed
 2755 022e 70BD     		pop	{r4, r5, r6, pc}
 2756              	.LVL237:
 2757              	.L169:
 411:Core/Src/main.c **** 
 2758              		.loc 1 411 1 view .LVU768
 2759              		.align	2
 2760              	.L168:
 2761 0230 00100240 		.word	1073876992
 2762 0234 00000000 		.word	rxBuffer
 2763 0238 00000000 		.word	huart1
 2764 023c 00000000 		.word	lora_rx_buf
 2765 0240 00000000 		.word	hlpuart1
 2766 0244 00080048 		.word	1207961600
 2767 0248 00000000 		.word	huart3
 2768 024c 00000000 		.word	.LC26
 2769 0250 00000000 		.word	total_uptime
 2770 0254 00000000 		.word	lora_rx_ready
 2771 0258 08000000 		.word	.LC27
 2772 025c 1C000000 		.word	.LC28
 2773 0260 00000000 		.word	lora_rx_len
 2774 0264 24000000 		.word	.LC29
 2775 0268 38000000 		.word	.LC30
 2776 026c 00000000 		.word	cb_write_first_half
 2777 0270 4C000000 		.word	.LC31
 2778 0274 00000000 		.word	hsd1
 2779 0278 00000000 		.word	wake_source
 2780 027c 00000000 		.word	hrtc
 2781 0280 00040140 		.word	1073808384
 2782 0284 80969800 		.word	10000000
 2783 0288 00000000 		.word	cb_write_second_half
 2784 028c 00000000 		.word	dataReady
 2785 0290 00000000 		.word	rxLen
 2786 0294 8C000000 		.word	.LC33
 2787 0298 6C000000 		.word	.LC32
 2788 029c 00180000 		.word	rxBuffer+6144
 2789 02a0 A4000000 		.word	.LC34
 2790 02a4 B8000000 		.word	.LC35
 2791              		.cfi_endproc
 2792              	.LFE232:
 2794              		.section	.bss.largeTestBuf,"aw",%nobits
 2795              		.align	2
 2798              	largeTestBuf:
 2799 0000 00000000 		.space	16384
 2799      00000000 
 2799      00000000 
 2799      00000000 
 2799      00000000 
 2800              		.global	dataReady
 2801              		.section	.bss.dataReady,"aw",%nobits
 2804              	dataReady:
 2805 0000 00       		.space	1
 2806              		.global	rxLen
 2807              		.section	.bss.rxLen,"aw",%nobits
 2808              		.align	1
ARM GAS  /tmp/cczzewXT.s 			page 86


 2811              	rxLen:
 2812 0000 0000     		.space	2
 2813              		.global	rxBuffer
 2814              		.section	.bss.rxBuffer,"aw",%nobits
 2815              		.align	2
 2818              	rxBuffer:
 2819 0000 00000000 		.space	12288
 2819      00000000 
 2819      00000000 
 2819      00000000 
 2819      00000000 
 2820              		.global	uart_active
 2821              		.section	.bss.uart_active,"aw",%nobits
 2824              	uart_active:
 2825 0000 00       		.space	1
 2826              		.global	cb_write_second_half
 2827              		.section	.bss.cb_write_second_half,"aw",%nobits
 2830              	cb_write_second_half:
 2831 0000 00       		.space	1
 2832              		.global	cb_write_first_half
 2833              		.section	.bss.cb_write_first_half,"aw",%nobits
 2836              	cb_write_first_half:
 2837 0000 00       		.space	1
 2838              		.global	halfTransferFired
 2839              		.section	.bss.halfTransferFired,"aw",%nobits
 2842              	halfTransferFired:
 2843 0000 00       		.space	1
 2844              		.global	wake_source
 2845              		.section	.bss.wake_source,"aw",%nobits
 2848              	wake_source:
 2849 0000 00       		.space	1
 2850              		.global	rxBuf
 2851              		.section	.bss.rxBuf,"aw",%nobits
 2852              		.align	2
 2855              	rxBuf:
 2856 0000 00000000 		.space	512
 2856      00000000 
 2856      00000000 
 2856      00000000 
 2856      00000000 
 2857              		.global	total_uptime_filename
 2858              		.section	.rodata.total_uptime_filename,"a"
 2859              		.align	2
 2862              	total_uptime_filename:
 2863 0000 55505449 		.ascii	"UPTIME.txt\000"
 2863      4D452E74 
 2863      787400
 2864              		.global	total_uptime
 2865              		.section	.bss.total_uptime,"aw",%nobits
 2866              		.align	2
 2869              	total_uptime:
 2870 0000 00000000 		.space	4
 2871              		.global	hspi1
 2872              		.section	.bss.hspi1,"aw",%nobits
 2873              		.align	2
 2876              	hspi1:
 2877 0000 00000000 		.space	100
ARM GAS  /tmp/cczzewXT.s 			page 87


 2877      00000000 
 2877      00000000 
 2877      00000000 
 2877      00000000 
 2878              		.global	hdma_sdmmc1_tx
 2879              		.section	.bss.hdma_sdmmc1_tx,"aw",%nobits
 2880              		.align	2
 2883              	hdma_sdmmc1_tx:
 2884 0000 00000000 		.space	72
 2884      00000000 
 2884      00000000 
 2884      00000000 
 2884      00000000 
 2885              		.global	hdma_sdmmc1_rx
 2886              		.section	.bss.hdma_sdmmc1_rx,"aw",%nobits
 2887              		.align	2
 2890              	hdma_sdmmc1_rx:
 2891 0000 00000000 		.space	72
 2891      00000000 
 2891      00000000 
 2891      00000000 
 2891      00000000 
 2892              		.global	hsd1
 2893              		.section	.bss.hsd1,"aw",%nobits
 2894              		.align	2
 2897              	hsd1:
 2898 0000 00000000 		.space	132
 2898      00000000 
 2898      00000000 
 2898      00000000 
 2898      00000000 
 2899              		.global	hrtc
 2900              		.section	.bss.hrtc,"aw",%nobits
 2901              		.align	2
 2904              	hrtc:
 2905 0000 00000000 		.space	36
 2905      00000000 
 2905      00000000 
 2905      00000000 
 2905      00000000 
 2906              		.global	hdma_usart1_rx
 2907              		.section	.bss.hdma_usart1_rx,"aw",%nobits
 2908              		.align	2
 2911              	hdma_usart1_rx:
 2912 0000 00000000 		.space	72
 2912      00000000 
 2912      00000000 
 2912      00000000 
 2912      00000000 
 2913              		.global	huart3
 2914              		.section	.bss.huart3,"aw",%nobits
 2915              		.align	2
 2918              	huart3:
 2919 0000 00000000 		.space	136
 2919      00000000 
 2919      00000000 
 2919      00000000 
ARM GAS  /tmp/cczzewXT.s 			page 88


 2919      00000000 
 2920              		.global	huart2
 2921              		.section	.bss.huart2,"aw",%nobits
 2922              		.align	2
 2925              	huart2:
 2926 0000 00000000 		.space	136
 2926      00000000 
 2926      00000000 
 2926      00000000 
 2926      00000000 
 2927              		.global	huart1
 2928              		.section	.bss.huart1,"aw",%nobits
 2929              		.align	2
 2932              	huart1:
 2933 0000 00000000 		.space	136
 2933      00000000 
 2933      00000000 
 2933      00000000 
 2933      00000000 
 2934              		.global	hlpuart1
 2935              		.section	.bss.hlpuart1,"aw",%nobits
 2936              		.align	2
 2939              	hlpuart1:
 2940 0000 00000000 		.space	136
 2940      00000000 
 2940      00000000 
 2940      00000000 
 2940      00000000 
 2941              		.global	hi2c2
 2942              		.section	.bss.hi2c2,"aw",%nobits
 2943              		.align	2
 2946              	hi2c2:
 2947 0000 00000000 		.space	84
 2947      00000000 
 2947      00000000 
 2947      00000000 
 2947      00000000 
 2948              		.global	lora_rx_ready
 2949              		.section	.bss.lora_rx_ready,"aw",%nobits
 2952              	lora_rx_ready:
 2953 0000 00       		.space	1
 2954              		.global	lora_rx_len
 2955              		.section	.bss.lora_rx_len,"aw",%nobits
 2956              		.align	1
 2959              	lora_rx_len:
 2960 0000 0000     		.space	2
 2961              		.global	lora_rx_buf
 2962              		.section	.bss.lora_rx_buf,"aw",%nobits
 2963              		.align	2
 2966              	lora_rx_buf:
 2967 0000 00000000 		.space	250
 2967      00000000 
 2967      00000000 
 2967      00000000 
 2967      00000000 
 2968              		.section	.bss.readBuf,"aw",%nobits
 2969              		.align	2
ARM GAS  /tmp/cczzewXT.s 			page 89


 2972              	readBuf:
 2973 0000 00000000 		.space	512
 2973      00000000 
 2973      00000000 
 2973      00000000 
 2973      00000000 
 2974              		.section	.bss.writeBuf,"aw",%nobits
 2975              		.align	2
 2978              	writeBuf:
 2979 0000 00000000 		.space	512
 2979      00000000 
 2979      00000000 
 2979      00000000 
 2979      00000000 
 2980              		.global	wake_up_flag
 2981              		.section	.bss.wake_up_flag,"aw",%nobits
 2984              	wake_up_flag:
 2985 0000 00       		.space	1
 2986              		.global	tail
 2987              		.section	.bss.tail,"aw",%nobits
 2988              		.align	2
 2991              	tail:
 2992 0000 00000000 		.space	4
 2993              		.global	head
 2994              		.section	.bss.head,"aw",%nobits
 2995              		.align	2
 2998              	head:
 2999 0000 00000000 		.space	4
 3000              		.global	dma_transfer_buffer
 3001              		.section	.bss.dma_transfer_buffer,"aw",%nobits
 3002              		.align	5
 3005              	dma_transfer_buffer:
 3006 0000 00000000 		.space	512
 3006      00000000 
 3006      00000000 
 3006      00000000 
 3006      00000000 
 3007              		.global	ring_buffer
 3008              		.section	.bss.ring_buffer,"aw",%nobits
 3009              		.align	2
 3012              	ring_buffer:
 3013 0000 00000000 		.space	12288
 3013      00000000 
 3013      00000000 
 3013      00000000 
 3013      00000000 
 3014              		.text
 3015              	.Letext0:
 3016              		.file 3 "Drivers/CMSIS/Device/ST/STM32L4xx/Include/stm32l476xx.h"
 3017              		.file 4 "/home/glen/.config/Code/User/globalStorage/bmd.stm32-for-vscode/@xpack-dev-tools/arm-none
 3018              		.file 5 "/home/glen/.config/Code/User/globalStorage/bmd.stm32-for-vscode/@xpack-dev-tools/arm-none
 3019              		.file 6 "/home/glen/.config/Code/User/globalStorage/bmd.stm32-for-vscode/@xpack-dev-tools/arm-none
 3020              		.file 7 "Drivers/STM32L4xx_HAL_Driver/Inc/stm32l4xx_hal_def.h"
 3021              		.file 8 "Drivers/STM32L4xx_HAL_Driver/Inc/stm32l4xx_hal_rcc.h"
 3022              		.file 9 "Drivers/STM32L4xx_HAL_Driver/Inc/stm32l4xx_hal_rcc_ex.h"
 3023              		.file 10 "Drivers/STM32L4xx_HAL_Driver/Inc/stm32l4xx_hal_gpio.h"
 3024              		.file 11 "Drivers/STM32L4xx_HAL_Driver/Inc/stm32l4xx_hal_dma.h"
ARM GAS  /tmp/cczzewXT.s 			page 90


 3025              		.file 12 "Drivers/STM32L4xx_HAL_Driver/Inc/stm32l4xx_hal_i2c.h"
 3026              		.file 13 "Drivers/STM32L4xx_HAL_Driver/Inc/stm32l4xx_hal_rtc.h"
 3027              		.file 14 "Drivers/STM32L4xx_HAL_Driver/Inc/stm32l4xx_ll_sdmmc.h"
 3028              		.file 15 "Drivers/STM32L4xx_HAL_Driver/Inc/stm32l4xx_hal_sd.h"
 3029              		.file 16 "Drivers/STM32L4xx_HAL_Driver/Inc/stm32l4xx_hal_spi.h"
 3030              		.file 17 "Drivers/STM32L4xx_HAL_Driver/Inc/stm32l4xx_hal_uart.h"
 3031              		.file 18 "Core/Inc/main.h"
 3032              		.file 19 "Drivers/OLED/ssd1306.h"
 3033              		.file 20 "Drivers/STM32L4xx_HAL_Driver/Inc/stm32l4xx_ll_dma.h"
 3034              		.file 21 "Drivers/STM32L4xx_HAL_Driver/Inc/stm32l4xx_hal_uart_ex.h"
 3035              		.file 22 "/home/glen/.config/Code/User/globalStorage/bmd.stm32-for-vscode/@xpack-dev-tools/arm-non
 3036              		.file 23 "Drivers/STM32L4xx_HAL_Driver/Inc/stm32l4xx_hal_pwr_ex.h"
 3037              		.file 24 "Drivers/STM32L4xx_HAL_Driver/Inc/stm32l4xx_hal_i2c_ex.h"
 3038              		.file 25 "Drivers/STM32L4xx_HAL_Driver/Inc/stm32l4xx_hal_cortex.h"
 3039              		.file 26 "Core/Inc/SD_Stream.h"
 3040              		.file 27 "Drivers/STM32L4xx_HAL_Driver/Inc/stm32l4xx_hal.h"
 3041              		.file 28 "Drivers/STM32L4xx_HAL_Driver/Inc/stm32l4xx_hal_pwr.h"
 3042              		.file 29 "Drivers/STM32L4xx_HAL_Driver/Inc/stm32l4xx_hal_rtc_ex.h"
 3043              		.file 30 "/home/glen/.config/Code/User/globalStorage/bmd.stm32-for-vscode/@xpack-dev-tools/arm-non
 3044              		.file 31 "Core/Inc/SD_IO.h"
 3045              		.file 32 "<built-in>"
ARM GAS  /tmp/cczzewXT.s 			page 91


DEFINED SYMBOLS
                            *ABS*:00000000 main.c
     /tmp/cczzewXT.s:21     .text.MX_GPIO_Init:00000000 $t
     /tmp/cczzewXT.s:26     .text.MX_GPIO_Init:00000000 MX_GPIO_Init
     /tmp/cczzewXT.s:234    .text.MX_GPIO_Init:00000104 $d
     /tmp/cczzewXT.s:241    .text.MX_DMA_Init:00000000 $t
     /tmp/cczzewXT.s:246    .text.MX_DMA_Init:00000000 MX_DMA_Init
     /tmp/cczzewXT.s:326    .text.MX_DMA_Init:00000060 $d
     /tmp/cczzewXT.s:331    .text.__io_putchar:00000000 $t
     /tmp/cczzewXT.s:337    .text.__io_putchar:00000000 __io_putchar
     /tmp/cczzewXT.s:370    .text.__io_putchar:0000001c $d
     /tmp/cczzewXT.s:2918   .bss.huart3:00000000 huart3
     /tmp/cczzewXT.s:375    .text.UART_SendString:00000000 $t
     /tmp/cczzewXT.s:381    .text.UART_SendString:00000000 UART_SendString
     /tmp/cczzewXT.s:418    .rodata.Print_SD_Details.str1.4:00000000 $d
     /tmp/cczzewXT.s:428    .text.Print_SD_Details:00000000 $t
     /tmp/cczzewXT.s:433    .text.Print_SD_Details:00000000 Print_SD_Details
     /tmp/cczzewXT.s:485    .text.Print_SD_Details:00000038 $d
     /tmp/cczzewXT.s:2897   .bss.hsd1:00000000 hsd1
     /tmp/cczzewXT.s:493    .rodata.SD_RawWriteTest.str1.4:00000000 $d
     /tmp/cczzewXT.s:536    .text.SD_RawWriteTest:00000000 $t
     /tmp/cczzewXT.s:541    .text.SD_RawWriteTest:00000000 SD_RawWriteTest
     /tmp/cczzewXT.s:872    .text.SD_RawWriteTest:00000164 $d
     /tmp/cczzewXT.s:2978   .bss.writeBuf:00000000 writeBuf
     /tmp/cczzewXT.s:2972   .bss.readBuf:00000000 readBuf
     /tmp/cczzewXT.s:894    .text.HAL_UARTEx_RxEventCallback:00000000 $t
     /tmp/cczzewXT.s:900    .text.HAL_UARTEx_RxEventCallback:00000000 HAL_UARTEx_RxEventCallback
     /tmp/cczzewXT.s:1032   .text.HAL_UARTEx_RxEventCallback:00000078 $d
     /tmp/cczzewXT.s:2966   .bss.lora_rx_buf:00000000 lora_rx_buf
     /tmp/cczzewXT.s:2959   .bss.lora_rx_len:00000000 lora_rx_len
     /tmp/cczzewXT.s:2952   .bss.lora_rx_ready:00000000 lora_rx_ready
     /tmp/cczzewXT.s:2939   .bss.hlpuart1:00000000 hlpuart1
     /tmp/cczzewXT.s:2830   .bss.cb_write_second_half:00000000 cb_write_second_half
     /tmp/cczzewXT.s:2836   .bss.cb_write_first_half:00000000 cb_write_first_half
     /tmp/cczzewXT.s:2811   .bss.rxLen:00000000 rxLen
     /tmp/cczzewXT.s:2804   .bss.dataReady:00000000 dataReady
     /tmp/cczzewXT.s:2818   .bss.rxBuffer:00000000 rxBuffer
     /tmp/cczzewXT.s:2932   .bss.huart1:00000000 huart1
     /tmp/cczzewXT.s:1049   .rodata.SD_SpeedTest.str1.4:00000000 $d
     /tmp/cczzewXT.s:1079   .text.SD_SpeedTest:00000000 $t
     /tmp/cczzewXT.s:1085   .text.SD_SpeedTest:00000000 SD_SpeedTest
     /tmp/cczzewXT.s:1374   .text.SD_SpeedTest:0000014c $d
     /tmp/cczzewXT.s:2798   .bss.largeTestBuf:00000000 largeTestBuf
     /tmp/cczzewXT.s:1393   .text.Error_Handler:00000000 $t
     /tmp/cczzewXT.s:1399   .text.Error_Handler:00000000 Error_Handler
     /tmp/cczzewXT.s:1431   .text.MX_LPUART1_UART_Init:00000000 $t
     /tmp/cczzewXT.s:1436   .text.MX_LPUART1_UART_Init:00000000 MX_LPUART1_UART_Init
     /tmp/cczzewXT.s:1493   .text.MX_LPUART1_UART_Init:0000002c $d
     /tmp/cczzewXT.s:1499   .text.MX_USART2_UART_Init:00000000 $t
     /tmp/cczzewXT.s:1504   .text.MX_USART2_UART_Init:00000000 MX_USART2_UART_Init
     /tmp/cczzewXT.s:1565   .text.MX_USART2_UART_Init:00000034 $d
     /tmp/cczzewXT.s:2925   .bss.huart2:00000000 huart2
     /tmp/cczzewXT.s:1571   .text.MX_USART3_UART_Init:00000000 $t
     /tmp/cczzewXT.s:1576   .text.MX_USART3_UART_Init:00000000 MX_USART3_UART_Init
     /tmp/cczzewXT.s:1636   .text.MX_USART3_UART_Init:00000030 $d
     /tmp/cczzewXT.s:1642   .text.MX_SPI1_Init:00000000 $t
     /tmp/cczzewXT.s:1647   .text.MX_SPI1_Init:00000000 MX_SPI1_Init
ARM GAS  /tmp/cczzewXT.s 			page 92


     /tmp/cczzewXT.s:1722   .text.MX_SPI1_Init:00000040 $d
     /tmp/cczzewXT.s:2876   .bss.hspi1:00000000 hspi1
     /tmp/cczzewXT.s:1728   .text.MX_RTC_Init:00000000 $t
     /tmp/cczzewXT.s:1733   .text.MX_RTC_Init:00000000 MX_RTC_Init
     /tmp/cczzewXT.s:1856   .text.MX_RTC_Init:00000078 $d
     /tmp/cczzewXT.s:2904   .bss.hrtc:00000000 hrtc
     /tmp/cczzewXT.s:1862   .text.MX_I2C2_Init:00000000 $t
     /tmp/cczzewXT.s:1867   .text.MX_I2C2_Init:00000000 MX_I2C2_Init
     /tmp/cczzewXT.s:1948   .text.MX_I2C2_Init:00000048 $d
     /tmp/cczzewXT.s:2946   .bss.hi2c2:00000000 hi2c2
     /tmp/cczzewXT.s:1955   .text.MX_USART1_UART_Init:00000000 $t
     /tmp/cczzewXT.s:1960   .text.MX_USART1_UART_Init:00000000 MX_USART1_UART_Init
     /tmp/cczzewXT.s:2020   .text.MX_USART1_UART_Init:00000030 $d
     /tmp/cczzewXT.s:2026   .rodata.MX_SDMMC1_SD_Init.str1.4:00000000 $d
     /tmp/cczzewXT.s:2030   .text.MX_SDMMC1_SD_Init:00000000 $t
     /tmp/cczzewXT.s:2035   .text.MX_SDMMC1_SD_Init:00000000 MX_SDMMC1_SD_Init
     /tmp/cczzewXT.s:2130   .text.MX_SDMMC1_SD_Init:00000064 $d
     /tmp/cczzewXT.s:2138   .text.SystemClock_Config:00000000 $t
     /tmp/cczzewXT.s:2144   .text.SystemClock_Config:00000000 SystemClock_Config
     /tmp/cczzewXT.s:2283   .rodata.main.str1.4:00000000 $d
     /tmp/cczzewXT.s:2314   .text.main:00000000 $t
     /tmp/cczzewXT.s:2320   .text.main:00000000 main
     /tmp/cczzewXT.s:2761   .text.main:00000230 $d
     /tmp/cczzewXT.s:2869   .bss.total_uptime:00000000 total_uptime
     /tmp/cczzewXT.s:2848   .bss.wake_source:00000000 wake_source
     /tmp/cczzewXT.s:2795   .bss.largeTestBuf:00000000 $d
     /tmp/cczzewXT.s:2805   .bss.dataReady:00000000 $d
     /tmp/cczzewXT.s:2808   .bss.rxLen:00000000 $d
     /tmp/cczzewXT.s:2815   .bss.rxBuffer:00000000 $d
     /tmp/cczzewXT.s:2824   .bss.uart_active:00000000 uart_active
     /tmp/cczzewXT.s:2825   .bss.uart_active:00000000 $d
     /tmp/cczzewXT.s:2831   .bss.cb_write_second_half:00000000 $d
     /tmp/cczzewXT.s:2837   .bss.cb_write_first_half:00000000 $d
     /tmp/cczzewXT.s:2842   .bss.halfTransferFired:00000000 halfTransferFired
     /tmp/cczzewXT.s:2843   .bss.halfTransferFired:00000000 $d
     /tmp/cczzewXT.s:2849   .bss.wake_source:00000000 $d
     /tmp/cczzewXT.s:2855   .bss.rxBuf:00000000 rxBuf
     /tmp/cczzewXT.s:2852   .bss.rxBuf:00000000 $d
     /tmp/cczzewXT.s:2862   .rodata.total_uptime_filename:00000000 total_uptime_filename
     /tmp/cczzewXT.s:2859   .rodata.total_uptime_filename:00000000 $d
     /tmp/cczzewXT.s:2866   .bss.total_uptime:00000000 $d
     /tmp/cczzewXT.s:2873   .bss.hspi1:00000000 $d
     /tmp/cczzewXT.s:2883   .bss.hdma_sdmmc1_tx:00000000 hdma_sdmmc1_tx
     /tmp/cczzewXT.s:2880   .bss.hdma_sdmmc1_tx:00000000 $d
     /tmp/cczzewXT.s:2890   .bss.hdma_sdmmc1_rx:00000000 hdma_sdmmc1_rx
     /tmp/cczzewXT.s:2887   .bss.hdma_sdmmc1_rx:00000000 $d
     /tmp/cczzewXT.s:2894   .bss.hsd1:00000000 $d
     /tmp/cczzewXT.s:2901   .bss.hrtc:00000000 $d
     /tmp/cczzewXT.s:2911   .bss.hdma_usart1_rx:00000000 hdma_usart1_rx
     /tmp/cczzewXT.s:2908   .bss.hdma_usart1_rx:00000000 $d
     /tmp/cczzewXT.s:2915   .bss.huart3:00000000 $d
     /tmp/cczzewXT.s:2922   .bss.huart2:00000000 $d
     /tmp/cczzewXT.s:2929   .bss.huart1:00000000 $d
     /tmp/cczzewXT.s:2936   .bss.hlpuart1:00000000 $d
     /tmp/cczzewXT.s:2943   .bss.hi2c2:00000000 $d
     /tmp/cczzewXT.s:2953   .bss.lora_rx_ready:00000000 $d
     /tmp/cczzewXT.s:2956   .bss.lora_rx_len:00000000 $d
ARM GAS  /tmp/cczzewXT.s 			page 93


     /tmp/cczzewXT.s:2963   .bss.lora_rx_buf:00000000 $d
     /tmp/cczzewXT.s:2969   .bss.readBuf:00000000 $d
     /tmp/cczzewXT.s:2975   .bss.writeBuf:00000000 $d
     /tmp/cczzewXT.s:2984   .bss.wake_up_flag:00000000 wake_up_flag
     /tmp/cczzewXT.s:2985   .bss.wake_up_flag:00000000 $d
     /tmp/cczzewXT.s:2991   .bss.tail:00000000 tail
     /tmp/cczzewXT.s:2988   .bss.tail:00000000 $d
     /tmp/cczzewXT.s:2998   .bss.head:00000000 head
     /tmp/cczzewXT.s:2995   .bss.head:00000000 $d
     /tmp/cczzewXT.s:3005   .bss.dma_transfer_buffer:00000000 dma_transfer_buffer
     /tmp/cczzewXT.s:3002   .bss.dma_transfer_buffer:00000000 $d
     /tmp/cczzewXT.s:3012   .bss.ring_buffer:00000000 ring_buffer
     /tmp/cczzewXT.s:3009   .bss.ring_buffer:00000000 $d

UNDEFINED SYMBOLS
HAL_GPIO_WritePin
HAL_GPIO_Init
HAL_NVIC_SetPriority
HAL_NVIC_EnableIRQ
HAL_UART_Transmit
strlen
sprintf
memset
HAL_SD_WriteBlocks
snprintf
HAL_GetTick
HAL_SD_GetCardState
HAL_SD_ReadBlocks
HAL_UARTEx_ReceiveToIdle_IT
HAL_UARTEx_GetRxEventType
HAL_UARTEx_ReceiveToIdle_DMA
__aeabi_f2d
HAL_UART_Init
HAL_SPI_Init
HAL_RTC_Init
HAL_RTC_SetTime
HAL_RTC_SetDate
HAL_I2C_Init
HAL_I2CEx_ConfigAnalogFilter
HAL_I2CEx_ConfigDigitalFilter
HAL_SD_Init
HAL_SD_ConfigWideBusOperation
HAL_PWREx_ControlVoltageScaling
HAL_RCC_OscConfig
HAL_RCC_ClockConfig
HAL_Init
HAL_RCCEx_PeriphCLKConfig
HAL_DBGMCU_EnableDBGSleepMode
HAL_DBGMCU_EnableDBGStopMode
HAL_DBGMCU_EnableDBGStandbyMode
SD_IO_Init
SD_ReadUptime
SD_Stream_Init
HAL_Delay
HAL_SD_DeInit
SD_Stream_WriteHalf
SD_Stream_Flush
ARM GAS  /tmp/cczzewXT.s 			page 94


HAL_RTCEx_SetWakeUpTimer_IT
HAL_SuspendTick
HAL_PWR_EnterSLEEPMode
HAL_ResumeTick
SD_Stream_WriteSecondHalf
SD_Stream_GetCurrentSector
SD_Stream_ReadDebug
