ARM GAS  /tmp/cclB1ShU.s 			page 1


   1              		.cpu cortex-m4
   2              		.arch armv7e-m
   3              		.fpu fpv4-sp-d16
   4              		.eabi_attribute 27, 1
   5              		.eabi_attribute 28, 1
   6              		.eabi_attribute 20, 1
   7              		.eabi_attribute 21, 1
   8              		.eabi_attribute 23, 3
   9              		.eabi_attribute 24, 1
  10              		.eabi_attribute 25, 1
  11              		.eabi_attribute 26, 1
  12              		.eabi_attribute 30, 1
  13              		.eabi_attribute 34, 1
  14              		.eabi_attribute 18, 4
  15              		.file	"stm32l4xx_hal_msp.c"
  16              		.text
  17              	.Ltext0:
  18              		.cfi_sections	.debug_frame
  19              		.file 1 "Core/Src/stm32l4xx_hal_msp.c"
  20              		.section	.text.HAL_MspInit,"ax",%progbits
  21              		.align	1
  22              		.global	HAL_MspInit
  23              		.syntax unified
  24              		.thumb
  25              		.thumb_func
  27              	HAL_MspInit:
  28              	.LFB228:
   1:Core/Src/stm32l4xx_hal_msp.c **** /* USER CODE BEGIN Header */
   2:Core/Src/stm32l4xx_hal_msp.c **** /**
   3:Core/Src/stm32l4xx_hal_msp.c ****   ******************************************************************************
   4:Core/Src/stm32l4xx_hal_msp.c ****   * @file         stm32l4xx_hal_msp.c
   5:Core/Src/stm32l4xx_hal_msp.c ****   * @brief        This file provides code for the MSP Initialization
   6:Core/Src/stm32l4xx_hal_msp.c ****   *               and de-Initialization codes.
   7:Core/Src/stm32l4xx_hal_msp.c ****   ******************************************************************************
   8:Core/Src/stm32l4xx_hal_msp.c ****   * @attention
   9:Core/Src/stm32l4xx_hal_msp.c ****   *
  10:Core/Src/stm32l4xx_hal_msp.c ****   * Copyright (c) 2026 STMicroelectronics.
  11:Core/Src/stm32l4xx_hal_msp.c ****   * All rights reserved.
  12:Core/Src/stm32l4xx_hal_msp.c ****   *
  13:Core/Src/stm32l4xx_hal_msp.c ****   * This software is licensed under terms that can be found in the LICENSE file
  14:Core/Src/stm32l4xx_hal_msp.c ****   * in the root directory of this software component.
  15:Core/Src/stm32l4xx_hal_msp.c ****   * If no LICENSE file comes with this software, it is provided AS-IS.
  16:Core/Src/stm32l4xx_hal_msp.c ****   *
  17:Core/Src/stm32l4xx_hal_msp.c ****   ******************************************************************************
  18:Core/Src/stm32l4xx_hal_msp.c ****   */
  19:Core/Src/stm32l4xx_hal_msp.c **** /* USER CODE END Header */
  20:Core/Src/stm32l4xx_hal_msp.c **** /* Includes ------------------------------------------------------------------*/
  21:Core/Src/stm32l4xx_hal_msp.c **** #include "main.h"
  22:Core/Src/stm32l4xx_hal_msp.c **** /* USER CODE BEGIN Includes */
  23:Core/Src/stm32l4xx_hal_msp.c **** 
  24:Core/Src/stm32l4xx_hal_msp.c **** /* USER CODE END Includes */
  25:Core/Src/stm32l4xx_hal_msp.c **** 
  26:Core/Src/stm32l4xx_hal_msp.c **** /* Private typedef -----------------------------------------------------------*/
  27:Core/Src/stm32l4xx_hal_msp.c **** /* USER CODE BEGIN TD */
  28:Core/Src/stm32l4xx_hal_msp.c **** 
  29:Core/Src/stm32l4xx_hal_msp.c **** /* USER CODE END TD */
  30:Core/Src/stm32l4xx_hal_msp.c **** 
ARM GAS  /tmp/cclB1ShU.s 			page 2


  31:Core/Src/stm32l4xx_hal_msp.c **** /* Private define ------------------------------------------------------------*/
  32:Core/Src/stm32l4xx_hal_msp.c **** /* USER CODE BEGIN Define */
  33:Core/Src/stm32l4xx_hal_msp.c **** 
  34:Core/Src/stm32l4xx_hal_msp.c **** /* USER CODE END Define */
  35:Core/Src/stm32l4xx_hal_msp.c **** 
  36:Core/Src/stm32l4xx_hal_msp.c **** /* Private macro -------------------------------------------------------------*/
  37:Core/Src/stm32l4xx_hal_msp.c **** /* USER CODE BEGIN Macro */
  38:Core/Src/stm32l4xx_hal_msp.c **** 
  39:Core/Src/stm32l4xx_hal_msp.c **** /* USER CODE END Macro */
  40:Core/Src/stm32l4xx_hal_msp.c **** 
  41:Core/Src/stm32l4xx_hal_msp.c **** /* Private variables ---------------------------------------------------------*/
  42:Core/Src/stm32l4xx_hal_msp.c **** /* USER CODE BEGIN PV */
  43:Core/Src/stm32l4xx_hal_msp.c **** 
  44:Core/Src/stm32l4xx_hal_msp.c **** /* USER CODE END PV */
  45:Core/Src/stm32l4xx_hal_msp.c **** 
  46:Core/Src/stm32l4xx_hal_msp.c **** /* Private function prototypes -----------------------------------------------*/
  47:Core/Src/stm32l4xx_hal_msp.c **** /* USER CODE BEGIN PFP */
  48:Core/Src/stm32l4xx_hal_msp.c **** 
  49:Core/Src/stm32l4xx_hal_msp.c **** /* USER CODE END PFP */
  50:Core/Src/stm32l4xx_hal_msp.c **** 
  51:Core/Src/stm32l4xx_hal_msp.c **** /* External functions --------------------------------------------------------*/
  52:Core/Src/stm32l4xx_hal_msp.c **** /* USER CODE BEGIN ExternalFunctions */
  53:Core/Src/stm32l4xx_hal_msp.c **** 
  54:Core/Src/stm32l4xx_hal_msp.c **** /* USER CODE END ExternalFunctions */
  55:Core/Src/stm32l4xx_hal_msp.c **** 
  56:Core/Src/stm32l4xx_hal_msp.c **** /* USER CODE BEGIN 0 */
  57:Core/Src/stm32l4xx_hal_msp.c **** 
  58:Core/Src/stm32l4xx_hal_msp.c **** /* USER CODE END 0 */
  59:Core/Src/stm32l4xx_hal_msp.c **** /**
  60:Core/Src/stm32l4xx_hal_msp.c ****   * Initializes the Global MSP.
  61:Core/Src/stm32l4xx_hal_msp.c ****   */
  62:Core/Src/stm32l4xx_hal_msp.c **** void HAL_MspInit(void)
  63:Core/Src/stm32l4xx_hal_msp.c **** {
  29              		.loc 1 63 1 view -0
  30              		.cfi_startproc
  31              		@ args = 0, pretend = 0, frame = 8
  32              		@ frame_needed = 0, uses_anonymous_args = 0
  33              		@ link register save eliminated.
  34 0000 82B0     		sub	sp, sp, #8
  35              		.cfi_def_cfa_offset 8
  64:Core/Src/stm32l4xx_hal_msp.c **** 
  65:Core/Src/stm32l4xx_hal_msp.c ****   /* USER CODE BEGIN MspInit 0 */
  66:Core/Src/stm32l4xx_hal_msp.c **** 
  67:Core/Src/stm32l4xx_hal_msp.c ****   /* USER CODE END MspInit 0 */
  68:Core/Src/stm32l4xx_hal_msp.c **** 
  69:Core/Src/stm32l4xx_hal_msp.c ****   __HAL_RCC_SYSCFG_CLK_ENABLE();
  36              		.loc 1 69 3 view .LVU1
  37              	.LBB2:
  38              		.loc 1 69 3 view .LVU2
  39              		.loc 1 69 3 view .LVU3
  40 0002 0A4B     		ldr	r3, .L3
  41 0004 1A6E     		ldr	r2, [r3, #96]
  42 0006 42F00102 		orr	r2, r2, #1
  43 000a 1A66     		str	r2, [r3, #96]
  44              		.loc 1 69 3 view .LVU4
  45 000c 1A6E     		ldr	r2, [r3, #96]
  46 000e 02F00102 		and	r2, r2, #1
ARM GAS  /tmp/cclB1ShU.s 			page 3


  47 0012 0092     		str	r2, [sp]
  48              		.loc 1 69 3 view .LVU5
  49 0014 009A     		ldr	r2, [sp]
  50              	.LBE2:
  51              		.loc 1 69 3 view .LVU6
  70:Core/Src/stm32l4xx_hal_msp.c ****   __HAL_RCC_PWR_CLK_ENABLE();
  52              		.loc 1 70 3 view .LVU7
  53              	.LBB3:
  54              		.loc 1 70 3 view .LVU8
  55              		.loc 1 70 3 view .LVU9
  56 0016 9A6D     		ldr	r2, [r3, #88]
  57 0018 42F08052 		orr	r2, r2, #268435456
  58 001c 9A65     		str	r2, [r3, #88]
  59              		.loc 1 70 3 view .LVU10
  60 001e 9B6D     		ldr	r3, [r3, #88]
  61 0020 03F08053 		and	r3, r3, #268435456
  62 0024 0193     		str	r3, [sp, #4]
  63              		.loc 1 70 3 view .LVU11
  64 0026 019B     		ldr	r3, [sp, #4]
  65              	.LBE3:
  66              		.loc 1 70 3 view .LVU12
  71:Core/Src/stm32l4xx_hal_msp.c **** 
  72:Core/Src/stm32l4xx_hal_msp.c ****   /* System interrupt init*/
  73:Core/Src/stm32l4xx_hal_msp.c **** 
  74:Core/Src/stm32l4xx_hal_msp.c ****   /* USER CODE BEGIN MspInit 1 */
  75:Core/Src/stm32l4xx_hal_msp.c **** 
  76:Core/Src/stm32l4xx_hal_msp.c ****   /* USER CODE END MspInit 1 */
  77:Core/Src/stm32l4xx_hal_msp.c **** }
  67              		.loc 1 77 1 is_stmt 0 view .LVU13
  68 0028 02B0     		add	sp, sp, #8
  69              		.cfi_def_cfa_offset 0
  70              		@ sp needed
  71 002a 7047     		bx	lr
  72              	.L4:
  73              		.align	2
  74              	.L3:
  75 002c 00100240 		.word	1073876992
  76              		.cfi_endproc
  77              	.LFE228:
  79              		.section	.text.HAL_I2C_MspInit,"ax",%progbits
  80              		.align	1
  81              		.global	HAL_I2C_MspInit
  82              		.syntax unified
  83              		.thumb
  84              		.thumb_func
  86              	HAL_I2C_MspInit:
  87              	.LVL0:
  88              	.LFB229:
  78:Core/Src/stm32l4xx_hal_msp.c **** 
  79:Core/Src/stm32l4xx_hal_msp.c **** /**
  80:Core/Src/stm32l4xx_hal_msp.c ****   * @brief I2C MSP Initialization
  81:Core/Src/stm32l4xx_hal_msp.c ****   * This function configures the hardware resources used in this example
  82:Core/Src/stm32l4xx_hal_msp.c ****   * @param hi2c: I2C handle pointer
  83:Core/Src/stm32l4xx_hal_msp.c ****   * @retval None
  84:Core/Src/stm32l4xx_hal_msp.c ****   */
  85:Core/Src/stm32l4xx_hal_msp.c **** void HAL_I2C_MspInit(I2C_HandleTypeDef* hi2c)
  86:Core/Src/stm32l4xx_hal_msp.c **** {
ARM GAS  /tmp/cclB1ShU.s 			page 4


  89              		.loc 1 86 1 is_stmt 1 view -0
  90              		.cfi_startproc
  91              		@ args = 0, pretend = 0, frame = 168
  92              		@ frame_needed = 0, uses_anonymous_args = 0
  93              		.loc 1 86 1 is_stmt 0 view .LVU15
  94 0000 10B5     		push	{r4, lr}
  95              		.cfi_def_cfa_offset 8
  96              		.cfi_offset 4, -8
  97              		.cfi_offset 14, -4
  98 0002 AAB0     		sub	sp, sp, #168
  99              		.cfi_def_cfa_offset 176
 100 0004 0446     		mov	r4, r0
  87:Core/Src/stm32l4xx_hal_msp.c ****   GPIO_InitTypeDef GPIO_InitStruct = {0};
 101              		.loc 1 87 3 is_stmt 1 view .LVU16
 102              		.loc 1 87 20 is_stmt 0 view .LVU17
 103 0006 0021     		movs	r1, #0
 104 0008 2591     		str	r1, [sp, #148]
 105 000a 2691     		str	r1, [sp, #152]
 106 000c 2791     		str	r1, [sp, #156]
 107 000e 2891     		str	r1, [sp, #160]
 108 0010 2991     		str	r1, [sp, #164]
  88:Core/Src/stm32l4xx_hal_msp.c ****   RCC_PeriphCLKInitTypeDef PeriphClkInit = {0};
 109              		.loc 1 88 3 is_stmt 1 view .LVU18
 110              		.loc 1 88 28 is_stmt 0 view .LVU19
 111 0012 8822     		movs	r2, #136
 112 0014 03A8     		add	r0, sp, #12
 113              	.LVL1:
 114              		.loc 1 88 28 view .LVU20
 115 0016 FFF7FEFF 		bl	memset
 116              	.LVL2:
  89:Core/Src/stm32l4xx_hal_msp.c ****   if(hi2c->Instance==I2C2)
 117              		.loc 1 89 3 is_stmt 1 view .LVU21
 118              		.loc 1 89 10 is_stmt 0 view .LVU22
 119 001a 2268     		ldr	r2, [r4]
 120              		.loc 1 89 5 view .LVU23
 121 001c 184B     		ldr	r3, .L11
 122 001e 9A42     		cmp	r2, r3
 123 0020 01D0     		beq	.L9
 124              	.LVL3:
 125              	.L5:
  90:Core/Src/stm32l4xx_hal_msp.c ****   {
  91:Core/Src/stm32l4xx_hal_msp.c ****     /* USER CODE BEGIN I2C2_MspInit 0 */
  92:Core/Src/stm32l4xx_hal_msp.c **** 
  93:Core/Src/stm32l4xx_hal_msp.c ****     /* USER CODE END I2C2_MspInit 0 */
  94:Core/Src/stm32l4xx_hal_msp.c **** 
  95:Core/Src/stm32l4xx_hal_msp.c ****   /** Initializes the peripherals clock
  96:Core/Src/stm32l4xx_hal_msp.c ****   */
  97:Core/Src/stm32l4xx_hal_msp.c ****     PeriphClkInit.PeriphClockSelection = RCC_PERIPHCLK_I2C2;
  98:Core/Src/stm32l4xx_hal_msp.c ****     PeriphClkInit.I2c2ClockSelection = RCC_I2C2CLKSOURCE_PCLK1;
  99:Core/Src/stm32l4xx_hal_msp.c ****     if (HAL_RCCEx_PeriphCLKConfig(&PeriphClkInit) != HAL_OK)
 100:Core/Src/stm32l4xx_hal_msp.c ****     {
 101:Core/Src/stm32l4xx_hal_msp.c ****       Error_Handler();
 102:Core/Src/stm32l4xx_hal_msp.c ****     }
 103:Core/Src/stm32l4xx_hal_msp.c **** 
 104:Core/Src/stm32l4xx_hal_msp.c ****     __HAL_RCC_GPIOB_CLK_ENABLE();
 105:Core/Src/stm32l4xx_hal_msp.c ****     /**I2C2 GPIO Configuration
 106:Core/Src/stm32l4xx_hal_msp.c ****     PB13     ------> I2C2_SCL
ARM GAS  /tmp/cclB1ShU.s 			page 5


 107:Core/Src/stm32l4xx_hal_msp.c ****     PB14     ------> I2C2_SDA
 108:Core/Src/stm32l4xx_hal_msp.c ****     */
 109:Core/Src/stm32l4xx_hal_msp.c ****     GPIO_InitStruct.Pin = GPIO_PIN_13|GPIO_PIN_14;
 110:Core/Src/stm32l4xx_hal_msp.c ****     GPIO_InitStruct.Mode = GPIO_MODE_AF_OD;
 111:Core/Src/stm32l4xx_hal_msp.c ****     GPIO_InitStruct.Pull = GPIO_NOPULL;
 112:Core/Src/stm32l4xx_hal_msp.c ****     GPIO_InitStruct.Speed = GPIO_SPEED_FREQ_VERY_HIGH;
 113:Core/Src/stm32l4xx_hal_msp.c ****     GPIO_InitStruct.Alternate = GPIO_AF4_I2C2;
 114:Core/Src/stm32l4xx_hal_msp.c ****     HAL_GPIO_Init(GPIOB, &GPIO_InitStruct);
 115:Core/Src/stm32l4xx_hal_msp.c **** 
 116:Core/Src/stm32l4xx_hal_msp.c ****     /* Peripheral clock enable */
 117:Core/Src/stm32l4xx_hal_msp.c ****     __HAL_RCC_I2C2_CLK_ENABLE();
 118:Core/Src/stm32l4xx_hal_msp.c ****     /* USER CODE BEGIN I2C2_MspInit 1 */
 119:Core/Src/stm32l4xx_hal_msp.c **** 
 120:Core/Src/stm32l4xx_hal_msp.c ****     /* USER CODE END I2C2_MspInit 1 */
 121:Core/Src/stm32l4xx_hal_msp.c **** 
 122:Core/Src/stm32l4xx_hal_msp.c ****   }
 123:Core/Src/stm32l4xx_hal_msp.c **** 
 124:Core/Src/stm32l4xx_hal_msp.c **** }
 126              		.loc 1 124 1 view .LVU24
 127 0022 2AB0     		add	sp, sp, #168
 128              		.cfi_remember_state
 129              		.cfi_def_cfa_offset 8
 130              		@ sp needed
 131 0024 10BD     		pop	{r4, pc}
 132              	.LVL4:
 133              	.L9:
 134              		.cfi_restore_state
  97:Core/Src/stm32l4xx_hal_msp.c ****     PeriphClkInit.I2c2ClockSelection = RCC_I2C2CLKSOURCE_PCLK1;
 135              		.loc 1 97 5 is_stmt 1 view .LVU25
  97:Core/Src/stm32l4xx_hal_msp.c ****     PeriphClkInit.I2c2ClockSelection = RCC_I2C2CLKSOURCE_PCLK1;
 136              		.loc 1 97 40 is_stmt 0 view .LVU26
 137 0026 8023     		movs	r3, #128
 138 0028 0393     		str	r3, [sp, #12]
  98:Core/Src/stm32l4xx_hal_msp.c ****     if (HAL_RCCEx_PeriphCLKConfig(&PeriphClkInit) != HAL_OK)
 139              		.loc 1 98 5 is_stmt 1 view .LVU27
  99:Core/Src/stm32l4xx_hal_msp.c ****     {
 140              		.loc 1 99 5 view .LVU28
  99:Core/Src/stm32l4xx_hal_msp.c ****     {
 141              		.loc 1 99 9 is_stmt 0 view .LVU29
 142 002a 03A8     		add	r0, sp, #12
 143 002c FFF7FEFF 		bl	HAL_RCCEx_PeriphCLKConfig
 144              	.LVL5:
  99:Core/Src/stm32l4xx_hal_msp.c ****     {
 145              		.loc 1 99 8 discriminator 1 view .LVU30
 146 0030 10BB     		cbnz	r0, .L10
 147              	.L7:
 104:Core/Src/stm32l4xx_hal_msp.c ****     /**I2C2 GPIO Configuration
 148              		.loc 1 104 5 is_stmt 1 view .LVU31
 149              	.LBB4:
 104:Core/Src/stm32l4xx_hal_msp.c ****     /**I2C2 GPIO Configuration
 150              		.loc 1 104 5 view .LVU32
 104:Core/Src/stm32l4xx_hal_msp.c ****     /**I2C2 GPIO Configuration
 151              		.loc 1 104 5 view .LVU33
 152 0032 144C     		ldr	r4, .L11+4
 153              	.LVL6:
 104:Core/Src/stm32l4xx_hal_msp.c ****     /**I2C2 GPIO Configuration
 154              		.loc 1 104 5 is_stmt 0 view .LVU34
ARM GAS  /tmp/cclB1ShU.s 			page 6


 155 0034 E36C     		ldr	r3, [r4, #76]
 156 0036 43F00203 		orr	r3, r3, #2
 157 003a E364     		str	r3, [r4, #76]
 104:Core/Src/stm32l4xx_hal_msp.c ****     /**I2C2 GPIO Configuration
 158              		.loc 1 104 5 is_stmt 1 view .LVU35
 159 003c E36C     		ldr	r3, [r4, #76]
 160 003e 03F00203 		and	r3, r3, #2
 161 0042 0193     		str	r3, [sp, #4]
 104:Core/Src/stm32l4xx_hal_msp.c ****     /**I2C2 GPIO Configuration
 162              		.loc 1 104 5 view .LVU36
 163 0044 019B     		ldr	r3, [sp, #4]
 164              	.LBE4:
 104:Core/Src/stm32l4xx_hal_msp.c ****     /**I2C2 GPIO Configuration
 165              		.loc 1 104 5 view .LVU37
 109:Core/Src/stm32l4xx_hal_msp.c ****     GPIO_InitStruct.Mode = GPIO_MODE_AF_OD;
 166              		.loc 1 109 5 view .LVU38
 109:Core/Src/stm32l4xx_hal_msp.c ****     GPIO_InitStruct.Mode = GPIO_MODE_AF_OD;
 167              		.loc 1 109 25 is_stmt 0 view .LVU39
 168 0046 4FF4C043 		mov	r3, #24576
 169 004a 2593     		str	r3, [sp, #148]
 110:Core/Src/stm32l4xx_hal_msp.c ****     GPIO_InitStruct.Pull = GPIO_NOPULL;
 170              		.loc 1 110 5 is_stmt 1 view .LVU40
 110:Core/Src/stm32l4xx_hal_msp.c ****     GPIO_InitStruct.Pull = GPIO_NOPULL;
 171              		.loc 1 110 26 is_stmt 0 view .LVU41
 172 004c 1223     		movs	r3, #18
 173 004e 2693     		str	r3, [sp, #152]
 111:Core/Src/stm32l4xx_hal_msp.c ****     GPIO_InitStruct.Speed = GPIO_SPEED_FREQ_VERY_HIGH;
 174              		.loc 1 111 5 is_stmt 1 view .LVU42
 111:Core/Src/stm32l4xx_hal_msp.c ****     GPIO_InitStruct.Speed = GPIO_SPEED_FREQ_VERY_HIGH;
 175              		.loc 1 111 26 is_stmt 0 view .LVU43
 176 0050 0023     		movs	r3, #0
 177 0052 2793     		str	r3, [sp, #156]
 112:Core/Src/stm32l4xx_hal_msp.c ****     GPIO_InitStruct.Alternate = GPIO_AF4_I2C2;
 178              		.loc 1 112 5 is_stmt 1 view .LVU44
 112:Core/Src/stm32l4xx_hal_msp.c ****     GPIO_InitStruct.Alternate = GPIO_AF4_I2C2;
 179              		.loc 1 112 27 is_stmt 0 view .LVU45
 180 0054 0323     		movs	r3, #3
 181 0056 2893     		str	r3, [sp, #160]
 113:Core/Src/stm32l4xx_hal_msp.c ****     HAL_GPIO_Init(GPIOB, &GPIO_InitStruct);
 182              		.loc 1 113 5 is_stmt 1 view .LVU46
 113:Core/Src/stm32l4xx_hal_msp.c ****     HAL_GPIO_Init(GPIOB, &GPIO_InitStruct);
 183              		.loc 1 113 31 is_stmt 0 view .LVU47
 184 0058 0423     		movs	r3, #4
 185 005a 2993     		str	r3, [sp, #164]
 114:Core/Src/stm32l4xx_hal_msp.c **** 
 186              		.loc 1 114 5 is_stmt 1 view .LVU48
 187 005c 25A9     		add	r1, sp, #148
 188 005e 0A48     		ldr	r0, .L11+8
 189 0060 FFF7FEFF 		bl	HAL_GPIO_Init
 190              	.LVL7:
 117:Core/Src/stm32l4xx_hal_msp.c ****     /* USER CODE BEGIN I2C2_MspInit 1 */
 191              		.loc 1 117 5 view .LVU49
 192              	.LBB5:
 117:Core/Src/stm32l4xx_hal_msp.c ****     /* USER CODE BEGIN I2C2_MspInit 1 */
 193              		.loc 1 117 5 view .LVU50
 117:Core/Src/stm32l4xx_hal_msp.c ****     /* USER CODE BEGIN I2C2_MspInit 1 */
 194              		.loc 1 117 5 view .LVU51
ARM GAS  /tmp/cclB1ShU.s 			page 7


 195 0064 A36D     		ldr	r3, [r4, #88]
 196 0066 43F48003 		orr	r3, r3, #4194304
 197 006a A365     		str	r3, [r4, #88]
 117:Core/Src/stm32l4xx_hal_msp.c ****     /* USER CODE BEGIN I2C2_MspInit 1 */
 198              		.loc 1 117 5 view .LVU52
 199 006c A36D     		ldr	r3, [r4, #88]
 200 006e 03F48003 		and	r3, r3, #4194304
 201 0072 0293     		str	r3, [sp, #8]
 117:Core/Src/stm32l4xx_hal_msp.c ****     /* USER CODE BEGIN I2C2_MspInit 1 */
 202              		.loc 1 117 5 view .LVU53
 203 0074 029B     		ldr	r3, [sp, #8]
 204              	.LBE5:
 117:Core/Src/stm32l4xx_hal_msp.c ****     /* USER CODE BEGIN I2C2_MspInit 1 */
 205              		.loc 1 117 5 view .LVU54
 206              		.loc 1 124 1 is_stmt 0 view .LVU55
 207 0076 D4E7     		b	.L5
 208              	.LVL8:
 209              	.L10:
 101:Core/Src/stm32l4xx_hal_msp.c ****     }
 210              		.loc 1 101 7 is_stmt 1 view .LVU56
 211 0078 FFF7FEFF 		bl	Error_Handler
 212              	.LVL9:
 213 007c D9E7     		b	.L7
 214              	.L12:
 215 007e 00BF     		.align	2
 216              	.L11:
 217 0080 00580040 		.word	1073764352
 218 0084 00100240 		.word	1073876992
 219 0088 00040048 		.word	1207960576
 220              		.cfi_endproc
 221              	.LFE229:
 223              		.section	.text.HAL_I2C_MspDeInit,"ax",%progbits
 224              		.align	1
 225              		.global	HAL_I2C_MspDeInit
 226              		.syntax unified
 227              		.thumb
 228              		.thumb_func
 230              	HAL_I2C_MspDeInit:
 231              	.LVL10:
 232              	.LFB230:
 125:Core/Src/stm32l4xx_hal_msp.c **** 
 126:Core/Src/stm32l4xx_hal_msp.c **** /**
 127:Core/Src/stm32l4xx_hal_msp.c ****   * @brief I2C MSP De-Initialization
 128:Core/Src/stm32l4xx_hal_msp.c ****   * This function freeze the hardware resources used in this example
 129:Core/Src/stm32l4xx_hal_msp.c ****   * @param hi2c: I2C handle pointer
 130:Core/Src/stm32l4xx_hal_msp.c ****   * @retval None
 131:Core/Src/stm32l4xx_hal_msp.c ****   */
 132:Core/Src/stm32l4xx_hal_msp.c **** void HAL_I2C_MspDeInit(I2C_HandleTypeDef* hi2c)
 133:Core/Src/stm32l4xx_hal_msp.c **** {
 233              		.loc 1 133 1 view -0
 234              		.cfi_startproc
 235              		@ args = 0, pretend = 0, frame = 0
 236              		@ frame_needed = 0, uses_anonymous_args = 0
 237              		.loc 1 133 1 is_stmt 0 view .LVU58
 238 0000 08B5     		push	{r3, lr}
 239              		.cfi_def_cfa_offset 8
 240              		.cfi_offset 3, -8
ARM GAS  /tmp/cclB1ShU.s 			page 8


 241              		.cfi_offset 14, -4
 134:Core/Src/stm32l4xx_hal_msp.c ****   if(hi2c->Instance==I2C2)
 242              		.loc 1 134 3 is_stmt 1 view .LVU59
 243              		.loc 1 134 10 is_stmt 0 view .LVU60
 244 0002 0268     		ldr	r2, [r0]
 245              		.loc 1 134 5 view .LVU61
 246 0004 094B     		ldr	r3, .L17
 247 0006 9A42     		cmp	r2, r3
 248 0008 00D0     		beq	.L16
 249              	.LVL11:
 250              	.L13:
 135:Core/Src/stm32l4xx_hal_msp.c ****   {
 136:Core/Src/stm32l4xx_hal_msp.c ****     /* USER CODE BEGIN I2C2_MspDeInit 0 */
 137:Core/Src/stm32l4xx_hal_msp.c **** 
 138:Core/Src/stm32l4xx_hal_msp.c ****     /* USER CODE END I2C2_MspDeInit 0 */
 139:Core/Src/stm32l4xx_hal_msp.c ****     /* Peripheral clock disable */
 140:Core/Src/stm32l4xx_hal_msp.c ****     __HAL_RCC_I2C2_CLK_DISABLE();
 141:Core/Src/stm32l4xx_hal_msp.c **** 
 142:Core/Src/stm32l4xx_hal_msp.c ****     /**I2C2 GPIO Configuration
 143:Core/Src/stm32l4xx_hal_msp.c ****     PB13     ------> I2C2_SCL
 144:Core/Src/stm32l4xx_hal_msp.c ****     PB14     ------> I2C2_SDA
 145:Core/Src/stm32l4xx_hal_msp.c ****     */
 146:Core/Src/stm32l4xx_hal_msp.c ****     HAL_GPIO_DeInit(GPIOB, GPIO_PIN_13);
 147:Core/Src/stm32l4xx_hal_msp.c **** 
 148:Core/Src/stm32l4xx_hal_msp.c ****     HAL_GPIO_DeInit(GPIOB, GPIO_PIN_14);
 149:Core/Src/stm32l4xx_hal_msp.c **** 
 150:Core/Src/stm32l4xx_hal_msp.c ****     /* USER CODE BEGIN I2C2_MspDeInit 1 */
 151:Core/Src/stm32l4xx_hal_msp.c **** 
 152:Core/Src/stm32l4xx_hal_msp.c ****     /* USER CODE END I2C2_MspDeInit 1 */
 153:Core/Src/stm32l4xx_hal_msp.c ****   }
 154:Core/Src/stm32l4xx_hal_msp.c **** 
 155:Core/Src/stm32l4xx_hal_msp.c **** }
 251              		.loc 1 155 1 view .LVU62
 252 000a 08BD     		pop	{r3, pc}
 253              	.LVL12:
 254              	.L16:
 140:Core/Src/stm32l4xx_hal_msp.c **** 
 255              		.loc 1 140 5 is_stmt 1 view .LVU63
 256 000c 084A     		ldr	r2, .L17+4
 257 000e 936D     		ldr	r3, [r2, #88]
 258 0010 23F48003 		bic	r3, r3, #4194304
 259 0014 9365     		str	r3, [r2, #88]
 146:Core/Src/stm32l4xx_hal_msp.c **** 
 260              		.loc 1 146 5 view .LVU64
 261 0016 4FF40051 		mov	r1, #8192
 262 001a 0648     		ldr	r0, .L17+8
 263              	.LVL13:
 146:Core/Src/stm32l4xx_hal_msp.c **** 
 264              		.loc 1 146 5 is_stmt 0 view .LVU65
 265 001c FFF7FEFF 		bl	HAL_GPIO_DeInit
 266              	.LVL14:
 148:Core/Src/stm32l4xx_hal_msp.c **** 
 267              		.loc 1 148 5 is_stmt 1 view .LVU66
 268 0020 4FF48041 		mov	r1, #16384
 269 0024 0348     		ldr	r0, .L17+8
 270 0026 FFF7FEFF 		bl	HAL_GPIO_DeInit
 271              	.LVL15:
ARM GAS  /tmp/cclB1ShU.s 			page 9


 272              		.loc 1 155 1 is_stmt 0 view .LVU67
 273 002a EEE7     		b	.L13
 274              	.L18:
 275              		.align	2
 276              	.L17:
 277 002c 00580040 		.word	1073764352
 278 0030 00100240 		.word	1073876992
 279 0034 00040048 		.word	1207960576
 280              		.cfi_endproc
 281              	.LFE230:
 283              		.section	.text.HAL_UART_MspInit,"ax",%progbits
 284              		.align	1
 285              		.global	HAL_UART_MspInit
 286              		.syntax unified
 287              		.thumb
 288              		.thumb_func
 290              	HAL_UART_MspInit:
 291              	.LVL16:
 292              	.LFB231:
 156:Core/Src/stm32l4xx_hal_msp.c **** 
 157:Core/Src/stm32l4xx_hal_msp.c **** /**
 158:Core/Src/stm32l4xx_hal_msp.c ****   * @brief UART MSP Initialization
 159:Core/Src/stm32l4xx_hal_msp.c ****   * This function configures the hardware resources used in this example
 160:Core/Src/stm32l4xx_hal_msp.c ****   * @param huart: UART handle pointer
 161:Core/Src/stm32l4xx_hal_msp.c ****   * @retval None
 162:Core/Src/stm32l4xx_hal_msp.c ****   */
 163:Core/Src/stm32l4xx_hal_msp.c **** void HAL_UART_MspInit(UART_HandleTypeDef* huart)
 164:Core/Src/stm32l4xx_hal_msp.c **** {
 293              		.loc 1 164 1 is_stmt 1 view -0
 294              		.cfi_startproc
 295              		@ args = 0, pretend = 0, frame = 184
 296              		@ frame_needed = 0, uses_anonymous_args = 0
 297              		.loc 1 164 1 is_stmt 0 view .LVU69
 298 0000 10B5     		push	{r4, lr}
 299              		.cfi_def_cfa_offset 8
 300              		.cfi_offset 4, -8
 301              		.cfi_offset 14, -4
 302 0002 AEB0     		sub	sp, sp, #184
 303              		.cfi_def_cfa_offset 192
 304 0004 0446     		mov	r4, r0
 165:Core/Src/stm32l4xx_hal_msp.c ****   GPIO_InitTypeDef GPIO_InitStruct = {0};
 305              		.loc 1 165 3 is_stmt 1 view .LVU70
 306              		.loc 1 165 20 is_stmt 0 view .LVU71
 307 0006 0021     		movs	r1, #0
 308 0008 2991     		str	r1, [sp, #164]
 309 000a 2A91     		str	r1, [sp, #168]
 310 000c 2B91     		str	r1, [sp, #172]
 311 000e 2C91     		str	r1, [sp, #176]
 312 0010 2D91     		str	r1, [sp, #180]
 166:Core/Src/stm32l4xx_hal_msp.c ****   RCC_PeriphCLKInitTypeDef PeriphClkInit = {0};
 313              		.loc 1 166 3 is_stmt 1 view .LVU72
 314              		.loc 1 166 28 is_stmt 0 view .LVU73
 315 0012 8822     		movs	r2, #136
 316 0014 07A8     		add	r0, sp, #28
 317              	.LVL17:
 318              		.loc 1 166 28 view .LVU74
 319 0016 FFF7FEFF 		bl	memset
ARM GAS  /tmp/cclB1ShU.s 			page 10


 320              	.LVL18:
 167:Core/Src/stm32l4xx_hal_msp.c ****   if(huart->Instance==LPUART1)
 321              		.loc 1 167 3 is_stmt 1 view .LVU75
 322              		.loc 1 167 11 is_stmt 0 view .LVU76
 323 001a 2368     		ldr	r3, [r4]
 324              		.loc 1 167 5 view .LVU77
 325 001c 454A     		ldr	r2, .L33
 326 001e 9342     		cmp	r3, r2
 327 0020 07D0     		beq	.L27
 168:Core/Src/stm32l4xx_hal_msp.c ****   {
 169:Core/Src/stm32l4xx_hal_msp.c ****     /* USER CODE BEGIN LPUART1_MspInit 0 */
 170:Core/Src/stm32l4xx_hal_msp.c **** 
 171:Core/Src/stm32l4xx_hal_msp.c ****     /* USER CODE END LPUART1_MspInit 0 */
 172:Core/Src/stm32l4xx_hal_msp.c **** 
 173:Core/Src/stm32l4xx_hal_msp.c ****   /** Initializes the peripherals clock
 174:Core/Src/stm32l4xx_hal_msp.c ****   */
 175:Core/Src/stm32l4xx_hal_msp.c ****     PeriphClkInit.PeriphClockSelection = RCC_PERIPHCLK_LPUART1;
 176:Core/Src/stm32l4xx_hal_msp.c ****     PeriphClkInit.Lpuart1ClockSelection = RCC_LPUART1CLKSOURCE_PCLK1;
 177:Core/Src/stm32l4xx_hal_msp.c ****     if (HAL_RCCEx_PeriphCLKConfig(&PeriphClkInit) != HAL_OK)
 178:Core/Src/stm32l4xx_hal_msp.c ****     {
 179:Core/Src/stm32l4xx_hal_msp.c ****       Error_Handler();
 180:Core/Src/stm32l4xx_hal_msp.c ****     }
 181:Core/Src/stm32l4xx_hal_msp.c **** 
 182:Core/Src/stm32l4xx_hal_msp.c ****     /* Peripheral clock enable */
 183:Core/Src/stm32l4xx_hal_msp.c ****     __HAL_RCC_LPUART1_CLK_ENABLE();
 184:Core/Src/stm32l4xx_hal_msp.c **** 
 185:Core/Src/stm32l4xx_hal_msp.c ****     __HAL_RCC_GPIOC_CLK_ENABLE();
 186:Core/Src/stm32l4xx_hal_msp.c ****     /**LPUART1 GPIO Configuration
 187:Core/Src/stm32l4xx_hal_msp.c ****     PC0     ------> LPUART1_RX
 188:Core/Src/stm32l4xx_hal_msp.c ****     PC1     ------> LPUART1_TX
 189:Core/Src/stm32l4xx_hal_msp.c ****     */
 190:Core/Src/stm32l4xx_hal_msp.c ****     GPIO_InitStruct.Pin = L0_LPUART1_RX_Pin|L0_LPUART1_TX_Pin;
 191:Core/Src/stm32l4xx_hal_msp.c ****     GPIO_InitStruct.Mode = GPIO_MODE_AF_PP;
 192:Core/Src/stm32l4xx_hal_msp.c ****     GPIO_InitStruct.Pull = GPIO_NOPULL;
 193:Core/Src/stm32l4xx_hal_msp.c ****     GPIO_InitStruct.Speed = GPIO_SPEED_FREQ_VERY_HIGH;
 194:Core/Src/stm32l4xx_hal_msp.c ****     GPIO_InitStruct.Alternate = GPIO_AF8_LPUART1;
 195:Core/Src/stm32l4xx_hal_msp.c ****     HAL_GPIO_Init(GPIOC, &GPIO_InitStruct);
 196:Core/Src/stm32l4xx_hal_msp.c **** 
 197:Core/Src/stm32l4xx_hal_msp.c ****     /* USER CODE BEGIN LPUART1_MspInit 1 */
 198:Core/Src/stm32l4xx_hal_msp.c **** 
 199:Core/Src/stm32l4xx_hal_msp.c ****     /* USER CODE END LPUART1_MspInit 1 */
 200:Core/Src/stm32l4xx_hal_msp.c ****   }
 201:Core/Src/stm32l4xx_hal_msp.c ****   else if(huart->Instance==USART2)
 328              		.loc 1 201 8 is_stmt 1 view .LVU78
 329              		.loc 1 201 10 is_stmt 0 view .LVU79
 330 0022 454A     		ldr	r2, .L33+4
 331 0024 9342     		cmp	r3, r2
 332 0026 2ED0     		beq	.L28
 202:Core/Src/stm32l4xx_hal_msp.c ****   {
 203:Core/Src/stm32l4xx_hal_msp.c ****     /* USER CODE BEGIN USART2_MspInit 0 */
 204:Core/Src/stm32l4xx_hal_msp.c **** 
 205:Core/Src/stm32l4xx_hal_msp.c ****     /* USER CODE END USART2_MspInit 0 */
 206:Core/Src/stm32l4xx_hal_msp.c **** 
 207:Core/Src/stm32l4xx_hal_msp.c ****   /** Initializes the peripherals clock
 208:Core/Src/stm32l4xx_hal_msp.c ****   */
 209:Core/Src/stm32l4xx_hal_msp.c ****     PeriphClkInit.PeriphClockSelection = RCC_PERIPHCLK_USART2;
 210:Core/Src/stm32l4xx_hal_msp.c ****     PeriphClkInit.Usart2ClockSelection = RCC_USART2CLKSOURCE_PCLK1;
ARM GAS  /tmp/cclB1ShU.s 			page 11


 211:Core/Src/stm32l4xx_hal_msp.c ****     if (HAL_RCCEx_PeriphCLKConfig(&PeriphClkInit) != HAL_OK)
 212:Core/Src/stm32l4xx_hal_msp.c ****     {
 213:Core/Src/stm32l4xx_hal_msp.c ****       Error_Handler();
 214:Core/Src/stm32l4xx_hal_msp.c ****     }
 215:Core/Src/stm32l4xx_hal_msp.c **** 
 216:Core/Src/stm32l4xx_hal_msp.c ****     /* Peripheral clock enable */
 217:Core/Src/stm32l4xx_hal_msp.c ****     __HAL_RCC_USART2_CLK_ENABLE();
 218:Core/Src/stm32l4xx_hal_msp.c **** 
 219:Core/Src/stm32l4xx_hal_msp.c ****     __HAL_RCC_GPIOA_CLK_ENABLE();
 220:Core/Src/stm32l4xx_hal_msp.c ****     /**USART2 GPIO Configuration
 221:Core/Src/stm32l4xx_hal_msp.c ****     PA0     ------> USART2_CTS
 222:Core/Src/stm32l4xx_hal_msp.c ****     PA1     ------> USART2_RTS
 223:Core/Src/stm32l4xx_hal_msp.c ****     PA2     ------> USART2_TX
 224:Core/Src/stm32l4xx_hal_msp.c ****     PA3     ------> USART2_RX
 225:Core/Src/stm32l4xx_hal_msp.c ****     */
 226:Core/Src/stm32l4xx_hal_msp.c ****     GPIO_InitStruct.Pin = Wi_USART2_CTS_Pin|Wi_USART2_RTS_Pin|Wi_USART2_TX_Pin|Wi_USART2_RX_Pin;
 227:Core/Src/stm32l4xx_hal_msp.c ****     GPIO_InitStruct.Mode = GPIO_MODE_AF_PP;
 228:Core/Src/stm32l4xx_hal_msp.c ****     GPIO_InitStruct.Pull = GPIO_NOPULL;
 229:Core/Src/stm32l4xx_hal_msp.c ****     GPIO_InitStruct.Speed = GPIO_SPEED_FREQ_VERY_HIGH;
 230:Core/Src/stm32l4xx_hal_msp.c ****     GPIO_InitStruct.Alternate = GPIO_AF7_USART2;
 231:Core/Src/stm32l4xx_hal_msp.c ****     HAL_GPIO_Init(GPIOA, &GPIO_InitStruct);
 232:Core/Src/stm32l4xx_hal_msp.c **** 
 233:Core/Src/stm32l4xx_hal_msp.c ****     /* USER CODE BEGIN USART2_MspInit 1 */
 234:Core/Src/stm32l4xx_hal_msp.c **** 
 235:Core/Src/stm32l4xx_hal_msp.c ****     /* USER CODE END USART2_MspInit 1 */
 236:Core/Src/stm32l4xx_hal_msp.c ****   }
 237:Core/Src/stm32l4xx_hal_msp.c ****   else if(huart->Instance==USART3)
 333              		.loc 1 237 8 is_stmt 1 view .LVU80
 334              		.loc 1 237 10 is_stmt 0 view .LVU81
 335 0028 444A     		ldr	r2, .L33+8
 336 002a 9342     		cmp	r3, r2
 337 002c 57D0     		beq	.L29
 338              	.L19:
 238:Core/Src/stm32l4xx_hal_msp.c ****   {
 239:Core/Src/stm32l4xx_hal_msp.c ****     /* USER CODE BEGIN USART3_MspInit 0 */
 240:Core/Src/stm32l4xx_hal_msp.c **** 
 241:Core/Src/stm32l4xx_hal_msp.c ****     /* USER CODE END USART3_MspInit 0 */
 242:Core/Src/stm32l4xx_hal_msp.c **** 
 243:Core/Src/stm32l4xx_hal_msp.c ****   /** Initializes the peripherals clock
 244:Core/Src/stm32l4xx_hal_msp.c ****   */
 245:Core/Src/stm32l4xx_hal_msp.c ****     PeriphClkInit.PeriphClockSelection = RCC_PERIPHCLK_USART3;
 246:Core/Src/stm32l4xx_hal_msp.c ****     PeriphClkInit.Usart3ClockSelection = RCC_USART3CLKSOURCE_PCLK1;
 247:Core/Src/stm32l4xx_hal_msp.c ****     if (HAL_RCCEx_PeriphCLKConfig(&PeriphClkInit) != HAL_OK)
 248:Core/Src/stm32l4xx_hal_msp.c ****     {
 249:Core/Src/stm32l4xx_hal_msp.c ****       Error_Handler();
 250:Core/Src/stm32l4xx_hal_msp.c ****     }
 251:Core/Src/stm32l4xx_hal_msp.c **** 
 252:Core/Src/stm32l4xx_hal_msp.c ****     /* Peripheral clock enable */
 253:Core/Src/stm32l4xx_hal_msp.c ****     __HAL_RCC_USART3_CLK_ENABLE();
 254:Core/Src/stm32l4xx_hal_msp.c **** 
 255:Core/Src/stm32l4xx_hal_msp.c ****     __HAL_RCC_GPIOC_CLK_ENABLE();
 256:Core/Src/stm32l4xx_hal_msp.c ****     /**USART3 GPIO Configuration
 257:Core/Src/stm32l4xx_hal_msp.c ****     PC4     ------> USART3_TX
 258:Core/Src/stm32l4xx_hal_msp.c ****     PC5     ------> USART3_RX
 259:Core/Src/stm32l4xx_hal_msp.c ****     */
 260:Core/Src/stm32l4xx_hal_msp.c ****     GPIO_InitStruct.Pin = Wi_USART3_TX_Pin|Wi_USART3_RX_Pin;
 261:Core/Src/stm32l4xx_hal_msp.c ****     GPIO_InitStruct.Mode = GPIO_MODE_AF_PP;
ARM GAS  /tmp/cclB1ShU.s 			page 12


 262:Core/Src/stm32l4xx_hal_msp.c ****     GPIO_InitStruct.Pull = GPIO_NOPULL;
 263:Core/Src/stm32l4xx_hal_msp.c ****     GPIO_InitStruct.Speed = GPIO_SPEED_FREQ_VERY_HIGH;
 264:Core/Src/stm32l4xx_hal_msp.c ****     GPIO_InitStruct.Alternate = GPIO_AF7_USART3;
 265:Core/Src/stm32l4xx_hal_msp.c ****     HAL_GPIO_Init(GPIOC, &GPIO_InitStruct);
 266:Core/Src/stm32l4xx_hal_msp.c **** 
 267:Core/Src/stm32l4xx_hal_msp.c ****     /* USER CODE BEGIN USART3_MspInit 1 */
 268:Core/Src/stm32l4xx_hal_msp.c **** 
 269:Core/Src/stm32l4xx_hal_msp.c ****     /* USER CODE END USART3_MspInit 1 */
 270:Core/Src/stm32l4xx_hal_msp.c ****   }
 271:Core/Src/stm32l4xx_hal_msp.c **** 
 272:Core/Src/stm32l4xx_hal_msp.c **** }
 339              		.loc 1 272 1 view .LVU82
 340 002e 2EB0     		add	sp, sp, #184
 341              		.cfi_remember_state
 342              		.cfi_def_cfa_offset 8
 343              		@ sp needed
 344 0030 10BD     		pop	{r4, pc}
 345              	.LVL19:
 346              	.L27:
 347              		.cfi_restore_state
 175:Core/Src/stm32l4xx_hal_msp.c ****     PeriphClkInit.Lpuart1ClockSelection = RCC_LPUART1CLKSOURCE_PCLK1;
 348              		.loc 1 175 5 is_stmt 1 view .LVU83
 175:Core/Src/stm32l4xx_hal_msp.c ****     PeriphClkInit.Lpuart1ClockSelection = RCC_LPUART1CLKSOURCE_PCLK1;
 349              		.loc 1 175 40 is_stmt 0 view .LVU84
 350 0032 2023     		movs	r3, #32
 351 0034 0793     		str	r3, [sp, #28]
 176:Core/Src/stm32l4xx_hal_msp.c ****     if (HAL_RCCEx_PeriphCLKConfig(&PeriphClkInit) != HAL_OK)
 352              		.loc 1 176 5 is_stmt 1 view .LVU85
 177:Core/Src/stm32l4xx_hal_msp.c ****     {
 353              		.loc 1 177 5 view .LVU86
 177:Core/Src/stm32l4xx_hal_msp.c ****     {
 354              		.loc 1 177 9 is_stmt 0 view .LVU87
 355 0036 07A8     		add	r0, sp, #28
 356 0038 FFF7FEFF 		bl	HAL_RCCEx_PeriphCLKConfig
 357              	.LVL20:
 177:Core/Src/stm32l4xx_hal_msp.c ****     {
 358              		.loc 1 177 8 discriminator 1 view .LVU88
 359 003c 00BB     		cbnz	r0, .L30
 360              	.L21:
 183:Core/Src/stm32l4xx_hal_msp.c **** 
 361              		.loc 1 183 5 is_stmt 1 view .LVU89
 362              	.LBB6:
 183:Core/Src/stm32l4xx_hal_msp.c **** 
 363              		.loc 1 183 5 view .LVU90
 183:Core/Src/stm32l4xx_hal_msp.c **** 
 364              		.loc 1 183 5 view .LVU91
 365 003e 404B     		ldr	r3, .L33+12
 366 0040 DA6D     		ldr	r2, [r3, #92]
 367 0042 42F00102 		orr	r2, r2, #1
 368 0046 DA65     		str	r2, [r3, #92]
 183:Core/Src/stm32l4xx_hal_msp.c **** 
 369              		.loc 1 183 5 view .LVU92
 370 0048 DA6D     		ldr	r2, [r3, #92]
 371 004a 02F00102 		and	r2, r2, #1
 372 004e 0192     		str	r2, [sp, #4]
 183:Core/Src/stm32l4xx_hal_msp.c **** 
 373              		.loc 1 183 5 view .LVU93
ARM GAS  /tmp/cclB1ShU.s 			page 13


 374 0050 019A     		ldr	r2, [sp, #4]
 375              	.LBE6:
 183:Core/Src/stm32l4xx_hal_msp.c **** 
 376              		.loc 1 183 5 view .LVU94
 185:Core/Src/stm32l4xx_hal_msp.c ****     /**LPUART1 GPIO Configuration
 377              		.loc 1 185 5 view .LVU95
 378              	.LBB7:
 185:Core/Src/stm32l4xx_hal_msp.c ****     /**LPUART1 GPIO Configuration
 379              		.loc 1 185 5 view .LVU96
 185:Core/Src/stm32l4xx_hal_msp.c ****     /**LPUART1 GPIO Configuration
 380              		.loc 1 185 5 view .LVU97
 381 0052 DA6C     		ldr	r2, [r3, #76]
 382 0054 42F00402 		orr	r2, r2, #4
 383 0058 DA64     		str	r2, [r3, #76]
 185:Core/Src/stm32l4xx_hal_msp.c ****     /**LPUART1 GPIO Configuration
 384              		.loc 1 185 5 view .LVU98
 385 005a DB6C     		ldr	r3, [r3, #76]
 386 005c 03F00403 		and	r3, r3, #4
 387 0060 0293     		str	r3, [sp, #8]
 185:Core/Src/stm32l4xx_hal_msp.c ****     /**LPUART1 GPIO Configuration
 388              		.loc 1 185 5 view .LVU99
 389 0062 029B     		ldr	r3, [sp, #8]
 390              	.LBE7:
 185:Core/Src/stm32l4xx_hal_msp.c ****     /**LPUART1 GPIO Configuration
 391              		.loc 1 185 5 view .LVU100
 190:Core/Src/stm32l4xx_hal_msp.c ****     GPIO_InitStruct.Mode = GPIO_MODE_AF_PP;
 392              		.loc 1 190 5 view .LVU101
 190:Core/Src/stm32l4xx_hal_msp.c ****     GPIO_InitStruct.Mode = GPIO_MODE_AF_PP;
 393              		.loc 1 190 25 is_stmt 0 view .LVU102
 394 0064 0323     		movs	r3, #3
 395 0066 2993     		str	r3, [sp, #164]
 191:Core/Src/stm32l4xx_hal_msp.c ****     GPIO_InitStruct.Pull = GPIO_NOPULL;
 396              		.loc 1 191 5 is_stmt 1 view .LVU103
 191:Core/Src/stm32l4xx_hal_msp.c ****     GPIO_InitStruct.Pull = GPIO_NOPULL;
 397              		.loc 1 191 26 is_stmt 0 view .LVU104
 398 0068 0222     		movs	r2, #2
 399 006a 2A92     		str	r2, [sp, #168]
 192:Core/Src/stm32l4xx_hal_msp.c ****     GPIO_InitStruct.Speed = GPIO_SPEED_FREQ_VERY_HIGH;
 400              		.loc 1 192 5 is_stmt 1 view .LVU105
 192:Core/Src/stm32l4xx_hal_msp.c ****     GPIO_InitStruct.Speed = GPIO_SPEED_FREQ_VERY_HIGH;
 401              		.loc 1 192 26 is_stmt 0 view .LVU106
 402 006c 0022     		movs	r2, #0
 403 006e 2B92     		str	r2, [sp, #172]
 193:Core/Src/stm32l4xx_hal_msp.c ****     GPIO_InitStruct.Alternate = GPIO_AF8_LPUART1;
 404              		.loc 1 193 5 is_stmt 1 view .LVU107
 193:Core/Src/stm32l4xx_hal_msp.c ****     GPIO_InitStruct.Alternate = GPIO_AF8_LPUART1;
 405              		.loc 1 193 27 is_stmt 0 view .LVU108
 406 0070 2C93     		str	r3, [sp, #176]
 194:Core/Src/stm32l4xx_hal_msp.c ****     HAL_GPIO_Init(GPIOC, &GPIO_InitStruct);
 407              		.loc 1 194 5 is_stmt 1 view .LVU109
 194:Core/Src/stm32l4xx_hal_msp.c ****     HAL_GPIO_Init(GPIOC, &GPIO_InitStruct);
 408              		.loc 1 194 31 is_stmt 0 view .LVU110
 409 0072 0823     		movs	r3, #8
 410 0074 2D93     		str	r3, [sp, #180]
 195:Core/Src/stm32l4xx_hal_msp.c **** 
 411              		.loc 1 195 5 is_stmt 1 view .LVU111
 412 0076 29A9     		add	r1, sp, #164
ARM GAS  /tmp/cclB1ShU.s 			page 14


 413 0078 3248     		ldr	r0, .L33+16
 414 007a FFF7FEFF 		bl	HAL_GPIO_Init
 415              	.LVL21:
 416 007e D6E7     		b	.L19
 417              	.L30:
 179:Core/Src/stm32l4xx_hal_msp.c ****     }
 418              		.loc 1 179 7 view .LVU112
 419 0080 FFF7FEFF 		bl	Error_Handler
 420              	.LVL22:
 421 0084 DBE7     		b	.L21
 422              	.L28:
 209:Core/Src/stm32l4xx_hal_msp.c ****     PeriphClkInit.Usart2ClockSelection = RCC_USART2CLKSOURCE_PCLK1;
 423              		.loc 1 209 5 view .LVU113
 209:Core/Src/stm32l4xx_hal_msp.c ****     PeriphClkInit.Usart2ClockSelection = RCC_USART2CLKSOURCE_PCLK1;
 424              		.loc 1 209 40 is_stmt 0 view .LVU114
 425 0086 0223     		movs	r3, #2
 426 0088 0793     		str	r3, [sp, #28]
 210:Core/Src/stm32l4xx_hal_msp.c ****     if (HAL_RCCEx_PeriphCLKConfig(&PeriphClkInit) != HAL_OK)
 427              		.loc 1 210 5 is_stmt 1 view .LVU115
 211:Core/Src/stm32l4xx_hal_msp.c ****     {
 428              		.loc 1 211 5 view .LVU116
 211:Core/Src/stm32l4xx_hal_msp.c ****     {
 429              		.loc 1 211 9 is_stmt 0 view .LVU117
 430 008a 07A8     		add	r0, sp, #28
 431 008c FFF7FEFF 		bl	HAL_RCCEx_PeriphCLKConfig
 432              	.LVL23:
 211:Core/Src/stm32l4xx_hal_msp.c ****     {
 433              		.loc 1 211 8 discriminator 1 view .LVU118
 434 0090 10BB     		cbnz	r0, .L31
 435              	.L24:
 217:Core/Src/stm32l4xx_hal_msp.c **** 
 436              		.loc 1 217 5 is_stmt 1 view .LVU119
 437              	.LBB8:
 217:Core/Src/stm32l4xx_hal_msp.c **** 
 438              		.loc 1 217 5 view .LVU120
 217:Core/Src/stm32l4xx_hal_msp.c **** 
 439              		.loc 1 217 5 view .LVU121
 440 0092 2B4B     		ldr	r3, .L33+12
 441 0094 9A6D     		ldr	r2, [r3, #88]
 442 0096 42F40032 		orr	r2, r2, #131072
 443 009a 9A65     		str	r2, [r3, #88]
 217:Core/Src/stm32l4xx_hal_msp.c **** 
 444              		.loc 1 217 5 view .LVU122
 445 009c 9A6D     		ldr	r2, [r3, #88]
 446 009e 02F40032 		and	r2, r2, #131072
 447 00a2 0392     		str	r2, [sp, #12]
 217:Core/Src/stm32l4xx_hal_msp.c **** 
 448              		.loc 1 217 5 view .LVU123
 449 00a4 039A     		ldr	r2, [sp, #12]
 450              	.LBE8:
 217:Core/Src/stm32l4xx_hal_msp.c **** 
 451              		.loc 1 217 5 view .LVU124
 219:Core/Src/stm32l4xx_hal_msp.c ****     /**USART2 GPIO Configuration
 452              		.loc 1 219 5 view .LVU125
 453              	.LBB9:
 219:Core/Src/stm32l4xx_hal_msp.c ****     /**USART2 GPIO Configuration
 454              		.loc 1 219 5 view .LVU126
ARM GAS  /tmp/cclB1ShU.s 			page 15


 219:Core/Src/stm32l4xx_hal_msp.c ****     /**USART2 GPIO Configuration
 455              		.loc 1 219 5 view .LVU127
 456 00a6 DA6C     		ldr	r2, [r3, #76]
 457 00a8 42F00102 		orr	r2, r2, #1
 458 00ac DA64     		str	r2, [r3, #76]
 219:Core/Src/stm32l4xx_hal_msp.c ****     /**USART2 GPIO Configuration
 459              		.loc 1 219 5 view .LVU128
 460 00ae DB6C     		ldr	r3, [r3, #76]
 461 00b0 03F00103 		and	r3, r3, #1
 462 00b4 0493     		str	r3, [sp, #16]
 219:Core/Src/stm32l4xx_hal_msp.c ****     /**USART2 GPIO Configuration
 463              		.loc 1 219 5 view .LVU129
 464 00b6 049B     		ldr	r3, [sp, #16]
 465              	.LBE9:
 219:Core/Src/stm32l4xx_hal_msp.c ****     /**USART2 GPIO Configuration
 466              		.loc 1 219 5 view .LVU130
 226:Core/Src/stm32l4xx_hal_msp.c ****     GPIO_InitStruct.Mode = GPIO_MODE_AF_PP;
 467              		.loc 1 226 5 view .LVU131
 226:Core/Src/stm32l4xx_hal_msp.c ****     GPIO_InitStruct.Mode = GPIO_MODE_AF_PP;
 468              		.loc 1 226 25 is_stmt 0 view .LVU132
 469 00b8 0F23     		movs	r3, #15
 470 00ba 2993     		str	r3, [sp, #164]
 227:Core/Src/stm32l4xx_hal_msp.c ****     GPIO_InitStruct.Pull = GPIO_NOPULL;
 471              		.loc 1 227 5 is_stmt 1 view .LVU133
 227:Core/Src/stm32l4xx_hal_msp.c ****     GPIO_InitStruct.Pull = GPIO_NOPULL;
 472              		.loc 1 227 26 is_stmt 0 view .LVU134
 473 00bc 0223     		movs	r3, #2
 474 00be 2A93     		str	r3, [sp, #168]
 228:Core/Src/stm32l4xx_hal_msp.c ****     GPIO_InitStruct.Speed = GPIO_SPEED_FREQ_VERY_HIGH;
 475              		.loc 1 228 5 is_stmt 1 view .LVU135
 228:Core/Src/stm32l4xx_hal_msp.c ****     GPIO_InitStruct.Speed = GPIO_SPEED_FREQ_VERY_HIGH;
 476              		.loc 1 228 26 is_stmt 0 view .LVU136
 477 00c0 0023     		movs	r3, #0
 478 00c2 2B93     		str	r3, [sp, #172]
 229:Core/Src/stm32l4xx_hal_msp.c ****     GPIO_InitStruct.Alternate = GPIO_AF7_USART2;
 479              		.loc 1 229 5 is_stmt 1 view .LVU137
 229:Core/Src/stm32l4xx_hal_msp.c ****     GPIO_InitStruct.Alternate = GPIO_AF7_USART2;
 480              		.loc 1 229 27 is_stmt 0 view .LVU138
 481 00c4 0323     		movs	r3, #3
 482 00c6 2C93     		str	r3, [sp, #176]
 230:Core/Src/stm32l4xx_hal_msp.c ****     HAL_GPIO_Init(GPIOA, &GPIO_InitStruct);
 483              		.loc 1 230 5 is_stmt 1 view .LVU139
 230:Core/Src/stm32l4xx_hal_msp.c ****     HAL_GPIO_Init(GPIOA, &GPIO_InitStruct);
 484              		.loc 1 230 31 is_stmt 0 view .LVU140
 485 00c8 0723     		movs	r3, #7
 486 00ca 2D93     		str	r3, [sp, #180]
 231:Core/Src/stm32l4xx_hal_msp.c **** 
 487              		.loc 1 231 5 is_stmt 1 view .LVU141
 488 00cc 29A9     		add	r1, sp, #164
 489 00ce 4FF09040 		mov	r0, #1207959552
 490 00d2 FFF7FEFF 		bl	HAL_GPIO_Init
 491              	.LVL24:
 492 00d6 AAE7     		b	.L19
 493              	.L31:
 213:Core/Src/stm32l4xx_hal_msp.c ****     }
 494              		.loc 1 213 7 view .LVU142
 495 00d8 FFF7FEFF 		bl	Error_Handler
ARM GAS  /tmp/cclB1ShU.s 			page 16


 496              	.LVL25:
 497 00dc D9E7     		b	.L24
 498              	.L29:
 245:Core/Src/stm32l4xx_hal_msp.c ****     PeriphClkInit.Usart3ClockSelection = RCC_USART3CLKSOURCE_PCLK1;
 499              		.loc 1 245 5 view .LVU143
 245:Core/Src/stm32l4xx_hal_msp.c ****     PeriphClkInit.Usart3ClockSelection = RCC_USART3CLKSOURCE_PCLK1;
 500              		.loc 1 245 40 is_stmt 0 view .LVU144
 501 00de 0423     		movs	r3, #4
 502 00e0 0793     		str	r3, [sp, #28]
 246:Core/Src/stm32l4xx_hal_msp.c ****     if (HAL_RCCEx_PeriphCLKConfig(&PeriphClkInit) != HAL_OK)
 503              		.loc 1 246 5 is_stmt 1 view .LVU145
 247:Core/Src/stm32l4xx_hal_msp.c ****     {
 504              		.loc 1 247 5 view .LVU146
 247:Core/Src/stm32l4xx_hal_msp.c ****     {
 505              		.loc 1 247 9 is_stmt 0 view .LVU147
 506 00e2 07A8     		add	r0, sp, #28
 507 00e4 FFF7FEFF 		bl	HAL_RCCEx_PeriphCLKConfig
 508              	.LVL26:
 247:Core/Src/stm32l4xx_hal_msp.c ****     {
 509              		.loc 1 247 8 discriminator 1 view .LVU148
 510 00e8 08BB     		cbnz	r0, .L32
 511              	.L25:
 253:Core/Src/stm32l4xx_hal_msp.c **** 
 512              		.loc 1 253 5 is_stmt 1 view .LVU149
 513              	.LBB10:
 253:Core/Src/stm32l4xx_hal_msp.c **** 
 514              		.loc 1 253 5 view .LVU150
 253:Core/Src/stm32l4xx_hal_msp.c **** 
 515              		.loc 1 253 5 view .LVU151
 516 00ea 154B     		ldr	r3, .L33+12
 517 00ec 9A6D     		ldr	r2, [r3, #88]
 518 00ee 42F48022 		orr	r2, r2, #262144
 519 00f2 9A65     		str	r2, [r3, #88]
 253:Core/Src/stm32l4xx_hal_msp.c **** 
 520              		.loc 1 253 5 view .LVU152
 521 00f4 9A6D     		ldr	r2, [r3, #88]
 522 00f6 02F48022 		and	r2, r2, #262144
 523 00fa 0592     		str	r2, [sp, #20]
 253:Core/Src/stm32l4xx_hal_msp.c **** 
 524              		.loc 1 253 5 view .LVU153
 525 00fc 059A     		ldr	r2, [sp, #20]
 526              	.LBE10:
 253:Core/Src/stm32l4xx_hal_msp.c **** 
 527              		.loc 1 253 5 view .LVU154
 255:Core/Src/stm32l4xx_hal_msp.c ****     /**USART3 GPIO Configuration
 528              		.loc 1 255 5 view .LVU155
 529              	.LBB11:
 255:Core/Src/stm32l4xx_hal_msp.c ****     /**USART3 GPIO Configuration
 530              		.loc 1 255 5 view .LVU156
 255:Core/Src/stm32l4xx_hal_msp.c ****     /**USART3 GPIO Configuration
 531              		.loc 1 255 5 view .LVU157
 532 00fe DA6C     		ldr	r2, [r3, #76]
 533 0100 42F00402 		orr	r2, r2, #4
 534 0104 DA64     		str	r2, [r3, #76]
 255:Core/Src/stm32l4xx_hal_msp.c ****     /**USART3 GPIO Configuration
 535              		.loc 1 255 5 view .LVU158
 536 0106 DB6C     		ldr	r3, [r3, #76]
ARM GAS  /tmp/cclB1ShU.s 			page 17


 537 0108 03F00403 		and	r3, r3, #4
 538 010c 0693     		str	r3, [sp, #24]
 255:Core/Src/stm32l4xx_hal_msp.c ****     /**USART3 GPIO Configuration
 539              		.loc 1 255 5 view .LVU159
 540 010e 069B     		ldr	r3, [sp, #24]
 541              	.LBE11:
 255:Core/Src/stm32l4xx_hal_msp.c ****     /**USART3 GPIO Configuration
 542              		.loc 1 255 5 view .LVU160
 260:Core/Src/stm32l4xx_hal_msp.c ****     GPIO_InitStruct.Mode = GPIO_MODE_AF_PP;
 543              		.loc 1 260 5 view .LVU161
 260:Core/Src/stm32l4xx_hal_msp.c ****     GPIO_InitStruct.Mode = GPIO_MODE_AF_PP;
 544              		.loc 1 260 25 is_stmt 0 view .LVU162
 545 0110 3023     		movs	r3, #48
 546 0112 2993     		str	r3, [sp, #164]
 261:Core/Src/stm32l4xx_hal_msp.c ****     GPIO_InitStruct.Pull = GPIO_NOPULL;
 547              		.loc 1 261 5 is_stmt 1 view .LVU163
 261:Core/Src/stm32l4xx_hal_msp.c ****     GPIO_InitStruct.Pull = GPIO_NOPULL;
 548              		.loc 1 261 26 is_stmt 0 view .LVU164
 549 0114 0223     		movs	r3, #2
 550 0116 2A93     		str	r3, [sp, #168]
 262:Core/Src/stm32l4xx_hal_msp.c ****     GPIO_InitStruct.Speed = GPIO_SPEED_FREQ_VERY_HIGH;
 551              		.loc 1 262 5 is_stmt 1 view .LVU165
 262:Core/Src/stm32l4xx_hal_msp.c ****     GPIO_InitStruct.Speed = GPIO_SPEED_FREQ_VERY_HIGH;
 552              		.loc 1 262 26 is_stmt 0 view .LVU166
 553 0118 0023     		movs	r3, #0
 554 011a 2B93     		str	r3, [sp, #172]
 263:Core/Src/stm32l4xx_hal_msp.c ****     GPIO_InitStruct.Alternate = GPIO_AF7_USART3;
 555              		.loc 1 263 5 is_stmt 1 view .LVU167
 263:Core/Src/stm32l4xx_hal_msp.c ****     GPIO_InitStruct.Alternate = GPIO_AF7_USART3;
 556              		.loc 1 263 27 is_stmt 0 view .LVU168
 557 011c 0323     		movs	r3, #3
 558 011e 2C93     		str	r3, [sp, #176]
 264:Core/Src/stm32l4xx_hal_msp.c ****     HAL_GPIO_Init(GPIOC, &GPIO_InitStruct);
 559              		.loc 1 264 5 is_stmt 1 view .LVU169
 264:Core/Src/stm32l4xx_hal_msp.c ****     HAL_GPIO_Init(GPIOC, &GPIO_InitStruct);
 560              		.loc 1 264 31 is_stmt 0 view .LVU170
 561 0120 0723     		movs	r3, #7
 562 0122 2D93     		str	r3, [sp, #180]
 265:Core/Src/stm32l4xx_hal_msp.c **** 
 563              		.loc 1 265 5 is_stmt 1 view .LVU171
 564 0124 29A9     		add	r1, sp, #164
 565 0126 0748     		ldr	r0, .L33+16
 566 0128 FFF7FEFF 		bl	HAL_GPIO_Init
 567              	.LVL27:
 568              		.loc 1 272 1 is_stmt 0 view .LVU172
 569 012c 7FE7     		b	.L19
 570              	.L32:
 249:Core/Src/stm32l4xx_hal_msp.c ****     }
 571              		.loc 1 249 7 is_stmt 1 view .LVU173
 572 012e FFF7FEFF 		bl	Error_Handler
 573              	.LVL28:
 574 0132 DAE7     		b	.L25
 575              	.L34:
 576              		.align	2
 577              	.L33:
 578 0134 00800040 		.word	1073774592
 579 0138 00440040 		.word	1073759232
ARM GAS  /tmp/cclB1ShU.s 			page 18


 580 013c 00480040 		.word	1073760256
 581 0140 00100240 		.word	1073876992
 582 0144 00080048 		.word	1207961600
 583              		.cfi_endproc
 584              	.LFE231:
 586              		.section	.text.HAL_UART_MspDeInit,"ax",%progbits
 587              		.align	1
 588              		.global	HAL_UART_MspDeInit
 589              		.syntax unified
 590              		.thumb
 591              		.thumb_func
 593              	HAL_UART_MspDeInit:
 594              	.LVL29:
 595              	.LFB232:
 273:Core/Src/stm32l4xx_hal_msp.c **** 
 274:Core/Src/stm32l4xx_hal_msp.c **** /**
 275:Core/Src/stm32l4xx_hal_msp.c ****   * @brief UART MSP De-Initialization
 276:Core/Src/stm32l4xx_hal_msp.c ****   * This function freeze the hardware resources used in this example
 277:Core/Src/stm32l4xx_hal_msp.c ****   * @param huart: UART handle pointer
 278:Core/Src/stm32l4xx_hal_msp.c ****   * @retval None
 279:Core/Src/stm32l4xx_hal_msp.c ****   */
 280:Core/Src/stm32l4xx_hal_msp.c **** void HAL_UART_MspDeInit(UART_HandleTypeDef* huart)
 281:Core/Src/stm32l4xx_hal_msp.c **** {
 596              		.loc 1 281 1 view -0
 597              		.cfi_startproc
 598              		@ args = 0, pretend = 0, frame = 0
 599              		@ frame_needed = 0, uses_anonymous_args = 0
 600              		.loc 1 281 1 is_stmt 0 view .LVU175
 601 0000 08B5     		push	{r3, lr}
 602              		.cfi_def_cfa_offset 8
 603              		.cfi_offset 3, -8
 604              		.cfi_offset 14, -4
 282:Core/Src/stm32l4xx_hal_msp.c ****   if(huart->Instance==LPUART1)
 605              		.loc 1 282 3 is_stmt 1 view .LVU176
 606              		.loc 1 282 11 is_stmt 0 view .LVU177
 607 0002 0368     		ldr	r3, [r0]
 608              		.loc 1 282 5 view .LVU178
 609 0004 154A     		ldr	r2, .L43
 610 0006 9342     		cmp	r3, r2
 611 0008 06D0     		beq	.L40
 283:Core/Src/stm32l4xx_hal_msp.c ****   {
 284:Core/Src/stm32l4xx_hal_msp.c ****     /* USER CODE BEGIN LPUART1_MspDeInit 0 */
 285:Core/Src/stm32l4xx_hal_msp.c **** 
 286:Core/Src/stm32l4xx_hal_msp.c ****     /* USER CODE END LPUART1_MspDeInit 0 */
 287:Core/Src/stm32l4xx_hal_msp.c ****     /* Peripheral clock disable */
 288:Core/Src/stm32l4xx_hal_msp.c ****     __HAL_RCC_LPUART1_CLK_DISABLE();
 289:Core/Src/stm32l4xx_hal_msp.c **** 
 290:Core/Src/stm32l4xx_hal_msp.c ****     /**LPUART1 GPIO Configuration
 291:Core/Src/stm32l4xx_hal_msp.c ****     PC0     ------> LPUART1_RX
 292:Core/Src/stm32l4xx_hal_msp.c ****     PC1     ------> LPUART1_TX
 293:Core/Src/stm32l4xx_hal_msp.c ****     */
 294:Core/Src/stm32l4xx_hal_msp.c ****     HAL_GPIO_DeInit(GPIOC, L0_LPUART1_RX_Pin|L0_LPUART1_TX_Pin);
 295:Core/Src/stm32l4xx_hal_msp.c **** 
 296:Core/Src/stm32l4xx_hal_msp.c ****     /* USER CODE BEGIN LPUART1_MspDeInit 1 */
 297:Core/Src/stm32l4xx_hal_msp.c **** 
 298:Core/Src/stm32l4xx_hal_msp.c ****     /* USER CODE END LPUART1_MspDeInit 1 */
 299:Core/Src/stm32l4xx_hal_msp.c ****   }
ARM GAS  /tmp/cclB1ShU.s 			page 19


 300:Core/Src/stm32l4xx_hal_msp.c ****   else if(huart->Instance==USART2)
 612              		.loc 1 300 8 is_stmt 1 view .LVU179
 613              		.loc 1 300 10 is_stmt 0 view .LVU180
 614 000a 154A     		ldr	r2, .L43+4
 615 000c 9342     		cmp	r3, r2
 616 000e 0ED0     		beq	.L41
 301:Core/Src/stm32l4xx_hal_msp.c ****   {
 302:Core/Src/stm32l4xx_hal_msp.c ****     /* USER CODE BEGIN USART2_MspDeInit 0 */
 303:Core/Src/stm32l4xx_hal_msp.c **** 
 304:Core/Src/stm32l4xx_hal_msp.c ****     /* USER CODE END USART2_MspDeInit 0 */
 305:Core/Src/stm32l4xx_hal_msp.c ****     /* Peripheral clock disable */
 306:Core/Src/stm32l4xx_hal_msp.c ****     __HAL_RCC_USART2_CLK_DISABLE();
 307:Core/Src/stm32l4xx_hal_msp.c **** 
 308:Core/Src/stm32l4xx_hal_msp.c ****     /**USART2 GPIO Configuration
 309:Core/Src/stm32l4xx_hal_msp.c ****     PA0     ------> USART2_CTS
 310:Core/Src/stm32l4xx_hal_msp.c ****     PA1     ------> USART2_RTS
 311:Core/Src/stm32l4xx_hal_msp.c ****     PA2     ------> USART2_TX
 312:Core/Src/stm32l4xx_hal_msp.c ****     PA3     ------> USART2_RX
 313:Core/Src/stm32l4xx_hal_msp.c ****     */
 314:Core/Src/stm32l4xx_hal_msp.c ****     HAL_GPIO_DeInit(GPIOA, Wi_USART2_CTS_Pin|Wi_USART2_RTS_Pin|Wi_USART2_TX_Pin|Wi_USART2_RX_Pin);
 315:Core/Src/stm32l4xx_hal_msp.c **** 
 316:Core/Src/stm32l4xx_hal_msp.c ****     /* USER CODE BEGIN USART2_MspDeInit 1 */
 317:Core/Src/stm32l4xx_hal_msp.c **** 
 318:Core/Src/stm32l4xx_hal_msp.c ****     /* USER CODE END USART2_MspDeInit 1 */
 319:Core/Src/stm32l4xx_hal_msp.c ****   }
 320:Core/Src/stm32l4xx_hal_msp.c ****   else if(huart->Instance==USART3)
 617              		.loc 1 320 8 is_stmt 1 view .LVU181
 618              		.loc 1 320 10 is_stmt 0 view .LVU182
 619 0010 144A     		ldr	r2, .L43+8
 620 0012 9342     		cmp	r3, r2
 621 0014 17D0     		beq	.L42
 622              	.LVL30:
 623              	.L35:
 321:Core/Src/stm32l4xx_hal_msp.c ****   {
 322:Core/Src/stm32l4xx_hal_msp.c ****     /* USER CODE BEGIN USART3_MspDeInit 0 */
 323:Core/Src/stm32l4xx_hal_msp.c **** 
 324:Core/Src/stm32l4xx_hal_msp.c ****     /* USER CODE END USART3_MspDeInit 0 */
 325:Core/Src/stm32l4xx_hal_msp.c ****     /* Peripheral clock disable */
 326:Core/Src/stm32l4xx_hal_msp.c ****     __HAL_RCC_USART3_CLK_DISABLE();
 327:Core/Src/stm32l4xx_hal_msp.c **** 
 328:Core/Src/stm32l4xx_hal_msp.c ****     /**USART3 GPIO Configuration
 329:Core/Src/stm32l4xx_hal_msp.c ****     PC4     ------> USART3_TX
 330:Core/Src/stm32l4xx_hal_msp.c ****     PC5     ------> USART3_RX
 331:Core/Src/stm32l4xx_hal_msp.c ****     */
 332:Core/Src/stm32l4xx_hal_msp.c ****     HAL_GPIO_DeInit(GPIOC, Wi_USART3_TX_Pin|Wi_USART3_RX_Pin);
 333:Core/Src/stm32l4xx_hal_msp.c **** 
 334:Core/Src/stm32l4xx_hal_msp.c ****     /* USER CODE BEGIN USART3_MspDeInit 1 */
 335:Core/Src/stm32l4xx_hal_msp.c **** 
 336:Core/Src/stm32l4xx_hal_msp.c ****     /* USER CODE END USART3_MspDeInit 1 */
 337:Core/Src/stm32l4xx_hal_msp.c ****   }
 338:Core/Src/stm32l4xx_hal_msp.c **** 
 339:Core/Src/stm32l4xx_hal_msp.c **** }
 624              		.loc 1 339 1 view .LVU183
 625 0016 08BD     		pop	{r3, pc}
 626              	.LVL31:
 627              	.L40:
 288:Core/Src/stm32l4xx_hal_msp.c **** 
ARM GAS  /tmp/cclB1ShU.s 			page 20


 628              		.loc 1 288 5 is_stmt 1 view .LVU184
 629 0018 02F5C832 		add	r2, r2, #102400
 630 001c D36D     		ldr	r3, [r2, #92]
 631 001e 23F00103 		bic	r3, r3, #1
 632 0022 D365     		str	r3, [r2, #92]
 294:Core/Src/stm32l4xx_hal_msp.c **** 
 633              		.loc 1 294 5 view .LVU185
 634 0024 0321     		movs	r1, #3
 635 0026 1048     		ldr	r0, .L43+12
 636              	.LVL32:
 294:Core/Src/stm32l4xx_hal_msp.c **** 
 637              		.loc 1 294 5 is_stmt 0 view .LVU186
 638 0028 FFF7FEFF 		bl	HAL_GPIO_DeInit
 639              	.LVL33:
 640 002c F3E7     		b	.L35
 641              	.LVL34:
 642              	.L41:
 306:Core/Src/stm32l4xx_hal_msp.c **** 
 643              		.loc 1 306 5 is_stmt 1 view .LVU187
 644 002e 02F5E632 		add	r2, r2, #117760
 645 0032 936D     		ldr	r3, [r2, #88]
 646 0034 23F40033 		bic	r3, r3, #131072
 647 0038 9365     		str	r3, [r2, #88]
 314:Core/Src/stm32l4xx_hal_msp.c **** 
 648              		.loc 1 314 5 view .LVU188
 649 003a 0F21     		movs	r1, #15
 650 003c 4FF09040 		mov	r0, #1207959552
 651              	.LVL35:
 314:Core/Src/stm32l4xx_hal_msp.c **** 
 652              		.loc 1 314 5 is_stmt 0 view .LVU189
 653 0040 FFF7FEFF 		bl	HAL_GPIO_DeInit
 654              	.LVL36:
 655 0044 E7E7     		b	.L35
 656              	.LVL37:
 657              	.L42:
 326:Core/Src/stm32l4xx_hal_msp.c **** 
 658              		.loc 1 326 5 is_stmt 1 view .LVU190
 659 0046 02F5E432 		add	r2, r2, #116736
 660 004a 936D     		ldr	r3, [r2, #88]
 661 004c 23F48023 		bic	r3, r3, #262144
 662 0050 9365     		str	r3, [r2, #88]
 332:Core/Src/stm32l4xx_hal_msp.c **** 
 663              		.loc 1 332 5 view .LVU191
 664 0052 3021     		movs	r1, #48
 665 0054 0448     		ldr	r0, .L43+12
 666              	.LVL38:
 332:Core/Src/stm32l4xx_hal_msp.c **** 
 667              		.loc 1 332 5 is_stmt 0 view .LVU192
 668 0056 FFF7FEFF 		bl	HAL_GPIO_DeInit
 669              	.LVL39:
 670              		.loc 1 339 1 view .LVU193
 671 005a DCE7     		b	.L35
 672              	.L44:
 673              		.align	2
 674              	.L43:
 675 005c 00800040 		.word	1073774592
 676 0060 00440040 		.word	1073759232
ARM GAS  /tmp/cclB1ShU.s 			page 21


 677 0064 00480040 		.word	1073760256
 678 0068 00080048 		.word	1207961600
 679              		.cfi_endproc
 680              	.LFE232:
 682              		.section	.text.HAL_RTC_MspInit,"ax",%progbits
 683              		.align	1
 684              		.global	HAL_RTC_MspInit
 685              		.syntax unified
 686              		.thumb
 687              		.thumb_func
 689              	HAL_RTC_MspInit:
 690              	.LVL40:
 691              	.LFB233:
 340:Core/Src/stm32l4xx_hal_msp.c **** 
 341:Core/Src/stm32l4xx_hal_msp.c **** /**
 342:Core/Src/stm32l4xx_hal_msp.c ****   * @brief RTC MSP Initialization
 343:Core/Src/stm32l4xx_hal_msp.c ****   * This function configures the hardware resources used in this example
 344:Core/Src/stm32l4xx_hal_msp.c ****   * @param hrtc: RTC handle pointer
 345:Core/Src/stm32l4xx_hal_msp.c ****   * @retval None
 346:Core/Src/stm32l4xx_hal_msp.c ****   */
 347:Core/Src/stm32l4xx_hal_msp.c **** void HAL_RTC_MspInit(RTC_HandleTypeDef* hrtc)
 348:Core/Src/stm32l4xx_hal_msp.c **** {
 692              		.loc 1 348 1 is_stmt 1 view -0
 693              		.cfi_startproc
 694              		@ args = 0, pretend = 0, frame = 136
 695              		@ frame_needed = 0, uses_anonymous_args = 0
 696              		.loc 1 348 1 is_stmt 0 view .LVU195
 697 0000 10B5     		push	{r4, lr}
 698              		.cfi_def_cfa_offset 8
 699              		.cfi_offset 4, -8
 700              		.cfi_offset 14, -4
 701 0002 A2B0     		sub	sp, sp, #136
 702              		.cfi_def_cfa_offset 144
 703 0004 0446     		mov	r4, r0
 349:Core/Src/stm32l4xx_hal_msp.c ****   RCC_PeriphCLKInitTypeDef PeriphClkInit = {0};
 704              		.loc 1 349 3 is_stmt 1 view .LVU196
 705              		.loc 1 349 28 is_stmt 0 view .LVU197
 706 0006 8822     		movs	r2, #136
 707 0008 0021     		movs	r1, #0
 708 000a 6846     		mov	r0, sp
 709              	.LVL41:
 710              		.loc 1 349 28 view .LVU198
 711 000c FFF7FEFF 		bl	memset
 712              	.LVL42:
 350:Core/Src/stm32l4xx_hal_msp.c ****   if(hrtc->Instance==RTC)
 713              		.loc 1 350 3 is_stmt 1 view .LVU199
 714              		.loc 1 350 10 is_stmt 0 view .LVU200
 715 0010 2268     		ldr	r2, [r4]
 716              		.loc 1 350 5 view .LVU201
 717 0012 0D4B     		ldr	r3, .L51
 718 0014 9A42     		cmp	r2, r3
 719 0016 01D0     		beq	.L49
 720              	.L45:
 351:Core/Src/stm32l4xx_hal_msp.c ****   {
 352:Core/Src/stm32l4xx_hal_msp.c ****     /* USER CODE BEGIN RTC_MspInit 0 */
 353:Core/Src/stm32l4xx_hal_msp.c **** 
 354:Core/Src/stm32l4xx_hal_msp.c ****     /* USER CODE END RTC_MspInit 0 */
ARM GAS  /tmp/cclB1ShU.s 			page 22


 355:Core/Src/stm32l4xx_hal_msp.c **** 
 356:Core/Src/stm32l4xx_hal_msp.c ****   /** Initializes the peripherals clock
 357:Core/Src/stm32l4xx_hal_msp.c ****   */
 358:Core/Src/stm32l4xx_hal_msp.c ****     PeriphClkInit.PeriphClockSelection = RCC_PERIPHCLK_RTC;
 359:Core/Src/stm32l4xx_hal_msp.c ****     PeriphClkInit.RTCClockSelection = RCC_RTCCLKSOURCE_LSI;
 360:Core/Src/stm32l4xx_hal_msp.c ****     if (HAL_RCCEx_PeriphCLKConfig(&PeriphClkInit) != HAL_OK)
 361:Core/Src/stm32l4xx_hal_msp.c ****     {
 362:Core/Src/stm32l4xx_hal_msp.c ****       Error_Handler();
 363:Core/Src/stm32l4xx_hal_msp.c ****     }
 364:Core/Src/stm32l4xx_hal_msp.c **** 
 365:Core/Src/stm32l4xx_hal_msp.c ****     /* Peripheral clock enable */
 366:Core/Src/stm32l4xx_hal_msp.c ****     __HAL_RCC_RTC_ENABLE();
 367:Core/Src/stm32l4xx_hal_msp.c ****     /* USER CODE BEGIN RTC_MspInit 1 */
 368:Core/Src/stm32l4xx_hal_msp.c **** 
 369:Core/Src/stm32l4xx_hal_msp.c ****     /* USER CODE END RTC_MspInit 1 */
 370:Core/Src/stm32l4xx_hal_msp.c **** 
 371:Core/Src/stm32l4xx_hal_msp.c ****   }
 372:Core/Src/stm32l4xx_hal_msp.c **** 
 373:Core/Src/stm32l4xx_hal_msp.c **** }
 721              		.loc 1 373 1 view .LVU202
 722 0018 22B0     		add	sp, sp, #136
 723              		.cfi_remember_state
 724              		.cfi_def_cfa_offset 8
 725              		@ sp needed
 726 001a 10BD     		pop	{r4, pc}
 727              	.LVL43:
 728              	.L49:
 729              		.cfi_restore_state
 358:Core/Src/stm32l4xx_hal_msp.c ****     PeriphClkInit.RTCClockSelection = RCC_RTCCLKSOURCE_LSI;
 730              		.loc 1 358 5 is_stmt 1 view .LVU203
 358:Core/Src/stm32l4xx_hal_msp.c ****     PeriphClkInit.RTCClockSelection = RCC_RTCCLKSOURCE_LSI;
 731              		.loc 1 358 40 is_stmt 0 view .LVU204
 732 001c 4FF40033 		mov	r3, #131072
 733 0020 0093     		str	r3, [sp]
 359:Core/Src/stm32l4xx_hal_msp.c ****     if (HAL_RCCEx_PeriphCLKConfig(&PeriphClkInit) != HAL_OK)
 734              		.loc 1 359 5 is_stmt 1 view .LVU205
 359:Core/Src/stm32l4xx_hal_msp.c ****     if (HAL_RCCEx_PeriphCLKConfig(&PeriphClkInit) != HAL_OK)
 735              		.loc 1 359 37 is_stmt 0 view .LVU206
 736 0022 4FF40073 		mov	r3, #512
 737 0026 2193     		str	r3, [sp, #132]
 360:Core/Src/stm32l4xx_hal_msp.c ****     {
 738              		.loc 1 360 5 is_stmt 1 view .LVU207
 360:Core/Src/stm32l4xx_hal_msp.c ****     {
 739              		.loc 1 360 9 is_stmt 0 view .LVU208
 740 0028 6846     		mov	r0, sp
 741 002a FFF7FEFF 		bl	HAL_RCCEx_PeriphCLKConfig
 742              	.LVL44:
 360:Core/Src/stm32l4xx_hal_msp.c ****     {
 743              		.loc 1 360 8 discriminator 1 view .LVU209
 744 002e 38B9     		cbnz	r0, .L50
 745              	.L47:
 366:Core/Src/stm32l4xx_hal_msp.c ****     /* USER CODE BEGIN RTC_MspInit 1 */
 746              		.loc 1 366 5 is_stmt 1 view .LVU210
 747 0030 064A     		ldr	r2, .L51+4
 748 0032 D2F89030 		ldr	r3, [r2, #144]
 749 0036 43F40043 		orr	r3, r3, #32768
 750 003a C2F89030 		str	r3, [r2, #144]
ARM GAS  /tmp/cclB1ShU.s 			page 23


 751              		.loc 1 373 1 is_stmt 0 view .LVU211
 752 003e EBE7     		b	.L45
 753              	.L50:
 362:Core/Src/stm32l4xx_hal_msp.c ****     }
 754              		.loc 1 362 7 is_stmt 1 view .LVU212
 755 0040 FFF7FEFF 		bl	Error_Handler
 756              	.LVL45:
 757 0044 F4E7     		b	.L47
 758              	.L52:
 759 0046 00BF     		.align	2
 760              	.L51:
 761 0048 00280040 		.word	1073752064
 762 004c 00100240 		.word	1073876992
 763              		.cfi_endproc
 764              	.LFE233:
 766              		.section	.text.HAL_RTC_MspDeInit,"ax",%progbits
 767              		.align	1
 768              		.global	HAL_RTC_MspDeInit
 769              		.syntax unified
 770              		.thumb
 771              		.thumb_func
 773              	HAL_RTC_MspDeInit:
 774              	.LVL46:
 775              	.LFB234:
 374:Core/Src/stm32l4xx_hal_msp.c **** 
 375:Core/Src/stm32l4xx_hal_msp.c **** /**
 376:Core/Src/stm32l4xx_hal_msp.c ****   * @brief RTC MSP De-Initialization
 377:Core/Src/stm32l4xx_hal_msp.c ****   * This function freeze the hardware resources used in this example
 378:Core/Src/stm32l4xx_hal_msp.c ****   * @param hrtc: RTC handle pointer
 379:Core/Src/stm32l4xx_hal_msp.c ****   * @retval None
 380:Core/Src/stm32l4xx_hal_msp.c ****   */
 381:Core/Src/stm32l4xx_hal_msp.c **** void HAL_RTC_MspDeInit(RTC_HandleTypeDef* hrtc)
 382:Core/Src/stm32l4xx_hal_msp.c **** {
 776              		.loc 1 382 1 view -0
 777              		.cfi_startproc
 778              		@ args = 0, pretend = 0, frame = 0
 779              		@ frame_needed = 0, uses_anonymous_args = 0
 780              		@ link register save eliminated.
 383:Core/Src/stm32l4xx_hal_msp.c ****   if(hrtc->Instance==RTC)
 781              		.loc 1 383 3 view .LVU214
 782              		.loc 1 383 10 is_stmt 0 view .LVU215
 783 0000 0268     		ldr	r2, [r0]
 784              		.loc 1 383 5 view .LVU216
 785 0002 064B     		ldr	r3, .L56
 786 0004 9A42     		cmp	r2, r3
 787 0006 00D0     		beq	.L55
 788              	.L53:
 384:Core/Src/stm32l4xx_hal_msp.c ****   {
 385:Core/Src/stm32l4xx_hal_msp.c ****     /* USER CODE BEGIN RTC_MspDeInit 0 */
 386:Core/Src/stm32l4xx_hal_msp.c **** 
 387:Core/Src/stm32l4xx_hal_msp.c ****     /* USER CODE END RTC_MspDeInit 0 */
 388:Core/Src/stm32l4xx_hal_msp.c ****     /* Peripheral clock disable */
 389:Core/Src/stm32l4xx_hal_msp.c ****     __HAL_RCC_RTC_DISABLE();
 390:Core/Src/stm32l4xx_hal_msp.c ****     /* USER CODE BEGIN RTC_MspDeInit 1 */
 391:Core/Src/stm32l4xx_hal_msp.c **** 
 392:Core/Src/stm32l4xx_hal_msp.c ****     /* USER CODE END RTC_MspDeInit 1 */
 393:Core/Src/stm32l4xx_hal_msp.c ****   }
ARM GAS  /tmp/cclB1ShU.s 			page 24


 394:Core/Src/stm32l4xx_hal_msp.c **** 
 395:Core/Src/stm32l4xx_hal_msp.c **** }
 789              		.loc 1 395 1 view .LVU217
 790 0008 7047     		bx	lr
 791              	.L55:
 389:Core/Src/stm32l4xx_hal_msp.c ****     /* USER CODE BEGIN RTC_MspDeInit 1 */
 792              		.loc 1 389 5 is_stmt 1 view .LVU218
 793 000a 054A     		ldr	r2, .L56+4
 794 000c D2F89030 		ldr	r3, [r2, #144]
 795 0010 23F40043 		bic	r3, r3, #32768
 796 0014 C2F89030 		str	r3, [r2, #144]
 797              		.loc 1 395 1 is_stmt 0 view .LVU219
 798 0018 F6E7     		b	.L53
 799              	.L57:
 800 001a 00BF     		.align	2
 801              	.L56:
 802 001c 00280040 		.word	1073752064
 803 0020 00100240 		.word	1073876992
 804              		.cfi_endproc
 805              	.LFE234:
 807              		.section	.text.HAL_SD_MspInit,"ax",%progbits
 808              		.align	1
 809              		.global	HAL_SD_MspInit
 810              		.syntax unified
 811              		.thumb
 812              		.thumb_func
 814              	HAL_SD_MspInit:
 815              	.LVL47:
 816              	.LFB235:
 396:Core/Src/stm32l4xx_hal_msp.c **** 
 397:Core/Src/stm32l4xx_hal_msp.c **** /**
 398:Core/Src/stm32l4xx_hal_msp.c ****   * @brief SD MSP Initialization
 399:Core/Src/stm32l4xx_hal_msp.c ****   * This function configures the hardware resources used in this example
 400:Core/Src/stm32l4xx_hal_msp.c ****   * @param hsd: SD handle pointer
 401:Core/Src/stm32l4xx_hal_msp.c ****   * @retval None
 402:Core/Src/stm32l4xx_hal_msp.c ****   */
 403:Core/Src/stm32l4xx_hal_msp.c **** void HAL_SD_MspInit(SD_HandleTypeDef* hsd)
 404:Core/Src/stm32l4xx_hal_msp.c **** {
 817              		.loc 1 404 1 is_stmt 1 view -0
 818              		.cfi_startproc
 819              		@ args = 0, pretend = 0, frame = 168
 820              		@ frame_needed = 0, uses_anonymous_args = 0
 821              		.loc 1 404 1 is_stmt 0 view .LVU221
 822 0000 70B5     		push	{r4, r5, r6, lr}
 823              		.cfi_def_cfa_offset 16
 824              		.cfi_offset 4, -16
 825              		.cfi_offset 5, -12
 826              		.cfi_offset 6, -8
 827              		.cfi_offset 14, -4
 828 0002 AAB0     		sub	sp, sp, #168
 829              		.cfi_def_cfa_offset 184
 830 0004 0446     		mov	r4, r0
 405:Core/Src/stm32l4xx_hal_msp.c ****   GPIO_InitTypeDef GPIO_InitStruct = {0};
 831              		.loc 1 405 3 is_stmt 1 view .LVU222
 832              		.loc 1 405 20 is_stmt 0 view .LVU223
 833 0006 0021     		movs	r1, #0
 834 0008 2591     		str	r1, [sp, #148]
ARM GAS  /tmp/cclB1ShU.s 			page 25


 835 000a 2691     		str	r1, [sp, #152]
 836 000c 2791     		str	r1, [sp, #156]
 837 000e 2891     		str	r1, [sp, #160]
 838 0010 2991     		str	r1, [sp, #164]
 406:Core/Src/stm32l4xx_hal_msp.c ****   RCC_PeriphCLKInitTypeDef PeriphClkInit = {0};
 839              		.loc 1 406 3 is_stmt 1 view .LVU224
 840              		.loc 1 406 28 is_stmt 0 view .LVU225
 841 0012 8822     		movs	r2, #136
 842 0014 03A8     		add	r0, sp, #12
 843              	.LVL48:
 844              		.loc 1 406 28 view .LVU226
 845 0016 FFF7FEFF 		bl	memset
 846              	.LVL49:
 407:Core/Src/stm32l4xx_hal_msp.c ****   if(hsd->Instance==SDMMC1)
 847              		.loc 1 407 3 is_stmt 1 view .LVU227
 848              		.loc 1 407 9 is_stmt 0 view .LVU228
 849 001a 2268     		ldr	r2, [r4]
 850              		.loc 1 407 5 view .LVU229
 851 001c 2E4B     		ldr	r3, .L64
 852 001e 9A42     		cmp	r2, r3
 853 0020 01D0     		beq	.L62
 854              	.LVL50:
 855              	.L58:
 408:Core/Src/stm32l4xx_hal_msp.c ****   {
 409:Core/Src/stm32l4xx_hal_msp.c ****     /* USER CODE BEGIN SDMMC1_MspInit 0 */
 410:Core/Src/stm32l4xx_hal_msp.c **** 
 411:Core/Src/stm32l4xx_hal_msp.c ****     /* USER CODE END SDMMC1_MspInit 0 */
 412:Core/Src/stm32l4xx_hal_msp.c **** 
 413:Core/Src/stm32l4xx_hal_msp.c ****   /** Initializes the peripherals clock
 414:Core/Src/stm32l4xx_hal_msp.c ****   */
 415:Core/Src/stm32l4xx_hal_msp.c ****     PeriphClkInit.PeriphClockSelection = RCC_PERIPHCLK_SDMMC1;
 416:Core/Src/stm32l4xx_hal_msp.c ****     PeriphClkInit.Sdmmc1ClockSelection = RCC_SDMMC1CLKSOURCE_PLLSAI1;
 417:Core/Src/stm32l4xx_hal_msp.c ****     PeriphClkInit.PLLSAI1.PLLSAI1Source = RCC_PLLSOURCE_MSI;
 418:Core/Src/stm32l4xx_hal_msp.c ****     PeriphClkInit.PLLSAI1.PLLSAI1M = 1;
 419:Core/Src/stm32l4xx_hal_msp.c ****     PeriphClkInit.PLLSAI1.PLLSAI1N = 24;
 420:Core/Src/stm32l4xx_hal_msp.c ****     PeriphClkInit.PLLSAI1.PLLSAI1P = RCC_PLLP_DIV7;
 421:Core/Src/stm32l4xx_hal_msp.c ****     PeriphClkInit.PLLSAI1.PLLSAI1Q = RCC_PLLQ_DIV2;
 422:Core/Src/stm32l4xx_hal_msp.c ****     PeriphClkInit.PLLSAI1.PLLSAI1R = RCC_PLLR_DIV2;
 423:Core/Src/stm32l4xx_hal_msp.c ****     PeriphClkInit.PLLSAI1.PLLSAI1ClockOut = RCC_PLLSAI1_48M2CLK;
 424:Core/Src/stm32l4xx_hal_msp.c ****     if (HAL_RCCEx_PeriphCLKConfig(&PeriphClkInit) != HAL_OK)
 425:Core/Src/stm32l4xx_hal_msp.c ****     {
 426:Core/Src/stm32l4xx_hal_msp.c ****       Error_Handler();
 427:Core/Src/stm32l4xx_hal_msp.c ****     }
 428:Core/Src/stm32l4xx_hal_msp.c **** 
 429:Core/Src/stm32l4xx_hal_msp.c ****     /* Peripheral clock enable */
 430:Core/Src/stm32l4xx_hal_msp.c ****     __HAL_RCC_SDMMC1_CLK_ENABLE();
 431:Core/Src/stm32l4xx_hal_msp.c **** 
 432:Core/Src/stm32l4xx_hal_msp.c ****     __HAL_RCC_GPIOC_CLK_ENABLE();
 433:Core/Src/stm32l4xx_hal_msp.c ****     __HAL_RCC_GPIOD_CLK_ENABLE();
 434:Core/Src/stm32l4xx_hal_msp.c ****     /**SDMMC1 GPIO Configuration
 435:Core/Src/stm32l4xx_hal_msp.c ****     PC8     ------> SDMMC1_D0
 436:Core/Src/stm32l4xx_hal_msp.c ****     PC12     ------> SDMMC1_CK
 437:Core/Src/stm32l4xx_hal_msp.c ****     PD2     ------> SDMMC1_CMD
 438:Core/Src/stm32l4xx_hal_msp.c ****     */
 439:Core/Src/stm32l4xx_hal_msp.c ****     GPIO_InitStruct.Pin = GPIO_PIN_8|GPIO_PIN_12;
 440:Core/Src/stm32l4xx_hal_msp.c ****     GPIO_InitStruct.Mode = GPIO_MODE_AF_PP;
 441:Core/Src/stm32l4xx_hal_msp.c ****     GPIO_InitStruct.Pull = GPIO_NOPULL;
ARM GAS  /tmp/cclB1ShU.s 			page 26


 442:Core/Src/stm32l4xx_hal_msp.c ****     GPIO_InitStruct.Speed = GPIO_SPEED_FREQ_LOW;
 443:Core/Src/stm32l4xx_hal_msp.c ****     GPIO_InitStruct.Alternate = GPIO_AF12_SDMMC1;
 444:Core/Src/stm32l4xx_hal_msp.c ****     HAL_GPIO_Init(GPIOC, &GPIO_InitStruct);
 445:Core/Src/stm32l4xx_hal_msp.c **** 
 446:Core/Src/stm32l4xx_hal_msp.c ****     GPIO_InitStruct.Pin = GPIO_PIN_2;
 447:Core/Src/stm32l4xx_hal_msp.c ****     GPIO_InitStruct.Mode = GPIO_MODE_AF_PP;
 448:Core/Src/stm32l4xx_hal_msp.c ****     GPIO_InitStruct.Pull = GPIO_NOPULL;
 449:Core/Src/stm32l4xx_hal_msp.c ****     GPIO_InitStruct.Speed = GPIO_SPEED_FREQ_LOW;
 450:Core/Src/stm32l4xx_hal_msp.c ****     GPIO_InitStruct.Alternate = GPIO_AF12_SDMMC1;
 451:Core/Src/stm32l4xx_hal_msp.c ****     HAL_GPIO_Init(GPIOD, &GPIO_InitStruct);
 452:Core/Src/stm32l4xx_hal_msp.c **** 
 453:Core/Src/stm32l4xx_hal_msp.c ****     /* SDMMC1 interrupt Init */
 454:Core/Src/stm32l4xx_hal_msp.c ****     HAL_NVIC_SetPriority(SDMMC1_IRQn, 0, 0);
 455:Core/Src/stm32l4xx_hal_msp.c ****     HAL_NVIC_EnableIRQ(SDMMC1_IRQn);
 456:Core/Src/stm32l4xx_hal_msp.c ****     /* USER CODE BEGIN SDMMC1_MspInit 1 */
 457:Core/Src/stm32l4xx_hal_msp.c **** 
 458:Core/Src/stm32l4xx_hal_msp.c ****     /* USER CODE END SDMMC1_MspInit 1 */
 459:Core/Src/stm32l4xx_hal_msp.c **** 
 460:Core/Src/stm32l4xx_hal_msp.c ****   }
 461:Core/Src/stm32l4xx_hal_msp.c **** 
 462:Core/Src/stm32l4xx_hal_msp.c **** }
 856              		.loc 1 462 1 view .LVU230
 857 0022 2AB0     		add	sp, sp, #168
 858              		.cfi_remember_state
 859              		.cfi_def_cfa_offset 16
 860              		@ sp needed
 861 0024 70BD     		pop	{r4, r5, r6, pc}
 862              	.LVL51:
 863              	.L62:
 864              		.cfi_restore_state
 415:Core/Src/stm32l4xx_hal_msp.c ****     PeriphClkInit.Sdmmc1ClockSelection = RCC_SDMMC1CLKSOURCE_PLLSAI1;
 865              		.loc 1 415 5 is_stmt 1 view .LVU231
 415:Core/Src/stm32l4xx_hal_msp.c ****     PeriphClkInit.Sdmmc1ClockSelection = RCC_SDMMC1CLKSOURCE_PLLSAI1;
 866              		.loc 1 415 40 is_stmt 0 view .LVU232
 867 0026 4FF40023 		mov	r3, #524288
 868 002a 0393     		str	r3, [sp, #12]
 416:Core/Src/stm32l4xx_hal_msp.c ****     PeriphClkInit.PLLSAI1.PLLSAI1Source = RCC_PLLSOURCE_MSI;
 869              		.loc 1 416 5 is_stmt 1 view .LVU233
 416:Core/Src/stm32l4xx_hal_msp.c ****     PeriphClkInit.PLLSAI1.PLLSAI1Source = RCC_PLLSOURCE_MSI;
 870              		.loc 1 416 40 is_stmt 0 view .LVU234
 871 002c 4FF08063 		mov	r3, #67108864
 872 0030 1F93     		str	r3, [sp, #124]
 417:Core/Src/stm32l4xx_hal_msp.c ****     PeriphClkInit.PLLSAI1.PLLSAI1M = 1;
 873              		.loc 1 417 5 is_stmt 1 view .LVU235
 417:Core/Src/stm32l4xx_hal_msp.c ****     PeriphClkInit.PLLSAI1.PLLSAI1M = 1;
 874              		.loc 1 417 41 is_stmt 0 view .LVU236
 875 0032 0123     		movs	r3, #1
 876 0034 0493     		str	r3, [sp, #16]
 418:Core/Src/stm32l4xx_hal_msp.c ****     PeriphClkInit.PLLSAI1.PLLSAI1N = 24;
 877              		.loc 1 418 5 is_stmt 1 view .LVU237
 418:Core/Src/stm32l4xx_hal_msp.c ****     PeriphClkInit.PLLSAI1.PLLSAI1N = 24;
 878              		.loc 1 418 36 is_stmt 0 view .LVU238
 879 0036 0593     		str	r3, [sp, #20]
 419:Core/Src/stm32l4xx_hal_msp.c ****     PeriphClkInit.PLLSAI1.PLLSAI1P = RCC_PLLP_DIV7;
 880              		.loc 1 419 5 is_stmt 1 view .LVU239
 419:Core/Src/stm32l4xx_hal_msp.c ****     PeriphClkInit.PLLSAI1.PLLSAI1P = RCC_PLLP_DIV7;
 881              		.loc 1 419 36 is_stmt 0 view .LVU240
ARM GAS  /tmp/cclB1ShU.s 			page 27


 882 0038 1823     		movs	r3, #24
 883 003a 0693     		str	r3, [sp, #24]
 420:Core/Src/stm32l4xx_hal_msp.c ****     PeriphClkInit.PLLSAI1.PLLSAI1Q = RCC_PLLQ_DIV2;
 884              		.loc 1 420 5 is_stmt 1 view .LVU241
 420:Core/Src/stm32l4xx_hal_msp.c ****     PeriphClkInit.PLLSAI1.PLLSAI1Q = RCC_PLLQ_DIV2;
 885              		.loc 1 420 36 is_stmt 0 view .LVU242
 886 003c 0723     		movs	r3, #7
 887 003e 0793     		str	r3, [sp, #28]
 421:Core/Src/stm32l4xx_hal_msp.c ****     PeriphClkInit.PLLSAI1.PLLSAI1R = RCC_PLLR_DIV2;
 888              		.loc 1 421 5 is_stmt 1 view .LVU243
 421:Core/Src/stm32l4xx_hal_msp.c ****     PeriphClkInit.PLLSAI1.PLLSAI1R = RCC_PLLR_DIV2;
 889              		.loc 1 421 36 is_stmt 0 view .LVU244
 890 0040 0223     		movs	r3, #2
 891 0042 0893     		str	r3, [sp, #32]
 422:Core/Src/stm32l4xx_hal_msp.c ****     PeriphClkInit.PLLSAI1.PLLSAI1ClockOut = RCC_PLLSAI1_48M2CLK;
 892              		.loc 1 422 5 is_stmt 1 view .LVU245
 422:Core/Src/stm32l4xx_hal_msp.c ****     PeriphClkInit.PLLSAI1.PLLSAI1ClockOut = RCC_PLLSAI1_48M2CLK;
 893              		.loc 1 422 36 is_stmt 0 view .LVU246
 894 0044 0993     		str	r3, [sp, #36]
 423:Core/Src/stm32l4xx_hal_msp.c ****     if (HAL_RCCEx_PeriphCLKConfig(&PeriphClkInit) != HAL_OK)
 895              		.loc 1 423 5 is_stmt 1 view .LVU247
 423:Core/Src/stm32l4xx_hal_msp.c ****     if (HAL_RCCEx_PeriphCLKConfig(&PeriphClkInit) != HAL_OK)
 896              		.loc 1 423 43 is_stmt 0 view .LVU248
 897 0046 4FF48013 		mov	r3, #1048576
 898 004a 0A93     		str	r3, [sp, #40]
 424:Core/Src/stm32l4xx_hal_msp.c ****     {
 899              		.loc 1 424 5 is_stmt 1 view .LVU249
 424:Core/Src/stm32l4xx_hal_msp.c ****     {
 900              		.loc 1 424 9 is_stmt 0 view .LVU250
 901 004c 03A8     		add	r0, sp, #12
 902 004e FFF7FEFF 		bl	HAL_RCCEx_PeriphCLKConfig
 903              	.LVL52:
 424:Core/Src/stm32l4xx_hal_msp.c ****     {
 904              		.loc 1 424 8 discriminator 1 view .LVU251
 905 0052 0028     		cmp	r0, #0
 906 0054 3CD1     		bne	.L63
 907              	.L60:
 430:Core/Src/stm32l4xx_hal_msp.c **** 
 908              		.loc 1 430 5 is_stmt 1 view .LVU252
 909              	.LBB12:
 430:Core/Src/stm32l4xx_hal_msp.c **** 
 910              		.loc 1 430 5 view .LVU253
 430:Core/Src/stm32l4xx_hal_msp.c **** 
 911              		.loc 1 430 5 view .LVU254
 912 0056 214B     		ldr	r3, .L64+4
 913 0058 1A6E     		ldr	r2, [r3, #96]
 914 005a 42F48062 		orr	r2, r2, #1024
 915 005e 1A66     		str	r2, [r3, #96]
 430:Core/Src/stm32l4xx_hal_msp.c **** 
 916              		.loc 1 430 5 view .LVU255
 917 0060 1A6E     		ldr	r2, [r3, #96]
 918 0062 02F48062 		and	r2, r2, #1024
 919 0066 0092     		str	r2, [sp]
 430:Core/Src/stm32l4xx_hal_msp.c **** 
 920              		.loc 1 430 5 view .LVU256
 921 0068 009A     		ldr	r2, [sp]
 922              	.LBE12:
ARM GAS  /tmp/cclB1ShU.s 			page 28


 430:Core/Src/stm32l4xx_hal_msp.c **** 
 923              		.loc 1 430 5 view .LVU257
 432:Core/Src/stm32l4xx_hal_msp.c ****     __HAL_RCC_GPIOD_CLK_ENABLE();
 924              		.loc 1 432 5 view .LVU258
 925              	.LBB13:
 432:Core/Src/stm32l4xx_hal_msp.c ****     __HAL_RCC_GPIOD_CLK_ENABLE();
 926              		.loc 1 432 5 view .LVU259
 432:Core/Src/stm32l4xx_hal_msp.c ****     __HAL_RCC_GPIOD_CLK_ENABLE();
 927              		.loc 1 432 5 view .LVU260
 928 006a DA6C     		ldr	r2, [r3, #76]
 929 006c 42F00402 		orr	r2, r2, #4
 930 0070 DA64     		str	r2, [r3, #76]
 432:Core/Src/stm32l4xx_hal_msp.c ****     __HAL_RCC_GPIOD_CLK_ENABLE();
 931              		.loc 1 432 5 view .LVU261
 932 0072 DA6C     		ldr	r2, [r3, #76]
 933 0074 02F00402 		and	r2, r2, #4
 934 0078 0192     		str	r2, [sp, #4]
 432:Core/Src/stm32l4xx_hal_msp.c ****     __HAL_RCC_GPIOD_CLK_ENABLE();
 935              		.loc 1 432 5 view .LVU262
 936 007a 019A     		ldr	r2, [sp, #4]
 937              	.LBE13:
 432:Core/Src/stm32l4xx_hal_msp.c ****     __HAL_RCC_GPIOD_CLK_ENABLE();
 938              		.loc 1 432 5 view .LVU263
 433:Core/Src/stm32l4xx_hal_msp.c ****     /**SDMMC1 GPIO Configuration
 939              		.loc 1 433 5 view .LVU264
 940              	.LBB14:
 433:Core/Src/stm32l4xx_hal_msp.c ****     /**SDMMC1 GPIO Configuration
 941              		.loc 1 433 5 view .LVU265
 433:Core/Src/stm32l4xx_hal_msp.c ****     /**SDMMC1 GPIO Configuration
 942              		.loc 1 433 5 view .LVU266
 943 007c DA6C     		ldr	r2, [r3, #76]
 944 007e 42F00802 		orr	r2, r2, #8
 945 0082 DA64     		str	r2, [r3, #76]
 433:Core/Src/stm32l4xx_hal_msp.c ****     /**SDMMC1 GPIO Configuration
 946              		.loc 1 433 5 view .LVU267
 947 0084 DB6C     		ldr	r3, [r3, #76]
 948 0086 03F00803 		and	r3, r3, #8
 949 008a 0293     		str	r3, [sp, #8]
 433:Core/Src/stm32l4xx_hal_msp.c ****     /**SDMMC1 GPIO Configuration
 950              		.loc 1 433 5 view .LVU268
 951 008c 029B     		ldr	r3, [sp, #8]
 952              	.LBE14:
 433:Core/Src/stm32l4xx_hal_msp.c ****     /**SDMMC1 GPIO Configuration
 953              		.loc 1 433 5 view .LVU269
 439:Core/Src/stm32l4xx_hal_msp.c ****     GPIO_InitStruct.Mode = GPIO_MODE_AF_PP;
 954              		.loc 1 439 5 view .LVU270
 439:Core/Src/stm32l4xx_hal_msp.c ****     GPIO_InitStruct.Mode = GPIO_MODE_AF_PP;
 955              		.loc 1 439 25 is_stmt 0 view .LVU271
 956 008e 4FF48853 		mov	r3, #4352
 957 0092 2593     		str	r3, [sp, #148]
 440:Core/Src/stm32l4xx_hal_msp.c ****     GPIO_InitStruct.Pull = GPIO_NOPULL;
 958              		.loc 1 440 5 is_stmt 1 view .LVU272
 440:Core/Src/stm32l4xx_hal_msp.c ****     GPIO_InitStruct.Pull = GPIO_NOPULL;
 959              		.loc 1 440 26 is_stmt 0 view .LVU273
 960 0094 0225     		movs	r5, #2
 961 0096 2695     		str	r5, [sp, #152]
 441:Core/Src/stm32l4xx_hal_msp.c ****     GPIO_InitStruct.Speed = GPIO_SPEED_FREQ_LOW;
ARM GAS  /tmp/cclB1ShU.s 			page 29


 962              		.loc 1 441 5 is_stmt 1 view .LVU274
 441:Core/Src/stm32l4xx_hal_msp.c ****     GPIO_InitStruct.Speed = GPIO_SPEED_FREQ_LOW;
 963              		.loc 1 441 26 is_stmt 0 view .LVU275
 964 0098 0024     		movs	r4, #0
 965              	.LVL53:
 441:Core/Src/stm32l4xx_hal_msp.c ****     GPIO_InitStruct.Speed = GPIO_SPEED_FREQ_LOW;
 966              		.loc 1 441 26 view .LVU276
 967 009a 2794     		str	r4, [sp, #156]
 442:Core/Src/stm32l4xx_hal_msp.c ****     GPIO_InitStruct.Alternate = GPIO_AF12_SDMMC1;
 968              		.loc 1 442 5 is_stmt 1 view .LVU277
 442:Core/Src/stm32l4xx_hal_msp.c ****     GPIO_InitStruct.Alternate = GPIO_AF12_SDMMC1;
 969              		.loc 1 442 27 is_stmt 0 view .LVU278
 970 009c 2894     		str	r4, [sp, #160]
 443:Core/Src/stm32l4xx_hal_msp.c ****     HAL_GPIO_Init(GPIOC, &GPIO_InitStruct);
 971              		.loc 1 443 5 is_stmt 1 view .LVU279
 443:Core/Src/stm32l4xx_hal_msp.c ****     HAL_GPIO_Init(GPIOC, &GPIO_InitStruct);
 972              		.loc 1 443 31 is_stmt 0 view .LVU280
 973 009e 0C26     		movs	r6, #12
 974 00a0 2996     		str	r6, [sp, #164]
 444:Core/Src/stm32l4xx_hal_msp.c **** 
 975              		.loc 1 444 5 is_stmt 1 view .LVU281
 976 00a2 25A9     		add	r1, sp, #148
 977 00a4 0E48     		ldr	r0, .L64+8
 978 00a6 FFF7FEFF 		bl	HAL_GPIO_Init
 979              	.LVL54:
 446:Core/Src/stm32l4xx_hal_msp.c ****     GPIO_InitStruct.Mode = GPIO_MODE_AF_PP;
 980              		.loc 1 446 5 view .LVU282
 446:Core/Src/stm32l4xx_hal_msp.c ****     GPIO_InitStruct.Mode = GPIO_MODE_AF_PP;
 981              		.loc 1 446 25 is_stmt 0 view .LVU283
 982 00aa 0423     		movs	r3, #4
 983 00ac 2593     		str	r3, [sp, #148]
 447:Core/Src/stm32l4xx_hal_msp.c ****     GPIO_InitStruct.Pull = GPIO_NOPULL;
 984              		.loc 1 447 5 is_stmt 1 view .LVU284
 447:Core/Src/stm32l4xx_hal_msp.c ****     GPIO_InitStruct.Pull = GPIO_NOPULL;
 985              		.loc 1 447 26 is_stmt 0 view .LVU285
 986 00ae 2695     		str	r5, [sp, #152]
 448:Core/Src/stm32l4xx_hal_msp.c ****     GPIO_InitStruct.Speed = GPIO_SPEED_FREQ_LOW;
 987              		.loc 1 448 5 is_stmt 1 view .LVU286
 448:Core/Src/stm32l4xx_hal_msp.c ****     GPIO_InitStruct.Speed = GPIO_SPEED_FREQ_LOW;
 988              		.loc 1 448 26 is_stmt 0 view .LVU287
 989 00b0 2794     		str	r4, [sp, #156]
 449:Core/Src/stm32l4xx_hal_msp.c ****     GPIO_InitStruct.Alternate = GPIO_AF12_SDMMC1;
 990              		.loc 1 449 5 is_stmt 1 view .LVU288
 449:Core/Src/stm32l4xx_hal_msp.c ****     GPIO_InitStruct.Alternate = GPIO_AF12_SDMMC1;
 991              		.loc 1 449 27 is_stmt 0 view .LVU289
 992 00b2 2894     		str	r4, [sp, #160]
 450:Core/Src/stm32l4xx_hal_msp.c ****     HAL_GPIO_Init(GPIOD, &GPIO_InitStruct);
 993              		.loc 1 450 5 is_stmt 1 view .LVU290
 450:Core/Src/stm32l4xx_hal_msp.c ****     HAL_GPIO_Init(GPIOD, &GPIO_InitStruct);
 994              		.loc 1 450 31 is_stmt 0 view .LVU291
 995 00b4 2996     		str	r6, [sp, #164]
 451:Core/Src/stm32l4xx_hal_msp.c **** 
 996              		.loc 1 451 5 is_stmt 1 view .LVU292
 997 00b6 25A9     		add	r1, sp, #148
 998 00b8 0A48     		ldr	r0, .L64+12
 999 00ba FFF7FEFF 		bl	HAL_GPIO_Init
 1000              	.LVL55:
ARM GAS  /tmp/cclB1ShU.s 			page 30


 454:Core/Src/stm32l4xx_hal_msp.c ****     HAL_NVIC_EnableIRQ(SDMMC1_IRQn);
 1001              		.loc 1 454 5 view .LVU293
 1002 00be 2246     		mov	r2, r4
 1003 00c0 2146     		mov	r1, r4
 1004 00c2 3120     		movs	r0, #49
 1005 00c4 FFF7FEFF 		bl	HAL_NVIC_SetPriority
 1006              	.LVL56:
 455:Core/Src/stm32l4xx_hal_msp.c ****     /* USER CODE BEGIN SDMMC1_MspInit 1 */
 1007              		.loc 1 455 5 view .LVU294
 1008 00c8 3120     		movs	r0, #49
 1009 00ca FFF7FEFF 		bl	HAL_NVIC_EnableIRQ
 1010              	.LVL57:
 1011              		.loc 1 462 1 is_stmt 0 view .LVU295
 1012 00ce A8E7     		b	.L58
 1013              	.LVL58:
 1014              	.L63:
 426:Core/Src/stm32l4xx_hal_msp.c ****     }
 1015              		.loc 1 426 7 is_stmt 1 view .LVU296
 1016 00d0 FFF7FEFF 		bl	Error_Handler
 1017              	.LVL59:
 1018 00d4 BFE7     		b	.L60
 1019              	.L65:
 1020 00d6 00BF     		.align	2
 1021              	.L64:
 1022 00d8 00280140 		.word	1073817600
 1023 00dc 00100240 		.word	1073876992
 1024 00e0 00080048 		.word	1207961600
 1025 00e4 000C0048 		.word	1207962624
 1026              		.cfi_endproc
 1027              	.LFE235:
 1029              		.section	.text.HAL_SD_MspDeInit,"ax",%progbits
 1030              		.align	1
 1031              		.global	HAL_SD_MspDeInit
 1032              		.syntax unified
 1033              		.thumb
 1034              		.thumb_func
 1036              	HAL_SD_MspDeInit:
 1037              	.LVL60:
 1038              	.LFB236:
 463:Core/Src/stm32l4xx_hal_msp.c **** 
 464:Core/Src/stm32l4xx_hal_msp.c **** /**
 465:Core/Src/stm32l4xx_hal_msp.c ****   * @brief SD MSP De-Initialization
 466:Core/Src/stm32l4xx_hal_msp.c ****   * This function freeze the hardware resources used in this example
 467:Core/Src/stm32l4xx_hal_msp.c ****   * @param hsd: SD handle pointer
 468:Core/Src/stm32l4xx_hal_msp.c ****   * @retval None
 469:Core/Src/stm32l4xx_hal_msp.c ****   */
 470:Core/Src/stm32l4xx_hal_msp.c **** void HAL_SD_MspDeInit(SD_HandleTypeDef* hsd)
 471:Core/Src/stm32l4xx_hal_msp.c **** {
 1039              		.loc 1 471 1 view -0
 1040              		.cfi_startproc
 1041              		@ args = 0, pretend = 0, frame = 0
 1042              		@ frame_needed = 0, uses_anonymous_args = 0
 1043              		.loc 1 471 1 is_stmt 0 view .LVU298
 1044 0000 08B5     		push	{r3, lr}
 1045              		.cfi_def_cfa_offset 8
 1046              		.cfi_offset 3, -8
 1047              		.cfi_offset 14, -4
ARM GAS  /tmp/cclB1ShU.s 			page 31


 472:Core/Src/stm32l4xx_hal_msp.c ****   if(hsd->Instance==SDMMC1)
 1048              		.loc 1 472 3 is_stmt 1 view .LVU299
 1049              		.loc 1 472 9 is_stmt 0 view .LVU300
 1050 0002 0268     		ldr	r2, [r0]
 1051              		.loc 1 472 5 view .LVU301
 1052 0004 0A4B     		ldr	r3, .L70
 1053 0006 9A42     		cmp	r2, r3
 1054 0008 00D0     		beq	.L69
 1055              	.LVL61:
 1056              	.L66:
 473:Core/Src/stm32l4xx_hal_msp.c ****   {
 474:Core/Src/stm32l4xx_hal_msp.c ****     /* USER CODE BEGIN SDMMC1_MspDeInit 0 */
 475:Core/Src/stm32l4xx_hal_msp.c **** 
 476:Core/Src/stm32l4xx_hal_msp.c ****     /* USER CODE END SDMMC1_MspDeInit 0 */
 477:Core/Src/stm32l4xx_hal_msp.c ****     /* Peripheral clock disable */
 478:Core/Src/stm32l4xx_hal_msp.c ****     __HAL_RCC_SDMMC1_CLK_DISABLE();
 479:Core/Src/stm32l4xx_hal_msp.c **** 
 480:Core/Src/stm32l4xx_hal_msp.c ****     /**SDMMC1 GPIO Configuration
 481:Core/Src/stm32l4xx_hal_msp.c ****     PC8     ------> SDMMC1_D0
 482:Core/Src/stm32l4xx_hal_msp.c ****     PC12     ------> SDMMC1_CK
 483:Core/Src/stm32l4xx_hal_msp.c ****     PD2     ------> SDMMC1_CMD
 484:Core/Src/stm32l4xx_hal_msp.c ****     */
 485:Core/Src/stm32l4xx_hal_msp.c ****     HAL_GPIO_DeInit(GPIOC, GPIO_PIN_8|GPIO_PIN_12);
 486:Core/Src/stm32l4xx_hal_msp.c **** 
 487:Core/Src/stm32l4xx_hal_msp.c ****     HAL_GPIO_DeInit(GPIOD, GPIO_PIN_2);
 488:Core/Src/stm32l4xx_hal_msp.c **** 
 489:Core/Src/stm32l4xx_hal_msp.c ****     /* SDMMC1 interrupt DeInit */
 490:Core/Src/stm32l4xx_hal_msp.c ****     HAL_NVIC_DisableIRQ(SDMMC1_IRQn);
 491:Core/Src/stm32l4xx_hal_msp.c ****     /* USER CODE BEGIN SDMMC1_MspDeInit 1 */
 492:Core/Src/stm32l4xx_hal_msp.c **** 
 493:Core/Src/stm32l4xx_hal_msp.c ****     /* USER CODE END SDMMC1_MspDeInit 1 */
 494:Core/Src/stm32l4xx_hal_msp.c ****   }
 495:Core/Src/stm32l4xx_hal_msp.c **** 
 496:Core/Src/stm32l4xx_hal_msp.c **** }
 1057              		.loc 1 496 1 view .LVU302
 1058 000a 08BD     		pop	{r3, pc}
 1059              	.LVL62:
 1060              	.L69:
 478:Core/Src/stm32l4xx_hal_msp.c **** 
 1061              		.loc 1 478 5 is_stmt 1 view .LVU303
 1062 000c 094A     		ldr	r2, .L70+4
 1063 000e 136E     		ldr	r3, [r2, #96]
 1064 0010 23F48063 		bic	r3, r3, #1024
 1065 0014 1366     		str	r3, [r2, #96]
 485:Core/Src/stm32l4xx_hal_msp.c **** 
 1066              		.loc 1 485 5 view .LVU304
 1067 0016 4FF48851 		mov	r1, #4352
 1068 001a 0748     		ldr	r0, .L70+8
 1069              	.LVL63:
 485:Core/Src/stm32l4xx_hal_msp.c **** 
 1070              		.loc 1 485 5 is_stmt 0 view .LVU305
 1071 001c FFF7FEFF 		bl	HAL_GPIO_DeInit
 1072              	.LVL64:
 487:Core/Src/stm32l4xx_hal_msp.c **** 
 1073              		.loc 1 487 5 is_stmt 1 view .LVU306
 1074 0020 0421     		movs	r1, #4
 1075 0022 0648     		ldr	r0, .L70+12
ARM GAS  /tmp/cclB1ShU.s 			page 32


 1076 0024 FFF7FEFF 		bl	HAL_GPIO_DeInit
 1077              	.LVL65:
 490:Core/Src/stm32l4xx_hal_msp.c ****     /* USER CODE BEGIN SDMMC1_MspDeInit 1 */
 1078              		.loc 1 490 5 view .LVU307
 1079 0028 3120     		movs	r0, #49
 1080 002a FFF7FEFF 		bl	HAL_NVIC_DisableIRQ
 1081              	.LVL66:
 1082              		.loc 1 496 1 is_stmt 0 view .LVU308
 1083 002e ECE7     		b	.L66
 1084              	.L71:
 1085              		.align	2
 1086              	.L70:
 1087 0030 00280140 		.word	1073817600
 1088 0034 00100240 		.word	1073876992
 1089 0038 00080048 		.word	1207961600
 1090 003c 000C0048 		.word	1207962624
 1091              		.cfi_endproc
 1092              	.LFE236:
 1094              		.section	.text.HAL_SPI_MspInit,"ax",%progbits
 1095              		.align	1
 1096              		.global	HAL_SPI_MspInit
 1097              		.syntax unified
 1098              		.thumb
 1099              		.thumb_func
 1101              	HAL_SPI_MspInit:
 1102              	.LVL67:
 1103              	.LFB237:
 497:Core/Src/stm32l4xx_hal_msp.c **** 
 498:Core/Src/stm32l4xx_hal_msp.c **** /**
 499:Core/Src/stm32l4xx_hal_msp.c ****   * @brief SPI MSP Initialization
 500:Core/Src/stm32l4xx_hal_msp.c ****   * This function configures the hardware resources used in this example
 501:Core/Src/stm32l4xx_hal_msp.c ****   * @param hspi: SPI handle pointer
 502:Core/Src/stm32l4xx_hal_msp.c ****   * @retval None
 503:Core/Src/stm32l4xx_hal_msp.c ****   */
 504:Core/Src/stm32l4xx_hal_msp.c **** void HAL_SPI_MspInit(SPI_HandleTypeDef* hspi)
 505:Core/Src/stm32l4xx_hal_msp.c **** {
 1104              		.loc 1 505 1 is_stmt 1 view -0
 1105              		.cfi_startproc
 1106              		@ args = 0, pretend = 0, frame = 32
 1107              		@ frame_needed = 0, uses_anonymous_args = 0
 1108              		.loc 1 505 1 is_stmt 0 view .LVU310
 1109 0000 00B5     		push	{lr}
 1110              		.cfi_def_cfa_offset 4
 1111              		.cfi_offset 14, -4
 1112 0002 89B0     		sub	sp, sp, #36
 1113              		.cfi_def_cfa_offset 40
 506:Core/Src/stm32l4xx_hal_msp.c ****   GPIO_InitTypeDef GPIO_InitStruct = {0};
 1114              		.loc 1 506 3 is_stmt 1 view .LVU311
 1115              		.loc 1 506 20 is_stmt 0 view .LVU312
 1116 0004 0023     		movs	r3, #0
 1117 0006 0393     		str	r3, [sp, #12]
 1118 0008 0493     		str	r3, [sp, #16]
 1119 000a 0593     		str	r3, [sp, #20]
 1120 000c 0693     		str	r3, [sp, #24]
 1121 000e 0793     		str	r3, [sp, #28]
 507:Core/Src/stm32l4xx_hal_msp.c ****   if(hspi->Instance==SPI1)
 1122              		.loc 1 507 3 is_stmt 1 view .LVU313
ARM GAS  /tmp/cclB1ShU.s 			page 33


 1123              		.loc 1 507 10 is_stmt 0 view .LVU314
 1124 0010 0268     		ldr	r2, [r0]
 1125              		.loc 1 507 5 view .LVU315
 1126 0012 134B     		ldr	r3, .L76
 1127 0014 9A42     		cmp	r2, r3
 1128 0016 01D0     		beq	.L75
 1129              	.LVL68:
 1130              	.L72:
 508:Core/Src/stm32l4xx_hal_msp.c ****   {
 509:Core/Src/stm32l4xx_hal_msp.c ****     /* USER CODE BEGIN SPI1_MspInit 0 */
 510:Core/Src/stm32l4xx_hal_msp.c **** 
 511:Core/Src/stm32l4xx_hal_msp.c ****     /* USER CODE END SPI1_MspInit 0 */
 512:Core/Src/stm32l4xx_hal_msp.c ****     /* Peripheral clock enable */
 513:Core/Src/stm32l4xx_hal_msp.c ****     __HAL_RCC_SPI1_CLK_ENABLE();
 514:Core/Src/stm32l4xx_hal_msp.c **** 
 515:Core/Src/stm32l4xx_hal_msp.c ****     __HAL_RCC_GPIOA_CLK_ENABLE();
 516:Core/Src/stm32l4xx_hal_msp.c ****     /**SPI1 GPIO Configuration
 517:Core/Src/stm32l4xx_hal_msp.c ****     PA5     ------> SPI1_SCK
 518:Core/Src/stm32l4xx_hal_msp.c ****     PA6     ------> SPI1_MISO
 519:Core/Src/stm32l4xx_hal_msp.c ****     PA7     ------> SPI1_MOSI
 520:Core/Src/stm32l4xx_hal_msp.c ****     */
 521:Core/Src/stm32l4xx_hal_msp.c ****     GPIO_InitStruct.Pin = SD_SPI1_SCK_Pin|SD_SPI1_MISO_Pin|SD_SPI1_MOSI_Pin;
 522:Core/Src/stm32l4xx_hal_msp.c ****     GPIO_InitStruct.Mode = GPIO_MODE_AF_PP;
 523:Core/Src/stm32l4xx_hal_msp.c ****     GPIO_InitStruct.Pull = GPIO_NOPULL;
 524:Core/Src/stm32l4xx_hal_msp.c ****     GPIO_InitStruct.Speed = GPIO_SPEED_FREQ_VERY_HIGH;
 525:Core/Src/stm32l4xx_hal_msp.c ****     GPIO_InitStruct.Alternate = GPIO_AF5_SPI1;
 526:Core/Src/stm32l4xx_hal_msp.c ****     HAL_GPIO_Init(GPIOA, &GPIO_InitStruct);
 527:Core/Src/stm32l4xx_hal_msp.c **** 
 528:Core/Src/stm32l4xx_hal_msp.c ****     /* USER CODE BEGIN SPI1_MspInit 1 */
 529:Core/Src/stm32l4xx_hal_msp.c **** 
 530:Core/Src/stm32l4xx_hal_msp.c ****     /* USER CODE END SPI1_MspInit 1 */
 531:Core/Src/stm32l4xx_hal_msp.c **** 
 532:Core/Src/stm32l4xx_hal_msp.c ****   }
 533:Core/Src/stm32l4xx_hal_msp.c **** 
 534:Core/Src/stm32l4xx_hal_msp.c **** }
 1131              		.loc 1 534 1 view .LVU316
 1132 0018 09B0     		add	sp, sp, #36
 1133              		.cfi_remember_state
 1134              		.cfi_def_cfa_offset 4
 1135              		@ sp needed
 1136 001a 00BD     		pop	{pc}
 1137              	.LVL69:
 1138              	.L75:
 1139              		.cfi_restore_state
 513:Core/Src/stm32l4xx_hal_msp.c **** 
 1140              		.loc 1 513 5 is_stmt 1 view .LVU317
 1141              	.LBB15:
 513:Core/Src/stm32l4xx_hal_msp.c **** 
 1142              		.loc 1 513 5 view .LVU318
 513:Core/Src/stm32l4xx_hal_msp.c **** 
 1143              		.loc 1 513 5 view .LVU319
 1144 001c 03F56043 		add	r3, r3, #57344
 1145 0020 1A6E     		ldr	r2, [r3, #96]
 1146 0022 42F48052 		orr	r2, r2, #4096
 1147 0026 1A66     		str	r2, [r3, #96]
 513:Core/Src/stm32l4xx_hal_msp.c **** 
 1148              		.loc 1 513 5 view .LVU320
ARM GAS  /tmp/cclB1ShU.s 			page 34


 1149 0028 1A6E     		ldr	r2, [r3, #96]
 1150 002a 02F48052 		and	r2, r2, #4096
 1151 002e 0192     		str	r2, [sp, #4]
 513:Core/Src/stm32l4xx_hal_msp.c **** 
 1152              		.loc 1 513 5 view .LVU321
 1153 0030 019A     		ldr	r2, [sp, #4]
 1154              	.LBE15:
 513:Core/Src/stm32l4xx_hal_msp.c **** 
 1155              		.loc 1 513 5 view .LVU322
 515:Core/Src/stm32l4xx_hal_msp.c ****     /**SPI1 GPIO Configuration
 1156              		.loc 1 515 5 view .LVU323
 1157              	.LBB16:
 515:Core/Src/stm32l4xx_hal_msp.c ****     /**SPI1 GPIO Configuration
 1158              		.loc 1 515 5 view .LVU324
 515:Core/Src/stm32l4xx_hal_msp.c ****     /**SPI1 GPIO Configuration
 1159              		.loc 1 515 5 view .LVU325
 1160 0032 DA6C     		ldr	r2, [r3, #76]
 1161 0034 42F00102 		orr	r2, r2, #1
 1162 0038 DA64     		str	r2, [r3, #76]
 515:Core/Src/stm32l4xx_hal_msp.c ****     /**SPI1 GPIO Configuration
 1163              		.loc 1 515 5 view .LVU326
 1164 003a DB6C     		ldr	r3, [r3, #76]
 1165 003c 03F00103 		and	r3, r3, #1
 1166 0040 0293     		str	r3, [sp, #8]
 515:Core/Src/stm32l4xx_hal_msp.c ****     /**SPI1 GPIO Configuration
 1167              		.loc 1 515 5 view .LVU327
 1168 0042 029B     		ldr	r3, [sp, #8]
 1169              	.LBE16:
 515:Core/Src/stm32l4xx_hal_msp.c ****     /**SPI1 GPIO Configuration
 1170              		.loc 1 515 5 view .LVU328
 521:Core/Src/stm32l4xx_hal_msp.c ****     GPIO_InitStruct.Mode = GPIO_MODE_AF_PP;
 1171              		.loc 1 521 5 view .LVU329
 521:Core/Src/stm32l4xx_hal_msp.c ****     GPIO_InitStruct.Mode = GPIO_MODE_AF_PP;
 1172              		.loc 1 521 25 is_stmt 0 view .LVU330
 1173 0044 E023     		movs	r3, #224
 1174 0046 0393     		str	r3, [sp, #12]
 522:Core/Src/stm32l4xx_hal_msp.c ****     GPIO_InitStruct.Pull = GPIO_NOPULL;
 1175              		.loc 1 522 5 is_stmt 1 view .LVU331
 522:Core/Src/stm32l4xx_hal_msp.c ****     GPIO_InitStruct.Pull = GPIO_NOPULL;
 1176              		.loc 1 522 26 is_stmt 0 view .LVU332
 1177 0048 0223     		movs	r3, #2
 1178 004a 0493     		str	r3, [sp, #16]
 523:Core/Src/stm32l4xx_hal_msp.c ****     GPIO_InitStruct.Speed = GPIO_SPEED_FREQ_VERY_HIGH;
 1179              		.loc 1 523 5 is_stmt 1 view .LVU333
 524:Core/Src/stm32l4xx_hal_msp.c ****     GPIO_InitStruct.Alternate = GPIO_AF5_SPI1;
 1180              		.loc 1 524 5 view .LVU334
 524:Core/Src/stm32l4xx_hal_msp.c ****     GPIO_InitStruct.Alternate = GPIO_AF5_SPI1;
 1181              		.loc 1 524 27 is_stmt 0 view .LVU335
 1182 004c 0323     		movs	r3, #3
 1183 004e 0693     		str	r3, [sp, #24]
 525:Core/Src/stm32l4xx_hal_msp.c ****     HAL_GPIO_Init(GPIOA, &GPIO_InitStruct);
 1184              		.loc 1 525 5 is_stmt 1 view .LVU336
 525:Core/Src/stm32l4xx_hal_msp.c ****     HAL_GPIO_Init(GPIOA, &GPIO_InitStruct);
 1185              		.loc 1 525 31 is_stmt 0 view .LVU337
 1186 0050 0523     		movs	r3, #5
 1187 0052 0793     		str	r3, [sp, #28]
 526:Core/Src/stm32l4xx_hal_msp.c **** 
ARM GAS  /tmp/cclB1ShU.s 			page 35


 1188              		.loc 1 526 5 is_stmt 1 view .LVU338
 1189 0054 03A9     		add	r1, sp, #12
 1190 0056 4FF09040 		mov	r0, #1207959552
 1191              	.LVL70:
 526:Core/Src/stm32l4xx_hal_msp.c **** 
 1192              		.loc 1 526 5 is_stmt 0 view .LVU339
 1193 005a FFF7FEFF 		bl	HAL_GPIO_Init
 1194              	.LVL71:
 1195              		.loc 1 534 1 view .LVU340
 1196 005e DBE7     		b	.L72
 1197              	.L77:
 1198              		.align	2
 1199              	.L76:
 1200 0060 00300140 		.word	1073819648
 1201              		.cfi_endproc
 1202              	.LFE237:
 1204              		.section	.text.HAL_SPI_MspDeInit,"ax",%progbits
 1205              		.align	1
 1206              		.global	HAL_SPI_MspDeInit
 1207              		.syntax unified
 1208              		.thumb
 1209              		.thumb_func
 1211              	HAL_SPI_MspDeInit:
 1212              	.LVL72:
 1213              	.LFB238:
 535:Core/Src/stm32l4xx_hal_msp.c **** 
 536:Core/Src/stm32l4xx_hal_msp.c **** /**
 537:Core/Src/stm32l4xx_hal_msp.c ****   * @brief SPI MSP De-Initialization
 538:Core/Src/stm32l4xx_hal_msp.c ****   * This function freeze the hardware resources used in this example
 539:Core/Src/stm32l4xx_hal_msp.c ****   * @param hspi: SPI handle pointer
 540:Core/Src/stm32l4xx_hal_msp.c ****   * @retval None
 541:Core/Src/stm32l4xx_hal_msp.c ****   */
 542:Core/Src/stm32l4xx_hal_msp.c **** void HAL_SPI_MspDeInit(SPI_HandleTypeDef* hspi)
 543:Core/Src/stm32l4xx_hal_msp.c **** {
 1214              		.loc 1 543 1 is_stmt 1 view -0
 1215              		.cfi_startproc
 1216              		@ args = 0, pretend = 0, frame = 0
 1217              		@ frame_needed = 0, uses_anonymous_args = 0
 1218              		.loc 1 543 1 is_stmt 0 view .LVU342
 1219 0000 08B5     		push	{r3, lr}
 1220              		.cfi_def_cfa_offset 8
 1221              		.cfi_offset 3, -8
 1222              		.cfi_offset 14, -4
 544:Core/Src/stm32l4xx_hal_msp.c ****   if(hspi->Instance==SPI1)
 1223              		.loc 1 544 3 is_stmt 1 view .LVU343
 1224              		.loc 1 544 10 is_stmt 0 view .LVU344
 1225 0002 0268     		ldr	r2, [r0]
 1226              		.loc 1 544 5 view .LVU345
 1227 0004 074B     		ldr	r3, .L82
 1228 0006 9A42     		cmp	r2, r3
 1229 0008 00D0     		beq	.L81
 1230              	.LVL73:
 1231              	.L78:
 545:Core/Src/stm32l4xx_hal_msp.c ****   {
 546:Core/Src/stm32l4xx_hal_msp.c ****     /* USER CODE BEGIN SPI1_MspDeInit 0 */
 547:Core/Src/stm32l4xx_hal_msp.c **** 
 548:Core/Src/stm32l4xx_hal_msp.c ****     /* USER CODE END SPI1_MspDeInit 0 */
ARM GAS  /tmp/cclB1ShU.s 			page 36


 549:Core/Src/stm32l4xx_hal_msp.c ****     /* Peripheral clock disable */
 550:Core/Src/stm32l4xx_hal_msp.c ****     __HAL_RCC_SPI1_CLK_DISABLE();
 551:Core/Src/stm32l4xx_hal_msp.c **** 
 552:Core/Src/stm32l4xx_hal_msp.c ****     /**SPI1 GPIO Configuration
 553:Core/Src/stm32l4xx_hal_msp.c ****     PA5     ------> SPI1_SCK
 554:Core/Src/stm32l4xx_hal_msp.c ****     PA6     ------> SPI1_MISO
 555:Core/Src/stm32l4xx_hal_msp.c ****     PA7     ------> SPI1_MOSI
 556:Core/Src/stm32l4xx_hal_msp.c ****     */
 557:Core/Src/stm32l4xx_hal_msp.c ****     HAL_GPIO_DeInit(GPIOA, SD_SPI1_SCK_Pin|SD_SPI1_MISO_Pin|SD_SPI1_MOSI_Pin);
 558:Core/Src/stm32l4xx_hal_msp.c **** 
 559:Core/Src/stm32l4xx_hal_msp.c ****     /* USER CODE BEGIN SPI1_MspDeInit 1 */
 560:Core/Src/stm32l4xx_hal_msp.c **** 
 561:Core/Src/stm32l4xx_hal_msp.c ****     /* USER CODE END SPI1_MspDeInit 1 */
 562:Core/Src/stm32l4xx_hal_msp.c ****   }
 563:Core/Src/stm32l4xx_hal_msp.c **** 
 564:Core/Src/stm32l4xx_hal_msp.c **** }
 1232              		.loc 1 564 1 view .LVU346
 1233 000a 08BD     		pop	{r3, pc}
 1234              	.LVL74:
 1235              	.L81:
 550:Core/Src/stm32l4xx_hal_msp.c **** 
 1236              		.loc 1 550 5 is_stmt 1 view .LVU347
 1237 000c 064A     		ldr	r2, .L82+4
 1238 000e 136E     		ldr	r3, [r2, #96]
 1239 0010 23F48053 		bic	r3, r3, #4096
 1240 0014 1366     		str	r3, [r2, #96]
 557:Core/Src/stm32l4xx_hal_msp.c **** 
 1241              		.loc 1 557 5 view .LVU348
 1242 0016 E021     		movs	r1, #224
 1243 0018 4FF09040 		mov	r0, #1207959552
 1244              	.LVL75:
 557:Core/Src/stm32l4xx_hal_msp.c **** 
 1245              		.loc 1 557 5 is_stmt 0 view .LVU349
 1246 001c FFF7FEFF 		bl	HAL_GPIO_DeInit
 1247              	.LVL76:
 1248              		.loc 1 564 1 view .LVU350
 1249 0020 F3E7     		b	.L78
 1250              	.L83:
 1251 0022 00BF     		.align	2
 1252              	.L82:
 1253 0024 00300140 		.word	1073819648
 1254 0028 00100240 		.word	1073876992
 1255              		.cfi_endproc
 1256              	.LFE238:
 1258              		.text
 1259              	.Letext0:
 1260              		.file 2 "Drivers/CMSIS/Device/ST/STM32L4xx/Include/stm32l476xx.h"
 1261              		.file 3 "/home/glen/.config/Code/User/globalStorage/bmd.stm32-for-vscode/@xpack-dev-tools/arm-none
 1262              		.file 4 "/home/glen/.config/Code/User/globalStorage/bmd.stm32-for-vscode/@xpack-dev-tools/arm-none
 1263              		.file 5 "Drivers/STM32L4xx_HAL_Driver/Inc/stm32l4xx_hal_def.h"
 1264              		.file 6 "Drivers/STM32L4xx_HAL_Driver/Inc/stm32l4xx_hal_rcc_ex.h"
 1265              		.file 7 "Drivers/STM32L4xx_HAL_Driver/Inc/stm32l4xx_hal_gpio.h"
 1266              		.file 8 "Drivers/STM32L4xx_HAL_Driver/Inc/stm32l4xx_hal_dma.h"
 1267              		.file 9 "Drivers/STM32L4xx_HAL_Driver/Inc/stm32l4xx_hal_i2c.h"
 1268              		.file 10 "Drivers/STM32L4xx_HAL_Driver/Inc/stm32l4xx_hal_rtc.h"
 1269              		.file 11 "Drivers/STM32L4xx_HAL_Driver/Inc/stm32l4xx_ll_sdmmc.h"
 1270              		.file 12 "Drivers/STM32L4xx_HAL_Driver/Inc/stm32l4xx_hal_sd.h"
ARM GAS  /tmp/cclB1ShU.s 			page 37


 1271              		.file 13 "Drivers/STM32L4xx_HAL_Driver/Inc/stm32l4xx_hal_spi.h"
 1272              		.file 14 "Drivers/STM32L4xx_HAL_Driver/Inc/stm32l4xx_hal_uart.h"
 1273              		.file 15 "Drivers/STM32L4xx_HAL_Driver/Inc/stm32l4xx_hal_cortex.h"
 1274              		.file 16 "Drivers/STM32L4xx_HAL_Driver/Inc/stm32l4xx_ll_dma.h"
 1275              		.file 17 "Core/Inc/main.h"
 1276              		.file 18 "<built-in>"
ARM GAS  /tmp/cclB1ShU.s 			page 38


DEFINED SYMBOLS
                            *ABS*:00000000 stm32l4xx_hal_msp.c
     /tmp/cclB1ShU.s:21     .text.HAL_MspInit:00000000 $t
     /tmp/cclB1ShU.s:27     .text.HAL_MspInit:00000000 HAL_MspInit
     /tmp/cclB1ShU.s:75     .text.HAL_MspInit:0000002c $d
     /tmp/cclB1ShU.s:80     .text.HAL_I2C_MspInit:00000000 $t
     /tmp/cclB1ShU.s:86     .text.HAL_I2C_MspInit:00000000 HAL_I2C_MspInit
     /tmp/cclB1ShU.s:217    .text.HAL_I2C_MspInit:00000080 $d
     /tmp/cclB1ShU.s:224    .text.HAL_I2C_MspDeInit:00000000 $t
     /tmp/cclB1ShU.s:230    .text.HAL_I2C_MspDeInit:00000000 HAL_I2C_MspDeInit
     /tmp/cclB1ShU.s:277    .text.HAL_I2C_MspDeInit:0000002c $d
     /tmp/cclB1ShU.s:284    .text.HAL_UART_MspInit:00000000 $t
     /tmp/cclB1ShU.s:290    .text.HAL_UART_MspInit:00000000 HAL_UART_MspInit
     /tmp/cclB1ShU.s:578    .text.HAL_UART_MspInit:00000134 $d
     /tmp/cclB1ShU.s:587    .text.HAL_UART_MspDeInit:00000000 $t
     /tmp/cclB1ShU.s:593    .text.HAL_UART_MspDeInit:00000000 HAL_UART_MspDeInit
     /tmp/cclB1ShU.s:675    .text.HAL_UART_MspDeInit:0000005c $d
     /tmp/cclB1ShU.s:683    .text.HAL_RTC_MspInit:00000000 $t
     /tmp/cclB1ShU.s:689    .text.HAL_RTC_MspInit:00000000 HAL_RTC_MspInit
     /tmp/cclB1ShU.s:761    .text.HAL_RTC_MspInit:00000048 $d
     /tmp/cclB1ShU.s:767    .text.HAL_RTC_MspDeInit:00000000 $t
     /tmp/cclB1ShU.s:773    .text.HAL_RTC_MspDeInit:00000000 HAL_RTC_MspDeInit
     /tmp/cclB1ShU.s:802    .text.HAL_RTC_MspDeInit:0000001c $d
     /tmp/cclB1ShU.s:808    .text.HAL_SD_MspInit:00000000 $t
     /tmp/cclB1ShU.s:814    .text.HAL_SD_MspInit:00000000 HAL_SD_MspInit
     /tmp/cclB1ShU.s:1022   .text.HAL_SD_MspInit:000000d8 $d
     /tmp/cclB1ShU.s:1030   .text.HAL_SD_MspDeInit:00000000 $t
     /tmp/cclB1ShU.s:1036   .text.HAL_SD_MspDeInit:00000000 HAL_SD_MspDeInit
     /tmp/cclB1ShU.s:1087   .text.HAL_SD_MspDeInit:00000030 $d
     /tmp/cclB1ShU.s:1095   .text.HAL_SPI_MspInit:00000000 $t
     /tmp/cclB1ShU.s:1101   .text.HAL_SPI_MspInit:00000000 HAL_SPI_MspInit
     /tmp/cclB1ShU.s:1200   .text.HAL_SPI_MspInit:00000060 $d
     /tmp/cclB1ShU.s:1205   .text.HAL_SPI_MspDeInit:00000000 $t
     /tmp/cclB1ShU.s:1211   .text.HAL_SPI_MspDeInit:00000000 HAL_SPI_MspDeInit
     /tmp/cclB1ShU.s:1253   .text.HAL_SPI_MspDeInit:00000024 $d

UNDEFINED SYMBOLS
memset
HAL_RCCEx_PeriphCLKConfig
HAL_GPIO_Init
Error_Handler
HAL_GPIO_DeInit
HAL_NVIC_SetPriority
HAL_NVIC_EnableIRQ
HAL_NVIC_DisableIRQ
