ARM GAS  /tmp/cc0cTHVu.s 			page 1


   1              		.cpu cortex-m4
   2              		.arch armv7e-m
   3              		.fpu fpv4-sp-d16
   4              		.eabi_attribute 27, 1
   5              		.eabi_attribute 28, 1
   6              		.eabi_attribute 20, 1
   7              		.eabi_attribute 21, 1
   8              		.eabi_attribute 23, 3
   9              		.eabi_attribute 24, 1
  10              		.eabi_attribute 25, 1
  11              		.eabi_attribute 26, 1
  12              		.eabi_attribute 30, 1
  13              		.eabi_attribute 34, 1
  14              		.eabi_attribute 18, 4
  15              		.file	"stm32l4xx_hal_msp.c"
  16              		.text
  17              	.Ltext0:
  18              		.cfi_sections	.debug_frame
  19              		.file 1 "Core/Src/stm32l4xx_hal_msp.c"
  20              		.section	.text.HAL_MspInit,"ax",%progbits
  21              		.align	1
  22              		.global	HAL_MspInit
  23              		.syntax unified
  24              		.thumb
  25              		.thumb_func
  27              	HAL_MspInit:
  28              	.LFB228:
   1:Core/Src/stm32l4xx_hal_msp.c **** /* USER CODE BEGIN Header */
   2:Core/Src/stm32l4xx_hal_msp.c **** /**
   3:Core/Src/stm32l4xx_hal_msp.c ****   ******************************************************************************
   4:Core/Src/stm32l4xx_hal_msp.c ****   * @file         stm32l4xx_hal_msp.c
   5:Core/Src/stm32l4xx_hal_msp.c ****   * @brief        This file provides code for the MSP Initialization
   6:Core/Src/stm32l4xx_hal_msp.c ****   *               and de-Initialization codes.
   7:Core/Src/stm32l4xx_hal_msp.c ****   ******************************************************************************
   8:Core/Src/stm32l4xx_hal_msp.c ****   * @attention
   9:Core/Src/stm32l4xx_hal_msp.c ****   *
  10:Core/Src/stm32l4xx_hal_msp.c ****   * Copyright (c) 2026 STMicroelectronics.
  11:Core/Src/stm32l4xx_hal_msp.c ****   * All rights reserved.
  12:Core/Src/stm32l4xx_hal_msp.c ****   *
  13:Core/Src/stm32l4xx_hal_msp.c ****   * This software is licensed under terms that can be found in the LICENSE file
  14:Core/Src/stm32l4xx_hal_msp.c ****   * in the root directory of this software component.
  15:Core/Src/stm32l4xx_hal_msp.c ****   * If no LICENSE file comes with this software, it is provided AS-IS.
  16:Core/Src/stm32l4xx_hal_msp.c ****   *
  17:Core/Src/stm32l4xx_hal_msp.c ****   ******************************************************************************
  18:Core/Src/stm32l4xx_hal_msp.c ****   */
  19:Core/Src/stm32l4xx_hal_msp.c **** /* USER CODE END Header */
  20:Core/Src/stm32l4xx_hal_msp.c **** /* Includes ------------------------------------------------------------------*/
  21:Core/Src/stm32l4xx_hal_msp.c **** #include "main.h"
  22:Core/Src/stm32l4xx_hal_msp.c **** /* USER CODE BEGIN Includes */
  23:Core/Src/stm32l4xx_hal_msp.c **** 
  24:Core/Src/stm32l4xx_hal_msp.c **** /* USER CODE END Includes */
  25:Core/Src/stm32l4xx_hal_msp.c **** extern DMA_HandleTypeDef hdma_usart1_rx;
  26:Core/Src/stm32l4xx_hal_msp.c **** 
  27:Core/Src/stm32l4xx_hal_msp.c **** extern DMA_HandleTypeDef hdma_sdmmc1_rx;
  28:Core/Src/stm32l4xx_hal_msp.c **** 
  29:Core/Src/stm32l4xx_hal_msp.c **** extern DMA_HandleTypeDef hdma_sdmmc1_tx;
  30:Core/Src/stm32l4xx_hal_msp.c **** 
ARM GAS  /tmp/cc0cTHVu.s 			page 2


  31:Core/Src/stm32l4xx_hal_msp.c **** /* Private typedef -----------------------------------------------------------*/
  32:Core/Src/stm32l4xx_hal_msp.c **** /* USER CODE BEGIN TD */
  33:Core/Src/stm32l4xx_hal_msp.c **** 
  34:Core/Src/stm32l4xx_hal_msp.c **** /* USER CODE END TD */
  35:Core/Src/stm32l4xx_hal_msp.c **** 
  36:Core/Src/stm32l4xx_hal_msp.c **** /* Private define ------------------------------------------------------------*/
  37:Core/Src/stm32l4xx_hal_msp.c **** /* USER CODE BEGIN Define */
  38:Core/Src/stm32l4xx_hal_msp.c **** 
  39:Core/Src/stm32l4xx_hal_msp.c **** /* USER CODE END Define */
  40:Core/Src/stm32l4xx_hal_msp.c **** 
  41:Core/Src/stm32l4xx_hal_msp.c **** /* Private macro -------------------------------------------------------------*/
  42:Core/Src/stm32l4xx_hal_msp.c **** /* USER CODE BEGIN Macro */
  43:Core/Src/stm32l4xx_hal_msp.c **** 
  44:Core/Src/stm32l4xx_hal_msp.c **** /* USER CODE END Macro */
  45:Core/Src/stm32l4xx_hal_msp.c **** 
  46:Core/Src/stm32l4xx_hal_msp.c **** /* Private variables ---------------------------------------------------------*/
  47:Core/Src/stm32l4xx_hal_msp.c **** /* USER CODE BEGIN PV */
  48:Core/Src/stm32l4xx_hal_msp.c **** 
  49:Core/Src/stm32l4xx_hal_msp.c **** /* USER CODE END PV */
  50:Core/Src/stm32l4xx_hal_msp.c **** 
  51:Core/Src/stm32l4xx_hal_msp.c **** /* Private function prototypes -----------------------------------------------*/
  52:Core/Src/stm32l4xx_hal_msp.c **** /* USER CODE BEGIN PFP */
  53:Core/Src/stm32l4xx_hal_msp.c **** 
  54:Core/Src/stm32l4xx_hal_msp.c **** /* USER CODE END PFP */
  55:Core/Src/stm32l4xx_hal_msp.c **** 
  56:Core/Src/stm32l4xx_hal_msp.c **** /* External functions --------------------------------------------------------*/
  57:Core/Src/stm32l4xx_hal_msp.c **** /* USER CODE BEGIN ExternalFunctions */
  58:Core/Src/stm32l4xx_hal_msp.c **** 
  59:Core/Src/stm32l4xx_hal_msp.c **** /* USER CODE END ExternalFunctions */
  60:Core/Src/stm32l4xx_hal_msp.c **** 
  61:Core/Src/stm32l4xx_hal_msp.c **** /* USER CODE BEGIN 0 */
  62:Core/Src/stm32l4xx_hal_msp.c **** 
  63:Core/Src/stm32l4xx_hal_msp.c **** /* USER CODE END 0 */
  64:Core/Src/stm32l4xx_hal_msp.c **** /**
  65:Core/Src/stm32l4xx_hal_msp.c ****   * Initializes the Global MSP.
  66:Core/Src/stm32l4xx_hal_msp.c ****   */
  67:Core/Src/stm32l4xx_hal_msp.c **** void HAL_MspInit(void)
  68:Core/Src/stm32l4xx_hal_msp.c **** {
  29              		.loc 1 68 1 view -0
  30              		.cfi_startproc
  31              		@ args = 0, pretend = 0, frame = 8
  32              		@ frame_needed = 0, uses_anonymous_args = 0
  33 0000 00B5     		push	{lr}
  34              		.cfi_def_cfa_offset 4
  35              		.cfi_offset 14, -4
  36 0002 83B0     		sub	sp, sp, #12
  37              		.cfi_def_cfa_offset 16
  69:Core/Src/stm32l4xx_hal_msp.c **** 
  70:Core/Src/stm32l4xx_hal_msp.c ****   /* USER CODE BEGIN MspInit 0 */
  71:Core/Src/stm32l4xx_hal_msp.c **** 
  72:Core/Src/stm32l4xx_hal_msp.c ****   /* USER CODE END MspInit 0 */
  73:Core/Src/stm32l4xx_hal_msp.c **** 
  74:Core/Src/stm32l4xx_hal_msp.c ****   __HAL_RCC_SYSCFG_CLK_ENABLE();
  38              		.loc 1 74 3 view .LVU1
  39              	.LBB2:
  40              		.loc 1 74 3 view .LVU2
  41              		.loc 1 74 3 view .LVU3
ARM GAS  /tmp/cc0cTHVu.s 			page 3


  42 0004 0E4B     		ldr	r3, .L3
  43 0006 1A6E     		ldr	r2, [r3, #96]
  44 0008 42F00102 		orr	r2, r2, #1
  45 000c 1A66     		str	r2, [r3, #96]
  46              		.loc 1 74 3 view .LVU4
  47 000e 1A6E     		ldr	r2, [r3, #96]
  48 0010 02F00102 		and	r2, r2, #1
  49 0014 0092     		str	r2, [sp]
  50              		.loc 1 74 3 view .LVU5
  51 0016 009A     		ldr	r2, [sp]
  52              	.LBE2:
  53              		.loc 1 74 3 view .LVU6
  75:Core/Src/stm32l4xx_hal_msp.c ****   __HAL_RCC_PWR_CLK_ENABLE();
  54              		.loc 1 75 3 view .LVU7
  55              	.LBB3:
  56              		.loc 1 75 3 view .LVU8
  57              		.loc 1 75 3 view .LVU9
  58 0018 9A6D     		ldr	r2, [r3, #88]
  59 001a 42F08052 		orr	r2, r2, #268435456
  60 001e 9A65     		str	r2, [r3, #88]
  61              		.loc 1 75 3 view .LVU10
  62 0020 9B6D     		ldr	r3, [r3, #88]
  63 0022 03F08053 		and	r3, r3, #268435456
  64 0026 0193     		str	r3, [sp, #4]
  65              		.loc 1 75 3 view .LVU11
  66 0028 019B     		ldr	r3, [sp, #4]
  67              	.LBE3:
  68              		.loc 1 75 3 view .LVU12
  76:Core/Src/stm32l4xx_hal_msp.c **** 
  77:Core/Src/stm32l4xx_hal_msp.c ****   /* System interrupt init*/
  78:Core/Src/stm32l4xx_hal_msp.c **** 
  79:Core/Src/stm32l4xx_hal_msp.c ****   /* Peripheral interrupt init */
  80:Core/Src/stm32l4xx_hal_msp.c ****   /* RCC_IRQn interrupt configuration */
  81:Core/Src/stm32l4xx_hal_msp.c ****   HAL_NVIC_SetPriority(RCC_IRQn, 0, 0);
  69              		.loc 1 81 3 view .LVU13
  70 002a 0022     		movs	r2, #0
  71 002c 1146     		mov	r1, r2
  72 002e 0520     		movs	r0, #5
  73 0030 FFF7FEFF 		bl	HAL_NVIC_SetPriority
  74              	.LVL0:
  82:Core/Src/stm32l4xx_hal_msp.c ****   HAL_NVIC_EnableIRQ(RCC_IRQn);
  75              		.loc 1 82 3 view .LVU14
  76 0034 0520     		movs	r0, #5
  77 0036 FFF7FEFF 		bl	HAL_NVIC_EnableIRQ
  78              	.LVL1:
  83:Core/Src/stm32l4xx_hal_msp.c **** 
  84:Core/Src/stm32l4xx_hal_msp.c ****   /* USER CODE BEGIN MspInit 1 */
  85:Core/Src/stm32l4xx_hal_msp.c **** 
  86:Core/Src/stm32l4xx_hal_msp.c ****   /* USER CODE END MspInit 1 */
  87:Core/Src/stm32l4xx_hal_msp.c **** }
  79              		.loc 1 87 1 is_stmt 0 view .LVU15
  80 003a 03B0     		add	sp, sp, #12
  81              		.cfi_def_cfa_offset 4
  82              		@ sp needed
  83 003c 00BD     		pop	{pc}
  84              	.L4:
  85 003e 00BF     		.align	2
ARM GAS  /tmp/cc0cTHVu.s 			page 4


  86              	.L3:
  87 0040 00100240 		.word	1073876992
  88              		.cfi_endproc
  89              	.LFE228:
  91              		.section	.text.HAL_CRC_MspInit,"ax",%progbits
  92              		.align	1
  93              		.global	HAL_CRC_MspInit
  94              		.syntax unified
  95              		.thumb
  96              		.thumb_func
  98              	HAL_CRC_MspInit:
  99              	.LVL2:
 100              	.LFB229:
  88:Core/Src/stm32l4xx_hal_msp.c **** 
  89:Core/Src/stm32l4xx_hal_msp.c **** /**
  90:Core/Src/stm32l4xx_hal_msp.c ****   * @brief CRC MSP Initialization
  91:Core/Src/stm32l4xx_hal_msp.c ****   * This function configures the hardware resources used in this example
  92:Core/Src/stm32l4xx_hal_msp.c ****   * @param hcrc: CRC handle pointer
  93:Core/Src/stm32l4xx_hal_msp.c ****   * @retval None
  94:Core/Src/stm32l4xx_hal_msp.c ****   */
  95:Core/Src/stm32l4xx_hal_msp.c **** void HAL_CRC_MspInit(CRC_HandleTypeDef* hcrc)
  96:Core/Src/stm32l4xx_hal_msp.c **** {
 101              		.loc 1 96 1 is_stmt 1 view -0
 102              		.cfi_startproc
 103              		@ args = 0, pretend = 0, frame = 8
 104              		@ frame_needed = 0, uses_anonymous_args = 0
 105              		@ link register save eliminated.
  97:Core/Src/stm32l4xx_hal_msp.c ****   if(hcrc->Instance==CRC)
 106              		.loc 1 97 3 view .LVU17
 107              		.loc 1 97 10 is_stmt 0 view .LVU18
 108 0000 0268     		ldr	r2, [r0]
 109              		.loc 1 97 5 view .LVU19
 110 0002 094B     		ldr	r3, .L12
 111 0004 9A42     		cmp	r2, r3
 112 0006 00D0     		beq	.L11
 113 0008 7047     		bx	lr
 114              	.L11:
  96:Core/Src/stm32l4xx_hal_msp.c ****   if(hcrc->Instance==CRC)
 115              		.loc 1 96 1 view .LVU20
 116 000a 82B0     		sub	sp, sp, #8
 117              		.cfi_def_cfa_offset 8
  98:Core/Src/stm32l4xx_hal_msp.c ****   {
  99:Core/Src/stm32l4xx_hal_msp.c ****     /* USER CODE BEGIN CRC_MspInit 0 */
 100:Core/Src/stm32l4xx_hal_msp.c **** 
 101:Core/Src/stm32l4xx_hal_msp.c ****     /* USER CODE END CRC_MspInit 0 */
 102:Core/Src/stm32l4xx_hal_msp.c ****     /* Peripheral clock enable */
 103:Core/Src/stm32l4xx_hal_msp.c ****     __HAL_RCC_CRC_CLK_ENABLE();
 118              		.loc 1 103 5 is_stmt 1 view .LVU21
 119              	.LBB4:
 120              		.loc 1 103 5 view .LVU22
 121              		.loc 1 103 5 view .LVU23
 122 000c A3F50053 		sub	r3, r3, #8192
 123 0010 9A6C     		ldr	r2, [r3, #72]
 124 0012 42F48052 		orr	r2, r2, #4096
 125 0016 9A64     		str	r2, [r3, #72]
 126              		.loc 1 103 5 view .LVU24
 127 0018 9B6C     		ldr	r3, [r3, #72]
ARM GAS  /tmp/cc0cTHVu.s 			page 5


 128 001a 03F48053 		and	r3, r3, #4096
 129 001e 0193     		str	r3, [sp, #4]
 130              		.loc 1 103 5 view .LVU25
 131 0020 019B     		ldr	r3, [sp, #4]
 132              	.LBE4:
 133              		.loc 1 103 5 view .LVU26
 104:Core/Src/stm32l4xx_hal_msp.c ****     /* USER CODE BEGIN CRC_MspInit 1 */
 105:Core/Src/stm32l4xx_hal_msp.c **** 
 106:Core/Src/stm32l4xx_hal_msp.c ****     /* USER CODE END CRC_MspInit 1 */
 107:Core/Src/stm32l4xx_hal_msp.c **** 
 108:Core/Src/stm32l4xx_hal_msp.c ****   }
 109:Core/Src/stm32l4xx_hal_msp.c **** 
 110:Core/Src/stm32l4xx_hal_msp.c **** }
 134              		.loc 1 110 1 is_stmt 0 view .LVU27
 135 0022 02B0     		add	sp, sp, #8
 136              		.cfi_def_cfa_offset 0
 137              		@ sp needed
 138 0024 7047     		bx	lr
 139              	.L13:
 140 0026 00BF     		.align	2
 141              	.L12:
 142 0028 00300240 		.word	1073885184
 143              		.cfi_endproc
 144              	.LFE229:
 146              		.section	.text.HAL_CRC_MspDeInit,"ax",%progbits
 147              		.align	1
 148              		.global	HAL_CRC_MspDeInit
 149              		.syntax unified
 150              		.thumb
 151              		.thumb_func
 153              	HAL_CRC_MspDeInit:
 154              	.LVL3:
 155              	.LFB230:
 111:Core/Src/stm32l4xx_hal_msp.c **** 
 112:Core/Src/stm32l4xx_hal_msp.c **** /**
 113:Core/Src/stm32l4xx_hal_msp.c ****   * @brief CRC MSP De-Initialization
 114:Core/Src/stm32l4xx_hal_msp.c ****   * This function freeze the hardware resources used in this example
 115:Core/Src/stm32l4xx_hal_msp.c ****   * @param hcrc: CRC handle pointer
 116:Core/Src/stm32l4xx_hal_msp.c ****   * @retval None
 117:Core/Src/stm32l4xx_hal_msp.c ****   */
 118:Core/Src/stm32l4xx_hal_msp.c **** void HAL_CRC_MspDeInit(CRC_HandleTypeDef* hcrc)
 119:Core/Src/stm32l4xx_hal_msp.c **** {
 156              		.loc 1 119 1 is_stmt 1 view -0
 157              		.cfi_startproc
 158              		@ args = 0, pretend = 0, frame = 0
 159              		@ frame_needed = 0, uses_anonymous_args = 0
 160              		@ link register save eliminated.
 120:Core/Src/stm32l4xx_hal_msp.c ****   if(hcrc->Instance==CRC)
 161              		.loc 1 120 3 view .LVU29
 162              		.loc 1 120 10 is_stmt 0 view .LVU30
 163 0000 0268     		ldr	r2, [r0]
 164              		.loc 1 120 5 view .LVU31
 165 0002 054B     		ldr	r3, .L17
 166 0004 9A42     		cmp	r2, r3
 167 0006 00D0     		beq	.L16
 168              	.L14:
 121:Core/Src/stm32l4xx_hal_msp.c ****   {
ARM GAS  /tmp/cc0cTHVu.s 			page 6


 122:Core/Src/stm32l4xx_hal_msp.c ****     /* USER CODE BEGIN CRC_MspDeInit 0 */
 123:Core/Src/stm32l4xx_hal_msp.c **** 
 124:Core/Src/stm32l4xx_hal_msp.c ****     /* USER CODE END CRC_MspDeInit 0 */
 125:Core/Src/stm32l4xx_hal_msp.c ****     /* Peripheral clock disable */
 126:Core/Src/stm32l4xx_hal_msp.c ****     __HAL_RCC_CRC_CLK_DISABLE();
 127:Core/Src/stm32l4xx_hal_msp.c ****     /* USER CODE BEGIN CRC_MspDeInit 1 */
 128:Core/Src/stm32l4xx_hal_msp.c **** 
 129:Core/Src/stm32l4xx_hal_msp.c ****     /* USER CODE END CRC_MspDeInit 1 */
 130:Core/Src/stm32l4xx_hal_msp.c ****   }
 131:Core/Src/stm32l4xx_hal_msp.c **** 
 132:Core/Src/stm32l4xx_hal_msp.c **** }
 169              		.loc 1 132 1 view .LVU32
 170 0008 7047     		bx	lr
 171              	.L16:
 126:Core/Src/stm32l4xx_hal_msp.c ****     /* USER CODE BEGIN CRC_MspDeInit 1 */
 172              		.loc 1 126 5 is_stmt 1 view .LVU33
 173 000a 044A     		ldr	r2, .L17+4
 174 000c 936C     		ldr	r3, [r2, #72]
 175 000e 23F48053 		bic	r3, r3, #4096
 176 0012 9364     		str	r3, [r2, #72]
 177              		.loc 1 132 1 is_stmt 0 view .LVU34
 178 0014 F8E7     		b	.L14
 179              	.L18:
 180 0016 00BF     		.align	2
 181              	.L17:
 182 0018 00300240 		.word	1073885184
 183 001c 00100240 		.word	1073876992
 184              		.cfi_endproc
 185              	.LFE230:
 187              		.section	.text.HAL_I2C_MspInit,"ax",%progbits
 188              		.align	1
 189              		.global	HAL_I2C_MspInit
 190              		.syntax unified
 191              		.thumb
 192              		.thumb_func
 194              	HAL_I2C_MspInit:
 195              	.LVL4:
 196              	.LFB231:
 133:Core/Src/stm32l4xx_hal_msp.c **** 
 134:Core/Src/stm32l4xx_hal_msp.c **** /**
 135:Core/Src/stm32l4xx_hal_msp.c ****   * @brief I2C MSP Initialization
 136:Core/Src/stm32l4xx_hal_msp.c ****   * This function configures the hardware resources used in this example
 137:Core/Src/stm32l4xx_hal_msp.c ****   * @param hi2c: I2C handle pointer
 138:Core/Src/stm32l4xx_hal_msp.c ****   * @retval None
 139:Core/Src/stm32l4xx_hal_msp.c ****   */
 140:Core/Src/stm32l4xx_hal_msp.c **** void HAL_I2C_MspInit(I2C_HandleTypeDef* hi2c)
 141:Core/Src/stm32l4xx_hal_msp.c **** {
 197              		.loc 1 141 1 is_stmt 1 view -0
 198              		.cfi_startproc
 199              		@ args = 0, pretend = 0, frame = 168
 200              		@ frame_needed = 0, uses_anonymous_args = 0
 201              		.loc 1 141 1 is_stmt 0 view .LVU36
 202 0000 10B5     		push	{r4, lr}
 203              		.cfi_def_cfa_offset 8
 204              		.cfi_offset 4, -8
 205              		.cfi_offset 14, -4
 206 0002 AAB0     		sub	sp, sp, #168
ARM GAS  /tmp/cc0cTHVu.s 			page 7


 207              		.cfi_def_cfa_offset 176
 208 0004 0446     		mov	r4, r0
 142:Core/Src/stm32l4xx_hal_msp.c ****   GPIO_InitTypeDef GPIO_InitStruct = {0};
 209              		.loc 1 142 3 is_stmt 1 view .LVU37
 210              		.loc 1 142 20 is_stmt 0 view .LVU38
 211 0006 0021     		movs	r1, #0
 212 0008 2591     		str	r1, [sp, #148]
 213 000a 2691     		str	r1, [sp, #152]
 214 000c 2791     		str	r1, [sp, #156]
 215 000e 2891     		str	r1, [sp, #160]
 216 0010 2991     		str	r1, [sp, #164]
 143:Core/Src/stm32l4xx_hal_msp.c ****   RCC_PeriphCLKInitTypeDef PeriphClkInit = {0};
 217              		.loc 1 143 3 is_stmt 1 view .LVU39
 218              		.loc 1 143 28 is_stmt 0 view .LVU40
 219 0012 8822     		movs	r2, #136
 220 0014 03A8     		add	r0, sp, #12
 221              	.LVL5:
 222              		.loc 1 143 28 view .LVU41
 223 0016 FFF7FEFF 		bl	memset
 224              	.LVL6:
 144:Core/Src/stm32l4xx_hal_msp.c ****   if(hi2c->Instance==I2C2)
 225              		.loc 1 144 3 is_stmt 1 view .LVU42
 226              		.loc 1 144 10 is_stmt 0 view .LVU43
 227 001a 2268     		ldr	r2, [r4]
 228              		.loc 1 144 5 view .LVU44
 229 001c 184B     		ldr	r3, .L25
 230 001e 9A42     		cmp	r2, r3
 231 0020 01D0     		beq	.L23
 232              	.LVL7:
 233              	.L19:
 145:Core/Src/stm32l4xx_hal_msp.c ****   {
 146:Core/Src/stm32l4xx_hal_msp.c ****     /* USER CODE BEGIN I2C2_MspInit 0 */
 147:Core/Src/stm32l4xx_hal_msp.c **** 
 148:Core/Src/stm32l4xx_hal_msp.c ****     /* USER CODE END I2C2_MspInit 0 */
 149:Core/Src/stm32l4xx_hal_msp.c **** 
 150:Core/Src/stm32l4xx_hal_msp.c ****   /** Initializes the peripherals clock
 151:Core/Src/stm32l4xx_hal_msp.c ****   */
 152:Core/Src/stm32l4xx_hal_msp.c ****     PeriphClkInit.PeriphClockSelection = RCC_PERIPHCLK_I2C2;
 153:Core/Src/stm32l4xx_hal_msp.c ****     PeriphClkInit.I2c2ClockSelection = RCC_I2C2CLKSOURCE_PCLK1;
 154:Core/Src/stm32l4xx_hal_msp.c ****     if (HAL_RCCEx_PeriphCLKConfig(&PeriphClkInit) != HAL_OK)
 155:Core/Src/stm32l4xx_hal_msp.c ****     {
 156:Core/Src/stm32l4xx_hal_msp.c ****       Error_Handler();
 157:Core/Src/stm32l4xx_hal_msp.c ****     }
 158:Core/Src/stm32l4xx_hal_msp.c **** 
 159:Core/Src/stm32l4xx_hal_msp.c ****     __HAL_RCC_GPIOB_CLK_ENABLE();
 160:Core/Src/stm32l4xx_hal_msp.c ****     /**I2C2 GPIO Configuration
 161:Core/Src/stm32l4xx_hal_msp.c ****     PB13     ------> I2C2_SCL
 162:Core/Src/stm32l4xx_hal_msp.c ****     PB14     ------> I2C2_SDA
 163:Core/Src/stm32l4xx_hal_msp.c ****     */
 164:Core/Src/stm32l4xx_hal_msp.c ****     GPIO_InitStruct.Pin = GPIO_PIN_13|GPIO_PIN_14;
 165:Core/Src/stm32l4xx_hal_msp.c ****     GPIO_InitStruct.Mode = GPIO_MODE_AF_OD;
 166:Core/Src/stm32l4xx_hal_msp.c ****     GPIO_InitStruct.Pull = GPIO_NOPULL;
 167:Core/Src/stm32l4xx_hal_msp.c ****     GPIO_InitStruct.Speed = GPIO_SPEED_FREQ_VERY_HIGH;
 168:Core/Src/stm32l4xx_hal_msp.c ****     GPIO_InitStruct.Alternate = GPIO_AF4_I2C2;
 169:Core/Src/stm32l4xx_hal_msp.c ****     HAL_GPIO_Init(GPIOB, &GPIO_InitStruct);
 170:Core/Src/stm32l4xx_hal_msp.c **** 
 171:Core/Src/stm32l4xx_hal_msp.c ****     /* Peripheral clock enable */
ARM GAS  /tmp/cc0cTHVu.s 			page 8


 172:Core/Src/stm32l4xx_hal_msp.c ****     __HAL_RCC_I2C2_CLK_ENABLE();
 173:Core/Src/stm32l4xx_hal_msp.c ****     /* USER CODE BEGIN I2C2_MspInit 1 */
 174:Core/Src/stm32l4xx_hal_msp.c **** 
 175:Core/Src/stm32l4xx_hal_msp.c ****     /* USER CODE END I2C2_MspInit 1 */
 176:Core/Src/stm32l4xx_hal_msp.c **** 
 177:Core/Src/stm32l4xx_hal_msp.c ****   }
 178:Core/Src/stm32l4xx_hal_msp.c **** 
 179:Core/Src/stm32l4xx_hal_msp.c **** }
 234              		.loc 1 179 1 view .LVU45
 235 0022 2AB0     		add	sp, sp, #168
 236              		.cfi_remember_state
 237              		.cfi_def_cfa_offset 8
 238              		@ sp needed
 239 0024 10BD     		pop	{r4, pc}
 240              	.LVL8:
 241              	.L23:
 242              		.cfi_restore_state
 152:Core/Src/stm32l4xx_hal_msp.c ****     PeriphClkInit.I2c2ClockSelection = RCC_I2C2CLKSOURCE_PCLK1;
 243              		.loc 1 152 5 is_stmt 1 view .LVU46
 152:Core/Src/stm32l4xx_hal_msp.c ****     PeriphClkInit.I2c2ClockSelection = RCC_I2C2CLKSOURCE_PCLK1;
 244              		.loc 1 152 40 is_stmt 0 view .LVU47
 245 0026 8023     		movs	r3, #128
 246 0028 0393     		str	r3, [sp, #12]
 153:Core/Src/stm32l4xx_hal_msp.c ****     if (HAL_RCCEx_PeriphCLKConfig(&PeriphClkInit) != HAL_OK)
 247              		.loc 1 153 5 is_stmt 1 view .LVU48
 154:Core/Src/stm32l4xx_hal_msp.c ****     {
 248              		.loc 1 154 5 view .LVU49
 154:Core/Src/stm32l4xx_hal_msp.c ****     {
 249              		.loc 1 154 9 is_stmt 0 view .LVU50
 250 002a 03A8     		add	r0, sp, #12
 251 002c FFF7FEFF 		bl	HAL_RCCEx_PeriphCLKConfig
 252              	.LVL9:
 154:Core/Src/stm32l4xx_hal_msp.c ****     {
 253              		.loc 1 154 8 discriminator 1 view .LVU51
 254 0030 10BB     		cbnz	r0, .L24
 255              	.L21:
 159:Core/Src/stm32l4xx_hal_msp.c ****     /**I2C2 GPIO Configuration
 256              		.loc 1 159 5 is_stmt 1 view .LVU52
 257              	.LBB5:
 159:Core/Src/stm32l4xx_hal_msp.c ****     /**I2C2 GPIO Configuration
 258              		.loc 1 159 5 view .LVU53
 159:Core/Src/stm32l4xx_hal_msp.c ****     /**I2C2 GPIO Configuration
 259              		.loc 1 159 5 view .LVU54
 260 0032 144C     		ldr	r4, .L25+4
 261              	.LVL10:
 159:Core/Src/stm32l4xx_hal_msp.c ****     /**I2C2 GPIO Configuration
 262              		.loc 1 159 5 is_stmt 0 view .LVU55
 263 0034 E36C     		ldr	r3, [r4, #76]
 264 0036 43F00203 		orr	r3, r3, #2
 265 003a E364     		str	r3, [r4, #76]
 159:Core/Src/stm32l4xx_hal_msp.c ****     /**I2C2 GPIO Configuration
 266              		.loc 1 159 5 is_stmt 1 view .LVU56
 267 003c E36C     		ldr	r3, [r4, #76]
 268 003e 03F00203 		and	r3, r3, #2
 269 0042 0193     		str	r3, [sp, #4]
 159:Core/Src/stm32l4xx_hal_msp.c ****     /**I2C2 GPIO Configuration
 270              		.loc 1 159 5 view .LVU57
ARM GAS  /tmp/cc0cTHVu.s 			page 9


 271 0044 019B     		ldr	r3, [sp, #4]
 272              	.LBE5:
 159:Core/Src/stm32l4xx_hal_msp.c ****     /**I2C2 GPIO Configuration
 273              		.loc 1 159 5 view .LVU58
 164:Core/Src/stm32l4xx_hal_msp.c ****     GPIO_InitStruct.Mode = GPIO_MODE_AF_OD;
 274              		.loc 1 164 5 view .LVU59
 164:Core/Src/stm32l4xx_hal_msp.c ****     GPIO_InitStruct.Mode = GPIO_MODE_AF_OD;
 275              		.loc 1 164 25 is_stmt 0 view .LVU60
 276 0046 4FF4C043 		mov	r3, #24576
 277 004a 2593     		str	r3, [sp, #148]
 165:Core/Src/stm32l4xx_hal_msp.c ****     GPIO_InitStruct.Pull = GPIO_NOPULL;
 278              		.loc 1 165 5 is_stmt 1 view .LVU61
 165:Core/Src/stm32l4xx_hal_msp.c ****     GPIO_InitStruct.Pull = GPIO_NOPULL;
 279              		.loc 1 165 26 is_stmt 0 view .LVU62
 280 004c 1223     		movs	r3, #18
 281 004e 2693     		str	r3, [sp, #152]
 166:Core/Src/stm32l4xx_hal_msp.c ****     GPIO_InitStruct.Speed = GPIO_SPEED_FREQ_VERY_HIGH;
 282              		.loc 1 166 5 is_stmt 1 view .LVU63
 166:Core/Src/stm32l4xx_hal_msp.c ****     GPIO_InitStruct.Speed = GPIO_SPEED_FREQ_VERY_HIGH;
 283              		.loc 1 166 26 is_stmt 0 view .LVU64
 284 0050 0023     		movs	r3, #0
 285 0052 2793     		str	r3, [sp, #156]
 167:Core/Src/stm32l4xx_hal_msp.c ****     GPIO_InitStruct.Alternate = GPIO_AF4_I2C2;
 286              		.loc 1 167 5 is_stmt 1 view .LVU65
 167:Core/Src/stm32l4xx_hal_msp.c ****     GPIO_InitStruct.Alternate = GPIO_AF4_I2C2;
 287              		.loc 1 167 27 is_stmt 0 view .LVU66
 288 0054 0323     		movs	r3, #3
 289 0056 2893     		str	r3, [sp, #160]
 168:Core/Src/stm32l4xx_hal_msp.c ****     HAL_GPIO_Init(GPIOB, &GPIO_InitStruct);
 290              		.loc 1 168 5 is_stmt 1 view .LVU67
 168:Core/Src/stm32l4xx_hal_msp.c ****     HAL_GPIO_Init(GPIOB, &GPIO_InitStruct);
 291              		.loc 1 168 31 is_stmt 0 view .LVU68
 292 0058 0423     		movs	r3, #4
 293 005a 2993     		str	r3, [sp, #164]
 169:Core/Src/stm32l4xx_hal_msp.c **** 
 294              		.loc 1 169 5 is_stmt 1 view .LVU69
 295 005c 25A9     		add	r1, sp, #148
 296 005e 0A48     		ldr	r0, .L25+8
 297 0060 FFF7FEFF 		bl	HAL_GPIO_Init
 298              	.LVL11:
 172:Core/Src/stm32l4xx_hal_msp.c ****     /* USER CODE BEGIN I2C2_MspInit 1 */
 299              		.loc 1 172 5 view .LVU70
 300              	.LBB6:
 172:Core/Src/stm32l4xx_hal_msp.c ****     /* USER CODE BEGIN I2C2_MspInit 1 */
 301              		.loc 1 172 5 view .LVU71
 172:Core/Src/stm32l4xx_hal_msp.c ****     /* USER CODE BEGIN I2C2_MspInit 1 */
 302              		.loc 1 172 5 view .LVU72
 303 0064 A36D     		ldr	r3, [r4, #88]
 304 0066 43F48003 		orr	r3, r3, #4194304
 305 006a A365     		str	r3, [r4, #88]
 172:Core/Src/stm32l4xx_hal_msp.c ****     /* USER CODE BEGIN I2C2_MspInit 1 */
 306              		.loc 1 172 5 view .LVU73
 307 006c A36D     		ldr	r3, [r4, #88]
 308 006e 03F48003 		and	r3, r3, #4194304
 309 0072 0293     		str	r3, [sp, #8]
 172:Core/Src/stm32l4xx_hal_msp.c ****     /* USER CODE BEGIN I2C2_MspInit 1 */
 310              		.loc 1 172 5 view .LVU74
ARM GAS  /tmp/cc0cTHVu.s 			page 10


 311 0074 029B     		ldr	r3, [sp, #8]
 312              	.LBE6:
 172:Core/Src/stm32l4xx_hal_msp.c ****     /* USER CODE BEGIN I2C2_MspInit 1 */
 313              		.loc 1 172 5 view .LVU75
 314              		.loc 1 179 1 is_stmt 0 view .LVU76
 315 0076 D4E7     		b	.L19
 316              	.LVL12:
 317              	.L24:
 156:Core/Src/stm32l4xx_hal_msp.c ****     }
 318              		.loc 1 156 7 is_stmt 1 view .LVU77
 319 0078 FFF7FEFF 		bl	Error_Handler
 320              	.LVL13:
 321 007c D9E7     		b	.L21
 322              	.L26:
 323 007e 00BF     		.align	2
 324              	.L25:
 325 0080 00580040 		.word	1073764352
 326 0084 00100240 		.word	1073876992
 327 0088 00040048 		.word	1207960576
 328              		.cfi_endproc
 329              	.LFE231:
 331              		.section	.text.HAL_I2C_MspDeInit,"ax",%progbits
 332              		.align	1
 333              		.global	HAL_I2C_MspDeInit
 334              		.syntax unified
 335              		.thumb
 336              		.thumb_func
 338              	HAL_I2C_MspDeInit:
 339              	.LVL14:
 340              	.LFB232:
 180:Core/Src/stm32l4xx_hal_msp.c **** 
 181:Core/Src/stm32l4xx_hal_msp.c **** /**
 182:Core/Src/stm32l4xx_hal_msp.c ****   * @brief I2C MSP De-Initialization
 183:Core/Src/stm32l4xx_hal_msp.c ****   * This function freeze the hardware resources used in this example
 184:Core/Src/stm32l4xx_hal_msp.c ****   * @param hi2c: I2C handle pointer
 185:Core/Src/stm32l4xx_hal_msp.c ****   * @retval None
 186:Core/Src/stm32l4xx_hal_msp.c ****   */
 187:Core/Src/stm32l4xx_hal_msp.c **** void HAL_I2C_MspDeInit(I2C_HandleTypeDef* hi2c)
 188:Core/Src/stm32l4xx_hal_msp.c **** {
 341              		.loc 1 188 1 view -0
 342              		.cfi_startproc
 343              		@ args = 0, pretend = 0, frame = 0
 344              		@ frame_needed = 0, uses_anonymous_args = 0
 345              		.loc 1 188 1 is_stmt 0 view .LVU79
 346 0000 08B5     		push	{r3, lr}
 347              		.cfi_def_cfa_offset 8
 348              		.cfi_offset 3, -8
 349              		.cfi_offset 14, -4
 189:Core/Src/stm32l4xx_hal_msp.c ****   if(hi2c->Instance==I2C2)
 350              		.loc 1 189 3 is_stmt 1 view .LVU80
 351              		.loc 1 189 10 is_stmt 0 view .LVU81
 352 0002 0268     		ldr	r2, [r0]
 353              		.loc 1 189 5 view .LVU82
 354 0004 094B     		ldr	r3, .L31
 355 0006 9A42     		cmp	r2, r3
 356 0008 00D0     		beq	.L30
 357              	.LVL15:
ARM GAS  /tmp/cc0cTHVu.s 			page 11


 358              	.L27:
 190:Core/Src/stm32l4xx_hal_msp.c ****   {
 191:Core/Src/stm32l4xx_hal_msp.c ****     /* USER CODE BEGIN I2C2_MspDeInit 0 */
 192:Core/Src/stm32l4xx_hal_msp.c **** 
 193:Core/Src/stm32l4xx_hal_msp.c ****     /* USER CODE END I2C2_MspDeInit 0 */
 194:Core/Src/stm32l4xx_hal_msp.c ****     /* Peripheral clock disable */
 195:Core/Src/stm32l4xx_hal_msp.c ****     __HAL_RCC_I2C2_CLK_DISABLE();
 196:Core/Src/stm32l4xx_hal_msp.c **** 
 197:Core/Src/stm32l4xx_hal_msp.c ****     /**I2C2 GPIO Configuration
 198:Core/Src/stm32l4xx_hal_msp.c ****     PB13     ------> I2C2_SCL
 199:Core/Src/stm32l4xx_hal_msp.c ****     PB14     ------> I2C2_SDA
 200:Core/Src/stm32l4xx_hal_msp.c ****     */
 201:Core/Src/stm32l4xx_hal_msp.c ****     HAL_GPIO_DeInit(GPIOB, GPIO_PIN_13);
 202:Core/Src/stm32l4xx_hal_msp.c **** 
 203:Core/Src/stm32l4xx_hal_msp.c ****     HAL_GPIO_DeInit(GPIOB, GPIO_PIN_14);
 204:Core/Src/stm32l4xx_hal_msp.c **** 
 205:Core/Src/stm32l4xx_hal_msp.c ****     /* USER CODE BEGIN I2C2_MspDeInit 1 */
 206:Core/Src/stm32l4xx_hal_msp.c **** 
 207:Core/Src/stm32l4xx_hal_msp.c ****     /* USER CODE END I2C2_MspDeInit 1 */
 208:Core/Src/stm32l4xx_hal_msp.c ****   }
 209:Core/Src/stm32l4xx_hal_msp.c **** 
 210:Core/Src/stm32l4xx_hal_msp.c **** }
 359              		.loc 1 210 1 view .LVU83
 360 000a 08BD     		pop	{r3, pc}
 361              	.LVL16:
 362              	.L30:
 195:Core/Src/stm32l4xx_hal_msp.c **** 
 363              		.loc 1 195 5 is_stmt 1 view .LVU84
 364 000c 084A     		ldr	r2, .L31+4
 365 000e 936D     		ldr	r3, [r2, #88]
 366 0010 23F48003 		bic	r3, r3, #4194304
 367 0014 9365     		str	r3, [r2, #88]
 201:Core/Src/stm32l4xx_hal_msp.c **** 
 368              		.loc 1 201 5 view .LVU85
 369 0016 4FF40051 		mov	r1, #8192
 370 001a 0648     		ldr	r0, .L31+8
 371              	.LVL17:
 201:Core/Src/stm32l4xx_hal_msp.c **** 
 372              		.loc 1 201 5 is_stmt 0 view .LVU86
 373 001c FFF7FEFF 		bl	HAL_GPIO_DeInit
 374              	.LVL18:
 203:Core/Src/stm32l4xx_hal_msp.c **** 
 375              		.loc 1 203 5 is_stmt 1 view .LVU87
 376 0020 4FF48041 		mov	r1, #16384
 377 0024 0348     		ldr	r0, .L31+8
 378 0026 FFF7FEFF 		bl	HAL_GPIO_DeInit
 379              	.LVL19:
 380              		.loc 1 210 1 is_stmt 0 view .LVU88
 381 002a EEE7     		b	.L27
 382              	.L32:
 383              		.align	2
 384              	.L31:
 385 002c 00580040 		.word	1073764352
 386 0030 00100240 		.word	1073876992
 387 0034 00040048 		.word	1207960576
 388              		.cfi_endproc
 389              	.LFE232:
ARM GAS  /tmp/cc0cTHVu.s 			page 12


 391              		.section	.text.HAL_LPTIM_MspInit,"ax",%progbits
 392              		.align	1
 393              		.global	HAL_LPTIM_MspInit
 394              		.syntax unified
 395              		.thumb
 396              		.thumb_func
 398              	HAL_LPTIM_MspInit:
 399              	.LVL20:
 400              	.LFB233:
 211:Core/Src/stm32l4xx_hal_msp.c **** 
 212:Core/Src/stm32l4xx_hal_msp.c **** /**
 213:Core/Src/stm32l4xx_hal_msp.c ****   * @brief LPTIM MSP Initialization
 214:Core/Src/stm32l4xx_hal_msp.c ****   * This function configures the hardware resources used in this example
 215:Core/Src/stm32l4xx_hal_msp.c ****   * @param hlptim: LPTIM handle pointer
 216:Core/Src/stm32l4xx_hal_msp.c ****   * @retval None
 217:Core/Src/stm32l4xx_hal_msp.c ****   */
 218:Core/Src/stm32l4xx_hal_msp.c **** void HAL_LPTIM_MspInit(LPTIM_HandleTypeDef* hlptim)
 219:Core/Src/stm32l4xx_hal_msp.c **** {
 401              		.loc 1 219 1 is_stmt 1 view -0
 402              		.cfi_startproc
 403              		@ args = 0, pretend = 0, frame = 144
 404              		@ frame_needed = 0, uses_anonymous_args = 0
 405              		.loc 1 219 1 is_stmt 0 view .LVU90
 406 0000 10B5     		push	{r4, lr}
 407              		.cfi_def_cfa_offset 8
 408              		.cfi_offset 4, -8
 409              		.cfi_offset 14, -4
 410 0002 A4B0     		sub	sp, sp, #144
 411              		.cfi_def_cfa_offset 152
 412 0004 0446     		mov	r4, r0
 220:Core/Src/stm32l4xx_hal_msp.c ****   RCC_PeriphCLKInitTypeDef PeriphClkInit = {0};
 413              		.loc 1 220 3 is_stmt 1 view .LVU91
 414              		.loc 1 220 28 is_stmt 0 view .LVU92
 415 0006 8822     		movs	r2, #136
 416 0008 0021     		movs	r1, #0
 417 000a 02A8     		add	r0, sp, #8
 418              	.LVL21:
 419              		.loc 1 220 28 view .LVU93
 420 000c FFF7FEFF 		bl	memset
 421              	.LVL22:
 221:Core/Src/stm32l4xx_hal_msp.c ****   if(hlptim->Instance==LPTIM1)
 422              		.loc 1 221 3 is_stmt 1 view .LVU94
 423              		.loc 1 221 12 is_stmt 0 view .LVU95
 424 0010 2368     		ldr	r3, [r4]
 425              		.loc 1 221 5 view .LVU96
 426 0012 214A     		ldr	r2, .L43
 427 0014 9342     		cmp	r3, r2
 428 0016 04D0     		beq	.L39
 222:Core/Src/stm32l4xx_hal_msp.c ****   {
 223:Core/Src/stm32l4xx_hal_msp.c ****     /* USER CODE BEGIN LPTIM1_MspInit 0 */
 224:Core/Src/stm32l4xx_hal_msp.c **** 
 225:Core/Src/stm32l4xx_hal_msp.c ****     /* USER CODE END LPTIM1_MspInit 0 */
 226:Core/Src/stm32l4xx_hal_msp.c **** 
 227:Core/Src/stm32l4xx_hal_msp.c ****   /** Initializes the peripherals clock
 228:Core/Src/stm32l4xx_hal_msp.c ****   */
 229:Core/Src/stm32l4xx_hal_msp.c ****     PeriphClkInit.PeriphClockSelection = RCC_PERIPHCLK_LPTIM1;
 230:Core/Src/stm32l4xx_hal_msp.c ****     PeriphClkInit.Lptim1ClockSelection = RCC_LPTIM1CLKSOURCE_PCLK;
ARM GAS  /tmp/cc0cTHVu.s 			page 13


 231:Core/Src/stm32l4xx_hal_msp.c ****     if (HAL_RCCEx_PeriphCLKConfig(&PeriphClkInit) != HAL_OK)
 232:Core/Src/stm32l4xx_hal_msp.c ****     {
 233:Core/Src/stm32l4xx_hal_msp.c ****       Error_Handler();
 234:Core/Src/stm32l4xx_hal_msp.c ****     }
 235:Core/Src/stm32l4xx_hal_msp.c **** 
 236:Core/Src/stm32l4xx_hal_msp.c ****     /* Peripheral clock enable */
 237:Core/Src/stm32l4xx_hal_msp.c ****     __HAL_RCC_LPTIM1_CLK_ENABLE();
 238:Core/Src/stm32l4xx_hal_msp.c ****     /* LPTIM1 interrupt Init */
 239:Core/Src/stm32l4xx_hal_msp.c ****     HAL_NVIC_SetPriority(LPTIM1_IRQn, 0, 0);
 240:Core/Src/stm32l4xx_hal_msp.c ****     HAL_NVIC_EnableIRQ(LPTIM1_IRQn);
 241:Core/Src/stm32l4xx_hal_msp.c ****     /* USER CODE BEGIN LPTIM1_MspInit 1 */
 242:Core/Src/stm32l4xx_hal_msp.c **** 
 243:Core/Src/stm32l4xx_hal_msp.c ****     /* USER CODE END LPTIM1_MspInit 1 */
 244:Core/Src/stm32l4xx_hal_msp.c ****   }
 245:Core/Src/stm32l4xx_hal_msp.c ****   else if(hlptim->Instance==LPTIM2)
 429              		.loc 1 245 8 is_stmt 1 view .LVU97
 430              		.loc 1 245 10 is_stmt 0 view .LVU98
 431 0018 204A     		ldr	r2, .L43+4
 432 001a 9342     		cmp	r3, r2
 433 001c 1ED0     		beq	.L40
 434              	.L33:
 246:Core/Src/stm32l4xx_hal_msp.c ****   {
 247:Core/Src/stm32l4xx_hal_msp.c ****     /* USER CODE BEGIN LPTIM2_MspInit 0 */
 248:Core/Src/stm32l4xx_hal_msp.c **** 
 249:Core/Src/stm32l4xx_hal_msp.c ****     /* USER CODE END LPTIM2_MspInit 0 */
 250:Core/Src/stm32l4xx_hal_msp.c **** 
 251:Core/Src/stm32l4xx_hal_msp.c ****   /** Initializes the peripherals clock
 252:Core/Src/stm32l4xx_hal_msp.c ****   */
 253:Core/Src/stm32l4xx_hal_msp.c ****     PeriphClkInit.PeriphClockSelection = RCC_PERIPHCLK_LPTIM2;
 254:Core/Src/stm32l4xx_hal_msp.c ****     PeriphClkInit.Lptim2ClockSelection = RCC_LPTIM2CLKSOURCE_PCLK;
 255:Core/Src/stm32l4xx_hal_msp.c ****     if (HAL_RCCEx_PeriphCLKConfig(&PeriphClkInit) != HAL_OK)
 256:Core/Src/stm32l4xx_hal_msp.c ****     {
 257:Core/Src/stm32l4xx_hal_msp.c ****       Error_Handler();
 258:Core/Src/stm32l4xx_hal_msp.c ****     }
 259:Core/Src/stm32l4xx_hal_msp.c **** 
 260:Core/Src/stm32l4xx_hal_msp.c ****     /* Peripheral clock enable */
 261:Core/Src/stm32l4xx_hal_msp.c ****     __HAL_RCC_LPTIM2_CLK_ENABLE();
 262:Core/Src/stm32l4xx_hal_msp.c ****     /* LPTIM2 interrupt Init */
 263:Core/Src/stm32l4xx_hal_msp.c ****     HAL_NVIC_SetPriority(LPTIM2_IRQn, 0, 0);
 264:Core/Src/stm32l4xx_hal_msp.c ****     HAL_NVIC_EnableIRQ(LPTIM2_IRQn);
 265:Core/Src/stm32l4xx_hal_msp.c ****     /* USER CODE BEGIN LPTIM2_MspInit 1 */
 266:Core/Src/stm32l4xx_hal_msp.c **** 
 267:Core/Src/stm32l4xx_hal_msp.c ****     /* USER CODE END LPTIM2_MspInit 1 */
 268:Core/Src/stm32l4xx_hal_msp.c ****   }
 269:Core/Src/stm32l4xx_hal_msp.c **** 
 270:Core/Src/stm32l4xx_hal_msp.c **** }
 435              		.loc 1 270 1 view .LVU99
 436 001e 24B0     		add	sp, sp, #144
 437              		.cfi_remember_state
 438              		.cfi_def_cfa_offset 8
 439              		@ sp needed
 440 0020 10BD     		pop	{r4, pc}
 441              	.LVL23:
 442              	.L39:
 443              		.cfi_restore_state
 229:Core/Src/stm32l4xx_hal_msp.c ****     PeriphClkInit.Lptim1ClockSelection = RCC_LPTIM1CLKSOURCE_PCLK;
 444              		.loc 1 229 5 is_stmt 1 view .LVU100
ARM GAS  /tmp/cc0cTHVu.s 			page 14


 229:Core/Src/stm32l4xx_hal_msp.c ****     PeriphClkInit.Lptim1ClockSelection = RCC_LPTIM1CLKSOURCE_PCLK;
 445              		.loc 1 229 40 is_stmt 0 view .LVU101
 446 0022 4FF40073 		mov	r3, #512
 447 0026 0293     		str	r3, [sp, #8]
 230:Core/Src/stm32l4xx_hal_msp.c ****     if (HAL_RCCEx_PeriphCLKConfig(&PeriphClkInit) != HAL_OK)
 448              		.loc 1 230 5 is_stmt 1 view .LVU102
 231:Core/Src/stm32l4xx_hal_msp.c ****     {
 449              		.loc 1 231 5 view .LVU103
 231:Core/Src/stm32l4xx_hal_msp.c ****     {
 450              		.loc 1 231 9 is_stmt 0 view .LVU104
 451 0028 02A8     		add	r0, sp, #8
 452 002a FFF7FEFF 		bl	HAL_RCCEx_PeriphCLKConfig
 453              	.LVL24:
 231:Core/Src/stm32l4xx_hal_msp.c ****     {
 454              		.loc 1 231 8 discriminator 1 view .LVU105
 455 002e 90B9     		cbnz	r0, .L41
 456              	.L35:
 237:Core/Src/stm32l4xx_hal_msp.c ****     /* LPTIM1 interrupt Init */
 457              		.loc 1 237 5 is_stmt 1 view .LVU106
 458              	.LBB7:
 237:Core/Src/stm32l4xx_hal_msp.c ****     /* LPTIM1 interrupt Init */
 459              		.loc 1 237 5 view .LVU107
 237:Core/Src/stm32l4xx_hal_msp.c ****     /* LPTIM1 interrupt Init */
 460              		.loc 1 237 5 view .LVU108
 461 0030 1B4B     		ldr	r3, .L43+8
 462 0032 9A6D     		ldr	r2, [r3, #88]
 463 0034 42F00042 		orr	r2, r2, #-2147483648
 464 0038 9A65     		str	r2, [r3, #88]
 237:Core/Src/stm32l4xx_hal_msp.c ****     /* LPTIM1 interrupt Init */
 465              		.loc 1 237 5 view .LVU109
 466 003a 9B6D     		ldr	r3, [r3, #88]
 467 003c 03F00043 		and	r3, r3, #-2147483648
 468 0040 0093     		str	r3, [sp]
 237:Core/Src/stm32l4xx_hal_msp.c ****     /* LPTIM1 interrupt Init */
 469              		.loc 1 237 5 view .LVU110
 470 0042 009B     		ldr	r3, [sp]
 471              	.LBE7:
 237:Core/Src/stm32l4xx_hal_msp.c ****     /* LPTIM1 interrupt Init */
 472              		.loc 1 237 5 view .LVU111
 239:Core/Src/stm32l4xx_hal_msp.c ****     HAL_NVIC_EnableIRQ(LPTIM1_IRQn);
 473              		.loc 1 239 5 view .LVU112
 474 0044 0022     		movs	r2, #0
 475 0046 1146     		mov	r1, r2
 476 0048 4120     		movs	r0, #65
 477 004a FFF7FEFF 		bl	HAL_NVIC_SetPriority
 478              	.LVL25:
 240:Core/Src/stm32l4xx_hal_msp.c ****     /* USER CODE BEGIN LPTIM1_MspInit 1 */
 479              		.loc 1 240 5 view .LVU113
 480 004e 4120     		movs	r0, #65
 481 0050 FFF7FEFF 		bl	HAL_NVIC_EnableIRQ
 482              	.LVL26:
 483 0054 E3E7     		b	.L33
 484              	.L41:
 233:Core/Src/stm32l4xx_hal_msp.c ****     }
 485              		.loc 1 233 7 view .LVU114
 486 0056 FFF7FEFF 		bl	Error_Handler
 487              	.LVL27:
ARM GAS  /tmp/cc0cTHVu.s 			page 15


 488 005a E9E7     		b	.L35
 489              	.L40:
 253:Core/Src/stm32l4xx_hal_msp.c ****     PeriphClkInit.Lptim2ClockSelection = RCC_LPTIM2CLKSOURCE_PCLK;
 490              		.loc 1 253 5 view .LVU115
 253:Core/Src/stm32l4xx_hal_msp.c ****     PeriphClkInit.Lptim2ClockSelection = RCC_LPTIM2CLKSOURCE_PCLK;
 491              		.loc 1 253 40 is_stmt 0 view .LVU116
 492 005c 4FF48063 		mov	r3, #1024
 493 0060 0293     		str	r3, [sp, #8]
 254:Core/Src/stm32l4xx_hal_msp.c ****     if (HAL_RCCEx_PeriphCLKConfig(&PeriphClkInit) != HAL_OK)
 494              		.loc 1 254 5 is_stmt 1 view .LVU117
 255:Core/Src/stm32l4xx_hal_msp.c ****     {
 495              		.loc 1 255 5 view .LVU118
 255:Core/Src/stm32l4xx_hal_msp.c ****     {
 496              		.loc 1 255 9 is_stmt 0 view .LVU119
 497 0062 02A8     		add	r0, sp, #8
 498 0064 FFF7FEFF 		bl	HAL_RCCEx_PeriphCLKConfig
 499              	.LVL28:
 255:Core/Src/stm32l4xx_hal_msp.c ****     {
 500              		.loc 1 255 8 discriminator 1 view .LVU120
 501 0068 90B9     		cbnz	r0, .L42
 502              	.L37:
 261:Core/Src/stm32l4xx_hal_msp.c ****     /* LPTIM2 interrupt Init */
 503              		.loc 1 261 5 is_stmt 1 view .LVU121
 504              	.LBB8:
 261:Core/Src/stm32l4xx_hal_msp.c ****     /* LPTIM2 interrupt Init */
 505              		.loc 1 261 5 view .LVU122
 261:Core/Src/stm32l4xx_hal_msp.c ****     /* LPTIM2 interrupt Init */
 506              		.loc 1 261 5 view .LVU123
 507 006a 0D4B     		ldr	r3, .L43+8
 508 006c DA6D     		ldr	r2, [r3, #92]
 509 006e 42F02002 		orr	r2, r2, #32
 510 0072 DA65     		str	r2, [r3, #92]
 261:Core/Src/stm32l4xx_hal_msp.c ****     /* LPTIM2 interrupt Init */
 511              		.loc 1 261 5 view .LVU124
 512 0074 DB6D     		ldr	r3, [r3, #92]
 513 0076 03F02003 		and	r3, r3, #32
 514 007a 0193     		str	r3, [sp, #4]
 261:Core/Src/stm32l4xx_hal_msp.c ****     /* LPTIM2 interrupt Init */
 515              		.loc 1 261 5 view .LVU125
 516 007c 019B     		ldr	r3, [sp, #4]
 517              	.LBE8:
 261:Core/Src/stm32l4xx_hal_msp.c ****     /* LPTIM2 interrupt Init */
 518              		.loc 1 261 5 view .LVU126
 263:Core/Src/stm32l4xx_hal_msp.c ****     HAL_NVIC_EnableIRQ(LPTIM2_IRQn);
 519              		.loc 1 263 5 view .LVU127
 520 007e 0022     		movs	r2, #0
 521 0080 1146     		mov	r1, r2
 522 0082 4220     		movs	r0, #66
 523 0084 FFF7FEFF 		bl	HAL_NVIC_SetPriority
 524              	.LVL29:
 264:Core/Src/stm32l4xx_hal_msp.c ****     /* USER CODE BEGIN LPTIM2_MspInit 1 */
 525              		.loc 1 264 5 view .LVU128
 526 0088 4220     		movs	r0, #66
 527 008a FFF7FEFF 		bl	HAL_NVIC_EnableIRQ
 528              	.LVL30:
 529              		.loc 1 270 1 is_stmt 0 view .LVU129
 530 008e C6E7     		b	.L33
ARM GAS  /tmp/cc0cTHVu.s 			page 16


 531              	.L42:
 257:Core/Src/stm32l4xx_hal_msp.c ****     }
 532              		.loc 1 257 7 is_stmt 1 view .LVU130
 533 0090 FFF7FEFF 		bl	Error_Handler
 534              	.LVL31:
 535 0094 E9E7     		b	.L37
 536              	.L44:
 537 0096 00BF     		.align	2
 538              	.L43:
 539 0098 007C0040 		.word	1073773568
 540 009c 00940040 		.word	1073779712
 541 00a0 00100240 		.word	1073876992
 542              		.cfi_endproc
 543              	.LFE233:
 545              		.section	.text.HAL_LPTIM_MspDeInit,"ax",%progbits
 546              		.align	1
 547              		.global	HAL_LPTIM_MspDeInit
 548              		.syntax unified
 549              		.thumb
 550              		.thumb_func
 552              	HAL_LPTIM_MspDeInit:
 553              	.LVL32:
 554              	.LFB234:
 271:Core/Src/stm32l4xx_hal_msp.c **** 
 272:Core/Src/stm32l4xx_hal_msp.c **** /**
 273:Core/Src/stm32l4xx_hal_msp.c ****   * @brief LPTIM MSP De-Initialization
 274:Core/Src/stm32l4xx_hal_msp.c ****   * This function freeze the hardware resources used in this example
 275:Core/Src/stm32l4xx_hal_msp.c ****   * @param hlptim: LPTIM handle pointer
 276:Core/Src/stm32l4xx_hal_msp.c ****   * @retval None
 277:Core/Src/stm32l4xx_hal_msp.c ****   */
 278:Core/Src/stm32l4xx_hal_msp.c **** void HAL_LPTIM_MspDeInit(LPTIM_HandleTypeDef* hlptim)
 279:Core/Src/stm32l4xx_hal_msp.c **** {
 555              		.loc 1 279 1 view -0
 556              		.cfi_startproc
 557              		@ args = 0, pretend = 0, frame = 0
 558              		@ frame_needed = 0, uses_anonymous_args = 0
 559              		.loc 1 279 1 is_stmt 0 view .LVU132
 560 0000 08B5     		push	{r3, lr}
 561              		.cfi_def_cfa_offset 8
 562              		.cfi_offset 3, -8
 563              		.cfi_offset 14, -4
 280:Core/Src/stm32l4xx_hal_msp.c ****   if(hlptim->Instance==LPTIM1)
 564              		.loc 1 280 3 is_stmt 1 view .LVU133
 565              		.loc 1 280 12 is_stmt 0 view .LVU134
 566 0002 0368     		ldr	r3, [r0]
 567              		.loc 1 280 5 view .LVU135
 568 0004 0D4A     		ldr	r2, .L51
 569 0006 9342     		cmp	r3, r2
 570 0008 03D0     		beq	.L49
 281:Core/Src/stm32l4xx_hal_msp.c ****   {
 282:Core/Src/stm32l4xx_hal_msp.c ****     /* USER CODE BEGIN LPTIM1_MspDeInit 0 */
 283:Core/Src/stm32l4xx_hal_msp.c **** 
 284:Core/Src/stm32l4xx_hal_msp.c ****     /* USER CODE END LPTIM1_MspDeInit 0 */
 285:Core/Src/stm32l4xx_hal_msp.c ****     /* Peripheral clock disable */
 286:Core/Src/stm32l4xx_hal_msp.c ****     __HAL_RCC_LPTIM1_CLK_DISABLE();
 287:Core/Src/stm32l4xx_hal_msp.c **** 
 288:Core/Src/stm32l4xx_hal_msp.c ****     /* LPTIM1 interrupt DeInit */
ARM GAS  /tmp/cc0cTHVu.s 			page 17


 289:Core/Src/stm32l4xx_hal_msp.c ****     HAL_NVIC_DisableIRQ(LPTIM1_IRQn);
 290:Core/Src/stm32l4xx_hal_msp.c ****     /* USER CODE BEGIN LPTIM1_MspDeInit 1 */
 291:Core/Src/stm32l4xx_hal_msp.c **** 
 292:Core/Src/stm32l4xx_hal_msp.c ****     /* USER CODE END LPTIM1_MspDeInit 1 */
 293:Core/Src/stm32l4xx_hal_msp.c ****   }
 294:Core/Src/stm32l4xx_hal_msp.c ****   else if(hlptim->Instance==LPTIM2)
 571              		.loc 1 294 8 is_stmt 1 view .LVU136
 572              		.loc 1 294 10 is_stmt 0 view .LVU137
 573 000a 0D4A     		ldr	r2, .L51+4
 574 000c 9342     		cmp	r3, r2
 575 000e 0AD0     		beq	.L50
 576              	.LVL33:
 577              	.L45:
 295:Core/Src/stm32l4xx_hal_msp.c ****   {
 296:Core/Src/stm32l4xx_hal_msp.c ****     /* USER CODE BEGIN LPTIM2_MspDeInit 0 */
 297:Core/Src/stm32l4xx_hal_msp.c **** 
 298:Core/Src/stm32l4xx_hal_msp.c ****     /* USER CODE END LPTIM2_MspDeInit 0 */
 299:Core/Src/stm32l4xx_hal_msp.c ****     /* Peripheral clock disable */
 300:Core/Src/stm32l4xx_hal_msp.c ****     __HAL_RCC_LPTIM2_CLK_DISABLE();
 301:Core/Src/stm32l4xx_hal_msp.c **** 
 302:Core/Src/stm32l4xx_hal_msp.c ****     /* LPTIM2 interrupt DeInit */
 303:Core/Src/stm32l4xx_hal_msp.c ****     HAL_NVIC_DisableIRQ(LPTIM2_IRQn);
 304:Core/Src/stm32l4xx_hal_msp.c ****     /* USER CODE BEGIN LPTIM2_MspDeInit 1 */
 305:Core/Src/stm32l4xx_hal_msp.c **** 
 306:Core/Src/stm32l4xx_hal_msp.c ****     /* USER CODE END LPTIM2_MspDeInit 1 */
 307:Core/Src/stm32l4xx_hal_msp.c ****   }
 308:Core/Src/stm32l4xx_hal_msp.c **** 
 309:Core/Src/stm32l4xx_hal_msp.c **** }
 578              		.loc 1 309 1 view .LVU138
 579 0010 08BD     		pop	{r3, pc}
 580              	.LVL34:
 581              	.L49:
 286:Core/Src/stm32l4xx_hal_msp.c **** 
 582              		.loc 1 286 5 is_stmt 1 view .LVU139
 583 0012 02F5CA32 		add	r2, r2, #103424
 584 0016 936D     		ldr	r3, [r2, #88]
 585 0018 23F00043 		bic	r3, r3, #-2147483648
 586 001c 9365     		str	r3, [r2, #88]
 289:Core/Src/stm32l4xx_hal_msp.c ****     /* USER CODE BEGIN LPTIM1_MspDeInit 1 */
 587              		.loc 1 289 5 view .LVU140
 588 001e 4120     		movs	r0, #65
 589              	.LVL35:
 289:Core/Src/stm32l4xx_hal_msp.c ****     /* USER CODE BEGIN LPTIM1_MspDeInit 1 */
 590              		.loc 1 289 5 is_stmt 0 view .LVU141
 591 0020 FFF7FEFF 		bl	HAL_NVIC_DisableIRQ
 592              	.LVL36:
 593 0024 F4E7     		b	.L45
 594              	.LVL37:
 595              	.L50:
 300:Core/Src/stm32l4xx_hal_msp.c **** 
 596              		.loc 1 300 5 is_stmt 1 view .LVU142
 597 0026 02F5BE32 		add	r2, r2, #97280
 598 002a D36D     		ldr	r3, [r2, #92]
 599 002c 23F02003 		bic	r3, r3, #32
 600 0030 D365     		str	r3, [r2, #92]
 303:Core/Src/stm32l4xx_hal_msp.c ****     /* USER CODE BEGIN LPTIM2_MspDeInit 1 */
 601              		.loc 1 303 5 view .LVU143
ARM GAS  /tmp/cc0cTHVu.s 			page 18


 602 0032 4220     		movs	r0, #66
 603              	.LVL38:
 303:Core/Src/stm32l4xx_hal_msp.c ****     /* USER CODE BEGIN LPTIM2_MspDeInit 1 */
 604              		.loc 1 303 5 is_stmt 0 view .LVU144
 605 0034 FFF7FEFF 		bl	HAL_NVIC_DisableIRQ
 606              	.LVL39:
 607              		.loc 1 309 1 view .LVU145
 608 0038 EAE7     		b	.L45
 609              	.L52:
 610 003a 00BF     		.align	2
 611              	.L51:
 612 003c 007C0040 		.word	1073773568
 613 0040 00940040 		.word	1073779712
 614              		.cfi_endproc
 615              	.LFE234:
 617              		.section	.text.HAL_UART_MspInit,"ax",%progbits
 618              		.align	1
 619              		.global	HAL_UART_MspInit
 620              		.syntax unified
 621              		.thumb
 622              		.thumb_func
 624              	HAL_UART_MspInit:
 625              	.LVL40:
 626              	.LFB235:
 310:Core/Src/stm32l4xx_hal_msp.c **** 
 311:Core/Src/stm32l4xx_hal_msp.c **** /**
 312:Core/Src/stm32l4xx_hal_msp.c ****   * @brief UART MSP Initialization
 313:Core/Src/stm32l4xx_hal_msp.c ****   * This function configures the hardware resources used in this example
 314:Core/Src/stm32l4xx_hal_msp.c ****   * @param huart: UART handle pointer
 315:Core/Src/stm32l4xx_hal_msp.c ****   * @retval None
 316:Core/Src/stm32l4xx_hal_msp.c ****   */
 317:Core/Src/stm32l4xx_hal_msp.c **** void HAL_UART_MspInit(UART_HandleTypeDef* huart)
 318:Core/Src/stm32l4xx_hal_msp.c **** {
 627              		.loc 1 318 1 is_stmt 1 view -0
 628              		.cfi_startproc
 629              		@ args = 0, pretend = 0, frame = 192
 630              		@ frame_needed = 0, uses_anonymous_args = 0
 631              		.loc 1 318 1 is_stmt 0 view .LVU147
 632 0000 70B5     		push	{r4, r5, r6, lr}
 633              		.cfi_def_cfa_offset 16
 634              		.cfi_offset 4, -16
 635              		.cfi_offset 5, -12
 636              		.cfi_offset 6, -8
 637              		.cfi_offset 14, -4
 638 0002 B0B0     		sub	sp, sp, #192
 639              		.cfi_def_cfa_offset 208
 640 0004 0446     		mov	r4, r0
 641 0006 0646     		mov	r6, r0
 319:Core/Src/stm32l4xx_hal_msp.c ****   GPIO_InitTypeDef GPIO_InitStruct = {0};
 642              		.loc 1 319 3 is_stmt 1 view .LVU148
 643              		.loc 1 319 20 is_stmt 0 view .LVU149
 644 0008 0021     		movs	r1, #0
 645 000a 2B91     		str	r1, [sp, #172]
 646 000c 2C91     		str	r1, [sp, #176]
 647 000e 2D91     		str	r1, [sp, #180]
 648 0010 2E91     		str	r1, [sp, #184]
 649 0012 2F91     		str	r1, [sp, #188]
ARM GAS  /tmp/cc0cTHVu.s 			page 19


 320:Core/Src/stm32l4xx_hal_msp.c ****   RCC_PeriphCLKInitTypeDef PeriphClkInit = {0};
 650              		.loc 1 320 3 is_stmt 1 view .LVU150
 651              		.loc 1 320 28 is_stmt 0 view .LVU151
 652 0014 8822     		movs	r2, #136
 653 0016 09A8     		add	r0, sp, #36
 654              	.LVL41:
 655              		.loc 1 320 28 view .LVU152
 656 0018 FFF7FEFF 		bl	memset
 657              	.LVL42:
 321:Core/Src/stm32l4xx_hal_msp.c ****   if(huart->Instance==LPUART1)
 658              		.loc 1 321 3 is_stmt 1 view .LVU153
 659              		.loc 1 321 11 is_stmt 0 view .LVU154
 660 001c 2368     		ldr	r3, [r4]
 661              		.loc 1 321 5 view .LVU155
 662 001e 794A     		ldr	r2, .L73
 663 0020 9342     		cmp	r3, r2
 664 0022 0CD0     		beq	.L64
 322:Core/Src/stm32l4xx_hal_msp.c ****   {
 323:Core/Src/stm32l4xx_hal_msp.c ****     /* USER CODE BEGIN LPUART1_MspInit 0 */
 324:Core/Src/stm32l4xx_hal_msp.c **** 
 325:Core/Src/stm32l4xx_hal_msp.c ****     /* USER CODE END LPUART1_MspInit 0 */
 326:Core/Src/stm32l4xx_hal_msp.c **** 
 327:Core/Src/stm32l4xx_hal_msp.c ****   /** Initializes the peripherals clock
 328:Core/Src/stm32l4xx_hal_msp.c ****   */
 329:Core/Src/stm32l4xx_hal_msp.c ****     PeriphClkInit.PeriphClockSelection = RCC_PERIPHCLK_LPUART1;
 330:Core/Src/stm32l4xx_hal_msp.c ****     PeriphClkInit.Lpuart1ClockSelection = RCC_LPUART1CLKSOURCE_HSI;
 331:Core/Src/stm32l4xx_hal_msp.c ****     if (HAL_RCCEx_PeriphCLKConfig(&PeriphClkInit) != HAL_OK)
 332:Core/Src/stm32l4xx_hal_msp.c ****     {
 333:Core/Src/stm32l4xx_hal_msp.c ****       Error_Handler();
 334:Core/Src/stm32l4xx_hal_msp.c ****     }
 335:Core/Src/stm32l4xx_hal_msp.c **** 
 336:Core/Src/stm32l4xx_hal_msp.c ****     /* Peripheral clock enable */
 337:Core/Src/stm32l4xx_hal_msp.c ****     __HAL_RCC_LPUART1_CLK_ENABLE();
 338:Core/Src/stm32l4xx_hal_msp.c **** 
 339:Core/Src/stm32l4xx_hal_msp.c ****     __HAL_RCC_GPIOC_CLK_ENABLE();
 340:Core/Src/stm32l4xx_hal_msp.c ****     /**LPUART1 GPIO Configuration
 341:Core/Src/stm32l4xx_hal_msp.c ****     PC0     ------> LPUART1_RX
 342:Core/Src/stm32l4xx_hal_msp.c ****     PC1     ------> LPUART1_TX
 343:Core/Src/stm32l4xx_hal_msp.c ****     */
 344:Core/Src/stm32l4xx_hal_msp.c ****     GPIO_InitStruct.Pin = L0_LPUART1_RX_Pin|L0_LPUART1_TX_Pin;
 345:Core/Src/stm32l4xx_hal_msp.c ****     GPIO_InitStruct.Mode = GPIO_MODE_AF_PP;
 346:Core/Src/stm32l4xx_hal_msp.c ****     GPIO_InitStruct.Pull = GPIO_NOPULL;
 347:Core/Src/stm32l4xx_hal_msp.c ****     GPIO_InitStruct.Speed = GPIO_SPEED_FREQ_VERY_HIGH;
 348:Core/Src/stm32l4xx_hal_msp.c ****     GPIO_InitStruct.Alternate = GPIO_AF8_LPUART1;
 349:Core/Src/stm32l4xx_hal_msp.c ****     HAL_GPIO_Init(GPIOC, &GPIO_InitStruct);
 350:Core/Src/stm32l4xx_hal_msp.c **** 
 351:Core/Src/stm32l4xx_hal_msp.c ****     /* LPUART1 interrupt Init */
 352:Core/Src/stm32l4xx_hal_msp.c ****     HAL_NVIC_SetPriority(LPUART1_IRQn, 0, 0);
 353:Core/Src/stm32l4xx_hal_msp.c ****     HAL_NVIC_EnableIRQ(LPUART1_IRQn);
 354:Core/Src/stm32l4xx_hal_msp.c ****     /* USER CODE BEGIN LPUART1_MspInit 1 */
 355:Core/Src/stm32l4xx_hal_msp.c **** 
 356:Core/Src/stm32l4xx_hal_msp.c ****     /* USER CODE END LPUART1_MspInit 1 */
 357:Core/Src/stm32l4xx_hal_msp.c ****   }
 358:Core/Src/stm32l4xx_hal_msp.c ****   else if(huart->Instance==USART1)
 665              		.loc 1 358 8 is_stmt 1 view .LVU156
 666              		.loc 1 358 10 is_stmt 0 view .LVU157
 667 0024 784A     		ldr	r2, .L73+4
ARM GAS  /tmp/cc0cTHVu.s 			page 20


 668 0026 9342     		cmp	r3, r2
 669 0028 3ED0     		beq	.L65
 359:Core/Src/stm32l4xx_hal_msp.c ****   {
 360:Core/Src/stm32l4xx_hal_msp.c ****     /* USER CODE BEGIN USART1_MspInit 0 */
 361:Core/Src/stm32l4xx_hal_msp.c **** 
 362:Core/Src/stm32l4xx_hal_msp.c ****     /* USER CODE END USART1_MspInit 0 */
 363:Core/Src/stm32l4xx_hal_msp.c **** 
 364:Core/Src/stm32l4xx_hal_msp.c ****   /** Initializes the peripherals clock
 365:Core/Src/stm32l4xx_hal_msp.c ****   */
 366:Core/Src/stm32l4xx_hal_msp.c ****     PeriphClkInit.PeriphClockSelection = RCC_PERIPHCLK_USART1;
 367:Core/Src/stm32l4xx_hal_msp.c ****     PeriphClkInit.Usart1ClockSelection = RCC_USART1CLKSOURCE_PCLK2;
 368:Core/Src/stm32l4xx_hal_msp.c ****     if (HAL_RCCEx_PeriphCLKConfig(&PeriphClkInit) != HAL_OK)
 369:Core/Src/stm32l4xx_hal_msp.c ****     {
 370:Core/Src/stm32l4xx_hal_msp.c ****       Error_Handler();
 371:Core/Src/stm32l4xx_hal_msp.c ****     }
 372:Core/Src/stm32l4xx_hal_msp.c **** 
 373:Core/Src/stm32l4xx_hal_msp.c ****     /* Peripheral clock enable */
 374:Core/Src/stm32l4xx_hal_msp.c ****     __HAL_RCC_USART1_CLK_ENABLE();
 375:Core/Src/stm32l4xx_hal_msp.c **** 
 376:Core/Src/stm32l4xx_hal_msp.c ****     __HAL_RCC_GPIOA_CLK_ENABLE();
 377:Core/Src/stm32l4xx_hal_msp.c ****     /**USART1 GPIO Configuration
 378:Core/Src/stm32l4xx_hal_msp.c ****     PA9     ------> USART1_TX
 379:Core/Src/stm32l4xx_hal_msp.c ****     PA10     ------> USART1_RX
 380:Core/Src/stm32l4xx_hal_msp.c ****     */
 381:Core/Src/stm32l4xx_hal_msp.c ****     GPIO_InitStruct.Pin = D_USART_TX_Pin|D_USART_RX_Pin;
 382:Core/Src/stm32l4xx_hal_msp.c ****     GPIO_InitStruct.Mode = GPIO_MODE_AF_PP;
 383:Core/Src/stm32l4xx_hal_msp.c ****     GPIO_InitStruct.Pull = GPIO_NOPULL;
 384:Core/Src/stm32l4xx_hal_msp.c ****     GPIO_InitStruct.Speed = GPIO_SPEED_FREQ_VERY_HIGH;
 385:Core/Src/stm32l4xx_hal_msp.c ****     GPIO_InitStruct.Alternate = GPIO_AF7_USART1;
 386:Core/Src/stm32l4xx_hal_msp.c ****     HAL_GPIO_Init(GPIOA, &GPIO_InitStruct);
 387:Core/Src/stm32l4xx_hal_msp.c **** 
 388:Core/Src/stm32l4xx_hal_msp.c ****     /* USART1 DMA Init */
 389:Core/Src/stm32l4xx_hal_msp.c ****     /* USART1_RX Init */
 390:Core/Src/stm32l4xx_hal_msp.c ****     hdma_usart1_rx.Instance = DMA1_Channel5;
 391:Core/Src/stm32l4xx_hal_msp.c ****     hdma_usart1_rx.Init.Request = DMA_REQUEST_2;
 392:Core/Src/stm32l4xx_hal_msp.c ****     hdma_usart1_rx.Init.Direction = DMA_PERIPH_TO_MEMORY;
 393:Core/Src/stm32l4xx_hal_msp.c ****     hdma_usart1_rx.Init.PeriphInc = DMA_PINC_DISABLE;
 394:Core/Src/stm32l4xx_hal_msp.c ****     hdma_usart1_rx.Init.MemInc = DMA_MINC_ENABLE;
 395:Core/Src/stm32l4xx_hal_msp.c ****     hdma_usart1_rx.Init.PeriphDataAlignment = DMA_PDATAALIGN_BYTE;
 396:Core/Src/stm32l4xx_hal_msp.c ****     hdma_usart1_rx.Init.MemDataAlignment = DMA_MDATAALIGN_BYTE;
 397:Core/Src/stm32l4xx_hal_msp.c ****     hdma_usart1_rx.Init.Mode = DMA_CIRCULAR;
 398:Core/Src/stm32l4xx_hal_msp.c ****     hdma_usart1_rx.Init.Priority = DMA_PRIORITY_HIGH;
 399:Core/Src/stm32l4xx_hal_msp.c ****     if (HAL_DMA_Init(&hdma_usart1_rx) != HAL_OK)
 400:Core/Src/stm32l4xx_hal_msp.c ****     {
 401:Core/Src/stm32l4xx_hal_msp.c ****       Error_Handler();
 402:Core/Src/stm32l4xx_hal_msp.c ****     }
 403:Core/Src/stm32l4xx_hal_msp.c **** 
 404:Core/Src/stm32l4xx_hal_msp.c ****     __HAL_LINKDMA(huart,hdmarx,hdma_usart1_rx);
 405:Core/Src/stm32l4xx_hal_msp.c **** 
 406:Core/Src/stm32l4xx_hal_msp.c ****     /* USART1 interrupt Init */
 407:Core/Src/stm32l4xx_hal_msp.c ****     HAL_NVIC_SetPriority(USART1_IRQn, 0, 0);
 408:Core/Src/stm32l4xx_hal_msp.c ****     HAL_NVIC_EnableIRQ(USART1_IRQn);
 409:Core/Src/stm32l4xx_hal_msp.c ****     /* USER CODE BEGIN USART1_MspInit 1 */
 410:Core/Src/stm32l4xx_hal_msp.c **** 
 411:Core/Src/stm32l4xx_hal_msp.c ****     /* USER CODE END USART1_MspInit 1 */
 412:Core/Src/stm32l4xx_hal_msp.c ****   }
 413:Core/Src/stm32l4xx_hal_msp.c ****   else if(huart->Instance==USART2)
ARM GAS  /tmp/cc0cTHVu.s 			page 21


 670              		.loc 1 413 8 is_stmt 1 view .LVU158
 671              		.loc 1 413 10 is_stmt 0 view .LVU159
 672 002a 784A     		ldr	r2, .L73+8
 673 002c 9342     		cmp	r3, r2
 674 002e 00F08980 		beq	.L66
 414:Core/Src/stm32l4xx_hal_msp.c ****   {
 415:Core/Src/stm32l4xx_hal_msp.c ****     /* USER CODE BEGIN USART2_MspInit 0 */
 416:Core/Src/stm32l4xx_hal_msp.c **** 
 417:Core/Src/stm32l4xx_hal_msp.c ****     /* USER CODE END USART2_MspInit 0 */
 418:Core/Src/stm32l4xx_hal_msp.c **** 
 419:Core/Src/stm32l4xx_hal_msp.c ****   /** Initializes the peripherals clock
 420:Core/Src/stm32l4xx_hal_msp.c ****   */
 421:Core/Src/stm32l4xx_hal_msp.c ****     PeriphClkInit.PeriphClockSelection = RCC_PERIPHCLK_USART2;
 422:Core/Src/stm32l4xx_hal_msp.c ****     PeriphClkInit.Usart2ClockSelection = RCC_USART2CLKSOURCE_PCLK1;
 423:Core/Src/stm32l4xx_hal_msp.c ****     if (HAL_RCCEx_PeriphCLKConfig(&PeriphClkInit) != HAL_OK)
 424:Core/Src/stm32l4xx_hal_msp.c ****     {
 425:Core/Src/stm32l4xx_hal_msp.c ****       Error_Handler();
 426:Core/Src/stm32l4xx_hal_msp.c ****     }
 427:Core/Src/stm32l4xx_hal_msp.c **** 
 428:Core/Src/stm32l4xx_hal_msp.c ****     /* Peripheral clock enable */
 429:Core/Src/stm32l4xx_hal_msp.c ****     __HAL_RCC_USART2_CLK_ENABLE();
 430:Core/Src/stm32l4xx_hal_msp.c **** 
 431:Core/Src/stm32l4xx_hal_msp.c ****     __HAL_RCC_GPIOA_CLK_ENABLE();
 432:Core/Src/stm32l4xx_hal_msp.c ****     /**USART2 GPIO Configuration
 433:Core/Src/stm32l4xx_hal_msp.c ****     PA2     ------> USART2_TX
 434:Core/Src/stm32l4xx_hal_msp.c ****     PA3     ------> USART2_RX
 435:Core/Src/stm32l4xx_hal_msp.c ****     */
 436:Core/Src/stm32l4xx_hal_msp.c ****     GPIO_InitStruct.Pin = Wi_USART2_TX_Pin|Wi_USART2_RX_Pin;
 437:Core/Src/stm32l4xx_hal_msp.c ****     GPIO_InitStruct.Mode = GPIO_MODE_AF_PP;
 438:Core/Src/stm32l4xx_hal_msp.c ****     GPIO_InitStruct.Pull = GPIO_NOPULL;
 439:Core/Src/stm32l4xx_hal_msp.c ****     GPIO_InitStruct.Speed = GPIO_SPEED_FREQ_VERY_HIGH;
 440:Core/Src/stm32l4xx_hal_msp.c ****     GPIO_InitStruct.Alternate = GPIO_AF7_USART2;
 441:Core/Src/stm32l4xx_hal_msp.c ****     HAL_GPIO_Init(GPIOA, &GPIO_InitStruct);
 442:Core/Src/stm32l4xx_hal_msp.c **** 
 443:Core/Src/stm32l4xx_hal_msp.c ****     /* USART2 interrupt Init */
 444:Core/Src/stm32l4xx_hal_msp.c ****     HAL_NVIC_SetPriority(USART2_IRQn, 0, 0);
 445:Core/Src/stm32l4xx_hal_msp.c ****     HAL_NVIC_EnableIRQ(USART2_IRQn);
 446:Core/Src/stm32l4xx_hal_msp.c ****     /* USER CODE BEGIN USART2_MspInit 1 */
 447:Core/Src/stm32l4xx_hal_msp.c **** 
 448:Core/Src/stm32l4xx_hal_msp.c ****     /* USER CODE END USART2_MspInit 1 */
 449:Core/Src/stm32l4xx_hal_msp.c ****   }
 450:Core/Src/stm32l4xx_hal_msp.c ****   else if(huart->Instance==USART3)
 675              		.loc 1 450 8 is_stmt 1 view .LVU160
 676              		.loc 1 450 10 is_stmt 0 view .LVU161
 677 0032 774A     		ldr	r2, .L73+12
 678 0034 9342     		cmp	r3, r2
 679 0036 00F0B980 		beq	.L67
 680              	.LVL43:
 681              	.L53:
 451:Core/Src/stm32l4xx_hal_msp.c ****   {
 452:Core/Src/stm32l4xx_hal_msp.c ****     /* USER CODE BEGIN USART3_MspInit 0 */
 453:Core/Src/stm32l4xx_hal_msp.c **** 
 454:Core/Src/stm32l4xx_hal_msp.c ****     /* USER CODE END USART3_MspInit 0 */
 455:Core/Src/stm32l4xx_hal_msp.c **** 
 456:Core/Src/stm32l4xx_hal_msp.c ****   /** Initializes the peripherals clock
 457:Core/Src/stm32l4xx_hal_msp.c ****   */
 458:Core/Src/stm32l4xx_hal_msp.c ****     PeriphClkInit.PeriphClockSelection = RCC_PERIPHCLK_USART3;
ARM GAS  /tmp/cc0cTHVu.s 			page 22


 459:Core/Src/stm32l4xx_hal_msp.c ****     PeriphClkInit.Usart3ClockSelection = RCC_USART3CLKSOURCE_PCLK1;
 460:Core/Src/stm32l4xx_hal_msp.c ****     if (HAL_RCCEx_PeriphCLKConfig(&PeriphClkInit) != HAL_OK)
 461:Core/Src/stm32l4xx_hal_msp.c ****     {
 462:Core/Src/stm32l4xx_hal_msp.c ****       Error_Handler();
 463:Core/Src/stm32l4xx_hal_msp.c ****     }
 464:Core/Src/stm32l4xx_hal_msp.c **** 
 465:Core/Src/stm32l4xx_hal_msp.c ****     /* Peripheral clock enable */
 466:Core/Src/stm32l4xx_hal_msp.c ****     __HAL_RCC_USART3_CLK_ENABLE();
 467:Core/Src/stm32l4xx_hal_msp.c **** 
 468:Core/Src/stm32l4xx_hal_msp.c ****     __HAL_RCC_GPIOC_CLK_ENABLE();
 469:Core/Src/stm32l4xx_hal_msp.c ****     /**USART3 GPIO Configuration
 470:Core/Src/stm32l4xx_hal_msp.c ****     PC4     ------> USART3_TX
 471:Core/Src/stm32l4xx_hal_msp.c ****     PC5     ------> USART3_RX
 472:Core/Src/stm32l4xx_hal_msp.c ****     */
 473:Core/Src/stm32l4xx_hal_msp.c ****     GPIO_InitStruct.Pin = Wi_USART3_TX_Pin|Wi_USART3_RX_Pin;
 474:Core/Src/stm32l4xx_hal_msp.c ****     GPIO_InitStruct.Mode = GPIO_MODE_AF_PP;
 475:Core/Src/stm32l4xx_hal_msp.c ****     GPIO_InitStruct.Pull = GPIO_NOPULL;
 476:Core/Src/stm32l4xx_hal_msp.c ****     GPIO_InitStruct.Speed = GPIO_SPEED_FREQ_VERY_HIGH;
 477:Core/Src/stm32l4xx_hal_msp.c ****     GPIO_InitStruct.Alternate = GPIO_AF7_USART3;
 478:Core/Src/stm32l4xx_hal_msp.c ****     HAL_GPIO_Init(GPIOC, &GPIO_InitStruct);
 479:Core/Src/stm32l4xx_hal_msp.c **** 
 480:Core/Src/stm32l4xx_hal_msp.c ****     /* USER CODE BEGIN USART3_MspInit 1 */
 481:Core/Src/stm32l4xx_hal_msp.c **** 
 482:Core/Src/stm32l4xx_hal_msp.c ****     /* USER CODE END USART3_MspInit 1 */
 483:Core/Src/stm32l4xx_hal_msp.c ****   }
 484:Core/Src/stm32l4xx_hal_msp.c **** 
 485:Core/Src/stm32l4xx_hal_msp.c **** }
 682              		.loc 1 485 1 view .LVU162
 683 003a 30B0     		add	sp, sp, #192
 684              		.cfi_remember_state
 685              		.cfi_def_cfa_offset 16
 686              		@ sp needed
 687 003c 70BD     		pop	{r4, r5, r6, pc}
 688              	.LVL44:
 689              	.L64:
 690              		.cfi_restore_state
 329:Core/Src/stm32l4xx_hal_msp.c ****     PeriphClkInit.Lpuart1ClockSelection = RCC_LPUART1CLKSOURCE_HSI;
 691              		.loc 1 329 5 is_stmt 1 view .LVU163
 329:Core/Src/stm32l4xx_hal_msp.c ****     PeriphClkInit.Lpuart1ClockSelection = RCC_LPUART1CLKSOURCE_HSI;
 692              		.loc 1 329 40 is_stmt 0 view .LVU164
 693 003e 2023     		movs	r3, #32
 694 0040 0993     		str	r3, [sp, #36]
 330:Core/Src/stm32l4xx_hal_msp.c ****     if (HAL_RCCEx_PeriphCLKConfig(&PeriphClkInit) != HAL_OK)
 695              		.loc 1 330 5 is_stmt 1 view .LVU165
 330:Core/Src/stm32l4xx_hal_msp.c ****     if (HAL_RCCEx_PeriphCLKConfig(&PeriphClkInit) != HAL_OK)
 696              		.loc 1 330 41 is_stmt 0 view .LVU166
 697 0042 4FF40063 		mov	r3, #2048
 698 0046 1C93     		str	r3, [sp, #112]
 331:Core/Src/stm32l4xx_hal_msp.c ****     {
 699              		.loc 1 331 5 is_stmt 1 view .LVU167
 331:Core/Src/stm32l4xx_hal_msp.c ****     {
 700              		.loc 1 331 9 is_stmt 0 view .LVU168
 701 0048 09A8     		add	r0, sp, #36
 702 004a FFF7FEFF 		bl	HAL_RCCEx_PeriphCLKConfig
 703              	.LVL45:
 331:Core/Src/stm32l4xx_hal_msp.c ****     {
 704              		.loc 1 331 8 discriminator 1 view .LVU169
ARM GAS  /tmp/cc0cTHVu.s 			page 23


 705 004e 40BB     		cbnz	r0, .L68
 706              	.L55:
 337:Core/Src/stm32l4xx_hal_msp.c **** 
 707              		.loc 1 337 5 is_stmt 1 view .LVU170
 708              	.LBB9:
 337:Core/Src/stm32l4xx_hal_msp.c **** 
 709              		.loc 1 337 5 view .LVU171
 337:Core/Src/stm32l4xx_hal_msp.c **** 
 710              		.loc 1 337 5 view .LVU172
 711 0050 704B     		ldr	r3, .L73+16
 712 0052 DA6D     		ldr	r2, [r3, #92]
 713 0054 42F00102 		orr	r2, r2, #1
 714 0058 DA65     		str	r2, [r3, #92]
 337:Core/Src/stm32l4xx_hal_msp.c **** 
 715              		.loc 1 337 5 view .LVU173
 716 005a DA6D     		ldr	r2, [r3, #92]
 717 005c 02F00102 		and	r2, r2, #1
 718 0060 0192     		str	r2, [sp, #4]
 337:Core/Src/stm32l4xx_hal_msp.c **** 
 719              		.loc 1 337 5 view .LVU174
 720 0062 019A     		ldr	r2, [sp, #4]
 721              	.LBE9:
 337:Core/Src/stm32l4xx_hal_msp.c **** 
 722              		.loc 1 337 5 view .LVU175
 339:Core/Src/stm32l4xx_hal_msp.c ****     /**LPUART1 GPIO Configuration
 723              		.loc 1 339 5 view .LVU176
 724              	.LBB10:
 339:Core/Src/stm32l4xx_hal_msp.c ****     /**LPUART1 GPIO Configuration
 725              		.loc 1 339 5 view .LVU177
 339:Core/Src/stm32l4xx_hal_msp.c ****     /**LPUART1 GPIO Configuration
 726              		.loc 1 339 5 view .LVU178
 727 0064 DA6C     		ldr	r2, [r3, #76]
 728 0066 42F00402 		orr	r2, r2, #4
 729 006a DA64     		str	r2, [r3, #76]
 339:Core/Src/stm32l4xx_hal_msp.c ****     /**LPUART1 GPIO Configuration
 730              		.loc 1 339 5 view .LVU179
 731 006c DB6C     		ldr	r3, [r3, #76]
 732 006e 03F00403 		and	r3, r3, #4
 733 0072 0293     		str	r3, [sp, #8]
 339:Core/Src/stm32l4xx_hal_msp.c ****     /**LPUART1 GPIO Configuration
 734              		.loc 1 339 5 view .LVU180
 735 0074 029B     		ldr	r3, [sp, #8]
 736              	.LBE10:
 339:Core/Src/stm32l4xx_hal_msp.c ****     /**LPUART1 GPIO Configuration
 737              		.loc 1 339 5 view .LVU181
 344:Core/Src/stm32l4xx_hal_msp.c ****     GPIO_InitStruct.Mode = GPIO_MODE_AF_PP;
 738              		.loc 1 344 5 view .LVU182
 344:Core/Src/stm32l4xx_hal_msp.c ****     GPIO_InitStruct.Mode = GPIO_MODE_AF_PP;
 739              		.loc 1 344 25 is_stmt 0 view .LVU183
 740 0076 0323     		movs	r3, #3
 741 0078 2B93     		str	r3, [sp, #172]
 345:Core/Src/stm32l4xx_hal_msp.c ****     GPIO_InitStruct.Pull = GPIO_NOPULL;
 742              		.loc 1 345 5 is_stmt 1 view .LVU184
 345:Core/Src/stm32l4xx_hal_msp.c ****     GPIO_InitStruct.Pull = GPIO_NOPULL;
 743              		.loc 1 345 26 is_stmt 0 view .LVU185
 744 007a 0222     		movs	r2, #2
 745 007c 2C92     		str	r2, [sp, #176]
ARM GAS  /tmp/cc0cTHVu.s 			page 24


 346:Core/Src/stm32l4xx_hal_msp.c ****     GPIO_InitStruct.Speed = GPIO_SPEED_FREQ_VERY_HIGH;
 746              		.loc 1 346 5 is_stmt 1 view .LVU186
 346:Core/Src/stm32l4xx_hal_msp.c ****     GPIO_InitStruct.Speed = GPIO_SPEED_FREQ_VERY_HIGH;
 747              		.loc 1 346 26 is_stmt 0 view .LVU187
 748 007e 0022     		movs	r2, #0
 749 0080 2D92     		str	r2, [sp, #180]
 347:Core/Src/stm32l4xx_hal_msp.c ****     GPIO_InitStruct.Alternate = GPIO_AF8_LPUART1;
 750              		.loc 1 347 5 is_stmt 1 view .LVU188
 347:Core/Src/stm32l4xx_hal_msp.c ****     GPIO_InitStruct.Alternate = GPIO_AF8_LPUART1;
 751              		.loc 1 347 27 is_stmt 0 view .LVU189
 752 0082 2E93     		str	r3, [sp, #184]
 348:Core/Src/stm32l4xx_hal_msp.c ****     HAL_GPIO_Init(GPIOC, &GPIO_InitStruct);
 753              		.loc 1 348 5 is_stmt 1 view .LVU190
 348:Core/Src/stm32l4xx_hal_msp.c ****     HAL_GPIO_Init(GPIOC, &GPIO_InitStruct);
 754              		.loc 1 348 31 is_stmt 0 view .LVU191
 755 0084 0823     		movs	r3, #8
 756 0086 2F93     		str	r3, [sp, #188]
 349:Core/Src/stm32l4xx_hal_msp.c **** 
 757              		.loc 1 349 5 is_stmt 1 view .LVU192
 758 0088 2BA9     		add	r1, sp, #172
 759 008a 6348     		ldr	r0, .L73+20
 760 008c FFF7FEFF 		bl	HAL_GPIO_Init
 761              	.LVL46:
 352:Core/Src/stm32l4xx_hal_msp.c ****     HAL_NVIC_EnableIRQ(LPUART1_IRQn);
 762              		.loc 1 352 5 view .LVU193
 763 0090 0022     		movs	r2, #0
 764 0092 1146     		mov	r1, r2
 765 0094 4620     		movs	r0, #70
 766 0096 FFF7FEFF 		bl	HAL_NVIC_SetPriority
 767              	.LVL47:
 353:Core/Src/stm32l4xx_hal_msp.c ****     /* USER CODE BEGIN LPUART1_MspInit 1 */
 768              		.loc 1 353 5 view .LVU194
 769 009a 4620     		movs	r0, #70
 770 009c FFF7FEFF 		bl	HAL_NVIC_EnableIRQ
 771              	.LVL48:
 772 00a0 CBE7     		b	.L53
 773              	.L68:
 333:Core/Src/stm32l4xx_hal_msp.c ****     }
 774              		.loc 1 333 7 view .LVU195
 775 00a2 FFF7FEFF 		bl	Error_Handler
 776              	.LVL49:
 777 00a6 D3E7     		b	.L55
 778              	.L65:
 366:Core/Src/stm32l4xx_hal_msp.c ****     PeriphClkInit.Usart1ClockSelection = RCC_USART1CLKSOURCE_PCLK2;
 779              		.loc 1 366 5 view .LVU196
 366:Core/Src/stm32l4xx_hal_msp.c ****     PeriphClkInit.Usart1ClockSelection = RCC_USART1CLKSOURCE_PCLK2;
 780              		.loc 1 366 40 is_stmt 0 view .LVU197
 781 00a8 0123     		movs	r3, #1
 782 00aa 0993     		str	r3, [sp, #36]
 367:Core/Src/stm32l4xx_hal_msp.c ****     if (HAL_RCCEx_PeriphCLKConfig(&PeriphClkInit) != HAL_OK)
 783              		.loc 1 367 5 is_stmt 1 view .LVU198
 368:Core/Src/stm32l4xx_hal_msp.c ****     {
 784              		.loc 1 368 5 view .LVU199
 368:Core/Src/stm32l4xx_hal_msp.c ****     {
 785              		.loc 1 368 9 is_stmt 0 view .LVU200
 786 00ac 09A8     		add	r0, sp, #36
 787 00ae FFF7FEFF 		bl	HAL_RCCEx_PeriphCLKConfig
ARM GAS  /tmp/cc0cTHVu.s 			page 25


 788              	.LVL50:
 368:Core/Src/stm32l4xx_hal_msp.c ****     {
 789              		.loc 1 368 8 discriminator 1 view .LVU201
 790 00b2 0028     		cmp	r0, #0
 791 00b4 40D1     		bne	.L69
 792              	.L58:
 374:Core/Src/stm32l4xx_hal_msp.c **** 
 793              		.loc 1 374 5 is_stmt 1 view .LVU202
 794              	.LBB11:
 374:Core/Src/stm32l4xx_hal_msp.c **** 
 795              		.loc 1 374 5 view .LVU203
 374:Core/Src/stm32l4xx_hal_msp.c **** 
 796              		.loc 1 374 5 view .LVU204
 797 00b6 574B     		ldr	r3, .L73+16
 798 00b8 1A6E     		ldr	r2, [r3, #96]
 799 00ba 42F48042 		orr	r2, r2, #16384
 800 00be 1A66     		str	r2, [r3, #96]
 374:Core/Src/stm32l4xx_hal_msp.c **** 
 801              		.loc 1 374 5 view .LVU205
 802 00c0 1A6E     		ldr	r2, [r3, #96]
 803 00c2 02F48042 		and	r2, r2, #16384
 804 00c6 0392     		str	r2, [sp, #12]
 374:Core/Src/stm32l4xx_hal_msp.c **** 
 805              		.loc 1 374 5 view .LVU206
 806 00c8 039A     		ldr	r2, [sp, #12]
 807              	.LBE11:
 374:Core/Src/stm32l4xx_hal_msp.c **** 
 808              		.loc 1 374 5 view .LVU207
 376:Core/Src/stm32l4xx_hal_msp.c ****     /**USART1 GPIO Configuration
 809              		.loc 1 376 5 view .LVU208
 810              	.LBB12:
 376:Core/Src/stm32l4xx_hal_msp.c ****     /**USART1 GPIO Configuration
 811              		.loc 1 376 5 view .LVU209
 376:Core/Src/stm32l4xx_hal_msp.c ****     /**USART1 GPIO Configuration
 812              		.loc 1 376 5 view .LVU210
 813 00ca DA6C     		ldr	r2, [r3, #76]
 814 00cc 42F00102 		orr	r2, r2, #1
 815 00d0 DA64     		str	r2, [r3, #76]
 376:Core/Src/stm32l4xx_hal_msp.c ****     /**USART1 GPIO Configuration
 816              		.loc 1 376 5 view .LVU211
 817 00d2 DB6C     		ldr	r3, [r3, #76]
 818 00d4 03F00103 		and	r3, r3, #1
 819 00d8 0493     		str	r3, [sp, #16]
 376:Core/Src/stm32l4xx_hal_msp.c ****     /**USART1 GPIO Configuration
 820              		.loc 1 376 5 view .LVU212
 821 00da 049B     		ldr	r3, [sp, #16]
 822              	.LBE12:
 376:Core/Src/stm32l4xx_hal_msp.c ****     /**USART1 GPIO Configuration
 823              		.loc 1 376 5 view .LVU213
 381:Core/Src/stm32l4xx_hal_msp.c ****     GPIO_InitStruct.Mode = GPIO_MODE_AF_PP;
 824              		.loc 1 381 5 view .LVU214
 381:Core/Src/stm32l4xx_hal_msp.c ****     GPIO_InitStruct.Mode = GPIO_MODE_AF_PP;
 825              		.loc 1 381 25 is_stmt 0 view .LVU215
 826 00dc 4FF4C063 		mov	r3, #1536
 827 00e0 2B93     		str	r3, [sp, #172]
 382:Core/Src/stm32l4xx_hal_msp.c ****     GPIO_InitStruct.Pull = GPIO_NOPULL;
 828              		.loc 1 382 5 is_stmt 1 view .LVU216
ARM GAS  /tmp/cc0cTHVu.s 			page 26


 382:Core/Src/stm32l4xx_hal_msp.c ****     GPIO_InitStruct.Pull = GPIO_NOPULL;
 829              		.loc 1 382 26 is_stmt 0 view .LVU217
 830 00e2 0225     		movs	r5, #2
 831 00e4 2C95     		str	r5, [sp, #176]
 383:Core/Src/stm32l4xx_hal_msp.c ****     GPIO_InitStruct.Speed = GPIO_SPEED_FREQ_VERY_HIGH;
 832              		.loc 1 383 5 is_stmt 1 view .LVU218
 383:Core/Src/stm32l4xx_hal_msp.c ****     GPIO_InitStruct.Speed = GPIO_SPEED_FREQ_VERY_HIGH;
 833              		.loc 1 383 26 is_stmt 0 view .LVU219
 834 00e6 0024     		movs	r4, #0
 835              	.LVL51:
 383:Core/Src/stm32l4xx_hal_msp.c ****     GPIO_InitStruct.Speed = GPIO_SPEED_FREQ_VERY_HIGH;
 836              		.loc 1 383 26 view .LVU220
 837 00e8 2D94     		str	r4, [sp, #180]
 384:Core/Src/stm32l4xx_hal_msp.c ****     GPIO_InitStruct.Alternate = GPIO_AF7_USART1;
 838              		.loc 1 384 5 is_stmt 1 view .LVU221
 384:Core/Src/stm32l4xx_hal_msp.c ****     GPIO_InitStruct.Alternate = GPIO_AF7_USART1;
 839              		.loc 1 384 27 is_stmt 0 view .LVU222
 840 00ea 0323     		movs	r3, #3
 841 00ec 2E93     		str	r3, [sp, #184]
 385:Core/Src/stm32l4xx_hal_msp.c ****     HAL_GPIO_Init(GPIOA, &GPIO_InitStruct);
 842              		.loc 1 385 5 is_stmt 1 view .LVU223
 385:Core/Src/stm32l4xx_hal_msp.c ****     HAL_GPIO_Init(GPIOA, &GPIO_InitStruct);
 843              		.loc 1 385 31 is_stmt 0 view .LVU224
 844 00ee 0723     		movs	r3, #7
 845 00f0 2F93     		str	r3, [sp, #188]
 386:Core/Src/stm32l4xx_hal_msp.c **** 
 846              		.loc 1 386 5 is_stmt 1 view .LVU225
 847 00f2 2BA9     		add	r1, sp, #172
 848 00f4 4FF09040 		mov	r0, #1207959552
 849 00f8 FFF7FEFF 		bl	HAL_GPIO_Init
 850              	.LVL52:
 390:Core/Src/stm32l4xx_hal_msp.c ****     hdma_usart1_rx.Init.Request = DMA_REQUEST_2;
 851              		.loc 1 390 5 view .LVU226
 390:Core/Src/stm32l4xx_hal_msp.c ****     hdma_usart1_rx.Init.Request = DMA_REQUEST_2;
 852              		.loc 1 390 29 is_stmt 0 view .LVU227
 853 00fc 4748     		ldr	r0, .L73+24
 854 00fe 484B     		ldr	r3, .L73+28
 855 0100 0360     		str	r3, [r0]
 391:Core/Src/stm32l4xx_hal_msp.c ****     hdma_usart1_rx.Init.Direction = DMA_PERIPH_TO_MEMORY;
 856              		.loc 1 391 5 is_stmt 1 view .LVU228
 391:Core/Src/stm32l4xx_hal_msp.c ****     hdma_usart1_rx.Init.Direction = DMA_PERIPH_TO_MEMORY;
 857              		.loc 1 391 33 is_stmt 0 view .LVU229
 858 0102 4560     		str	r5, [r0, #4]
 392:Core/Src/stm32l4xx_hal_msp.c ****     hdma_usart1_rx.Init.PeriphInc = DMA_PINC_DISABLE;
 859              		.loc 1 392 5 is_stmt 1 view .LVU230
 392:Core/Src/stm32l4xx_hal_msp.c ****     hdma_usart1_rx.Init.PeriphInc = DMA_PINC_DISABLE;
 860              		.loc 1 392 35 is_stmt 0 view .LVU231
 861 0104 8460     		str	r4, [r0, #8]
 393:Core/Src/stm32l4xx_hal_msp.c ****     hdma_usart1_rx.Init.MemInc = DMA_MINC_ENABLE;
 862              		.loc 1 393 5 is_stmt 1 view .LVU232
 393:Core/Src/stm32l4xx_hal_msp.c ****     hdma_usart1_rx.Init.MemInc = DMA_MINC_ENABLE;
 863              		.loc 1 393 35 is_stmt 0 view .LVU233
 864 0106 C460     		str	r4, [r0, #12]
 394:Core/Src/stm32l4xx_hal_msp.c ****     hdma_usart1_rx.Init.PeriphDataAlignment = DMA_PDATAALIGN_BYTE;
 865              		.loc 1 394 5 is_stmt 1 view .LVU234
 394:Core/Src/stm32l4xx_hal_msp.c ****     hdma_usart1_rx.Init.PeriphDataAlignment = DMA_PDATAALIGN_BYTE;
 866              		.loc 1 394 32 is_stmt 0 view .LVU235
ARM GAS  /tmp/cc0cTHVu.s 			page 27


 867 0108 8023     		movs	r3, #128
 868 010a 0361     		str	r3, [r0, #16]
 395:Core/Src/stm32l4xx_hal_msp.c ****     hdma_usart1_rx.Init.MemDataAlignment = DMA_MDATAALIGN_BYTE;
 869              		.loc 1 395 5 is_stmt 1 view .LVU236
 395:Core/Src/stm32l4xx_hal_msp.c ****     hdma_usart1_rx.Init.MemDataAlignment = DMA_MDATAALIGN_BYTE;
 870              		.loc 1 395 45 is_stmt 0 view .LVU237
 871 010c 4461     		str	r4, [r0, #20]
 396:Core/Src/stm32l4xx_hal_msp.c ****     hdma_usart1_rx.Init.Mode = DMA_CIRCULAR;
 872              		.loc 1 396 5 is_stmt 1 view .LVU238
 396:Core/Src/stm32l4xx_hal_msp.c ****     hdma_usart1_rx.Init.Mode = DMA_CIRCULAR;
 873              		.loc 1 396 42 is_stmt 0 view .LVU239
 874 010e 8461     		str	r4, [r0, #24]
 397:Core/Src/stm32l4xx_hal_msp.c ****     hdma_usart1_rx.Init.Priority = DMA_PRIORITY_HIGH;
 875              		.loc 1 397 5 is_stmt 1 view .LVU240
 397:Core/Src/stm32l4xx_hal_msp.c ****     hdma_usart1_rx.Init.Priority = DMA_PRIORITY_HIGH;
 876              		.loc 1 397 30 is_stmt 0 view .LVU241
 877 0110 2023     		movs	r3, #32
 878 0112 C361     		str	r3, [r0, #28]
 398:Core/Src/stm32l4xx_hal_msp.c ****     if (HAL_DMA_Init(&hdma_usart1_rx) != HAL_OK)
 879              		.loc 1 398 5 is_stmt 1 view .LVU242
 398:Core/Src/stm32l4xx_hal_msp.c ****     if (HAL_DMA_Init(&hdma_usart1_rx) != HAL_OK)
 880              		.loc 1 398 34 is_stmt 0 view .LVU243
 881 0114 4FF40053 		mov	r3, #8192
 882 0118 0362     		str	r3, [r0, #32]
 399:Core/Src/stm32l4xx_hal_msp.c ****     {
 883              		.loc 1 399 5 is_stmt 1 view .LVU244
 399:Core/Src/stm32l4xx_hal_msp.c ****     {
 884              		.loc 1 399 9 is_stmt 0 view .LVU245
 885 011a FFF7FEFF 		bl	HAL_DMA_Init
 886              	.LVL53:
 399:Core/Src/stm32l4xx_hal_msp.c ****     {
 887              		.loc 1 399 8 discriminator 1 view .LVU246
 888 011e 70B9     		cbnz	r0, .L70
 889              	.L59:
 404:Core/Src/stm32l4xx_hal_msp.c **** 
 890              		.loc 1 404 5 is_stmt 1 view .LVU247
 404:Core/Src/stm32l4xx_hal_msp.c **** 
 891              		.loc 1 404 5 view .LVU248
 892 0120 3E4B     		ldr	r3, .L73+24
 893 0122 7367     		str	r3, [r6, #116]
 404:Core/Src/stm32l4xx_hal_msp.c **** 
 894              		.loc 1 404 5 view .LVU249
 895 0124 9E62     		str	r6, [r3, #40]
 404:Core/Src/stm32l4xx_hal_msp.c **** 
 896              		.loc 1 404 5 view .LVU250
 407:Core/Src/stm32l4xx_hal_msp.c ****     HAL_NVIC_EnableIRQ(USART1_IRQn);
 897              		.loc 1 407 5 view .LVU251
 898 0126 0022     		movs	r2, #0
 899 0128 1146     		mov	r1, r2
 900 012a 2520     		movs	r0, #37
 901 012c FFF7FEFF 		bl	HAL_NVIC_SetPriority
 902              	.LVL54:
 408:Core/Src/stm32l4xx_hal_msp.c ****     /* USER CODE BEGIN USART1_MspInit 1 */
 903              		.loc 1 408 5 view .LVU252
 904 0130 2520     		movs	r0, #37
 905 0132 FFF7FEFF 		bl	HAL_NVIC_EnableIRQ
 906              	.LVL55:
ARM GAS  /tmp/cc0cTHVu.s 			page 28


 907 0136 80E7     		b	.L53
 908              	.LVL56:
 909              	.L69:
 370:Core/Src/stm32l4xx_hal_msp.c ****     }
 910              		.loc 1 370 7 view .LVU253
 911 0138 FFF7FEFF 		bl	Error_Handler
 912              	.LVL57:
 913 013c BBE7     		b	.L58
 914              	.LVL58:
 915              	.L70:
 401:Core/Src/stm32l4xx_hal_msp.c ****     }
 916              		.loc 1 401 7 view .LVU254
 917 013e FFF7FEFF 		bl	Error_Handler
 918              	.LVL59:
 919 0142 EDE7     		b	.L59
 920              	.LVL60:
 921              	.L66:
 421:Core/Src/stm32l4xx_hal_msp.c ****     PeriphClkInit.Usart2ClockSelection = RCC_USART2CLKSOURCE_PCLK1;
 922              		.loc 1 421 5 view .LVU255
 421:Core/Src/stm32l4xx_hal_msp.c ****     PeriphClkInit.Usart2ClockSelection = RCC_USART2CLKSOURCE_PCLK1;
 923              		.loc 1 421 40 is_stmt 0 view .LVU256
 924 0144 0223     		movs	r3, #2
 925 0146 0993     		str	r3, [sp, #36]
 422:Core/Src/stm32l4xx_hal_msp.c ****     if (HAL_RCCEx_PeriphCLKConfig(&PeriphClkInit) != HAL_OK)
 926              		.loc 1 422 5 is_stmt 1 view .LVU257
 423:Core/Src/stm32l4xx_hal_msp.c ****     {
 927              		.loc 1 423 5 view .LVU258
 423:Core/Src/stm32l4xx_hal_msp.c ****     {
 928              		.loc 1 423 9 is_stmt 0 view .LVU259
 929 0148 09A8     		add	r0, sp, #36
 930 014a FFF7FEFF 		bl	HAL_RCCEx_PeriphCLKConfig
 931              	.LVL61:
 423:Core/Src/stm32l4xx_hal_msp.c ****     {
 932              		.loc 1 423 8 discriminator 1 view .LVU260
 933 014e 50BB     		cbnz	r0, .L71
 934              	.L61:
 429:Core/Src/stm32l4xx_hal_msp.c **** 
 935              		.loc 1 429 5 is_stmt 1 view .LVU261
 936              	.LBB13:
 429:Core/Src/stm32l4xx_hal_msp.c **** 
 937              		.loc 1 429 5 view .LVU262
 429:Core/Src/stm32l4xx_hal_msp.c **** 
 938              		.loc 1 429 5 view .LVU263
 939 0150 304B     		ldr	r3, .L73+16
 940 0152 9A6D     		ldr	r2, [r3, #88]
 941 0154 42F40032 		orr	r2, r2, #131072
 942 0158 9A65     		str	r2, [r3, #88]
 429:Core/Src/stm32l4xx_hal_msp.c **** 
 943              		.loc 1 429 5 view .LVU264
 944 015a 9A6D     		ldr	r2, [r3, #88]
 945 015c 02F40032 		and	r2, r2, #131072
 946 0160 0592     		str	r2, [sp, #20]
 429:Core/Src/stm32l4xx_hal_msp.c **** 
 947              		.loc 1 429 5 view .LVU265
 948 0162 059A     		ldr	r2, [sp, #20]
 949              	.LBE13:
 429:Core/Src/stm32l4xx_hal_msp.c **** 
ARM GAS  /tmp/cc0cTHVu.s 			page 29


 950              		.loc 1 429 5 view .LVU266
 431:Core/Src/stm32l4xx_hal_msp.c ****     /**USART2 GPIO Configuration
 951              		.loc 1 431 5 view .LVU267
 952              	.LBB14:
 431:Core/Src/stm32l4xx_hal_msp.c ****     /**USART2 GPIO Configuration
 953              		.loc 1 431 5 view .LVU268
 431:Core/Src/stm32l4xx_hal_msp.c ****     /**USART2 GPIO Configuration
 954              		.loc 1 431 5 view .LVU269
 955 0164 DA6C     		ldr	r2, [r3, #76]
 956 0166 42F00102 		orr	r2, r2, #1
 957 016a DA64     		str	r2, [r3, #76]
 431:Core/Src/stm32l4xx_hal_msp.c ****     /**USART2 GPIO Configuration
 958              		.loc 1 431 5 view .LVU270
 959 016c DB6C     		ldr	r3, [r3, #76]
 960 016e 03F00103 		and	r3, r3, #1
 961 0172 0693     		str	r3, [sp, #24]
 431:Core/Src/stm32l4xx_hal_msp.c ****     /**USART2 GPIO Configuration
 962              		.loc 1 431 5 view .LVU271
 963 0174 069B     		ldr	r3, [sp, #24]
 964              	.LBE14:
 431:Core/Src/stm32l4xx_hal_msp.c ****     /**USART2 GPIO Configuration
 965              		.loc 1 431 5 view .LVU272
 436:Core/Src/stm32l4xx_hal_msp.c ****     GPIO_InitStruct.Mode = GPIO_MODE_AF_PP;
 966              		.loc 1 436 5 view .LVU273
 436:Core/Src/stm32l4xx_hal_msp.c ****     GPIO_InitStruct.Mode = GPIO_MODE_AF_PP;
 967              		.loc 1 436 25 is_stmt 0 view .LVU274
 968 0176 0C23     		movs	r3, #12
 969 0178 2B93     		str	r3, [sp, #172]
 437:Core/Src/stm32l4xx_hal_msp.c ****     GPIO_InitStruct.Pull = GPIO_NOPULL;
 970              		.loc 1 437 5 is_stmt 1 view .LVU275
 437:Core/Src/stm32l4xx_hal_msp.c ****     GPIO_InitStruct.Pull = GPIO_NOPULL;
 971              		.loc 1 437 26 is_stmt 0 view .LVU276
 972 017a 0223     		movs	r3, #2
 973 017c 2C93     		str	r3, [sp, #176]
 438:Core/Src/stm32l4xx_hal_msp.c ****     GPIO_InitStruct.Speed = GPIO_SPEED_FREQ_VERY_HIGH;
 974              		.loc 1 438 5 is_stmt 1 view .LVU277
 438:Core/Src/stm32l4xx_hal_msp.c ****     GPIO_InitStruct.Speed = GPIO_SPEED_FREQ_VERY_HIGH;
 975              		.loc 1 438 26 is_stmt 0 view .LVU278
 976 017e 0023     		movs	r3, #0
 977 0180 2D93     		str	r3, [sp, #180]
 439:Core/Src/stm32l4xx_hal_msp.c ****     GPIO_InitStruct.Alternate = GPIO_AF7_USART2;
 978              		.loc 1 439 5 is_stmt 1 view .LVU279
 439:Core/Src/stm32l4xx_hal_msp.c ****     GPIO_InitStruct.Alternate = GPIO_AF7_USART2;
 979              		.loc 1 439 27 is_stmt 0 view .LVU280
 980 0182 0323     		movs	r3, #3
 981 0184 2E93     		str	r3, [sp, #184]
 440:Core/Src/stm32l4xx_hal_msp.c ****     HAL_GPIO_Init(GPIOA, &GPIO_InitStruct);
 982              		.loc 1 440 5 is_stmt 1 view .LVU281
 440:Core/Src/stm32l4xx_hal_msp.c ****     HAL_GPIO_Init(GPIOA, &GPIO_InitStruct);
 983              		.loc 1 440 31 is_stmt 0 view .LVU282
 984 0186 0723     		movs	r3, #7
 985 0188 2F93     		str	r3, [sp, #188]
 441:Core/Src/stm32l4xx_hal_msp.c **** 
 986              		.loc 1 441 5 is_stmt 1 view .LVU283
 987 018a 2BA9     		add	r1, sp, #172
 988 018c 4FF09040 		mov	r0, #1207959552
 989 0190 FFF7FEFF 		bl	HAL_GPIO_Init
ARM GAS  /tmp/cc0cTHVu.s 			page 30


 990              	.LVL62:
 444:Core/Src/stm32l4xx_hal_msp.c ****     HAL_NVIC_EnableIRQ(USART2_IRQn);
 991              		.loc 1 444 5 view .LVU284
 992 0194 0022     		movs	r2, #0
 993 0196 1146     		mov	r1, r2
 994 0198 2620     		movs	r0, #38
 995 019a FFF7FEFF 		bl	HAL_NVIC_SetPriority
 996              	.LVL63:
 445:Core/Src/stm32l4xx_hal_msp.c ****     /* USER CODE BEGIN USART2_MspInit 1 */
 997              		.loc 1 445 5 view .LVU285
 998 019e 2620     		movs	r0, #38
 999 01a0 FFF7FEFF 		bl	HAL_NVIC_EnableIRQ
 1000              	.LVL64:
 1001 01a4 49E7     		b	.L53
 1002              	.L71:
 425:Core/Src/stm32l4xx_hal_msp.c ****     }
 1003              		.loc 1 425 7 view .LVU286
 1004 01a6 FFF7FEFF 		bl	Error_Handler
 1005              	.LVL65:
 1006 01aa D1E7     		b	.L61
 1007              	.L67:
 458:Core/Src/stm32l4xx_hal_msp.c ****     PeriphClkInit.Usart3ClockSelection = RCC_USART3CLKSOURCE_PCLK1;
 1008              		.loc 1 458 5 view .LVU287
 458:Core/Src/stm32l4xx_hal_msp.c ****     PeriphClkInit.Usart3ClockSelection = RCC_USART3CLKSOURCE_PCLK1;
 1009              		.loc 1 458 40 is_stmt 0 view .LVU288
 1010 01ac 0423     		movs	r3, #4
 1011 01ae 0993     		str	r3, [sp, #36]
 459:Core/Src/stm32l4xx_hal_msp.c ****     if (HAL_RCCEx_PeriphCLKConfig(&PeriphClkInit) != HAL_OK)
 1012              		.loc 1 459 5 is_stmt 1 view .LVU289
 460:Core/Src/stm32l4xx_hal_msp.c ****     {
 1013              		.loc 1 460 5 view .LVU290
 460:Core/Src/stm32l4xx_hal_msp.c ****     {
 1014              		.loc 1 460 9 is_stmt 0 view .LVU291
 1015 01b0 09A8     		add	r0, sp, #36
 1016 01b2 FFF7FEFF 		bl	HAL_RCCEx_PeriphCLKConfig
 1017              	.LVL66:
 460:Core/Src/stm32l4xx_hal_msp.c ****     {
 1018              		.loc 1 460 8 discriminator 1 view .LVU292
 1019 01b6 08BB     		cbnz	r0, .L72
 1020              	.L62:
 466:Core/Src/stm32l4xx_hal_msp.c **** 
 1021              		.loc 1 466 5 is_stmt 1 view .LVU293
 1022              	.LBB15:
 466:Core/Src/stm32l4xx_hal_msp.c **** 
 1023              		.loc 1 466 5 view .LVU294
 466:Core/Src/stm32l4xx_hal_msp.c **** 
 1024              		.loc 1 466 5 view .LVU295
 1025 01b8 164B     		ldr	r3, .L73+16
 1026 01ba 9A6D     		ldr	r2, [r3, #88]
 1027 01bc 42F48022 		orr	r2, r2, #262144
 1028 01c0 9A65     		str	r2, [r3, #88]
 466:Core/Src/stm32l4xx_hal_msp.c **** 
 1029              		.loc 1 466 5 view .LVU296
 1030 01c2 9A6D     		ldr	r2, [r3, #88]
 1031 01c4 02F48022 		and	r2, r2, #262144
 1032 01c8 0792     		str	r2, [sp, #28]
 466:Core/Src/stm32l4xx_hal_msp.c **** 
ARM GAS  /tmp/cc0cTHVu.s 			page 31


 1033              		.loc 1 466 5 view .LVU297
 1034 01ca 079A     		ldr	r2, [sp, #28]
 1035              	.LBE15:
 466:Core/Src/stm32l4xx_hal_msp.c **** 
 1036              		.loc 1 466 5 view .LVU298
 468:Core/Src/stm32l4xx_hal_msp.c ****     /**USART3 GPIO Configuration
 1037              		.loc 1 468 5 view .LVU299
 1038              	.LBB16:
 468:Core/Src/stm32l4xx_hal_msp.c ****     /**USART3 GPIO Configuration
 1039              		.loc 1 468 5 view .LVU300
 468:Core/Src/stm32l4xx_hal_msp.c ****     /**USART3 GPIO Configuration
 1040              		.loc 1 468 5 view .LVU301
 1041 01cc DA6C     		ldr	r2, [r3, #76]
 1042 01ce 42F00402 		orr	r2, r2, #4
 1043 01d2 DA64     		str	r2, [r3, #76]
 468:Core/Src/stm32l4xx_hal_msp.c ****     /**USART3 GPIO Configuration
 1044              		.loc 1 468 5 view .LVU302
 1045 01d4 DB6C     		ldr	r3, [r3, #76]
 1046 01d6 03F00403 		and	r3, r3, #4
 1047 01da 0893     		str	r3, [sp, #32]
 468:Core/Src/stm32l4xx_hal_msp.c ****     /**USART3 GPIO Configuration
 1048              		.loc 1 468 5 view .LVU303
 1049 01dc 089B     		ldr	r3, [sp, #32]
 1050              	.LBE16:
 468:Core/Src/stm32l4xx_hal_msp.c ****     /**USART3 GPIO Configuration
 1051              		.loc 1 468 5 view .LVU304
 473:Core/Src/stm32l4xx_hal_msp.c ****     GPIO_InitStruct.Mode = GPIO_MODE_AF_PP;
 1052              		.loc 1 473 5 view .LVU305
 473:Core/Src/stm32l4xx_hal_msp.c ****     GPIO_InitStruct.Mode = GPIO_MODE_AF_PP;
 1053              		.loc 1 473 25 is_stmt 0 view .LVU306
 1054 01de 3023     		movs	r3, #48
 1055 01e0 2B93     		str	r3, [sp, #172]
 474:Core/Src/stm32l4xx_hal_msp.c ****     GPIO_InitStruct.Pull = GPIO_NOPULL;
 1056              		.loc 1 474 5 is_stmt 1 view .LVU307
 474:Core/Src/stm32l4xx_hal_msp.c ****     GPIO_InitStruct.Pull = GPIO_NOPULL;
 1057              		.loc 1 474 26 is_stmt 0 view .LVU308
 1058 01e2 0223     		movs	r3, #2
 1059 01e4 2C93     		str	r3, [sp, #176]
 475:Core/Src/stm32l4xx_hal_msp.c ****     GPIO_InitStruct.Speed = GPIO_SPEED_FREQ_VERY_HIGH;
 1060              		.loc 1 475 5 is_stmt 1 view .LVU309
 475:Core/Src/stm32l4xx_hal_msp.c ****     GPIO_InitStruct.Speed = GPIO_SPEED_FREQ_VERY_HIGH;
 1061              		.loc 1 475 26 is_stmt 0 view .LVU310
 1062 01e6 0023     		movs	r3, #0
 1063 01e8 2D93     		str	r3, [sp, #180]
 476:Core/Src/stm32l4xx_hal_msp.c ****     GPIO_InitStruct.Alternate = GPIO_AF7_USART3;
 1064              		.loc 1 476 5 is_stmt 1 view .LVU311
 476:Core/Src/stm32l4xx_hal_msp.c ****     GPIO_InitStruct.Alternate = GPIO_AF7_USART3;
 1065              		.loc 1 476 27 is_stmt 0 view .LVU312
 1066 01ea 0323     		movs	r3, #3
 1067 01ec 2E93     		str	r3, [sp, #184]
 477:Core/Src/stm32l4xx_hal_msp.c ****     HAL_GPIO_Init(GPIOC, &GPIO_InitStruct);
 1068              		.loc 1 477 5 is_stmt 1 view .LVU313
 477:Core/Src/stm32l4xx_hal_msp.c ****     HAL_GPIO_Init(GPIOC, &GPIO_InitStruct);
 1069              		.loc 1 477 31 is_stmt 0 view .LVU314
 1070 01ee 0723     		movs	r3, #7
 1071 01f0 2F93     		str	r3, [sp, #188]
 478:Core/Src/stm32l4xx_hal_msp.c **** 
ARM GAS  /tmp/cc0cTHVu.s 			page 32


 1072              		.loc 1 478 5 is_stmt 1 view .LVU315
 1073 01f2 2BA9     		add	r1, sp, #172
 1074 01f4 0848     		ldr	r0, .L73+20
 1075 01f6 FFF7FEFF 		bl	HAL_GPIO_Init
 1076              	.LVL67:
 1077              		.loc 1 485 1 is_stmt 0 view .LVU316
 1078 01fa 1EE7     		b	.L53
 1079              	.L72:
 462:Core/Src/stm32l4xx_hal_msp.c ****     }
 1080              		.loc 1 462 7 is_stmt 1 view .LVU317
 1081 01fc FFF7FEFF 		bl	Error_Handler
 1082              	.LVL68:
 1083 0200 DAE7     		b	.L62
 1084              	.L74:
 1085 0202 00BF     		.align	2
 1086              	.L73:
 1087 0204 00800040 		.word	1073774592
 1088 0208 00380140 		.word	1073821696
 1089 020c 00440040 		.word	1073759232
 1090 0210 00480040 		.word	1073760256
 1091 0214 00100240 		.word	1073876992
 1092 0218 00080048 		.word	1207961600
 1093 021c 00000000 		.word	hdma_usart1_rx
 1094 0220 58000240 		.word	1073872984
 1095              		.cfi_endproc
 1096              	.LFE235:
 1098              		.section	.text.HAL_UART_MspDeInit,"ax",%progbits
 1099              		.align	1
 1100              		.global	HAL_UART_MspDeInit
 1101              		.syntax unified
 1102              		.thumb
 1103              		.thumb_func
 1105              	HAL_UART_MspDeInit:
 1106              	.LVL69:
 1107              	.LFB236:
 486:Core/Src/stm32l4xx_hal_msp.c **** 
 487:Core/Src/stm32l4xx_hal_msp.c **** /**
 488:Core/Src/stm32l4xx_hal_msp.c ****   * @brief UART MSP De-Initialization
 489:Core/Src/stm32l4xx_hal_msp.c ****   * This function freeze the hardware resources used in this example
 490:Core/Src/stm32l4xx_hal_msp.c ****   * @param huart: UART handle pointer
 491:Core/Src/stm32l4xx_hal_msp.c ****   * @retval None
 492:Core/Src/stm32l4xx_hal_msp.c ****   */
 493:Core/Src/stm32l4xx_hal_msp.c **** void HAL_UART_MspDeInit(UART_HandleTypeDef* huart)
 494:Core/Src/stm32l4xx_hal_msp.c **** {
 1108              		.loc 1 494 1 view -0
 1109              		.cfi_startproc
 1110              		@ args = 0, pretend = 0, frame = 0
 1111              		@ frame_needed = 0, uses_anonymous_args = 0
 1112              		.loc 1 494 1 is_stmt 0 view .LVU319
 1113 0000 10B5     		push	{r4, lr}
 1114              		.cfi_def_cfa_offset 8
 1115              		.cfi_offset 4, -8
 1116              		.cfi_offset 14, -4
 495:Core/Src/stm32l4xx_hal_msp.c ****   if(huart->Instance==LPUART1)
 1117              		.loc 1 495 3 is_stmt 1 view .LVU320
 1118              		.loc 1 495 11 is_stmt 0 view .LVU321
 1119 0002 0368     		ldr	r3, [r0]
ARM GAS  /tmp/cc0cTHVu.s 			page 33


 1120              		.loc 1 495 5 view .LVU322
 1121 0004 244A     		ldr	r2, .L85
 1122 0006 9342     		cmp	r3, r2
 1123 0008 0AD0     		beq	.L81
 1124 000a 0446     		mov	r4, r0
 496:Core/Src/stm32l4xx_hal_msp.c ****   {
 497:Core/Src/stm32l4xx_hal_msp.c ****     /* USER CODE BEGIN LPUART1_MspDeInit 0 */
 498:Core/Src/stm32l4xx_hal_msp.c **** 
 499:Core/Src/stm32l4xx_hal_msp.c ****     /* USER CODE END LPUART1_MspDeInit 0 */
 500:Core/Src/stm32l4xx_hal_msp.c ****     /* Peripheral clock disable */
 501:Core/Src/stm32l4xx_hal_msp.c ****     __HAL_RCC_LPUART1_CLK_DISABLE();
 502:Core/Src/stm32l4xx_hal_msp.c **** 
 503:Core/Src/stm32l4xx_hal_msp.c ****     /**LPUART1 GPIO Configuration
 504:Core/Src/stm32l4xx_hal_msp.c ****     PC0     ------> LPUART1_RX
 505:Core/Src/stm32l4xx_hal_msp.c ****     PC1     ------> LPUART1_TX
 506:Core/Src/stm32l4xx_hal_msp.c ****     */
 507:Core/Src/stm32l4xx_hal_msp.c ****     HAL_GPIO_DeInit(GPIOC, L0_LPUART1_RX_Pin|L0_LPUART1_TX_Pin);
 508:Core/Src/stm32l4xx_hal_msp.c **** 
 509:Core/Src/stm32l4xx_hal_msp.c ****     /* LPUART1 interrupt DeInit */
 510:Core/Src/stm32l4xx_hal_msp.c ****     HAL_NVIC_DisableIRQ(LPUART1_IRQn);
 511:Core/Src/stm32l4xx_hal_msp.c ****     /* USER CODE BEGIN LPUART1_MspDeInit 1 */
 512:Core/Src/stm32l4xx_hal_msp.c **** 
 513:Core/Src/stm32l4xx_hal_msp.c ****     /* USER CODE END LPUART1_MspDeInit 1 */
 514:Core/Src/stm32l4xx_hal_msp.c ****   }
 515:Core/Src/stm32l4xx_hal_msp.c ****   else if(huart->Instance==USART1)
 1125              		.loc 1 515 8 is_stmt 1 view .LVU323
 1126              		.loc 1 515 10 is_stmt 0 view .LVU324
 1127 000c 234A     		ldr	r2, .L85+4
 1128 000e 9342     		cmp	r3, r2
 1129 0010 14D0     		beq	.L82
 516:Core/Src/stm32l4xx_hal_msp.c ****   {
 517:Core/Src/stm32l4xx_hal_msp.c ****     /* USER CODE BEGIN USART1_MspDeInit 0 */
 518:Core/Src/stm32l4xx_hal_msp.c **** 
 519:Core/Src/stm32l4xx_hal_msp.c ****     /* USER CODE END USART1_MspDeInit 0 */
 520:Core/Src/stm32l4xx_hal_msp.c ****     /* Peripheral clock disable */
 521:Core/Src/stm32l4xx_hal_msp.c ****     __HAL_RCC_USART1_CLK_DISABLE();
 522:Core/Src/stm32l4xx_hal_msp.c **** 
 523:Core/Src/stm32l4xx_hal_msp.c ****     /**USART1 GPIO Configuration
 524:Core/Src/stm32l4xx_hal_msp.c ****     PA9     ------> USART1_TX
 525:Core/Src/stm32l4xx_hal_msp.c ****     PA10     ------> USART1_RX
 526:Core/Src/stm32l4xx_hal_msp.c ****     */
 527:Core/Src/stm32l4xx_hal_msp.c ****     HAL_GPIO_DeInit(GPIOA, D_USART_TX_Pin|D_USART_RX_Pin);
 528:Core/Src/stm32l4xx_hal_msp.c **** 
 529:Core/Src/stm32l4xx_hal_msp.c ****     /* USART1 DMA DeInit */
 530:Core/Src/stm32l4xx_hal_msp.c ****     HAL_DMA_DeInit(huart->hdmarx);
 531:Core/Src/stm32l4xx_hal_msp.c **** 
 532:Core/Src/stm32l4xx_hal_msp.c ****     /* USART1 interrupt DeInit */
 533:Core/Src/stm32l4xx_hal_msp.c ****     HAL_NVIC_DisableIRQ(USART1_IRQn);
 534:Core/Src/stm32l4xx_hal_msp.c ****     /* USER CODE BEGIN USART1_MspDeInit 1 */
 535:Core/Src/stm32l4xx_hal_msp.c **** 
 536:Core/Src/stm32l4xx_hal_msp.c ****     /* USER CODE END USART1_MspDeInit 1 */
 537:Core/Src/stm32l4xx_hal_msp.c ****   }
 538:Core/Src/stm32l4xx_hal_msp.c ****   else if(huart->Instance==USART2)
 1130              		.loc 1 538 8 is_stmt 1 view .LVU325
 1131              		.loc 1 538 10 is_stmt 0 view .LVU326
 1132 0012 234A     		ldr	r2, .L85+8
 1133 0014 9342     		cmp	r3, r2
ARM GAS  /tmp/cc0cTHVu.s 			page 34


 1134 0016 24D0     		beq	.L83
 539:Core/Src/stm32l4xx_hal_msp.c ****   {
 540:Core/Src/stm32l4xx_hal_msp.c ****     /* USER CODE BEGIN USART2_MspDeInit 0 */
 541:Core/Src/stm32l4xx_hal_msp.c **** 
 542:Core/Src/stm32l4xx_hal_msp.c ****     /* USER CODE END USART2_MspDeInit 0 */
 543:Core/Src/stm32l4xx_hal_msp.c ****     /* Peripheral clock disable */
 544:Core/Src/stm32l4xx_hal_msp.c ****     __HAL_RCC_USART2_CLK_DISABLE();
 545:Core/Src/stm32l4xx_hal_msp.c **** 
 546:Core/Src/stm32l4xx_hal_msp.c ****     /**USART2 GPIO Configuration
 547:Core/Src/stm32l4xx_hal_msp.c ****     PA2     ------> USART2_TX
 548:Core/Src/stm32l4xx_hal_msp.c ****     PA3     ------> USART2_RX
 549:Core/Src/stm32l4xx_hal_msp.c ****     */
 550:Core/Src/stm32l4xx_hal_msp.c ****     HAL_GPIO_DeInit(GPIOA, Wi_USART2_TX_Pin|Wi_USART2_RX_Pin);
 551:Core/Src/stm32l4xx_hal_msp.c **** 
 552:Core/Src/stm32l4xx_hal_msp.c ****     /* USART2 interrupt DeInit */
 553:Core/Src/stm32l4xx_hal_msp.c ****     HAL_NVIC_DisableIRQ(USART2_IRQn);
 554:Core/Src/stm32l4xx_hal_msp.c ****     /* USER CODE BEGIN USART2_MspDeInit 1 */
 555:Core/Src/stm32l4xx_hal_msp.c **** 
 556:Core/Src/stm32l4xx_hal_msp.c ****     /* USER CODE END USART2_MspDeInit 1 */
 557:Core/Src/stm32l4xx_hal_msp.c ****   }
 558:Core/Src/stm32l4xx_hal_msp.c ****   else if(huart->Instance==USART3)
 1135              		.loc 1 558 8 is_stmt 1 view .LVU327
 1136              		.loc 1 558 10 is_stmt 0 view .LVU328
 1137 0018 224A     		ldr	r2, .L85+12
 1138 001a 9342     		cmp	r3, r2
 1139 001c 30D0     		beq	.L84
 1140              	.LVL70:
 1141              	.L75:
 559:Core/Src/stm32l4xx_hal_msp.c ****   {
 560:Core/Src/stm32l4xx_hal_msp.c ****     /* USER CODE BEGIN USART3_MspDeInit 0 */
 561:Core/Src/stm32l4xx_hal_msp.c **** 
 562:Core/Src/stm32l4xx_hal_msp.c ****     /* USER CODE END USART3_MspDeInit 0 */
 563:Core/Src/stm32l4xx_hal_msp.c ****     /* Peripheral clock disable */
 564:Core/Src/stm32l4xx_hal_msp.c ****     __HAL_RCC_USART3_CLK_DISABLE();
 565:Core/Src/stm32l4xx_hal_msp.c **** 
 566:Core/Src/stm32l4xx_hal_msp.c ****     /**USART3 GPIO Configuration
 567:Core/Src/stm32l4xx_hal_msp.c ****     PC4     ------> USART3_TX
 568:Core/Src/stm32l4xx_hal_msp.c ****     PC5     ------> USART3_RX
 569:Core/Src/stm32l4xx_hal_msp.c ****     */
 570:Core/Src/stm32l4xx_hal_msp.c ****     HAL_GPIO_DeInit(GPIOC, Wi_USART3_TX_Pin|Wi_USART3_RX_Pin);
 571:Core/Src/stm32l4xx_hal_msp.c **** 
 572:Core/Src/stm32l4xx_hal_msp.c ****     /* USER CODE BEGIN USART3_MspDeInit 1 */
 573:Core/Src/stm32l4xx_hal_msp.c **** 
 574:Core/Src/stm32l4xx_hal_msp.c ****     /* USER CODE END USART3_MspDeInit 1 */
 575:Core/Src/stm32l4xx_hal_msp.c ****   }
 576:Core/Src/stm32l4xx_hal_msp.c **** 
 577:Core/Src/stm32l4xx_hal_msp.c **** }
 1142              		.loc 1 577 1 view .LVU329
 1143 001e 10BD     		pop	{r4, pc}
 1144              	.LVL71:
 1145              	.L81:
 501:Core/Src/stm32l4xx_hal_msp.c **** 
 1146              		.loc 1 501 5 is_stmt 1 view .LVU330
 1147 0020 02F5C832 		add	r2, r2, #102400
 1148 0024 D36D     		ldr	r3, [r2, #92]
 1149 0026 23F00103 		bic	r3, r3, #1
 1150 002a D365     		str	r3, [r2, #92]
ARM GAS  /tmp/cc0cTHVu.s 			page 35


 507:Core/Src/stm32l4xx_hal_msp.c **** 
 1151              		.loc 1 507 5 view .LVU331
 1152 002c 0321     		movs	r1, #3
 1153 002e 1E48     		ldr	r0, .L85+16
 1154              	.LVL72:
 507:Core/Src/stm32l4xx_hal_msp.c **** 
 1155              		.loc 1 507 5 is_stmt 0 view .LVU332
 1156 0030 FFF7FEFF 		bl	HAL_GPIO_DeInit
 1157              	.LVL73:
 510:Core/Src/stm32l4xx_hal_msp.c ****     /* USER CODE BEGIN LPUART1_MspDeInit 1 */
 1158              		.loc 1 510 5 is_stmt 1 view .LVU333
 1159 0034 4620     		movs	r0, #70
 1160 0036 FFF7FEFF 		bl	HAL_NVIC_DisableIRQ
 1161              	.LVL74:
 1162 003a F0E7     		b	.L75
 1163              	.LVL75:
 1164              	.L82:
 521:Core/Src/stm32l4xx_hal_msp.c **** 
 1165              		.loc 1 521 5 view .LVU334
 1166 003c 02F55842 		add	r2, r2, #55296
 1167 0040 136E     		ldr	r3, [r2, #96]
 1168 0042 23F48043 		bic	r3, r3, #16384
 1169 0046 1366     		str	r3, [r2, #96]
 527:Core/Src/stm32l4xx_hal_msp.c **** 
 1170              		.loc 1 527 5 view .LVU335
 1171 0048 4FF4C061 		mov	r1, #1536
 1172 004c 4FF09040 		mov	r0, #1207959552
 1173              	.LVL76:
 527:Core/Src/stm32l4xx_hal_msp.c **** 
 1174              		.loc 1 527 5 is_stmt 0 view .LVU336
 1175 0050 FFF7FEFF 		bl	HAL_GPIO_DeInit
 1176              	.LVL77:
 530:Core/Src/stm32l4xx_hal_msp.c **** 
 1177              		.loc 1 530 5 is_stmt 1 view .LVU337
 1178 0054 606F     		ldr	r0, [r4, #116]
 1179 0056 FFF7FEFF 		bl	HAL_DMA_DeInit
 1180              	.LVL78:
 533:Core/Src/stm32l4xx_hal_msp.c ****     /* USER CODE BEGIN USART1_MspDeInit 1 */
 1181              		.loc 1 533 5 view .LVU338
 1182 005a 2520     		movs	r0, #37
 1183 005c FFF7FEFF 		bl	HAL_NVIC_DisableIRQ
 1184              	.LVL79:
 1185 0060 DDE7     		b	.L75
 1186              	.LVL80:
 1187              	.L83:
 544:Core/Src/stm32l4xx_hal_msp.c **** 
 1188              		.loc 1 544 5 view .LVU339
 1189 0062 02F5E632 		add	r2, r2, #117760
 1190 0066 936D     		ldr	r3, [r2, #88]
 1191 0068 23F40033 		bic	r3, r3, #131072
 1192 006c 9365     		str	r3, [r2, #88]
 550:Core/Src/stm32l4xx_hal_msp.c **** 
 1193              		.loc 1 550 5 view .LVU340
 1194 006e 0C21     		movs	r1, #12
 1195 0070 4FF09040 		mov	r0, #1207959552
 1196              	.LVL81:
 550:Core/Src/stm32l4xx_hal_msp.c **** 
ARM GAS  /tmp/cc0cTHVu.s 			page 36


 1197              		.loc 1 550 5 is_stmt 0 view .LVU341
 1198 0074 FFF7FEFF 		bl	HAL_GPIO_DeInit
 1199              	.LVL82:
 553:Core/Src/stm32l4xx_hal_msp.c ****     /* USER CODE BEGIN USART2_MspDeInit 1 */
 1200              		.loc 1 553 5 is_stmt 1 view .LVU342
 1201 0078 2620     		movs	r0, #38
 1202 007a FFF7FEFF 		bl	HAL_NVIC_DisableIRQ
 1203              	.LVL83:
 1204 007e CEE7     		b	.L75
 1205              	.LVL84:
 1206              	.L84:
 564:Core/Src/stm32l4xx_hal_msp.c **** 
 1207              		.loc 1 564 5 view .LVU343
 1208 0080 02F5E432 		add	r2, r2, #116736
 1209 0084 936D     		ldr	r3, [r2, #88]
 1210 0086 23F48023 		bic	r3, r3, #262144
 1211 008a 9365     		str	r3, [r2, #88]
 570:Core/Src/stm32l4xx_hal_msp.c **** 
 1212              		.loc 1 570 5 view .LVU344
 1213 008c 3021     		movs	r1, #48
 1214 008e 0648     		ldr	r0, .L85+16
 1215              	.LVL85:
 570:Core/Src/stm32l4xx_hal_msp.c **** 
 1216              		.loc 1 570 5 is_stmt 0 view .LVU345
 1217 0090 FFF7FEFF 		bl	HAL_GPIO_DeInit
 1218              	.LVL86:
 1219              		.loc 1 577 1 view .LVU346
 1220 0094 C3E7     		b	.L75
 1221              	.L86:
 1222 0096 00BF     		.align	2
 1223              	.L85:
 1224 0098 00800040 		.word	1073774592
 1225 009c 00380140 		.word	1073821696
 1226 00a0 00440040 		.word	1073759232
 1227 00a4 00480040 		.word	1073760256
 1228 00a8 00080048 		.word	1207961600
 1229              		.cfi_endproc
 1230              	.LFE236:
 1232              		.section	.text.HAL_RTC_MspInit,"ax",%progbits
 1233              		.align	1
 1234              		.global	HAL_RTC_MspInit
 1235              		.syntax unified
 1236              		.thumb
 1237              		.thumb_func
 1239              	HAL_RTC_MspInit:
 1240              	.LVL87:
 1241              	.LFB237:
 578:Core/Src/stm32l4xx_hal_msp.c **** 
 579:Core/Src/stm32l4xx_hal_msp.c **** /**
 580:Core/Src/stm32l4xx_hal_msp.c ****   * @brief RTC MSP Initialization
 581:Core/Src/stm32l4xx_hal_msp.c ****   * This function configures the hardware resources used in this example
 582:Core/Src/stm32l4xx_hal_msp.c ****   * @param hrtc: RTC handle pointer
 583:Core/Src/stm32l4xx_hal_msp.c ****   * @retval None
 584:Core/Src/stm32l4xx_hal_msp.c ****   */
 585:Core/Src/stm32l4xx_hal_msp.c **** void HAL_RTC_MspInit(RTC_HandleTypeDef* hrtc)
 586:Core/Src/stm32l4xx_hal_msp.c **** {
 1242              		.loc 1 586 1 is_stmt 1 view -0
ARM GAS  /tmp/cc0cTHVu.s 			page 37


 1243              		.cfi_startproc
 1244              		@ args = 0, pretend = 0, frame = 136
 1245              		@ frame_needed = 0, uses_anonymous_args = 0
 1246              		.loc 1 586 1 is_stmt 0 view .LVU348
 1247 0000 10B5     		push	{r4, lr}
 1248              		.cfi_def_cfa_offset 8
 1249              		.cfi_offset 4, -8
 1250              		.cfi_offset 14, -4
 1251 0002 A2B0     		sub	sp, sp, #136
 1252              		.cfi_def_cfa_offset 144
 1253 0004 0446     		mov	r4, r0
 587:Core/Src/stm32l4xx_hal_msp.c ****   RCC_PeriphCLKInitTypeDef PeriphClkInit = {0};
 1254              		.loc 1 587 3 is_stmt 1 view .LVU349
 1255              		.loc 1 587 28 is_stmt 0 view .LVU350
 1256 0006 8822     		movs	r2, #136
 1257 0008 0021     		movs	r1, #0
 1258 000a 6846     		mov	r0, sp
 1259              	.LVL88:
 1260              		.loc 1 587 28 view .LVU351
 1261 000c FFF7FEFF 		bl	memset
 1262              	.LVL89:
 588:Core/Src/stm32l4xx_hal_msp.c ****   if(hrtc->Instance==RTC)
 1263              		.loc 1 588 3 is_stmt 1 view .LVU352
 1264              		.loc 1 588 10 is_stmt 0 view .LVU353
 1265 0010 2268     		ldr	r2, [r4]
 1266              		.loc 1 588 5 view .LVU354
 1267 0012 114B     		ldr	r3, .L93
 1268 0014 9A42     		cmp	r2, r3
 1269 0016 01D0     		beq	.L91
 1270              	.L87:
 589:Core/Src/stm32l4xx_hal_msp.c ****   {
 590:Core/Src/stm32l4xx_hal_msp.c ****     /* USER CODE BEGIN RTC_MspInit 0 */
 591:Core/Src/stm32l4xx_hal_msp.c **** 
 592:Core/Src/stm32l4xx_hal_msp.c ****     /* USER CODE END RTC_MspInit 0 */
 593:Core/Src/stm32l4xx_hal_msp.c **** 
 594:Core/Src/stm32l4xx_hal_msp.c ****   /** Initializes the peripherals clock
 595:Core/Src/stm32l4xx_hal_msp.c ****   */
 596:Core/Src/stm32l4xx_hal_msp.c ****     PeriphClkInit.PeriphClockSelection = RCC_PERIPHCLK_RTC;
 597:Core/Src/stm32l4xx_hal_msp.c ****     PeriphClkInit.RTCClockSelection = RCC_RTCCLKSOURCE_LSI;
 598:Core/Src/stm32l4xx_hal_msp.c ****     if (HAL_RCCEx_PeriphCLKConfig(&PeriphClkInit) != HAL_OK)
 599:Core/Src/stm32l4xx_hal_msp.c ****     {
 600:Core/Src/stm32l4xx_hal_msp.c ****       Error_Handler();
 601:Core/Src/stm32l4xx_hal_msp.c ****     }
 602:Core/Src/stm32l4xx_hal_msp.c **** 
 603:Core/Src/stm32l4xx_hal_msp.c ****     /* Peripheral clock enable */
 604:Core/Src/stm32l4xx_hal_msp.c ****     __HAL_RCC_RTC_ENABLE();
 605:Core/Src/stm32l4xx_hal_msp.c ****     /* RTC interrupt Init */
 606:Core/Src/stm32l4xx_hal_msp.c ****     HAL_NVIC_SetPriority(RTC_WKUP_IRQn, 0, 0);
 607:Core/Src/stm32l4xx_hal_msp.c ****     HAL_NVIC_EnableIRQ(RTC_WKUP_IRQn);
 608:Core/Src/stm32l4xx_hal_msp.c ****     /* USER CODE BEGIN RTC_MspInit 1 */
 609:Core/Src/stm32l4xx_hal_msp.c **** 
 610:Core/Src/stm32l4xx_hal_msp.c ****     /* USER CODE END RTC_MspInit 1 */
 611:Core/Src/stm32l4xx_hal_msp.c **** 
 612:Core/Src/stm32l4xx_hal_msp.c ****   }
 613:Core/Src/stm32l4xx_hal_msp.c **** 
 614:Core/Src/stm32l4xx_hal_msp.c **** }
 1271              		.loc 1 614 1 view .LVU355
ARM GAS  /tmp/cc0cTHVu.s 			page 38


 1272 0018 22B0     		add	sp, sp, #136
 1273              		.cfi_remember_state
 1274              		.cfi_def_cfa_offset 8
 1275              		@ sp needed
 1276 001a 10BD     		pop	{r4, pc}
 1277              	.LVL90:
 1278              	.L91:
 1279              		.cfi_restore_state
 596:Core/Src/stm32l4xx_hal_msp.c ****     PeriphClkInit.RTCClockSelection = RCC_RTCCLKSOURCE_LSI;
 1280              		.loc 1 596 5 is_stmt 1 view .LVU356
 596:Core/Src/stm32l4xx_hal_msp.c ****     PeriphClkInit.RTCClockSelection = RCC_RTCCLKSOURCE_LSI;
 1281              		.loc 1 596 40 is_stmt 0 view .LVU357
 1282 001c 4FF40033 		mov	r3, #131072
 1283 0020 0093     		str	r3, [sp]
 597:Core/Src/stm32l4xx_hal_msp.c ****     if (HAL_RCCEx_PeriphCLKConfig(&PeriphClkInit) != HAL_OK)
 1284              		.loc 1 597 5 is_stmt 1 view .LVU358
 597:Core/Src/stm32l4xx_hal_msp.c ****     if (HAL_RCCEx_PeriphCLKConfig(&PeriphClkInit) != HAL_OK)
 1285              		.loc 1 597 37 is_stmt 0 view .LVU359
 1286 0022 4FF40073 		mov	r3, #512
 1287 0026 2193     		str	r3, [sp, #132]
 598:Core/Src/stm32l4xx_hal_msp.c ****     {
 1288              		.loc 1 598 5 is_stmt 1 view .LVU360
 598:Core/Src/stm32l4xx_hal_msp.c ****     {
 1289              		.loc 1 598 9 is_stmt 0 view .LVU361
 1290 0028 6846     		mov	r0, sp
 1291 002a FFF7FEFF 		bl	HAL_RCCEx_PeriphCLKConfig
 1292              	.LVL91:
 598:Core/Src/stm32l4xx_hal_msp.c ****     {
 1293              		.loc 1 598 8 discriminator 1 view .LVU362
 1294 002e 78B9     		cbnz	r0, .L92
 1295              	.L89:
 604:Core/Src/stm32l4xx_hal_msp.c ****     /* RTC interrupt Init */
 1296              		.loc 1 604 5 is_stmt 1 view .LVU363
 1297 0030 0A4A     		ldr	r2, .L93+4
 1298 0032 D2F89030 		ldr	r3, [r2, #144]
 1299 0036 43F40043 		orr	r3, r3, #32768
 1300 003a C2F89030 		str	r3, [r2, #144]
 606:Core/Src/stm32l4xx_hal_msp.c ****     HAL_NVIC_EnableIRQ(RTC_WKUP_IRQn);
 1301              		.loc 1 606 5 view .LVU364
 1302 003e 0022     		movs	r2, #0
 1303 0040 1146     		mov	r1, r2
 1304 0042 0320     		movs	r0, #3
 1305 0044 FFF7FEFF 		bl	HAL_NVIC_SetPriority
 1306              	.LVL92:
 607:Core/Src/stm32l4xx_hal_msp.c ****     /* USER CODE BEGIN RTC_MspInit 1 */
 1307              		.loc 1 607 5 view .LVU365
 1308 0048 0320     		movs	r0, #3
 1309 004a FFF7FEFF 		bl	HAL_NVIC_EnableIRQ
 1310              	.LVL93:
 1311              		.loc 1 614 1 is_stmt 0 view .LVU366
 1312 004e E3E7     		b	.L87
 1313              	.L92:
 600:Core/Src/stm32l4xx_hal_msp.c ****     }
 1314              		.loc 1 600 7 is_stmt 1 view .LVU367
 1315 0050 FFF7FEFF 		bl	Error_Handler
 1316              	.LVL94:
 1317 0054 ECE7     		b	.L89
ARM GAS  /tmp/cc0cTHVu.s 			page 39


 1318              	.L94:
 1319 0056 00BF     		.align	2
 1320              	.L93:
 1321 0058 00280040 		.word	1073752064
 1322 005c 00100240 		.word	1073876992
 1323              		.cfi_endproc
 1324              	.LFE237:
 1326              		.section	.text.HAL_RTC_MspDeInit,"ax",%progbits
 1327              		.align	1
 1328              		.global	HAL_RTC_MspDeInit
 1329              		.syntax unified
 1330              		.thumb
 1331              		.thumb_func
 1333              	HAL_RTC_MspDeInit:
 1334              	.LVL95:
 1335              	.LFB238:
 615:Core/Src/stm32l4xx_hal_msp.c **** 
 616:Core/Src/stm32l4xx_hal_msp.c **** /**
 617:Core/Src/stm32l4xx_hal_msp.c ****   * @brief RTC MSP De-Initialization
 618:Core/Src/stm32l4xx_hal_msp.c ****   * This function freeze the hardware resources used in this example
 619:Core/Src/stm32l4xx_hal_msp.c ****   * @param hrtc: RTC handle pointer
 620:Core/Src/stm32l4xx_hal_msp.c ****   * @retval None
 621:Core/Src/stm32l4xx_hal_msp.c ****   */
 622:Core/Src/stm32l4xx_hal_msp.c **** void HAL_RTC_MspDeInit(RTC_HandleTypeDef* hrtc)
 623:Core/Src/stm32l4xx_hal_msp.c **** {
 1336              		.loc 1 623 1 view -0
 1337              		.cfi_startproc
 1338              		@ args = 0, pretend = 0, frame = 0
 1339              		@ frame_needed = 0, uses_anonymous_args = 0
 1340              		.loc 1 623 1 is_stmt 0 view .LVU369
 1341 0000 08B5     		push	{r3, lr}
 1342              		.cfi_def_cfa_offset 8
 1343              		.cfi_offset 3, -8
 1344              		.cfi_offset 14, -4
 624:Core/Src/stm32l4xx_hal_msp.c ****   if(hrtc->Instance==RTC)
 1345              		.loc 1 624 3 is_stmt 1 view .LVU370
 1346              		.loc 1 624 10 is_stmt 0 view .LVU371
 1347 0002 0268     		ldr	r2, [r0]
 1348              		.loc 1 624 5 view .LVU372
 1349 0004 074B     		ldr	r3, .L99
 1350 0006 9A42     		cmp	r2, r3
 1351 0008 00D0     		beq	.L98
 1352              	.LVL96:
 1353              	.L95:
 625:Core/Src/stm32l4xx_hal_msp.c ****   {
 626:Core/Src/stm32l4xx_hal_msp.c ****     /* USER CODE BEGIN RTC_MspDeInit 0 */
 627:Core/Src/stm32l4xx_hal_msp.c **** 
 628:Core/Src/stm32l4xx_hal_msp.c ****     /* USER CODE END RTC_MspDeInit 0 */
 629:Core/Src/stm32l4xx_hal_msp.c ****     /* Peripheral clock disable */
 630:Core/Src/stm32l4xx_hal_msp.c ****     __HAL_RCC_RTC_DISABLE();
 631:Core/Src/stm32l4xx_hal_msp.c **** 
 632:Core/Src/stm32l4xx_hal_msp.c ****     /* RTC interrupt DeInit */
 633:Core/Src/stm32l4xx_hal_msp.c ****     HAL_NVIC_DisableIRQ(RTC_WKUP_IRQn);
 634:Core/Src/stm32l4xx_hal_msp.c ****     /* USER CODE BEGIN RTC_MspDeInit 1 */
 635:Core/Src/stm32l4xx_hal_msp.c **** 
 636:Core/Src/stm32l4xx_hal_msp.c ****     /* USER CODE END RTC_MspDeInit 1 */
 637:Core/Src/stm32l4xx_hal_msp.c ****   }
ARM GAS  /tmp/cc0cTHVu.s 			page 40


 638:Core/Src/stm32l4xx_hal_msp.c **** 
 639:Core/Src/stm32l4xx_hal_msp.c **** }
 1354              		.loc 1 639 1 view .LVU373
 1355 000a 08BD     		pop	{r3, pc}
 1356              	.LVL97:
 1357              	.L98:
 630:Core/Src/stm32l4xx_hal_msp.c **** 
 1358              		.loc 1 630 5 is_stmt 1 view .LVU374
 1359 000c 064A     		ldr	r2, .L99+4
 1360 000e D2F89030 		ldr	r3, [r2, #144]
 1361 0012 23F40043 		bic	r3, r3, #32768
 1362 0016 C2F89030 		str	r3, [r2, #144]
 633:Core/Src/stm32l4xx_hal_msp.c ****     /* USER CODE BEGIN RTC_MspDeInit 1 */
 1363              		.loc 1 633 5 view .LVU375
 1364 001a 0320     		movs	r0, #3
 1365              	.LVL98:
 633:Core/Src/stm32l4xx_hal_msp.c ****     /* USER CODE BEGIN RTC_MspDeInit 1 */
 1366              		.loc 1 633 5 is_stmt 0 view .LVU376
 1367 001c FFF7FEFF 		bl	HAL_NVIC_DisableIRQ
 1368              	.LVL99:
 1369              		.loc 1 639 1 view .LVU377
 1370 0020 F3E7     		b	.L95
 1371              	.L100:
 1372 0022 00BF     		.align	2
 1373              	.L99:
 1374 0024 00280040 		.word	1073752064
 1375 0028 00100240 		.word	1073876992
 1376              		.cfi_endproc
 1377              	.LFE238:
 1379              		.section	.text.HAL_SD_MspInit,"ax",%progbits
 1380              		.align	1
 1381              		.global	HAL_SD_MspInit
 1382              		.syntax unified
 1383              		.thumb
 1384              		.thumb_func
 1386              	HAL_SD_MspInit:
 1387              	.LVL100:
 1388              	.LFB239:
 640:Core/Src/stm32l4xx_hal_msp.c **** 
 641:Core/Src/stm32l4xx_hal_msp.c **** /**
 642:Core/Src/stm32l4xx_hal_msp.c ****   * @brief SD MSP Initialization
 643:Core/Src/stm32l4xx_hal_msp.c ****   * This function configures the hardware resources used in this example
 644:Core/Src/stm32l4xx_hal_msp.c ****   * @param hsd: SD handle pointer
 645:Core/Src/stm32l4xx_hal_msp.c ****   * @retval None
 646:Core/Src/stm32l4xx_hal_msp.c ****   */
 647:Core/Src/stm32l4xx_hal_msp.c **** void HAL_SD_MspInit(SD_HandleTypeDef* hsd)
 648:Core/Src/stm32l4xx_hal_msp.c **** {
 1389              		.loc 1 648 1 is_stmt 1 view -0
 1390              		.cfi_startproc
 1391              		@ args = 0, pretend = 0, frame = 168
 1392              		@ frame_needed = 0, uses_anonymous_args = 0
 1393              		.loc 1 648 1 is_stmt 0 view .LVU379
 1394 0000 F0B5     		push	{r4, r5, r6, r7, lr}
 1395              		.cfi_def_cfa_offset 20
 1396              		.cfi_offset 4, -20
 1397              		.cfi_offset 5, -16
 1398              		.cfi_offset 6, -12
ARM GAS  /tmp/cc0cTHVu.s 			page 41


 1399              		.cfi_offset 7, -8
 1400              		.cfi_offset 14, -4
 1401 0002 ABB0     		sub	sp, sp, #172
 1402              		.cfi_def_cfa_offset 192
 1403 0004 0446     		mov	r4, r0
 649:Core/Src/stm32l4xx_hal_msp.c ****   GPIO_InitTypeDef GPIO_InitStruct = {0};
 1404              		.loc 1 649 3 is_stmt 1 view .LVU380
 1405              		.loc 1 649 20 is_stmt 0 view .LVU381
 1406 0006 0021     		movs	r1, #0
 1407 0008 2591     		str	r1, [sp, #148]
 1408 000a 2691     		str	r1, [sp, #152]
 1409 000c 2791     		str	r1, [sp, #156]
 1410 000e 2891     		str	r1, [sp, #160]
 1411 0010 2991     		str	r1, [sp, #164]
 650:Core/Src/stm32l4xx_hal_msp.c ****   RCC_PeriphCLKInitTypeDef PeriphClkInit = {0};
 1412              		.loc 1 650 3 is_stmt 1 view .LVU382
 1413              		.loc 1 650 28 is_stmt 0 view .LVU383
 1414 0012 8822     		movs	r2, #136
 1415 0014 03A8     		add	r0, sp, #12
 1416              	.LVL101:
 1417              		.loc 1 650 28 view .LVU384
 1418 0016 FFF7FEFF 		bl	memset
 1419              	.LVL102:
 651:Core/Src/stm32l4xx_hal_msp.c ****   if(hsd->Instance==SDMMC1)
 1420              		.loc 1 651 3 is_stmt 1 view .LVU385
 1421              		.loc 1 651 9 is_stmt 0 view .LVU386
 1422 001a 2268     		ldr	r2, [r4]
 1423              		.loc 1 651 5 view .LVU387
 1424 001c 4C4B     		ldr	r3, .L111
 1425 001e 9A42     		cmp	r2, r3
 1426 0020 01D0     		beq	.L107
 1427              	.L101:
 652:Core/Src/stm32l4xx_hal_msp.c ****   {
 653:Core/Src/stm32l4xx_hal_msp.c ****     /* USER CODE BEGIN SDMMC1_MspInit 0 */
 654:Core/Src/stm32l4xx_hal_msp.c **** 
 655:Core/Src/stm32l4xx_hal_msp.c ****     /* USER CODE END SDMMC1_MspInit 0 */
 656:Core/Src/stm32l4xx_hal_msp.c **** 
 657:Core/Src/stm32l4xx_hal_msp.c ****   /** Initializes the peripherals clock
 658:Core/Src/stm32l4xx_hal_msp.c ****   */
 659:Core/Src/stm32l4xx_hal_msp.c ****     PeriphClkInit.PeriphClockSelection = RCC_PERIPHCLK_SDMMC1;
 660:Core/Src/stm32l4xx_hal_msp.c ****     PeriphClkInit.Sdmmc1ClockSelection = RCC_SDMMC1CLKSOURCE_PLLSAI1;
 661:Core/Src/stm32l4xx_hal_msp.c ****     PeriphClkInit.PLLSAI1.PLLSAI1Source = RCC_PLLSOURCE_MSI;
 662:Core/Src/stm32l4xx_hal_msp.c ****     PeriphClkInit.PLLSAI1.PLLSAI1M = 1;
 663:Core/Src/stm32l4xx_hal_msp.c ****     PeriphClkInit.PLLSAI1.PLLSAI1N = 24;
 664:Core/Src/stm32l4xx_hal_msp.c ****     PeriphClkInit.PLLSAI1.PLLSAI1P = RCC_PLLP_DIV7;
 665:Core/Src/stm32l4xx_hal_msp.c ****     PeriphClkInit.PLLSAI1.PLLSAI1Q = RCC_PLLQ_DIV2;
 666:Core/Src/stm32l4xx_hal_msp.c ****     PeriphClkInit.PLLSAI1.PLLSAI1R = RCC_PLLR_DIV2;
 667:Core/Src/stm32l4xx_hal_msp.c ****     PeriphClkInit.PLLSAI1.PLLSAI1ClockOut = RCC_PLLSAI1_48M2CLK;
 668:Core/Src/stm32l4xx_hal_msp.c ****     if (HAL_RCCEx_PeriphCLKConfig(&PeriphClkInit) != HAL_OK)
 669:Core/Src/stm32l4xx_hal_msp.c ****     {
 670:Core/Src/stm32l4xx_hal_msp.c ****       Error_Handler();
 671:Core/Src/stm32l4xx_hal_msp.c ****     }
 672:Core/Src/stm32l4xx_hal_msp.c **** 
 673:Core/Src/stm32l4xx_hal_msp.c ****     /* Peripheral clock enable */
 674:Core/Src/stm32l4xx_hal_msp.c ****     __HAL_RCC_SDMMC1_CLK_ENABLE();
 675:Core/Src/stm32l4xx_hal_msp.c **** 
 676:Core/Src/stm32l4xx_hal_msp.c ****     __HAL_RCC_GPIOC_CLK_ENABLE();
ARM GAS  /tmp/cc0cTHVu.s 			page 42


 677:Core/Src/stm32l4xx_hal_msp.c ****     __HAL_RCC_GPIOD_CLK_ENABLE();
 678:Core/Src/stm32l4xx_hal_msp.c ****     /**SDMMC1 GPIO Configuration
 679:Core/Src/stm32l4xx_hal_msp.c ****     PC8     ------> SDMMC1_D0
 680:Core/Src/stm32l4xx_hal_msp.c ****     PC9     ------> SDMMC1_D1
 681:Core/Src/stm32l4xx_hal_msp.c ****     PC10     ------> SDMMC1_D2
 682:Core/Src/stm32l4xx_hal_msp.c ****     PC11     ------> SDMMC1_D3
 683:Core/Src/stm32l4xx_hal_msp.c ****     PC12     ------> SDMMC1_CK
 684:Core/Src/stm32l4xx_hal_msp.c ****     PD2     ------> SDMMC1_CMD
 685:Core/Src/stm32l4xx_hal_msp.c ****     */
 686:Core/Src/stm32l4xx_hal_msp.c ****     GPIO_InitStruct.Pin = GPIO_PIN_8|GPIO_PIN_9|GPIO_PIN_10|GPIO_PIN_11
 687:Core/Src/stm32l4xx_hal_msp.c ****                           |GPIO_PIN_12;
 688:Core/Src/stm32l4xx_hal_msp.c ****     GPIO_InitStruct.Mode = GPIO_MODE_AF_PP;
 689:Core/Src/stm32l4xx_hal_msp.c ****     GPIO_InitStruct.Pull = GPIO_NOPULL;
 690:Core/Src/stm32l4xx_hal_msp.c ****     GPIO_InitStruct.Speed = GPIO_SPEED_FREQ_VERY_HIGH;
 691:Core/Src/stm32l4xx_hal_msp.c ****     GPIO_InitStruct.Alternate = GPIO_AF12_SDMMC1;
 692:Core/Src/stm32l4xx_hal_msp.c ****     HAL_GPIO_Init(GPIOC, &GPIO_InitStruct);
 693:Core/Src/stm32l4xx_hal_msp.c **** 
 694:Core/Src/stm32l4xx_hal_msp.c ****     GPIO_InitStruct.Pin = GPIO_PIN_2;
 695:Core/Src/stm32l4xx_hal_msp.c ****     GPIO_InitStruct.Mode = GPIO_MODE_AF_PP;
 696:Core/Src/stm32l4xx_hal_msp.c ****     GPIO_InitStruct.Pull = GPIO_NOPULL;
 697:Core/Src/stm32l4xx_hal_msp.c ****     GPIO_InitStruct.Speed = GPIO_SPEED_FREQ_VERY_HIGH;
 698:Core/Src/stm32l4xx_hal_msp.c ****     GPIO_InitStruct.Alternate = GPIO_AF12_SDMMC1;
 699:Core/Src/stm32l4xx_hal_msp.c ****     HAL_GPIO_Init(GPIOD, &GPIO_InitStruct);
 700:Core/Src/stm32l4xx_hal_msp.c **** 
 701:Core/Src/stm32l4xx_hal_msp.c ****     /* SDMMC1 DMA Init */
 702:Core/Src/stm32l4xx_hal_msp.c ****     /* SDMMC1_RX Init */
 703:Core/Src/stm32l4xx_hal_msp.c ****     hdma_sdmmc1_rx.Instance = DMA2_Channel4;
 704:Core/Src/stm32l4xx_hal_msp.c ****     hdma_sdmmc1_rx.Init.Request = DMA_REQUEST_7;
 705:Core/Src/stm32l4xx_hal_msp.c ****     hdma_sdmmc1_rx.Init.Direction = DMA_PERIPH_TO_MEMORY;
 706:Core/Src/stm32l4xx_hal_msp.c ****     hdma_sdmmc1_rx.Init.PeriphInc = DMA_PINC_DISABLE;
 707:Core/Src/stm32l4xx_hal_msp.c ****     hdma_sdmmc1_rx.Init.MemInc = DMA_MINC_ENABLE;
 708:Core/Src/stm32l4xx_hal_msp.c ****     hdma_sdmmc1_rx.Init.PeriphDataAlignment = DMA_PDATAALIGN_WORD;
 709:Core/Src/stm32l4xx_hal_msp.c ****     hdma_sdmmc1_rx.Init.MemDataAlignment = DMA_MDATAALIGN_WORD;
 710:Core/Src/stm32l4xx_hal_msp.c ****     hdma_sdmmc1_rx.Init.Mode = DMA_NORMAL;
 711:Core/Src/stm32l4xx_hal_msp.c ****     hdma_sdmmc1_rx.Init.Priority = DMA_PRIORITY_VERY_HIGH;
 712:Core/Src/stm32l4xx_hal_msp.c ****     if (HAL_DMA_Init(&hdma_sdmmc1_rx) != HAL_OK)
 713:Core/Src/stm32l4xx_hal_msp.c ****     {
 714:Core/Src/stm32l4xx_hal_msp.c ****       Error_Handler();
 715:Core/Src/stm32l4xx_hal_msp.c ****     }
 716:Core/Src/stm32l4xx_hal_msp.c **** 
 717:Core/Src/stm32l4xx_hal_msp.c ****     __HAL_LINKDMA(hsd,hdmarx,hdma_sdmmc1_rx);
 718:Core/Src/stm32l4xx_hal_msp.c **** 
 719:Core/Src/stm32l4xx_hal_msp.c ****     /* SDMMC1_TX Init */
 720:Core/Src/stm32l4xx_hal_msp.c ****     hdma_sdmmc1_tx.Instance = DMA2_Channel5;
 721:Core/Src/stm32l4xx_hal_msp.c ****     hdma_sdmmc1_tx.Init.Request = DMA_REQUEST_7;
 722:Core/Src/stm32l4xx_hal_msp.c ****     hdma_sdmmc1_tx.Init.Direction = DMA_MEMORY_TO_PERIPH;
 723:Core/Src/stm32l4xx_hal_msp.c ****     hdma_sdmmc1_tx.Init.PeriphInc = DMA_PINC_DISABLE;
 724:Core/Src/stm32l4xx_hal_msp.c ****     hdma_sdmmc1_tx.Init.MemInc = DMA_MINC_ENABLE;
 725:Core/Src/stm32l4xx_hal_msp.c ****     hdma_sdmmc1_tx.Init.PeriphDataAlignment = DMA_PDATAALIGN_WORD;
 726:Core/Src/stm32l4xx_hal_msp.c ****     hdma_sdmmc1_tx.Init.MemDataAlignment = DMA_MDATAALIGN_WORD;
 727:Core/Src/stm32l4xx_hal_msp.c ****     hdma_sdmmc1_tx.Init.Mode = DMA_NORMAL;
 728:Core/Src/stm32l4xx_hal_msp.c ****     hdma_sdmmc1_tx.Init.Priority = DMA_PRIORITY_VERY_HIGH;
 729:Core/Src/stm32l4xx_hal_msp.c ****     if (HAL_DMA_Init(&hdma_sdmmc1_tx) != HAL_OK)
 730:Core/Src/stm32l4xx_hal_msp.c ****     {
 731:Core/Src/stm32l4xx_hal_msp.c ****       Error_Handler();
 732:Core/Src/stm32l4xx_hal_msp.c ****     }
 733:Core/Src/stm32l4xx_hal_msp.c **** 
ARM GAS  /tmp/cc0cTHVu.s 			page 43


 734:Core/Src/stm32l4xx_hal_msp.c ****     __HAL_LINKDMA(hsd,hdmatx,hdma_sdmmc1_tx);
 735:Core/Src/stm32l4xx_hal_msp.c **** 
 736:Core/Src/stm32l4xx_hal_msp.c ****     /* SDMMC1 interrupt Init */
 737:Core/Src/stm32l4xx_hal_msp.c ****     HAL_NVIC_SetPriority(SDMMC1_IRQn, 0, 0);
 738:Core/Src/stm32l4xx_hal_msp.c ****     HAL_NVIC_EnableIRQ(SDMMC1_IRQn);
 739:Core/Src/stm32l4xx_hal_msp.c ****     /* USER CODE BEGIN SDMMC1_MspInit 1 */
 740:Core/Src/stm32l4xx_hal_msp.c **** 
 741:Core/Src/stm32l4xx_hal_msp.c ****     /* USER CODE END SDMMC1_MspInit 1 */
 742:Core/Src/stm32l4xx_hal_msp.c **** 
 743:Core/Src/stm32l4xx_hal_msp.c ****   }
 744:Core/Src/stm32l4xx_hal_msp.c **** 
 745:Core/Src/stm32l4xx_hal_msp.c **** }
 1428              		.loc 1 745 1 view .LVU388
 1429 0022 2BB0     		add	sp, sp, #172
 1430              		.cfi_remember_state
 1431              		.cfi_def_cfa_offset 20
 1432              		@ sp needed
 1433 0024 F0BD     		pop	{r4, r5, r6, r7, pc}
 1434              	.LVL103:
 1435              	.L107:
 1436              		.cfi_restore_state
 659:Core/Src/stm32l4xx_hal_msp.c ****     PeriphClkInit.Sdmmc1ClockSelection = RCC_SDMMC1CLKSOURCE_PLLSAI1;
 1437              		.loc 1 659 5 is_stmt 1 view .LVU389
 659:Core/Src/stm32l4xx_hal_msp.c ****     PeriphClkInit.Sdmmc1ClockSelection = RCC_SDMMC1CLKSOURCE_PLLSAI1;
 1438              		.loc 1 659 40 is_stmt 0 view .LVU390
 1439 0026 4FF40023 		mov	r3, #524288
 1440 002a 0393     		str	r3, [sp, #12]
 660:Core/Src/stm32l4xx_hal_msp.c ****     PeriphClkInit.PLLSAI1.PLLSAI1Source = RCC_PLLSOURCE_MSI;
 1441              		.loc 1 660 5 is_stmt 1 view .LVU391
 660:Core/Src/stm32l4xx_hal_msp.c ****     PeriphClkInit.PLLSAI1.PLLSAI1Source = RCC_PLLSOURCE_MSI;
 1442              		.loc 1 660 40 is_stmt 0 view .LVU392
 1443 002c 4FF08063 		mov	r3, #67108864
 1444 0030 1F93     		str	r3, [sp, #124]
 661:Core/Src/stm32l4xx_hal_msp.c ****     PeriphClkInit.PLLSAI1.PLLSAI1M = 1;
 1445              		.loc 1 661 5 is_stmt 1 view .LVU393
 661:Core/Src/stm32l4xx_hal_msp.c ****     PeriphClkInit.PLLSAI1.PLLSAI1M = 1;
 1446              		.loc 1 661 41 is_stmt 0 view .LVU394
 1447 0032 0123     		movs	r3, #1
 1448 0034 0493     		str	r3, [sp, #16]
 662:Core/Src/stm32l4xx_hal_msp.c ****     PeriphClkInit.PLLSAI1.PLLSAI1N = 24;
 1449              		.loc 1 662 5 is_stmt 1 view .LVU395
 662:Core/Src/stm32l4xx_hal_msp.c ****     PeriphClkInit.PLLSAI1.PLLSAI1N = 24;
 1450              		.loc 1 662 36 is_stmt 0 view .LVU396
 1451 0036 0593     		str	r3, [sp, #20]
 663:Core/Src/stm32l4xx_hal_msp.c ****     PeriphClkInit.PLLSAI1.PLLSAI1P = RCC_PLLP_DIV7;
 1452              		.loc 1 663 5 is_stmt 1 view .LVU397
 663:Core/Src/stm32l4xx_hal_msp.c ****     PeriphClkInit.PLLSAI1.PLLSAI1P = RCC_PLLP_DIV7;
 1453              		.loc 1 663 36 is_stmt 0 view .LVU398
 1454 0038 1823     		movs	r3, #24
 1455 003a 0693     		str	r3, [sp, #24]
 664:Core/Src/stm32l4xx_hal_msp.c ****     PeriphClkInit.PLLSAI1.PLLSAI1Q = RCC_PLLQ_DIV2;
 1456              		.loc 1 664 5 is_stmt 1 view .LVU399
 664:Core/Src/stm32l4xx_hal_msp.c ****     PeriphClkInit.PLLSAI1.PLLSAI1Q = RCC_PLLQ_DIV2;
 1457              		.loc 1 664 36 is_stmt 0 view .LVU400
 1458 003c 0723     		movs	r3, #7
 1459 003e 0793     		str	r3, [sp, #28]
 665:Core/Src/stm32l4xx_hal_msp.c ****     PeriphClkInit.PLLSAI1.PLLSAI1R = RCC_PLLR_DIV2;
ARM GAS  /tmp/cc0cTHVu.s 			page 44


 1460              		.loc 1 665 5 is_stmt 1 view .LVU401
 665:Core/Src/stm32l4xx_hal_msp.c ****     PeriphClkInit.PLLSAI1.PLLSAI1R = RCC_PLLR_DIV2;
 1461              		.loc 1 665 36 is_stmt 0 view .LVU402
 1462 0040 0223     		movs	r3, #2
 1463 0042 0893     		str	r3, [sp, #32]
 666:Core/Src/stm32l4xx_hal_msp.c ****     PeriphClkInit.PLLSAI1.PLLSAI1ClockOut = RCC_PLLSAI1_48M2CLK;
 1464              		.loc 1 666 5 is_stmt 1 view .LVU403
 666:Core/Src/stm32l4xx_hal_msp.c ****     PeriphClkInit.PLLSAI1.PLLSAI1ClockOut = RCC_PLLSAI1_48M2CLK;
 1465              		.loc 1 666 36 is_stmt 0 view .LVU404
 1466 0044 0993     		str	r3, [sp, #36]
 667:Core/Src/stm32l4xx_hal_msp.c ****     if (HAL_RCCEx_PeriphCLKConfig(&PeriphClkInit) != HAL_OK)
 1467              		.loc 1 667 5 is_stmt 1 view .LVU405
 667:Core/Src/stm32l4xx_hal_msp.c ****     if (HAL_RCCEx_PeriphCLKConfig(&PeriphClkInit) != HAL_OK)
 1468              		.loc 1 667 43 is_stmt 0 view .LVU406
 1469 0046 4FF48013 		mov	r3, #1048576
 1470 004a 0A93     		str	r3, [sp, #40]
 668:Core/Src/stm32l4xx_hal_msp.c ****     {
 1471              		.loc 1 668 5 is_stmt 1 view .LVU407
 668:Core/Src/stm32l4xx_hal_msp.c ****     {
 1472              		.loc 1 668 9 is_stmt 0 view .LVU408
 1473 004c 03A8     		add	r0, sp, #12
 1474 004e FFF7FEFF 		bl	HAL_RCCEx_PeriphCLKConfig
 1475              	.LVL104:
 668:Core/Src/stm32l4xx_hal_msp.c ****     {
 1476              		.loc 1 668 8 discriminator 1 view .LVU409
 1477 0052 0028     		cmp	r0, #0
 1478 0054 72D1     		bne	.L108
 1479              	.L103:
 674:Core/Src/stm32l4xx_hal_msp.c **** 
 1480              		.loc 1 674 5 is_stmt 1 view .LVU410
 1481              	.LBB17:
 674:Core/Src/stm32l4xx_hal_msp.c **** 
 1482              		.loc 1 674 5 view .LVU411
 674:Core/Src/stm32l4xx_hal_msp.c **** 
 1483              		.loc 1 674 5 view .LVU412
 1484 0056 3F4B     		ldr	r3, .L111+4
 1485 0058 1A6E     		ldr	r2, [r3, #96]
 1486 005a 42F48062 		orr	r2, r2, #1024
 1487 005e 1A66     		str	r2, [r3, #96]
 674:Core/Src/stm32l4xx_hal_msp.c **** 
 1488              		.loc 1 674 5 view .LVU413
 1489 0060 1A6E     		ldr	r2, [r3, #96]
 1490 0062 02F48062 		and	r2, r2, #1024
 1491 0066 0092     		str	r2, [sp]
 674:Core/Src/stm32l4xx_hal_msp.c **** 
 1492              		.loc 1 674 5 view .LVU414
 1493 0068 009A     		ldr	r2, [sp]
 1494              	.LBE17:
 674:Core/Src/stm32l4xx_hal_msp.c **** 
 1495              		.loc 1 674 5 view .LVU415
 676:Core/Src/stm32l4xx_hal_msp.c ****     __HAL_RCC_GPIOD_CLK_ENABLE();
 1496              		.loc 1 676 5 view .LVU416
 1497              	.LBB18:
 676:Core/Src/stm32l4xx_hal_msp.c ****     __HAL_RCC_GPIOD_CLK_ENABLE();
 1498              		.loc 1 676 5 view .LVU417
 676:Core/Src/stm32l4xx_hal_msp.c ****     __HAL_RCC_GPIOD_CLK_ENABLE();
 1499              		.loc 1 676 5 view .LVU418
ARM GAS  /tmp/cc0cTHVu.s 			page 45


 1500 006a DA6C     		ldr	r2, [r3, #76]
 1501 006c 42F00402 		orr	r2, r2, #4
 1502 0070 DA64     		str	r2, [r3, #76]
 676:Core/Src/stm32l4xx_hal_msp.c ****     __HAL_RCC_GPIOD_CLK_ENABLE();
 1503              		.loc 1 676 5 view .LVU419
 1504 0072 DA6C     		ldr	r2, [r3, #76]
 1505 0074 02F00402 		and	r2, r2, #4
 1506 0078 0192     		str	r2, [sp, #4]
 676:Core/Src/stm32l4xx_hal_msp.c ****     __HAL_RCC_GPIOD_CLK_ENABLE();
 1507              		.loc 1 676 5 view .LVU420
 1508 007a 019A     		ldr	r2, [sp, #4]
 1509              	.LBE18:
 676:Core/Src/stm32l4xx_hal_msp.c ****     __HAL_RCC_GPIOD_CLK_ENABLE();
 1510              		.loc 1 676 5 view .LVU421
 677:Core/Src/stm32l4xx_hal_msp.c ****     /**SDMMC1 GPIO Configuration
 1511              		.loc 1 677 5 view .LVU422
 1512              	.LBB19:
 677:Core/Src/stm32l4xx_hal_msp.c ****     /**SDMMC1 GPIO Configuration
 1513              		.loc 1 677 5 view .LVU423
 677:Core/Src/stm32l4xx_hal_msp.c ****     /**SDMMC1 GPIO Configuration
 1514              		.loc 1 677 5 view .LVU424
 1515 007c DA6C     		ldr	r2, [r3, #76]
 1516 007e 42F00802 		orr	r2, r2, #8
 1517 0082 DA64     		str	r2, [r3, #76]
 677:Core/Src/stm32l4xx_hal_msp.c ****     /**SDMMC1 GPIO Configuration
 1518              		.loc 1 677 5 view .LVU425
 1519 0084 DB6C     		ldr	r3, [r3, #76]
 1520 0086 03F00803 		and	r3, r3, #8
 1521 008a 0293     		str	r3, [sp, #8]
 677:Core/Src/stm32l4xx_hal_msp.c ****     /**SDMMC1 GPIO Configuration
 1522              		.loc 1 677 5 view .LVU426
 1523 008c 029B     		ldr	r3, [sp, #8]
 1524              	.LBE19:
 677:Core/Src/stm32l4xx_hal_msp.c ****     /**SDMMC1 GPIO Configuration
 1525              		.loc 1 677 5 view .LVU427
 686:Core/Src/stm32l4xx_hal_msp.c ****                           |GPIO_PIN_12;
 1526              		.loc 1 686 5 view .LVU428
 686:Core/Src/stm32l4xx_hal_msp.c ****                           |GPIO_PIN_12;
 1527              		.loc 1 686 25 is_stmt 0 view .LVU429
 1528 008e 4FF4F853 		mov	r3, #7936
 1529 0092 2593     		str	r3, [sp, #148]
 688:Core/Src/stm32l4xx_hal_msp.c ****     GPIO_InitStruct.Pull = GPIO_NOPULL;
 1530              		.loc 1 688 5 is_stmt 1 view .LVU430
 688:Core/Src/stm32l4xx_hal_msp.c ****     GPIO_InitStruct.Pull = GPIO_NOPULL;
 1531              		.loc 1 688 26 is_stmt 0 view .LVU431
 1532 0094 0226     		movs	r6, #2
 1533 0096 2696     		str	r6, [sp, #152]
 689:Core/Src/stm32l4xx_hal_msp.c ****     GPIO_InitStruct.Speed = GPIO_SPEED_FREQ_VERY_HIGH;
 1534              		.loc 1 689 5 is_stmt 1 view .LVU432
 689:Core/Src/stm32l4xx_hal_msp.c ****     GPIO_InitStruct.Speed = GPIO_SPEED_FREQ_VERY_HIGH;
 1535              		.loc 1 689 26 is_stmt 0 view .LVU433
 1536 0098 0025     		movs	r5, #0
 1537 009a 2795     		str	r5, [sp, #156]
 690:Core/Src/stm32l4xx_hal_msp.c ****     GPIO_InitStruct.Alternate = GPIO_AF12_SDMMC1;
 1538              		.loc 1 690 5 is_stmt 1 view .LVU434
 690:Core/Src/stm32l4xx_hal_msp.c ****     GPIO_InitStruct.Alternate = GPIO_AF12_SDMMC1;
 1539              		.loc 1 690 27 is_stmt 0 view .LVU435
ARM GAS  /tmp/cc0cTHVu.s 			page 46


 1540 009c 0327     		movs	r7, #3
 1541 009e 2897     		str	r7, [sp, #160]
 691:Core/Src/stm32l4xx_hal_msp.c ****     HAL_GPIO_Init(GPIOC, &GPIO_InitStruct);
 1542              		.loc 1 691 5 is_stmt 1 view .LVU436
 691:Core/Src/stm32l4xx_hal_msp.c ****     HAL_GPIO_Init(GPIOC, &GPIO_InitStruct);
 1543              		.loc 1 691 31 is_stmt 0 view .LVU437
 1544 00a0 0C23     		movs	r3, #12
 1545 00a2 2993     		str	r3, [sp, #164]
 692:Core/Src/stm32l4xx_hal_msp.c **** 
 1546              		.loc 1 692 5 is_stmt 1 view .LVU438
 1547 00a4 25A9     		add	r1, sp, #148
 1548 00a6 2C48     		ldr	r0, .L111+8
 1549 00a8 FFF7FEFF 		bl	HAL_GPIO_Init
 1550              	.LVL105:
 694:Core/Src/stm32l4xx_hal_msp.c ****     GPIO_InitStruct.Mode = GPIO_MODE_AF_PP;
 1551              		.loc 1 694 5 view .LVU439
 694:Core/Src/stm32l4xx_hal_msp.c ****     GPIO_InitStruct.Mode = GPIO_MODE_AF_PP;
 1552              		.loc 1 694 25 is_stmt 0 view .LVU440
 1553 00ac 0423     		movs	r3, #4
 1554 00ae 2593     		str	r3, [sp, #148]
 695:Core/Src/stm32l4xx_hal_msp.c ****     GPIO_InitStruct.Pull = GPIO_NOPULL;
 1555              		.loc 1 695 5 is_stmt 1 view .LVU441
 695:Core/Src/stm32l4xx_hal_msp.c ****     GPIO_InitStruct.Pull = GPIO_NOPULL;
 1556              		.loc 1 695 26 is_stmt 0 view .LVU442
 1557 00b0 2696     		str	r6, [sp, #152]
 696:Core/Src/stm32l4xx_hal_msp.c ****     GPIO_InitStruct.Speed = GPIO_SPEED_FREQ_VERY_HIGH;
 1558              		.loc 1 696 5 is_stmt 1 view .LVU443
 696:Core/Src/stm32l4xx_hal_msp.c ****     GPIO_InitStruct.Speed = GPIO_SPEED_FREQ_VERY_HIGH;
 1559              		.loc 1 696 26 is_stmt 0 view .LVU444
 1560 00b2 2795     		str	r5, [sp, #156]
 697:Core/Src/stm32l4xx_hal_msp.c ****     GPIO_InitStruct.Alternate = GPIO_AF12_SDMMC1;
 1561              		.loc 1 697 5 is_stmt 1 view .LVU445
 697:Core/Src/stm32l4xx_hal_msp.c ****     GPIO_InitStruct.Alternate = GPIO_AF12_SDMMC1;
 1562              		.loc 1 697 27 is_stmt 0 view .LVU446
 1563 00b4 2897     		str	r7, [sp, #160]
 698:Core/Src/stm32l4xx_hal_msp.c ****     HAL_GPIO_Init(GPIOD, &GPIO_InitStruct);
 1564              		.loc 1 698 5 is_stmt 1 view .LVU447
 698:Core/Src/stm32l4xx_hal_msp.c ****     HAL_GPIO_Init(GPIOD, &GPIO_InitStruct);
 1565              		.loc 1 698 31 is_stmt 0 view .LVU448
 1566 00b6 0C23     		movs	r3, #12
 1567 00b8 2993     		str	r3, [sp, #164]
 699:Core/Src/stm32l4xx_hal_msp.c **** 
 1568              		.loc 1 699 5 is_stmt 1 view .LVU449
 1569 00ba 25A9     		add	r1, sp, #148
 1570 00bc 2748     		ldr	r0, .L111+12
 1571 00be FFF7FEFF 		bl	HAL_GPIO_Init
 1572              	.LVL106:
 703:Core/Src/stm32l4xx_hal_msp.c ****     hdma_sdmmc1_rx.Init.Request = DMA_REQUEST_7;
 1573              		.loc 1 703 5 view .LVU450
 703:Core/Src/stm32l4xx_hal_msp.c ****     hdma_sdmmc1_rx.Init.Request = DMA_REQUEST_7;
 1574              		.loc 1 703 29 is_stmt 0 view .LVU451
 1575 00c2 2748     		ldr	r0, .L111+16
 1576 00c4 274B     		ldr	r3, .L111+20
 1577 00c6 0360     		str	r3, [r0]
 704:Core/Src/stm32l4xx_hal_msp.c ****     hdma_sdmmc1_rx.Init.Direction = DMA_PERIPH_TO_MEMORY;
 1578              		.loc 1 704 5 is_stmt 1 view .LVU452
 704:Core/Src/stm32l4xx_hal_msp.c ****     hdma_sdmmc1_rx.Init.Direction = DMA_PERIPH_TO_MEMORY;
ARM GAS  /tmp/cc0cTHVu.s 			page 47


 1579              		.loc 1 704 33 is_stmt 0 view .LVU453
 1580 00c8 0723     		movs	r3, #7
 1581 00ca 4360     		str	r3, [r0, #4]
 705:Core/Src/stm32l4xx_hal_msp.c ****     hdma_sdmmc1_rx.Init.PeriphInc = DMA_PINC_DISABLE;
 1582              		.loc 1 705 5 is_stmt 1 view .LVU454
 705:Core/Src/stm32l4xx_hal_msp.c ****     hdma_sdmmc1_rx.Init.PeriphInc = DMA_PINC_DISABLE;
 1583              		.loc 1 705 35 is_stmt 0 view .LVU455
 1584 00cc 8560     		str	r5, [r0, #8]
 706:Core/Src/stm32l4xx_hal_msp.c ****     hdma_sdmmc1_rx.Init.MemInc = DMA_MINC_ENABLE;
 1585              		.loc 1 706 5 is_stmt 1 view .LVU456
 706:Core/Src/stm32l4xx_hal_msp.c ****     hdma_sdmmc1_rx.Init.MemInc = DMA_MINC_ENABLE;
 1586              		.loc 1 706 35 is_stmt 0 view .LVU457
 1587 00ce C560     		str	r5, [r0, #12]
 707:Core/Src/stm32l4xx_hal_msp.c ****     hdma_sdmmc1_rx.Init.PeriphDataAlignment = DMA_PDATAALIGN_WORD;
 1588              		.loc 1 707 5 is_stmt 1 view .LVU458
 707:Core/Src/stm32l4xx_hal_msp.c ****     hdma_sdmmc1_rx.Init.PeriphDataAlignment = DMA_PDATAALIGN_WORD;
 1589              		.loc 1 707 32 is_stmt 0 view .LVU459
 1590 00d0 8023     		movs	r3, #128
 1591 00d2 0361     		str	r3, [r0, #16]
 708:Core/Src/stm32l4xx_hal_msp.c ****     hdma_sdmmc1_rx.Init.MemDataAlignment = DMA_MDATAALIGN_WORD;
 1592              		.loc 1 708 5 is_stmt 1 view .LVU460
 708:Core/Src/stm32l4xx_hal_msp.c ****     hdma_sdmmc1_rx.Init.MemDataAlignment = DMA_MDATAALIGN_WORD;
 1593              		.loc 1 708 45 is_stmt 0 view .LVU461
 1594 00d4 4FF40073 		mov	r3, #512
 1595 00d8 4361     		str	r3, [r0, #20]
 709:Core/Src/stm32l4xx_hal_msp.c ****     hdma_sdmmc1_rx.Init.Mode = DMA_NORMAL;
 1596              		.loc 1 709 5 is_stmt 1 view .LVU462
 709:Core/Src/stm32l4xx_hal_msp.c ****     hdma_sdmmc1_rx.Init.Mode = DMA_NORMAL;
 1597              		.loc 1 709 42 is_stmt 0 view .LVU463
 1598 00da 4FF40063 		mov	r3, #2048
 1599 00de 8361     		str	r3, [r0, #24]
 710:Core/Src/stm32l4xx_hal_msp.c ****     hdma_sdmmc1_rx.Init.Priority = DMA_PRIORITY_VERY_HIGH;
 1600              		.loc 1 710 5 is_stmt 1 view .LVU464
 710:Core/Src/stm32l4xx_hal_msp.c ****     hdma_sdmmc1_rx.Init.Priority = DMA_PRIORITY_VERY_HIGH;
 1601              		.loc 1 710 30 is_stmt 0 view .LVU465
 1602 00e0 C561     		str	r5, [r0, #28]
 711:Core/Src/stm32l4xx_hal_msp.c ****     if (HAL_DMA_Init(&hdma_sdmmc1_rx) != HAL_OK)
 1603              		.loc 1 711 5 is_stmt 1 view .LVU466
 711:Core/Src/stm32l4xx_hal_msp.c ****     if (HAL_DMA_Init(&hdma_sdmmc1_rx) != HAL_OK)
 1604              		.loc 1 711 34 is_stmt 0 view .LVU467
 1605 00e2 4FF44053 		mov	r3, #12288
 1606 00e6 0362     		str	r3, [r0, #32]
 712:Core/Src/stm32l4xx_hal_msp.c ****     {
 1607              		.loc 1 712 5 is_stmt 1 view .LVU468
 712:Core/Src/stm32l4xx_hal_msp.c ****     {
 1608              		.loc 1 712 9 is_stmt 0 view .LVU469
 1609 00e8 FFF7FEFF 		bl	HAL_DMA_Init
 1610              	.LVL107:
 712:Core/Src/stm32l4xx_hal_msp.c ****     {
 1611              		.loc 1 712 8 discriminator 1 view .LVU470
 1612 00ec 48BB     		cbnz	r0, .L109
 1613              	.L104:
 717:Core/Src/stm32l4xx_hal_msp.c **** 
 1614              		.loc 1 717 5 is_stmt 1 view .LVU471
 717:Core/Src/stm32l4xx_hal_msp.c **** 
 1615              		.loc 1 717 5 view .LVU472
 1616 00ee 1C4B     		ldr	r3, .L111+16
ARM GAS  /tmp/cc0cTHVu.s 			page 48


 1617 00f0 2364     		str	r3, [r4, #64]
 717:Core/Src/stm32l4xx_hal_msp.c **** 
 1618              		.loc 1 717 5 view .LVU473
 1619 00f2 9C62     		str	r4, [r3, #40]
 717:Core/Src/stm32l4xx_hal_msp.c **** 
 1620              		.loc 1 717 5 view .LVU474
 720:Core/Src/stm32l4xx_hal_msp.c ****     hdma_sdmmc1_tx.Init.Request = DMA_REQUEST_7;
 1621              		.loc 1 720 5 view .LVU475
 720:Core/Src/stm32l4xx_hal_msp.c ****     hdma_sdmmc1_tx.Init.Request = DMA_REQUEST_7;
 1622              		.loc 1 720 29 is_stmt 0 view .LVU476
 1623 00f4 1C48     		ldr	r0, .L111+24
 1624 00f6 1D4B     		ldr	r3, .L111+28
 1625 00f8 0360     		str	r3, [r0]
 721:Core/Src/stm32l4xx_hal_msp.c ****     hdma_sdmmc1_tx.Init.Direction = DMA_MEMORY_TO_PERIPH;
 1626              		.loc 1 721 5 is_stmt 1 view .LVU477
 721:Core/Src/stm32l4xx_hal_msp.c ****     hdma_sdmmc1_tx.Init.Direction = DMA_MEMORY_TO_PERIPH;
 1627              		.loc 1 721 33 is_stmt 0 view .LVU478
 1628 00fa 0723     		movs	r3, #7
 1629 00fc 4360     		str	r3, [r0, #4]
 722:Core/Src/stm32l4xx_hal_msp.c ****     hdma_sdmmc1_tx.Init.PeriphInc = DMA_PINC_DISABLE;
 1630              		.loc 1 722 5 is_stmt 1 view .LVU479
 722:Core/Src/stm32l4xx_hal_msp.c ****     hdma_sdmmc1_tx.Init.PeriphInc = DMA_PINC_DISABLE;
 1631              		.loc 1 722 35 is_stmt 0 view .LVU480
 1632 00fe 1023     		movs	r3, #16
 1633 0100 8360     		str	r3, [r0, #8]
 723:Core/Src/stm32l4xx_hal_msp.c ****     hdma_sdmmc1_tx.Init.MemInc = DMA_MINC_ENABLE;
 1634              		.loc 1 723 5 is_stmt 1 view .LVU481
 723:Core/Src/stm32l4xx_hal_msp.c ****     hdma_sdmmc1_tx.Init.MemInc = DMA_MINC_ENABLE;
 1635              		.loc 1 723 35 is_stmt 0 view .LVU482
 1636 0102 0023     		movs	r3, #0
 1637 0104 C360     		str	r3, [r0, #12]
 724:Core/Src/stm32l4xx_hal_msp.c ****     hdma_sdmmc1_tx.Init.PeriphDataAlignment = DMA_PDATAALIGN_WORD;
 1638              		.loc 1 724 5 is_stmt 1 view .LVU483
 724:Core/Src/stm32l4xx_hal_msp.c ****     hdma_sdmmc1_tx.Init.PeriphDataAlignment = DMA_PDATAALIGN_WORD;
 1639              		.loc 1 724 32 is_stmt 0 view .LVU484
 1640 0106 8022     		movs	r2, #128
 1641 0108 0261     		str	r2, [r0, #16]
 725:Core/Src/stm32l4xx_hal_msp.c ****     hdma_sdmmc1_tx.Init.MemDataAlignment = DMA_MDATAALIGN_WORD;
 1642              		.loc 1 725 5 is_stmt 1 view .LVU485
 725:Core/Src/stm32l4xx_hal_msp.c ****     hdma_sdmmc1_tx.Init.MemDataAlignment = DMA_MDATAALIGN_WORD;
 1643              		.loc 1 725 45 is_stmt 0 view .LVU486
 1644 010a 4FF40072 		mov	r2, #512
 1645 010e 4261     		str	r2, [r0, #20]
 726:Core/Src/stm32l4xx_hal_msp.c ****     hdma_sdmmc1_tx.Init.Mode = DMA_NORMAL;
 1646              		.loc 1 726 5 is_stmt 1 view .LVU487
 726:Core/Src/stm32l4xx_hal_msp.c ****     hdma_sdmmc1_tx.Init.Mode = DMA_NORMAL;
 1647              		.loc 1 726 42 is_stmt 0 view .LVU488
 1648 0110 4FF40062 		mov	r2, #2048
 1649 0114 8261     		str	r2, [r0, #24]
 727:Core/Src/stm32l4xx_hal_msp.c ****     hdma_sdmmc1_tx.Init.Priority = DMA_PRIORITY_VERY_HIGH;
 1650              		.loc 1 727 5 is_stmt 1 view .LVU489
 727:Core/Src/stm32l4xx_hal_msp.c ****     hdma_sdmmc1_tx.Init.Priority = DMA_PRIORITY_VERY_HIGH;
 1651              		.loc 1 727 30 is_stmt 0 view .LVU490
 1652 0116 C361     		str	r3, [r0, #28]
 728:Core/Src/stm32l4xx_hal_msp.c ****     if (HAL_DMA_Init(&hdma_sdmmc1_tx) != HAL_OK)
 1653              		.loc 1 728 5 is_stmt 1 view .LVU491
 728:Core/Src/stm32l4xx_hal_msp.c ****     if (HAL_DMA_Init(&hdma_sdmmc1_tx) != HAL_OK)
ARM GAS  /tmp/cc0cTHVu.s 			page 49


 1654              		.loc 1 728 34 is_stmt 0 view .LVU492
 1655 0118 4FF44053 		mov	r3, #12288
 1656 011c 0362     		str	r3, [r0, #32]
 729:Core/Src/stm32l4xx_hal_msp.c ****     {
 1657              		.loc 1 729 5 is_stmt 1 view .LVU493
 729:Core/Src/stm32l4xx_hal_msp.c ****     {
 1658              		.loc 1 729 9 is_stmt 0 view .LVU494
 1659 011e FFF7FEFF 		bl	HAL_DMA_Init
 1660              	.LVL108:
 729:Core/Src/stm32l4xx_hal_msp.c ****     {
 1661              		.loc 1 729 8 discriminator 1 view .LVU495
 1662 0122 88B9     		cbnz	r0, .L110
 1663              	.L105:
 734:Core/Src/stm32l4xx_hal_msp.c **** 
 1664              		.loc 1 734 5 is_stmt 1 view .LVU496
 734:Core/Src/stm32l4xx_hal_msp.c **** 
 1665              		.loc 1 734 5 view .LVU497
 1666 0124 104B     		ldr	r3, .L111+24
 1667 0126 E363     		str	r3, [r4, #60]
 734:Core/Src/stm32l4xx_hal_msp.c **** 
 1668              		.loc 1 734 5 view .LVU498
 1669 0128 9C62     		str	r4, [r3, #40]
 734:Core/Src/stm32l4xx_hal_msp.c **** 
 1670              		.loc 1 734 5 view .LVU499
 737:Core/Src/stm32l4xx_hal_msp.c ****     HAL_NVIC_EnableIRQ(SDMMC1_IRQn);
 1671              		.loc 1 737 5 view .LVU500
 1672 012a 0022     		movs	r2, #0
 1673 012c 1146     		mov	r1, r2
 1674 012e 3120     		movs	r0, #49
 1675 0130 FFF7FEFF 		bl	HAL_NVIC_SetPriority
 1676              	.LVL109:
 738:Core/Src/stm32l4xx_hal_msp.c ****     /* USER CODE BEGIN SDMMC1_MspInit 1 */
 1677              		.loc 1 738 5 view .LVU501
 1678 0134 3120     		movs	r0, #49
 1679 0136 FFF7FEFF 		bl	HAL_NVIC_EnableIRQ
 1680              	.LVL110:
 1681              		.loc 1 745 1 is_stmt 0 view .LVU502
 1682 013a 72E7     		b	.L101
 1683              	.L108:
 670:Core/Src/stm32l4xx_hal_msp.c ****     }
 1684              		.loc 1 670 7 is_stmt 1 view .LVU503
 1685 013c FFF7FEFF 		bl	Error_Handler
 1686              	.LVL111:
 1687 0140 89E7     		b	.L103
 1688              	.L109:
 714:Core/Src/stm32l4xx_hal_msp.c ****     }
 1689              		.loc 1 714 7 view .LVU504
 1690 0142 FFF7FEFF 		bl	Error_Handler
 1691              	.LVL112:
 1692 0146 D2E7     		b	.L104
 1693              	.L110:
 731:Core/Src/stm32l4xx_hal_msp.c ****     }
 1694              		.loc 1 731 7 view .LVU505
 1695 0148 FFF7FEFF 		bl	Error_Handler
 1696              	.LVL113:
 1697 014c EAE7     		b	.L105
 1698              	.L112:
ARM GAS  /tmp/cc0cTHVu.s 			page 50


 1699 014e 00BF     		.align	2
 1700              	.L111:
 1701 0150 00280140 		.word	1073817600
 1702 0154 00100240 		.word	1073876992
 1703 0158 00080048 		.word	1207961600
 1704 015c 000C0048 		.word	1207962624
 1705 0160 00000000 		.word	hdma_sdmmc1_rx
 1706 0164 44040240 		.word	1073873988
 1707 0168 00000000 		.word	hdma_sdmmc1_tx
 1708 016c 58040240 		.word	1073874008
 1709              		.cfi_endproc
 1710              	.LFE239:
 1712              		.section	.text.HAL_SD_MspDeInit,"ax",%progbits
 1713              		.align	1
 1714              		.global	HAL_SD_MspDeInit
 1715              		.syntax unified
 1716              		.thumb
 1717              		.thumb_func
 1719              	HAL_SD_MspDeInit:
 1720              	.LVL114:
 1721              	.LFB240:
 746:Core/Src/stm32l4xx_hal_msp.c **** 
 747:Core/Src/stm32l4xx_hal_msp.c **** /**
 748:Core/Src/stm32l4xx_hal_msp.c ****   * @brief SD MSP De-Initialization
 749:Core/Src/stm32l4xx_hal_msp.c ****   * This function freeze the hardware resources used in this example
 750:Core/Src/stm32l4xx_hal_msp.c ****   * @param hsd: SD handle pointer
 751:Core/Src/stm32l4xx_hal_msp.c ****   * @retval None
 752:Core/Src/stm32l4xx_hal_msp.c ****   */
 753:Core/Src/stm32l4xx_hal_msp.c **** void HAL_SD_MspDeInit(SD_HandleTypeDef* hsd)
 754:Core/Src/stm32l4xx_hal_msp.c **** {
 1722              		.loc 1 754 1 view -0
 1723              		.cfi_startproc
 1724              		@ args = 0, pretend = 0, frame = 0
 1725              		@ frame_needed = 0, uses_anonymous_args = 0
 755:Core/Src/stm32l4xx_hal_msp.c ****   if(hsd->Instance==SDMMC1)
 1726              		.loc 1 755 3 view .LVU507
 1727              		.loc 1 755 9 is_stmt 0 view .LVU508
 1728 0000 0268     		ldr	r2, [r0]
 1729              		.loc 1 755 5 view .LVU509
 1730 0002 0F4B     		ldr	r3, .L120
 1731 0004 9A42     		cmp	r2, r3
 1732 0006 00D0     		beq	.L119
 1733 0008 7047     		bx	lr
 1734              	.L119:
 754:Core/Src/stm32l4xx_hal_msp.c ****   if(hsd->Instance==SDMMC1)
 1735              		.loc 1 754 1 view .LVU510
 1736 000a 10B5     		push	{r4, lr}
 1737              		.cfi_def_cfa_offset 8
 1738              		.cfi_offset 4, -8
 1739              		.cfi_offset 14, -4
 1740 000c 0446     		mov	r4, r0
 756:Core/Src/stm32l4xx_hal_msp.c ****   {
 757:Core/Src/stm32l4xx_hal_msp.c ****     /* USER CODE BEGIN SDMMC1_MspDeInit 0 */
 758:Core/Src/stm32l4xx_hal_msp.c **** 
 759:Core/Src/stm32l4xx_hal_msp.c ****     /* USER CODE END SDMMC1_MspDeInit 0 */
 760:Core/Src/stm32l4xx_hal_msp.c ****     /* Peripheral clock disable */
 761:Core/Src/stm32l4xx_hal_msp.c ****     __HAL_RCC_SDMMC1_CLK_DISABLE();
ARM GAS  /tmp/cc0cTHVu.s 			page 51


 1741              		.loc 1 761 5 is_stmt 1 view .LVU511
 1742 000e 0D4A     		ldr	r2, .L120+4
 1743 0010 136E     		ldr	r3, [r2, #96]
 1744 0012 23F48063 		bic	r3, r3, #1024
 1745 0016 1366     		str	r3, [r2, #96]
 762:Core/Src/stm32l4xx_hal_msp.c **** 
 763:Core/Src/stm32l4xx_hal_msp.c ****     /**SDMMC1 GPIO Configuration
 764:Core/Src/stm32l4xx_hal_msp.c ****     PC8     ------> SDMMC1_D0
 765:Core/Src/stm32l4xx_hal_msp.c ****     PC9     ------> SDMMC1_D1
 766:Core/Src/stm32l4xx_hal_msp.c ****     PC10     ------> SDMMC1_D2
 767:Core/Src/stm32l4xx_hal_msp.c ****     PC11     ------> SDMMC1_D3
 768:Core/Src/stm32l4xx_hal_msp.c ****     PC12     ------> SDMMC1_CK
 769:Core/Src/stm32l4xx_hal_msp.c ****     PD2     ------> SDMMC1_CMD
 770:Core/Src/stm32l4xx_hal_msp.c ****     */
 771:Core/Src/stm32l4xx_hal_msp.c ****     HAL_GPIO_DeInit(GPIOC, GPIO_PIN_8|GPIO_PIN_9|GPIO_PIN_10|GPIO_PIN_11
 1746              		.loc 1 771 5 view .LVU512
 1747 0018 4FF4F851 		mov	r1, #7936
 1748 001c 0A48     		ldr	r0, .L120+8
 1749              	.LVL115:
 1750              		.loc 1 771 5 is_stmt 0 view .LVU513
 1751 001e FFF7FEFF 		bl	HAL_GPIO_DeInit
 1752              	.LVL116:
 772:Core/Src/stm32l4xx_hal_msp.c ****                           |GPIO_PIN_12);
 773:Core/Src/stm32l4xx_hal_msp.c **** 
 774:Core/Src/stm32l4xx_hal_msp.c ****     HAL_GPIO_DeInit(GPIOD, GPIO_PIN_2);
 1753              		.loc 1 774 5 is_stmt 1 view .LVU514
 1754 0022 0421     		movs	r1, #4
 1755 0024 0948     		ldr	r0, .L120+12
 1756 0026 FFF7FEFF 		bl	HAL_GPIO_DeInit
 1757              	.LVL117:
 775:Core/Src/stm32l4xx_hal_msp.c **** 
 776:Core/Src/stm32l4xx_hal_msp.c ****     /* SDMMC1 DMA DeInit */
 777:Core/Src/stm32l4xx_hal_msp.c ****     HAL_DMA_DeInit(hsd->hdmarx);
 1758              		.loc 1 777 5 view .LVU515
 1759 002a 206C     		ldr	r0, [r4, #64]
 1760 002c FFF7FEFF 		bl	HAL_DMA_DeInit
 1761              	.LVL118:
 778:Core/Src/stm32l4xx_hal_msp.c ****     HAL_DMA_DeInit(hsd->hdmatx);
 1762              		.loc 1 778 5 view .LVU516
 1763 0030 E06B     		ldr	r0, [r4, #60]
 1764 0032 FFF7FEFF 		bl	HAL_DMA_DeInit
 1765              	.LVL119:
 779:Core/Src/stm32l4xx_hal_msp.c **** 
 780:Core/Src/stm32l4xx_hal_msp.c ****     /* SDMMC1 interrupt DeInit */
 781:Core/Src/stm32l4xx_hal_msp.c ****     HAL_NVIC_DisableIRQ(SDMMC1_IRQn);
 1766              		.loc 1 781 5 view .LVU517
 1767 0036 3120     		movs	r0, #49
 1768 0038 FFF7FEFF 		bl	HAL_NVIC_DisableIRQ
 1769              	.LVL120:
 782:Core/Src/stm32l4xx_hal_msp.c ****     /* USER CODE BEGIN SDMMC1_MspDeInit 1 */
 783:Core/Src/stm32l4xx_hal_msp.c **** 
 784:Core/Src/stm32l4xx_hal_msp.c ****     /* USER CODE END SDMMC1_MspDeInit 1 */
 785:Core/Src/stm32l4xx_hal_msp.c ****   }
 786:Core/Src/stm32l4xx_hal_msp.c **** 
 787:Core/Src/stm32l4xx_hal_msp.c **** }
 1770              		.loc 1 787 1 is_stmt 0 view .LVU518
 1771 003c 10BD     		pop	{r4, pc}
ARM GAS  /tmp/cc0cTHVu.s 			page 52


 1772              	.LVL121:
 1773              	.L121:
 1774              		.loc 1 787 1 view .LVU519
 1775 003e 00BF     		.align	2
 1776              	.L120:
 1777 0040 00280140 		.word	1073817600
 1778 0044 00100240 		.word	1073876992
 1779 0048 00080048 		.word	1207961600
 1780 004c 000C0048 		.word	1207962624
 1781              		.cfi_endproc
 1782              	.LFE240:
 1784              		.section	.text.HAL_SPI_MspInit,"ax",%progbits
 1785              		.align	1
 1786              		.global	HAL_SPI_MspInit
 1787              		.syntax unified
 1788              		.thumb
 1789              		.thumb_func
 1791              	HAL_SPI_MspInit:
 1792              	.LVL122:
 1793              	.LFB241:
 788:Core/Src/stm32l4xx_hal_msp.c **** 
 789:Core/Src/stm32l4xx_hal_msp.c **** /**
 790:Core/Src/stm32l4xx_hal_msp.c ****   * @brief SPI MSP Initialization
 791:Core/Src/stm32l4xx_hal_msp.c ****   * This function configures the hardware resources used in this example
 792:Core/Src/stm32l4xx_hal_msp.c ****   * @param hspi: SPI handle pointer
 793:Core/Src/stm32l4xx_hal_msp.c ****   * @retval None
 794:Core/Src/stm32l4xx_hal_msp.c ****   */
 795:Core/Src/stm32l4xx_hal_msp.c **** void HAL_SPI_MspInit(SPI_HandleTypeDef* hspi)
 796:Core/Src/stm32l4xx_hal_msp.c **** {
 1794              		.loc 1 796 1 is_stmt 1 view -0
 1795              		.cfi_startproc
 1796              		@ args = 0, pretend = 0, frame = 32
 1797              		@ frame_needed = 0, uses_anonymous_args = 0
 1798              		.loc 1 796 1 is_stmt 0 view .LVU521
 1799 0000 00B5     		push	{lr}
 1800              		.cfi_def_cfa_offset 4
 1801              		.cfi_offset 14, -4
 1802 0002 89B0     		sub	sp, sp, #36
 1803              		.cfi_def_cfa_offset 40
 797:Core/Src/stm32l4xx_hal_msp.c ****   GPIO_InitTypeDef GPIO_InitStruct = {0};
 1804              		.loc 1 797 3 is_stmt 1 view .LVU522
 1805              		.loc 1 797 20 is_stmt 0 view .LVU523
 1806 0004 0023     		movs	r3, #0
 1807 0006 0393     		str	r3, [sp, #12]
 1808 0008 0493     		str	r3, [sp, #16]
 1809 000a 0593     		str	r3, [sp, #20]
 1810 000c 0693     		str	r3, [sp, #24]
 1811 000e 0793     		str	r3, [sp, #28]
 798:Core/Src/stm32l4xx_hal_msp.c ****   if(hspi->Instance==SPI1)
 1812              		.loc 1 798 3 is_stmt 1 view .LVU524
 1813              		.loc 1 798 10 is_stmt 0 view .LVU525
 1814 0010 0268     		ldr	r2, [r0]
 1815              		.loc 1 798 5 view .LVU526
 1816 0012 134B     		ldr	r3, .L126
 1817 0014 9A42     		cmp	r2, r3
 1818 0016 01D0     		beq	.L125
 1819              	.LVL123:
ARM GAS  /tmp/cc0cTHVu.s 			page 53


 1820              	.L122:
 799:Core/Src/stm32l4xx_hal_msp.c ****   {
 800:Core/Src/stm32l4xx_hal_msp.c ****     /* USER CODE BEGIN SPI1_MspInit 0 */
 801:Core/Src/stm32l4xx_hal_msp.c **** 
 802:Core/Src/stm32l4xx_hal_msp.c ****     /* USER CODE END SPI1_MspInit 0 */
 803:Core/Src/stm32l4xx_hal_msp.c ****     /* Peripheral clock enable */
 804:Core/Src/stm32l4xx_hal_msp.c ****     __HAL_RCC_SPI1_CLK_ENABLE();
 805:Core/Src/stm32l4xx_hal_msp.c **** 
 806:Core/Src/stm32l4xx_hal_msp.c ****     __HAL_RCC_GPIOA_CLK_ENABLE();
 807:Core/Src/stm32l4xx_hal_msp.c ****     /**SPI1 GPIO Configuration
 808:Core/Src/stm32l4xx_hal_msp.c ****     PA5     ------> SPI1_SCK
 809:Core/Src/stm32l4xx_hal_msp.c ****     PA6     ------> SPI1_MISO
 810:Core/Src/stm32l4xx_hal_msp.c ****     PA7     ------> SPI1_MOSI
 811:Core/Src/stm32l4xx_hal_msp.c ****     */
 812:Core/Src/stm32l4xx_hal_msp.c ****     GPIO_InitStruct.Pin = SD_SPI1_SCK_Pin|SD_SPI1_MISO_Pin|SD_SPI1_MOSI_Pin;
 813:Core/Src/stm32l4xx_hal_msp.c ****     GPIO_InitStruct.Mode = GPIO_MODE_AF_PP;
 814:Core/Src/stm32l4xx_hal_msp.c ****     GPIO_InitStruct.Pull = GPIO_NOPULL;
 815:Core/Src/stm32l4xx_hal_msp.c ****     GPIO_InitStruct.Speed = GPIO_SPEED_FREQ_VERY_HIGH;
 816:Core/Src/stm32l4xx_hal_msp.c ****     GPIO_InitStruct.Alternate = GPIO_AF5_SPI1;
 817:Core/Src/stm32l4xx_hal_msp.c ****     HAL_GPIO_Init(GPIOA, &GPIO_InitStruct);
 818:Core/Src/stm32l4xx_hal_msp.c **** 
 819:Core/Src/stm32l4xx_hal_msp.c ****     /* USER CODE BEGIN SPI1_MspInit 1 */
 820:Core/Src/stm32l4xx_hal_msp.c **** 
 821:Core/Src/stm32l4xx_hal_msp.c ****     /* USER CODE END SPI1_MspInit 1 */
 822:Core/Src/stm32l4xx_hal_msp.c **** 
 823:Core/Src/stm32l4xx_hal_msp.c ****   }
 824:Core/Src/stm32l4xx_hal_msp.c **** 
 825:Core/Src/stm32l4xx_hal_msp.c **** }
 1821              		.loc 1 825 1 view .LVU527
 1822 0018 09B0     		add	sp, sp, #36
 1823              		.cfi_remember_state
 1824              		.cfi_def_cfa_offset 4
 1825              		@ sp needed
 1826 001a 00BD     		pop	{pc}
 1827              	.LVL124:
 1828              	.L125:
 1829              		.cfi_restore_state
 804:Core/Src/stm32l4xx_hal_msp.c **** 
 1830              		.loc 1 804 5 is_stmt 1 view .LVU528
 1831              	.LBB20:
 804:Core/Src/stm32l4xx_hal_msp.c **** 
 1832              		.loc 1 804 5 view .LVU529
 804:Core/Src/stm32l4xx_hal_msp.c **** 
 1833              		.loc 1 804 5 view .LVU530
 1834 001c 03F56043 		add	r3, r3, #57344
 1835 0020 1A6E     		ldr	r2, [r3, #96]
 1836 0022 42F48052 		orr	r2, r2, #4096
 1837 0026 1A66     		str	r2, [r3, #96]
 804:Core/Src/stm32l4xx_hal_msp.c **** 
 1838              		.loc 1 804 5 view .LVU531
 1839 0028 1A6E     		ldr	r2, [r3, #96]
 1840 002a 02F48052 		and	r2, r2, #4096
 1841 002e 0192     		str	r2, [sp, #4]
 804:Core/Src/stm32l4xx_hal_msp.c **** 
 1842              		.loc 1 804 5 view .LVU532
 1843 0030 019A     		ldr	r2, [sp, #4]
 1844              	.LBE20:
ARM GAS  /tmp/cc0cTHVu.s 			page 54


 804:Core/Src/stm32l4xx_hal_msp.c **** 
 1845              		.loc 1 804 5 view .LVU533
 806:Core/Src/stm32l4xx_hal_msp.c ****     /**SPI1 GPIO Configuration
 1846              		.loc 1 806 5 view .LVU534
 1847              	.LBB21:
 806:Core/Src/stm32l4xx_hal_msp.c ****     /**SPI1 GPIO Configuration
 1848              		.loc 1 806 5 view .LVU535
 806:Core/Src/stm32l4xx_hal_msp.c ****     /**SPI1 GPIO Configuration
 1849              		.loc 1 806 5 view .LVU536
 1850 0032 DA6C     		ldr	r2, [r3, #76]
 1851 0034 42F00102 		orr	r2, r2, #1
 1852 0038 DA64     		str	r2, [r3, #76]
 806:Core/Src/stm32l4xx_hal_msp.c ****     /**SPI1 GPIO Configuration
 1853              		.loc 1 806 5 view .LVU537
 1854 003a DB6C     		ldr	r3, [r3, #76]
 1855 003c 03F00103 		and	r3, r3, #1
 1856 0040 0293     		str	r3, [sp, #8]
 806:Core/Src/stm32l4xx_hal_msp.c ****     /**SPI1 GPIO Configuration
 1857              		.loc 1 806 5 view .LVU538
 1858 0042 029B     		ldr	r3, [sp, #8]
 1859              	.LBE21:
 806:Core/Src/stm32l4xx_hal_msp.c ****     /**SPI1 GPIO Configuration
 1860              		.loc 1 806 5 view .LVU539
 812:Core/Src/stm32l4xx_hal_msp.c ****     GPIO_InitStruct.Mode = GPIO_MODE_AF_PP;
 1861              		.loc 1 812 5 view .LVU540
 812:Core/Src/stm32l4xx_hal_msp.c ****     GPIO_InitStruct.Mode = GPIO_MODE_AF_PP;
 1862              		.loc 1 812 25 is_stmt 0 view .LVU541
 1863 0044 E023     		movs	r3, #224
 1864 0046 0393     		str	r3, [sp, #12]
 813:Core/Src/stm32l4xx_hal_msp.c ****     GPIO_InitStruct.Pull = GPIO_NOPULL;
 1865              		.loc 1 813 5 is_stmt 1 view .LVU542
 813:Core/Src/stm32l4xx_hal_msp.c ****     GPIO_InitStruct.Pull = GPIO_NOPULL;
 1866              		.loc 1 813 26 is_stmt 0 view .LVU543
 1867 0048 0223     		movs	r3, #2
 1868 004a 0493     		str	r3, [sp, #16]
 814:Core/Src/stm32l4xx_hal_msp.c ****     GPIO_InitStruct.Speed = GPIO_SPEED_FREQ_VERY_HIGH;
 1869              		.loc 1 814 5 is_stmt 1 view .LVU544
 815:Core/Src/stm32l4xx_hal_msp.c ****     GPIO_InitStruct.Alternate = GPIO_AF5_SPI1;
 1870              		.loc 1 815 5 view .LVU545
 815:Core/Src/stm32l4xx_hal_msp.c ****     GPIO_InitStruct.Alternate = GPIO_AF5_SPI1;
 1871              		.loc 1 815 27 is_stmt 0 view .LVU546
 1872 004c 0323     		movs	r3, #3
 1873 004e 0693     		str	r3, [sp, #24]
 816:Core/Src/stm32l4xx_hal_msp.c ****     HAL_GPIO_Init(GPIOA, &GPIO_InitStruct);
 1874              		.loc 1 816 5 is_stmt 1 view .LVU547
 816:Core/Src/stm32l4xx_hal_msp.c ****     HAL_GPIO_Init(GPIOA, &GPIO_InitStruct);
 1875              		.loc 1 816 31 is_stmt 0 view .LVU548
 1876 0050 0523     		movs	r3, #5
 1877 0052 0793     		str	r3, [sp, #28]
 817:Core/Src/stm32l4xx_hal_msp.c **** 
 1878              		.loc 1 817 5 is_stmt 1 view .LVU549
 1879 0054 03A9     		add	r1, sp, #12
 1880 0056 4FF09040 		mov	r0, #1207959552
 1881              	.LVL125:
 817:Core/Src/stm32l4xx_hal_msp.c **** 
 1882              		.loc 1 817 5 is_stmt 0 view .LVU550
 1883 005a FFF7FEFF 		bl	HAL_GPIO_Init
ARM GAS  /tmp/cc0cTHVu.s 			page 55


 1884              	.LVL126:
 1885              		.loc 1 825 1 view .LVU551
 1886 005e DBE7     		b	.L122
 1887              	.L127:
 1888              		.align	2
 1889              	.L126:
 1890 0060 00300140 		.word	1073819648
 1891              		.cfi_endproc
 1892              	.LFE241:
 1894              		.section	.text.HAL_SPI_MspDeInit,"ax",%progbits
 1895              		.align	1
 1896              		.global	HAL_SPI_MspDeInit
 1897              		.syntax unified
 1898              		.thumb
 1899              		.thumb_func
 1901              	HAL_SPI_MspDeInit:
 1902              	.LVL127:
 1903              	.LFB242:
 826:Core/Src/stm32l4xx_hal_msp.c **** 
 827:Core/Src/stm32l4xx_hal_msp.c **** /**
 828:Core/Src/stm32l4xx_hal_msp.c ****   * @brief SPI MSP De-Initialization
 829:Core/Src/stm32l4xx_hal_msp.c ****   * This function freeze the hardware resources used in this example
 830:Core/Src/stm32l4xx_hal_msp.c ****   * @param hspi: SPI handle pointer
 831:Core/Src/stm32l4xx_hal_msp.c ****   * @retval None
 832:Core/Src/stm32l4xx_hal_msp.c ****   */
 833:Core/Src/stm32l4xx_hal_msp.c **** void HAL_SPI_MspDeInit(SPI_HandleTypeDef* hspi)
 834:Core/Src/stm32l4xx_hal_msp.c **** {
 1904              		.loc 1 834 1 is_stmt 1 view -0
 1905              		.cfi_startproc
 1906              		@ args = 0, pretend = 0, frame = 0
 1907              		@ frame_needed = 0, uses_anonymous_args = 0
 1908              		.loc 1 834 1 is_stmt 0 view .LVU553
 1909 0000 08B5     		push	{r3, lr}
 1910              		.cfi_def_cfa_offset 8
 1911              		.cfi_offset 3, -8
 1912              		.cfi_offset 14, -4
 835:Core/Src/stm32l4xx_hal_msp.c ****   if(hspi->Instance==SPI1)
 1913              		.loc 1 835 3 is_stmt 1 view .LVU554
 1914              		.loc 1 835 10 is_stmt 0 view .LVU555
 1915 0002 0268     		ldr	r2, [r0]
 1916              		.loc 1 835 5 view .LVU556
 1917 0004 074B     		ldr	r3, .L132
 1918 0006 9A42     		cmp	r2, r3
 1919 0008 00D0     		beq	.L131
 1920              	.LVL128:
 1921              	.L128:
 836:Core/Src/stm32l4xx_hal_msp.c ****   {
 837:Core/Src/stm32l4xx_hal_msp.c ****     /* USER CODE BEGIN SPI1_MspDeInit 0 */
 838:Core/Src/stm32l4xx_hal_msp.c **** 
 839:Core/Src/stm32l4xx_hal_msp.c ****     /* USER CODE END SPI1_MspDeInit 0 */
 840:Core/Src/stm32l4xx_hal_msp.c ****     /* Peripheral clock disable */
 841:Core/Src/stm32l4xx_hal_msp.c ****     __HAL_RCC_SPI1_CLK_DISABLE();
 842:Core/Src/stm32l4xx_hal_msp.c **** 
 843:Core/Src/stm32l4xx_hal_msp.c ****     /**SPI1 GPIO Configuration
 844:Core/Src/stm32l4xx_hal_msp.c ****     PA5     ------> SPI1_SCK
 845:Core/Src/stm32l4xx_hal_msp.c ****     PA6     ------> SPI1_MISO
 846:Core/Src/stm32l4xx_hal_msp.c ****     PA7     ------> SPI1_MOSI
ARM GAS  /tmp/cc0cTHVu.s 			page 56


 847:Core/Src/stm32l4xx_hal_msp.c ****     */
 848:Core/Src/stm32l4xx_hal_msp.c ****     HAL_GPIO_DeInit(GPIOA, SD_SPI1_SCK_Pin|SD_SPI1_MISO_Pin|SD_SPI1_MOSI_Pin);
 849:Core/Src/stm32l4xx_hal_msp.c **** 
 850:Core/Src/stm32l4xx_hal_msp.c ****     /* USER CODE BEGIN SPI1_MspDeInit 1 */
 851:Core/Src/stm32l4xx_hal_msp.c **** 
 852:Core/Src/stm32l4xx_hal_msp.c ****     /* USER CODE END SPI1_MspDeInit 1 */
 853:Core/Src/stm32l4xx_hal_msp.c ****   }
 854:Core/Src/stm32l4xx_hal_msp.c **** 
 855:Core/Src/stm32l4xx_hal_msp.c **** }
 1922              		.loc 1 855 1 view .LVU557
 1923 000a 08BD     		pop	{r3, pc}
 1924              	.LVL129:
 1925              	.L131:
 841:Core/Src/stm32l4xx_hal_msp.c **** 
 1926              		.loc 1 841 5 is_stmt 1 view .LVU558
 1927 000c 064A     		ldr	r2, .L132+4
 1928 000e 136E     		ldr	r3, [r2, #96]
 1929 0010 23F48053 		bic	r3, r3, #4096
 1930 0014 1366     		str	r3, [r2, #96]
 848:Core/Src/stm32l4xx_hal_msp.c **** 
 1931              		.loc 1 848 5 view .LVU559
 1932 0016 E021     		movs	r1, #224
 1933 0018 4FF09040 		mov	r0, #1207959552
 1934              	.LVL130:
 848:Core/Src/stm32l4xx_hal_msp.c **** 
 1935              		.loc 1 848 5 is_stmt 0 view .LVU560
 1936 001c FFF7FEFF 		bl	HAL_GPIO_DeInit
 1937              	.LVL131:
 1938              		.loc 1 855 1 view .LVU561
 1939 0020 F3E7     		b	.L128
 1940              	.L133:
 1941 0022 00BF     		.align	2
 1942              	.L132:
 1943 0024 00300140 		.word	1073819648
 1944 0028 00100240 		.word	1073876992
 1945              		.cfi_endproc
 1946              	.LFE242:
 1948              		.text
 1949              	.Letext0:
 1950              		.file 2 "Drivers/CMSIS/Device/ST/STM32L4xx/Include/stm32l476xx.h"
 1951              		.file 3 "/home/glen/.config/Code/User/globalStorage/bmd.stm32-for-vscode/@xpack-dev-tools/arm-none
 1952              		.file 4 "/home/glen/.config/Code/User/globalStorage/bmd.stm32-for-vscode/@xpack-dev-tools/arm-none
 1953              		.file 5 "Drivers/STM32L4xx_HAL_Driver/Inc/stm32l4xx_hal_def.h"
 1954              		.file 6 "Drivers/STM32L4xx_HAL_Driver/Inc/stm32l4xx_hal_rcc_ex.h"
 1955              		.file 7 "Drivers/STM32L4xx_HAL_Driver/Inc/stm32l4xx_hal_gpio.h"
 1956              		.file 8 "Drivers/STM32L4xx_HAL_Driver/Inc/stm32l4xx_hal_dma.h"
 1957              		.file 9 "Drivers/STM32L4xx_HAL_Driver/Inc/stm32l4xx_hal_crc.h"
 1958              		.file 10 "Drivers/STM32L4xx_HAL_Driver/Inc/stm32l4xx_hal_i2c.h"
 1959              		.file 11 "Drivers/STM32L4xx_HAL_Driver/Inc/stm32l4xx_hal_lptim.h"
 1960              		.file 12 "Drivers/STM32L4xx_HAL_Driver/Inc/stm32l4xx_hal_rtc.h"
 1961              		.file 13 "Drivers/STM32L4xx_HAL_Driver/Inc/stm32l4xx_ll_sdmmc.h"
 1962              		.file 14 "Drivers/STM32L4xx_HAL_Driver/Inc/stm32l4xx_hal_sd.h"
 1963              		.file 15 "Drivers/STM32L4xx_HAL_Driver/Inc/stm32l4xx_hal_spi.h"
 1964              		.file 16 "Drivers/STM32L4xx_HAL_Driver/Inc/stm32l4xx_hal_uart.h"
 1965              		.file 17 "Drivers/STM32L4xx_HAL_Driver/Inc/stm32l4xx_hal_cortex.h"
 1966              		.file 18 "Drivers/STM32L4xx_HAL_Driver/Inc/stm32l4xx_ll_dma.h"
 1967              		.file 19 "Core/Inc/main.h"
ARM GAS  /tmp/cc0cTHVu.s 			page 57


 1968              		.file 20 "<built-in>"
ARM GAS  /tmp/cc0cTHVu.s 			page 58


DEFINED SYMBOLS
                            *ABS*:00000000 stm32l4xx_hal_msp.c
     /tmp/cc0cTHVu.s:21     .text.HAL_MspInit:00000000 $t
     /tmp/cc0cTHVu.s:27     .text.HAL_MspInit:00000000 HAL_MspInit
     /tmp/cc0cTHVu.s:87     .text.HAL_MspInit:00000040 $d
     /tmp/cc0cTHVu.s:92     .text.HAL_CRC_MspInit:00000000 $t
     /tmp/cc0cTHVu.s:98     .text.HAL_CRC_MspInit:00000000 HAL_CRC_MspInit
     /tmp/cc0cTHVu.s:142    .text.HAL_CRC_MspInit:00000028 $d
     /tmp/cc0cTHVu.s:147    .text.HAL_CRC_MspDeInit:00000000 $t
     /tmp/cc0cTHVu.s:153    .text.HAL_CRC_MspDeInit:00000000 HAL_CRC_MspDeInit
     /tmp/cc0cTHVu.s:182    .text.HAL_CRC_MspDeInit:00000018 $d
     /tmp/cc0cTHVu.s:188    .text.HAL_I2C_MspInit:00000000 $t
     /tmp/cc0cTHVu.s:194    .text.HAL_I2C_MspInit:00000000 HAL_I2C_MspInit
     /tmp/cc0cTHVu.s:325    .text.HAL_I2C_MspInit:00000080 $d
     /tmp/cc0cTHVu.s:332    .text.HAL_I2C_MspDeInit:00000000 $t
     /tmp/cc0cTHVu.s:338    .text.HAL_I2C_MspDeInit:00000000 HAL_I2C_MspDeInit
     /tmp/cc0cTHVu.s:385    .text.HAL_I2C_MspDeInit:0000002c $d
     /tmp/cc0cTHVu.s:392    .text.HAL_LPTIM_MspInit:00000000 $t
     /tmp/cc0cTHVu.s:398    .text.HAL_LPTIM_MspInit:00000000 HAL_LPTIM_MspInit
     /tmp/cc0cTHVu.s:539    .text.HAL_LPTIM_MspInit:00000098 $d
     /tmp/cc0cTHVu.s:546    .text.HAL_LPTIM_MspDeInit:00000000 $t
     /tmp/cc0cTHVu.s:552    .text.HAL_LPTIM_MspDeInit:00000000 HAL_LPTIM_MspDeInit
     /tmp/cc0cTHVu.s:612    .text.HAL_LPTIM_MspDeInit:0000003c $d
     /tmp/cc0cTHVu.s:618    .text.HAL_UART_MspInit:00000000 $t
     /tmp/cc0cTHVu.s:624    .text.HAL_UART_MspInit:00000000 HAL_UART_MspInit
     /tmp/cc0cTHVu.s:1087   .text.HAL_UART_MspInit:00000204 $d
     /tmp/cc0cTHVu.s:1099   .text.HAL_UART_MspDeInit:00000000 $t
     /tmp/cc0cTHVu.s:1105   .text.HAL_UART_MspDeInit:00000000 HAL_UART_MspDeInit
     /tmp/cc0cTHVu.s:1224   .text.HAL_UART_MspDeInit:00000098 $d
     /tmp/cc0cTHVu.s:1233   .text.HAL_RTC_MspInit:00000000 $t
     /tmp/cc0cTHVu.s:1239   .text.HAL_RTC_MspInit:00000000 HAL_RTC_MspInit
     /tmp/cc0cTHVu.s:1321   .text.HAL_RTC_MspInit:00000058 $d
     /tmp/cc0cTHVu.s:1327   .text.HAL_RTC_MspDeInit:00000000 $t
     /tmp/cc0cTHVu.s:1333   .text.HAL_RTC_MspDeInit:00000000 HAL_RTC_MspDeInit
     /tmp/cc0cTHVu.s:1374   .text.HAL_RTC_MspDeInit:00000024 $d
     /tmp/cc0cTHVu.s:1380   .text.HAL_SD_MspInit:00000000 $t
     /tmp/cc0cTHVu.s:1386   .text.HAL_SD_MspInit:00000000 HAL_SD_MspInit
     /tmp/cc0cTHVu.s:1701   .text.HAL_SD_MspInit:00000150 $d
     /tmp/cc0cTHVu.s:1713   .text.HAL_SD_MspDeInit:00000000 $t
     /tmp/cc0cTHVu.s:1719   .text.HAL_SD_MspDeInit:00000000 HAL_SD_MspDeInit
     /tmp/cc0cTHVu.s:1777   .text.HAL_SD_MspDeInit:00000040 $d
     /tmp/cc0cTHVu.s:1785   .text.HAL_SPI_MspInit:00000000 $t
     /tmp/cc0cTHVu.s:1791   .text.HAL_SPI_MspInit:00000000 HAL_SPI_MspInit
     /tmp/cc0cTHVu.s:1890   .text.HAL_SPI_MspInit:00000060 $d
     /tmp/cc0cTHVu.s:1895   .text.HAL_SPI_MspDeInit:00000000 $t
     /tmp/cc0cTHVu.s:1901   .text.HAL_SPI_MspDeInit:00000000 HAL_SPI_MspDeInit
     /tmp/cc0cTHVu.s:1943   .text.HAL_SPI_MspDeInit:00000024 $d

UNDEFINED SYMBOLS
HAL_NVIC_SetPriority
HAL_NVIC_EnableIRQ
memset
HAL_RCCEx_PeriphCLKConfig
HAL_GPIO_Init
Error_Handler
HAL_GPIO_DeInit
HAL_NVIC_DisableIRQ
ARM GAS  /tmp/cc0cTHVu.s 			page 59


HAL_DMA_Init
hdma_usart1_rx
HAL_DMA_DeInit
hdma_sdmmc1_rx
hdma_sdmmc1_tx
