ARM GAS  /tmp/cchr4eSW.s 			page 1


   1              		.cpu cortex-m4
   2              		.arch armv7e-m
   3              		.fpu fpv4-sp-d16
   4              		.eabi_attribute 27, 1
   5              		.eabi_attribute 28, 1
   6              		.eabi_attribute 20, 1
   7              		.eabi_attribute 21, 1
   8              		.eabi_attribute 23, 3
   9              		.eabi_attribute 24, 1
  10              		.eabi_attribute 25, 1
  11              		.eabi_attribute 26, 1
  12              		.eabi_attribute 30, 1
  13              		.eabi_attribute 34, 1
  14              		.eabi_attribute 18, 4
  15              		.file	"stm32l4xx_hal_msp.c"
  16              		.text
  17              	.Ltext0:
  18              		.cfi_sections	.debug_frame
  19              		.file 1 "Core/Src/stm32l4xx_hal_msp.c"
  20              		.section	.text.HAL_MspInit,"ax",%progbits
  21              		.align	1
  22              		.global	HAL_MspInit
  23              		.syntax unified
  24              		.thumb
  25              		.thumb_func
  27              	HAL_MspInit:
  28              	.LFB228:
   1:Core/Src/stm32l4xx_hal_msp.c **** /* USER CODE BEGIN Header */
   2:Core/Src/stm32l4xx_hal_msp.c **** /**
   3:Core/Src/stm32l4xx_hal_msp.c ****   ******************************************************************************
   4:Core/Src/stm32l4xx_hal_msp.c ****   * @file         stm32l4xx_hal_msp.c
   5:Core/Src/stm32l4xx_hal_msp.c ****   * @brief        This file provides code for the MSP Initialization
   6:Core/Src/stm32l4xx_hal_msp.c ****   *               and de-Initialization codes.
   7:Core/Src/stm32l4xx_hal_msp.c ****   ******************************************************************************
   8:Core/Src/stm32l4xx_hal_msp.c ****   * @attention
   9:Core/Src/stm32l4xx_hal_msp.c ****   *
  10:Core/Src/stm32l4xx_hal_msp.c ****   * Copyright (c) 2026 STMicroelectronics.
  11:Core/Src/stm32l4xx_hal_msp.c ****   * All rights reserved.
  12:Core/Src/stm32l4xx_hal_msp.c ****   *
  13:Core/Src/stm32l4xx_hal_msp.c ****   * This software is licensed under terms that can be found in the LICENSE file
  14:Core/Src/stm32l4xx_hal_msp.c ****   * in the root directory of this software component.
  15:Core/Src/stm32l4xx_hal_msp.c ****   * If no LICENSE file comes with this software, it is provided AS-IS.
  16:Core/Src/stm32l4xx_hal_msp.c ****   *
  17:Core/Src/stm32l4xx_hal_msp.c ****   ******************************************************************************
  18:Core/Src/stm32l4xx_hal_msp.c ****   */
  19:Core/Src/stm32l4xx_hal_msp.c **** /* USER CODE END Header */
  20:Core/Src/stm32l4xx_hal_msp.c **** /* Includes ------------------------------------------------------------------*/
  21:Core/Src/stm32l4xx_hal_msp.c **** #include "main.h"
  22:Core/Src/stm32l4xx_hal_msp.c **** /* USER CODE BEGIN Includes */
  23:Core/Src/stm32l4xx_hal_msp.c **** 
  24:Core/Src/stm32l4xx_hal_msp.c **** /* USER CODE END Includes */
  25:Core/Src/stm32l4xx_hal_msp.c **** extern DMA_HandleTypeDef hdma_usart1_rx;
  26:Core/Src/stm32l4xx_hal_msp.c **** 
  27:Core/Src/stm32l4xx_hal_msp.c **** extern DMA_HandleTypeDef hdma_sdmmc1_rx;
  28:Core/Src/stm32l4xx_hal_msp.c **** 
  29:Core/Src/stm32l4xx_hal_msp.c **** extern DMA_HandleTypeDef hdma_sdmmc1_tx;
  30:Core/Src/stm32l4xx_hal_msp.c **** 
ARM GAS  /tmp/cchr4eSW.s 			page 2


  31:Core/Src/stm32l4xx_hal_msp.c **** /* Private typedef -----------------------------------------------------------*/
  32:Core/Src/stm32l4xx_hal_msp.c **** /* USER CODE BEGIN TD */
  33:Core/Src/stm32l4xx_hal_msp.c **** 
  34:Core/Src/stm32l4xx_hal_msp.c **** /* USER CODE END TD */
  35:Core/Src/stm32l4xx_hal_msp.c **** 
  36:Core/Src/stm32l4xx_hal_msp.c **** /* Private define ------------------------------------------------------------*/
  37:Core/Src/stm32l4xx_hal_msp.c **** /* USER CODE BEGIN Define */
  38:Core/Src/stm32l4xx_hal_msp.c **** 
  39:Core/Src/stm32l4xx_hal_msp.c **** /* USER CODE END Define */
  40:Core/Src/stm32l4xx_hal_msp.c **** 
  41:Core/Src/stm32l4xx_hal_msp.c **** /* Private macro -------------------------------------------------------------*/
  42:Core/Src/stm32l4xx_hal_msp.c **** /* USER CODE BEGIN Macro */
  43:Core/Src/stm32l4xx_hal_msp.c **** 
  44:Core/Src/stm32l4xx_hal_msp.c **** /* USER CODE END Macro */
  45:Core/Src/stm32l4xx_hal_msp.c **** 
  46:Core/Src/stm32l4xx_hal_msp.c **** /* Private variables ---------------------------------------------------------*/
  47:Core/Src/stm32l4xx_hal_msp.c **** /* USER CODE BEGIN PV */
  48:Core/Src/stm32l4xx_hal_msp.c **** 
  49:Core/Src/stm32l4xx_hal_msp.c **** /* USER CODE END PV */
  50:Core/Src/stm32l4xx_hal_msp.c **** 
  51:Core/Src/stm32l4xx_hal_msp.c **** /* Private function prototypes -----------------------------------------------*/
  52:Core/Src/stm32l4xx_hal_msp.c **** /* USER CODE BEGIN PFP */
  53:Core/Src/stm32l4xx_hal_msp.c **** 
  54:Core/Src/stm32l4xx_hal_msp.c **** /* USER CODE END PFP */
  55:Core/Src/stm32l4xx_hal_msp.c **** 
  56:Core/Src/stm32l4xx_hal_msp.c **** /* External functions --------------------------------------------------------*/
  57:Core/Src/stm32l4xx_hal_msp.c **** /* USER CODE BEGIN ExternalFunctions */
  58:Core/Src/stm32l4xx_hal_msp.c **** 
  59:Core/Src/stm32l4xx_hal_msp.c **** /* USER CODE END ExternalFunctions */
  60:Core/Src/stm32l4xx_hal_msp.c **** 
  61:Core/Src/stm32l4xx_hal_msp.c **** /* USER CODE BEGIN 0 */
  62:Core/Src/stm32l4xx_hal_msp.c **** 
  63:Core/Src/stm32l4xx_hal_msp.c **** /* USER CODE END 0 */
  64:Core/Src/stm32l4xx_hal_msp.c **** /**
  65:Core/Src/stm32l4xx_hal_msp.c ****   * Initializes the Global MSP.
  66:Core/Src/stm32l4xx_hal_msp.c ****   */
  67:Core/Src/stm32l4xx_hal_msp.c **** void HAL_MspInit(void)
  68:Core/Src/stm32l4xx_hal_msp.c **** {
  29              		.loc 1 68 1 view -0
  30              		.cfi_startproc
  31              		@ args = 0, pretend = 0, frame = 8
  32              		@ frame_needed = 0, uses_anonymous_args = 0
  33 0000 00B5     		push	{lr}
  34              		.cfi_def_cfa_offset 4
  35              		.cfi_offset 14, -4
  36 0002 83B0     		sub	sp, sp, #12
  37              		.cfi_def_cfa_offset 16
  69:Core/Src/stm32l4xx_hal_msp.c **** 
  70:Core/Src/stm32l4xx_hal_msp.c ****   /* USER CODE BEGIN MspInit 0 */
  71:Core/Src/stm32l4xx_hal_msp.c **** 
  72:Core/Src/stm32l4xx_hal_msp.c ****   /* USER CODE END MspInit 0 */
  73:Core/Src/stm32l4xx_hal_msp.c **** 
  74:Core/Src/stm32l4xx_hal_msp.c ****   __HAL_RCC_SYSCFG_CLK_ENABLE();
  38              		.loc 1 74 3 view .LVU1
  39              	.LBB2:
  40              		.loc 1 74 3 view .LVU2
  41              		.loc 1 74 3 view .LVU3
ARM GAS  /tmp/cchr4eSW.s 			page 3


  42 0004 0E4B     		ldr	r3, .L3
  43 0006 1A6E     		ldr	r2, [r3, #96]
  44 0008 42F00102 		orr	r2, r2, #1
  45 000c 1A66     		str	r2, [r3, #96]
  46              		.loc 1 74 3 view .LVU4
  47 000e 1A6E     		ldr	r2, [r3, #96]
  48 0010 02F00102 		and	r2, r2, #1
  49 0014 0092     		str	r2, [sp]
  50              		.loc 1 74 3 view .LVU5
  51 0016 009A     		ldr	r2, [sp]
  52              	.LBE2:
  53              		.loc 1 74 3 view .LVU6
  75:Core/Src/stm32l4xx_hal_msp.c ****   __HAL_RCC_PWR_CLK_ENABLE();
  54              		.loc 1 75 3 view .LVU7
  55              	.LBB3:
  56              		.loc 1 75 3 view .LVU8
  57              		.loc 1 75 3 view .LVU9
  58 0018 9A6D     		ldr	r2, [r3, #88]
  59 001a 42F08052 		orr	r2, r2, #268435456
  60 001e 9A65     		str	r2, [r3, #88]
  61              		.loc 1 75 3 view .LVU10
  62 0020 9B6D     		ldr	r3, [r3, #88]
  63 0022 03F08053 		and	r3, r3, #268435456
  64 0026 0193     		str	r3, [sp, #4]
  65              		.loc 1 75 3 view .LVU11
  66 0028 019B     		ldr	r3, [sp, #4]
  67              	.LBE3:
  68              		.loc 1 75 3 view .LVU12
  76:Core/Src/stm32l4xx_hal_msp.c **** 
  77:Core/Src/stm32l4xx_hal_msp.c ****   /* System interrupt init*/
  78:Core/Src/stm32l4xx_hal_msp.c **** 
  79:Core/Src/stm32l4xx_hal_msp.c ****   /* Peripheral interrupt init */
  80:Core/Src/stm32l4xx_hal_msp.c ****   /* RCC_IRQn interrupt configuration */
  81:Core/Src/stm32l4xx_hal_msp.c ****   HAL_NVIC_SetPriority(RCC_IRQn, 0, 0);
  69              		.loc 1 81 3 view .LVU13
  70 002a 0022     		movs	r2, #0
  71 002c 1146     		mov	r1, r2
  72 002e 0520     		movs	r0, #5
  73 0030 FFF7FEFF 		bl	HAL_NVIC_SetPriority
  74              	.LVL0:
  82:Core/Src/stm32l4xx_hal_msp.c ****   HAL_NVIC_EnableIRQ(RCC_IRQn);
  75              		.loc 1 82 3 view .LVU14
  76 0034 0520     		movs	r0, #5
  77 0036 FFF7FEFF 		bl	HAL_NVIC_EnableIRQ
  78              	.LVL1:
  83:Core/Src/stm32l4xx_hal_msp.c **** 
  84:Core/Src/stm32l4xx_hal_msp.c ****   /* USER CODE BEGIN MspInit 1 */
  85:Core/Src/stm32l4xx_hal_msp.c **** 
  86:Core/Src/stm32l4xx_hal_msp.c ****   /* USER CODE END MspInit 1 */
  87:Core/Src/stm32l4xx_hal_msp.c **** }
  79              		.loc 1 87 1 is_stmt 0 view .LVU15
  80 003a 03B0     		add	sp, sp, #12
  81              		.cfi_def_cfa_offset 4
  82              		@ sp needed
  83 003c 00BD     		pop	{pc}
  84              	.L4:
  85 003e 00BF     		.align	2
ARM GAS  /tmp/cchr4eSW.s 			page 4


  86              	.L3:
  87 0040 00100240 		.word	1073876992
  88              		.cfi_endproc
  89              	.LFE228:
  91              		.section	.text.HAL_I2C_MspInit,"ax",%progbits
  92              		.align	1
  93              		.global	HAL_I2C_MspInit
  94              		.syntax unified
  95              		.thumb
  96              		.thumb_func
  98              	HAL_I2C_MspInit:
  99              	.LVL2:
 100              	.LFB229:
  88:Core/Src/stm32l4xx_hal_msp.c **** 
  89:Core/Src/stm32l4xx_hal_msp.c **** /**
  90:Core/Src/stm32l4xx_hal_msp.c ****   * @brief I2C MSP Initialization
  91:Core/Src/stm32l4xx_hal_msp.c ****   * This function configures the hardware resources used in this example
  92:Core/Src/stm32l4xx_hal_msp.c ****   * @param hi2c: I2C handle pointer
  93:Core/Src/stm32l4xx_hal_msp.c ****   * @retval None
  94:Core/Src/stm32l4xx_hal_msp.c ****   */
  95:Core/Src/stm32l4xx_hal_msp.c **** void HAL_I2C_MspInit(I2C_HandleTypeDef* hi2c)
  96:Core/Src/stm32l4xx_hal_msp.c **** {
 101              		.loc 1 96 1 is_stmt 1 view -0
 102              		.cfi_startproc
 103              		@ args = 0, pretend = 0, frame = 168
 104              		@ frame_needed = 0, uses_anonymous_args = 0
 105              		.loc 1 96 1 is_stmt 0 view .LVU17
 106 0000 10B5     		push	{r4, lr}
 107              		.cfi_def_cfa_offset 8
 108              		.cfi_offset 4, -8
 109              		.cfi_offset 14, -4
 110 0002 AAB0     		sub	sp, sp, #168
 111              		.cfi_def_cfa_offset 176
 112 0004 0446     		mov	r4, r0
  97:Core/Src/stm32l4xx_hal_msp.c ****   GPIO_InitTypeDef GPIO_InitStruct = {0};
 113              		.loc 1 97 3 is_stmt 1 view .LVU18
 114              		.loc 1 97 20 is_stmt 0 view .LVU19
 115 0006 0021     		movs	r1, #0
 116 0008 2591     		str	r1, [sp, #148]
 117 000a 2691     		str	r1, [sp, #152]
 118 000c 2791     		str	r1, [sp, #156]
 119 000e 2891     		str	r1, [sp, #160]
 120 0010 2991     		str	r1, [sp, #164]
  98:Core/Src/stm32l4xx_hal_msp.c ****   RCC_PeriphCLKInitTypeDef PeriphClkInit = {0};
 121              		.loc 1 98 3 is_stmt 1 view .LVU20
 122              		.loc 1 98 28 is_stmt 0 view .LVU21
 123 0012 8822     		movs	r2, #136
 124 0014 03A8     		add	r0, sp, #12
 125              	.LVL3:
 126              		.loc 1 98 28 view .LVU22
 127 0016 FFF7FEFF 		bl	memset
 128              	.LVL4:
  99:Core/Src/stm32l4xx_hal_msp.c ****   if(hi2c->Instance==I2C2)
 129              		.loc 1 99 3 is_stmt 1 view .LVU23
 130              		.loc 1 99 10 is_stmt 0 view .LVU24
 131 001a 2268     		ldr	r2, [r4]
 132              		.loc 1 99 5 view .LVU25
ARM GAS  /tmp/cchr4eSW.s 			page 5


 133 001c 184B     		ldr	r3, .L11
 134 001e 9A42     		cmp	r2, r3
 135 0020 01D0     		beq	.L9
 136              	.LVL5:
 137              	.L5:
 100:Core/Src/stm32l4xx_hal_msp.c ****   {
 101:Core/Src/stm32l4xx_hal_msp.c ****     /* USER CODE BEGIN I2C2_MspInit 0 */
 102:Core/Src/stm32l4xx_hal_msp.c **** 
 103:Core/Src/stm32l4xx_hal_msp.c ****     /* USER CODE END I2C2_MspInit 0 */
 104:Core/Src/stm32l4xx_hal_msp.c **** 
 105:Core/Src/stm32l4xx_hal_msp.c ****   /** Initializes the peripherals clock
 106:Core/Src/stm32l4xx_hal_msp.c ****   */
 107:Core/Src/stm32l4xx_hal_msp.c ****     PeriphClkInit.PeriphClockSelection = RCC_PERIPHCLK_I2C2;
 108:Core/Src/stm32l4xx_hal_msp.c ****     PeriphClkInit.I2c2ClockSelection = RCC_I2C2CLKSOURCE_PCLK1;
 109:Core/Src/stm32l4xx_hal_msp.c ****     if (HAL_RCCEx_PeriphCLKConfig(&PeriphClkInit) != HAL_OK)
 110:Core/Src/stm32l4xx_hal_msp.c ****     {
 111:Core/Src/stm32l4xx_hal_msp.c ****       Error_Handler();
 112:Core/Src/stm32l4xx_hal_msp.c ****     }
 113:Core/Src/stm32l4xx_hal_msp.c **** 
 114:Core/Src/stm32l4xx_hal_msp.c ****     __HAL_RCC_GPIOB_CLK_ENABLE();
 115:Core/Src/stm32l4xx_hal_msp.c ****     /**I2C2 GPIO Configuration
 116:Core/Src/stm32l4xx_hal_msp.c ****     PB13     ------> I2C2_SCL
 117:Core/Src/stm32l4xx_hal_msp.c ****     PB14     ------> I2C2_SDA
 118:Core/Src/stm32l4xx_hal_msp.c ****     */
 119:Core/Src/stm32l4xx_hal_msp.c ****     GPIO_InitStruct.Pin = GPIO_PIN_13|GPIO_PIN_14;
 120:Core/Src/stm32l4xx_hal_msp.c ****     GPIO_InitStruct.Mode = GPIO_MODE_AF_OD;
 121:Core/Src/stm32l4xx_hal_msp.c ****     GPIO_InitStruct.Pull = GPIO_NOPULL;
 122:Core/Src/stm32l4xx_hal_msp.c ****     GPIO_InitStruct.Speed = GPIO_SPEED_FREQ_VERY_HIGH;
 123:Core/Src/stm32l4xx_hal_msp.c ****     GPIO_InitStruct.Alternate = GPIO_AF4_I2C2;
 124:Core/Src/stm32l4xx_hal_msp.c ****     HAL_GPIO_Init(GPIOB, &GPIO_InitStruct);
 125:Core/Src/stm32l4xx_hal_msp.c **** 
 126:Core/Src/stm32l4xx_hal_msp.c ****     /* Peripheral clock enable */
 127:Core/Src/stm32l4xx_hal_msp.c ****     __HAL_RCC_I2C2_CLK_ENABLE();
 128:Core/Src/stm32l4xx_hal_msp.c ****     /* USER CODE BEGIN I2C2_MspInit 1 */
 129:Core/Src/stm32l4xx_hal_msp.c **** 
 130:Core/Src/stm32l4xx_hal_msp.c ****     /* USER CODE END I2C2_MspInit 1 */
 131:Core/Src/stm32l4xx_hal_msp.c **** 
 132:Core/Src/stm32l4xx_hal_msp.c ****   }
 133:Core/Src/stm32l4xx_hal_msp.c **** 
 134:Core/Src/stm32l4xx_hal_msp.c **** }
 138              		.loc 1 134 1 view .LVU26
 139 0022 2AB0     		add	sp, sp, #168
 140              		.cfi_remember_state
 141              		.cfi_def_cfa_offset 8
 142              		@ sp needed
 143 0024 10BD     		pop	{r4, pc}
 144              	.LVL6:
 145              	.L9:
 146              		.cfi_restore_state
 107:Core/Src/stm32l4xx_hal_msp.c ****     PeriphClkInit.I2c2ClockSelection = RCC_I2C2CLKSOURCE_PCLK1;
 147              		.loc 1 107 5 is_stmt 1 view .LVU27
 107:Core/Src/stm32l4xx_hal_msp.c ****     PeriphClkInit.I2c2ClockSelection = RCC_I2C2CLKSOURCE_PCLK1;
 148              		.loc 1 107 40 is_stmt 0 view .LVU28
 149 0026 8023     		movs	r3, #128
 150 0028 0393     		str	r3, [sp, #12]
 108:Core/Src/stm32l4xx_hal_msp.c ****     if (HAL_RCCEx_PeriphCLKConfig(&PeriphClkInit) != HAL_OK)
 151              		.loc 1 108 5 is_stmt 1 view .LVU29
ARM GAS  /tmp/cchr4eSW.s 			page 6


 109:Core/Src/stm32l4xx_hal_msp.c ****     {
 152              		.loc 1 109 5 view .LVU30
 109:Core/Src/stm32l4xx_hal_msp.c ****     {
 153              		.loc 1 109 9 is_stmt 0 view .LVU31
 154 002a 03A8     		add	r0, sp, #12
 155 002c FFF7FEFF 		bl	HAL_RCCEx_PeriphCLKConfig
 156              	.LVL7:
 109:Core/Src/stm32l4xx_hal_msp.c ****     {
 157              		.loc 1 109 8 discriminator 1 view .LVU32
 158 0030 10BB     		cbnz	r0, .L10
 159              	.L7:
 114:Core/Src/stm32l4xx_hal_msp.c ****     /**I2C2 GPIO Configuration
 160              		.loc 1 114 5 is_stmt 1 view .LVU33
 161              	.LBB4:
 114:Core/Src/stm32l4xx_hal_msp.c ****     /**I2C2 GPIO Configuration
 162              		.loc 1 114 5 view .LVU34
 114:Core/Src/stm32l4xx_hal_msp.c ****     /**I2C2 GPIO Configuration
 163              		.loc 1 114 5 view .LVU35
 164 0032 144C     		ldr	r4, .L11+4
 165              	.LVL8:
 114:Core/Src/stm32l4xx_hal_msp.c ****     /**I2C2 GPIO Configuration
 166              		.loc 1 114 5 is_stmt 0 view .LVU36
 167 0034 E36C     		ldr	r3, [r4, #76]
 168 0036 43F00203 		orr	r3, r3, #2
 169 003a E364     		str	r3, [r4, #76]
 114:Core/Src/stm32l4xx_hal_msp.c ****     /**I2C2 GPIO Configuration
 170              		.loc 1 114 5 is_stmt 1 view .LVU37
 171 003c E36C     		ldr	r3, [r4, #76]
 172 003e 03F00203 		and	r3, r3, #2
 173 0042 0193     		str	r3, [sp, #4]
 114:Core/Src/stm32l4xx_hal_msp.c ****     /**I2C2 GPIO Configuration
 174              		.loc 1 114 5 view .LVU38
 175 0044 019B     		ldr	r3, [sp, #4]
 176              	.LBE4:
 114:Core/Src/stm32l4xx_hal_msp.c ****     /**I2C2 GPIO Configuration
 177              		.loc 1 114 5 view .LVU39
 119:Core/Src/stm32l4xx_hal_msp.c ****     GPIO_InitStruct.Mode = GPIO_MODE_AF_OD;
 178              		.loc 1 119 5 view .LVU40
 119:Core/Src/stm32l4xx_hal_msp.c ****     GPIO_InitStruct.Mode = GPIO_MODE_AF_OD;
 179              		.loc 1 119 25 is_stmt 0 view .LVU41
 180 0046 4FF4C043 		mov	r3, #24576
 181 004a 2593     		str	r3, [sp, #148]
 120:Core/Src/stm32l4xx_hal_msp.c ****     GPIO_InitStruct.Pull = GPIO_NOPULL;
 182              		.loc 1 120 5 is_stmt 1 view .LVU42
 120:Core/Src/stm32l4xx_hal_msp.c ****     GPIO_InitStruct.Pull = GPIO_NOPULL;
 183              		.loc 1 120 26 is_stmt 0 view .LVU43
 184 004c 1223     		movs	r3, #18
 185 004e 2693     		str	r3, [sp, #152]
 121:Core/Src/stm32l4xx_hal_msp.c ****     GPIO_InitStruct.Speed = GPIO_SPEED_FREQ_VERY_HIGH;
 186              		.loc 1 121 5 is_stmt 1 view .LVU44
 121:Core/Src/stm32l4xx_hal_msp.c ****     GPIO_InitStruct.Speed = GPIO_SPEED_FREQ_VERY_HIGH;
 187              		.loc 1 121 26 is_stmt 0 view .LVU45
 188 0050 0023     		movs	r3, #0
 189 0052 2793     		str	r3, [sp, #156]
 122:Core/Src/stm32l4xx_hal_msp.c ****     GPIO_InitStruct.Alternate = GPIO_AF4_I2C2;
 190              		.loc 1 122 5 is_stmt 1 view .LVU46
 122:Core/Src/stm32l4xx_hal_msp.c ****     GPIO_InitStruct.Alternate = GPIO_AF4_I2C2;
ARM GAS  /tmp/cchr4eSW.s 			page 7


 191              		.loc 1 122 27 is_stmt 0 view .LVU47
 192 0054 0323     		movs	r3, #3
 193 0056 2893     		str	r3, [sp, #160]
 123:Core/Src/stm32l4xx_hal_msp.c ****     HAL_GPIO_Init(GPIOB, &GPIO_InitStruct);
 194              		.loc 1 123 5 is_stmt 1 view .LVU48
 123:Core/Src/stm32l4xx_hal_msp.c ****     HAL_GPIO_Init(GPIOB, &GPIO_InitStruct);
 195              		.loc 1 123 31 is_stmt 0 view .LVU49
 196 0058 0423     		movs	r3, #4
 197 005a 2993     		str	r3, [sp, #164]
 124:Core/Src/stm32l4xx_hal_msp.c **** 
 198              		.loc 1 124 5 is_stmt 1 view .LVU50
 199 005c 25A9     		add	r1, sp, #148
 200 005e 0A48     		ldr	r0, .L11+8
 201 0060 FFF7FEFF 		bl	HAL_GPIO_Init
 202              	.LVL9:
 127:Core/Src/stm32l4xx_hal_msp.c ****     /* USER CODE BEGIN I2C2_MspInit 1 */
 203              		.loc 1 127 5 view .LVU51
 204              	.LBB5:
 127:Core/Src/stm32l4xx_hal_msp.c ****     /* USER CODE BEGIN I2C2_MspInit 1 */
 205              		.loc 1 127 5 view .LVU52
 127:Core/Src/stm32l4xx_hal_msp.c ****     /* USER CODE BEGIN I2C2_MspInit 1 */
 206              		.loc 1 127 5 view .LVU53
 207 0064 A36D     		ldr	r3, [r4, #88]
 208 0066 43F48003 		orr	r3, r3, #4194304
 209 006a A365     		str	r3, [r4, #88]
 127:Core/Src/stm32l4xx_hal_msp.c ****     /* USER CODE BEGIN I2C2_MspInit 1 */
 210              		.loc 1 127 5 view .LVU54
 211 006c A36D     		ldr	r3, [r4, #88]
 212 006e 03F48003 		and	r3, r3, #4194304
 213 0072 0293     		str	r3, [sp, #8]
 127:Core/Src/stm32l4xx_hal_msp.c ****     /* USER CODE BEGIN I2C2_MspInit 1 */
 214              		.loc 1 127 5 view .LVU55
 215 0074 029B     		ldr	r3, [sp, #8]
 216              	.LBE5:
 127:Core/Src/stm32l4xx_hal_msp.c ****     /* USER CODE BEGIN I2C2_MspInit 1 */
 217              		.loc 1 127 5 view .LVU56
 218              		.loc 1 134 1 is_stmt 0 view .LVU57
 219 0076 D4E7     		b	.L5
 220              	.LVL10:
 221              	.L10:
 111:Core/Src/stm32l4xx_hal_msp.c ****     }
 222              		.loc 1 111 7 is_stmt 1 view .LVU58
 223 0078 FFF7FEFF 		bl	Error_Handler
 224              	.LVL11:
 225 007c D9E7     		b	.L7
 226              	.L12:
 227 007e 00BF     		.align	2
 228              	.L11:
 229 0080 00580040 		.word	1073764352
 230 0084 00100240 		.word	1073876992
 231 0088 00040048 		.word	1207960576
 232              		.cfi_endproc
 233              	.LFE229:
 235              		.section	.text.HAL_I2C_MspDeInit,"ax",%progbits
 236              		.align	1
 237              		.global	HAL_I2C_MspDeInit
 238              		.syntax unified
ARM GAS  /tmp/cchr4eSW.s 			page 8


 239              		.thumb
 240              		.thumb_func
 242              	HAL_I2C_MspDeInit:
 243              	.LVL12:
 244              	.LFB230:
 135:Core/Src/stm32l4xx_hal_msp.c **** 
 136:Core/Src/stm32l4xx_hal_msp.c **** /**
 137:Core/Src/stm32l4xx_hal_msp.c ****   * @brief I2C MSP De-Initialization
 138:Core/Src/stm32l4xx_hal_msp.c ****   * This function freeze the hardware resources used in this example
 139:Core/Src/stm32l4xx_hal_msp.c ****   * @param hi2c: I2C handle pointer
 140:Core/Src/stm32l4xx_hal_msp.c ****   * @retval None
 141:Core/Src/stm32l4xx_hal_msp.c ****   */
 142:Core/Src/stm32l4xx_hal_msp.c **** void HAL_I2C_MspDeInit(I2C_HandleTypeDef* hi2c)
 143:Core/Src/stm32l4xx_hal_msp.c **** {
 245              		.loc 1 143 1 view -0
 246              		.cfi_startproc
 247              		@ args = 0, pretend = 0, frame = 0
 248              		@ frame_needed = 0, uses_anonymous_args = 0
 249              		.loc 1 143 1 is_stmt 0 view .LVU60
 250 0000 08B5     		push	{r3, lr}
 251              		.cfi_def_cfa_offset 8
 252              		.cfi_offset 3, -8
 253              		.cfi_offset 14, -4
 144:Core/Src/stm32l4xx_hal_msp.c ****   if(hi2c->Instance==I2C2)
 254              		.loc 1 144 3 is_stmt 1 view .LVU61
 255              		.loc 1 144 10 is_stmt 0 view .LVU62
 256 0002 0268     		ldr	r2, [r0]
 257              		.loc 1 144 5 view .LVU63
 258 0004 094B     		ldr	r3, .L17
 259 0006 9A42     		cmp	r2, r3
 260 0008 00D0     		beq	.L16
 261              	.LVL13:
 262              	.L13:
 145:Core/Src/stm32l4xx_hal_msp.c ****   {
 146:Core/Src/stm32l4xx_hal_msp.c ****     /* USER CODE BEGIN I2C2_MspDeInit 0 */
 147:Core/Src/stm32l4xx_hal_msp.c **** 
 148:Core/Src/stm32l4xx_hal_msp.c ****     /* USER CODE END I2C2_MspDeInit 0 */
 149:Core/Src/stm32l4xx_hal_msp.c ****     /* Peripheral clock disable */
 150:Core/Src/stm32l4xx_hal_msp.c ****     __HAL_RCC_I2C2_CLK_DISABLE();
 151:Core/Src/stm32l4xx_hal_msp.c **** 
 152:Core/Src/stm32l4xx_hal_msp.c ****     /**I2C2 GPIO Configuration
 153:Core/Src/stm32l4xx_hal_msp.c ****     PB13     ------> I2C2_SCL
 154:Core/Src/stm32l4xx_hal_msp.c ****     PB14     ------> I2C2_SDA
 155:Core/Src/stm32l4xx_hal_msp.c ****     */
 156:Core/Src/stm32l4xx_hal_msp.c ****     HAL_GPIO_DeInit(GPIOB, GPIO_PIN_13);
 157:Core/Src/stm32l4xx_hal_msp.c **** 
 158:Core/Src/stm32l4xx_hal_msp.c ****     HAL_GPIO_DeInit(GPIOB, GPIO_PIN_14);
 159:Core/Src/stm32l4xx_hal_msp.c **** 
 160:Core/Src/stm32l4xx_hal_msp.c ****     /* USER CODE BEGIN I2C2_MspDeInit 1 */
 161:Core/Src/stm32l4xx_hal_msp.c **** 
 162:Core/Src/stm32l4xx_hal_msp.c ****     /* USER CODE END I2C2_MspDeInit 1 */
 163:Core/Src/stm32l4xx_hal_msp.c ****   }
 164:Core/Src/stm32l4xx_hal_msp.c **** 
 165:Core/Src/stm32l4xx_hal_msp.c **** }
 263              		.loc 1 165 1 view .LVU64
 264 000a 08BD     		pop	{r3, pc}
 265              	.LVL14:
ARM GAS  /tmp/cchr4eSW.s 			page 9


 266              	.L16:
 150:Core/Src/stm32l4xx_hal_msp.c **** 
 267              		.loc 1 150 5 is_stmt 1 view .LVU65
 268 000c 084A     		ldr	r2, .L17+4
 269 000e 936D     		ldr	r3, [r2, #88]
 270 0010 23F48003 		bic	r3, r3, #4194304
 271 0014 9365     		str	r3, [r2, #88]
 156:Core/Src/stm32l4xx_hal_msp.c **** 
 272              		.loc 1 156 5 view .LVU66
 273 0016 4FF40051 		mov	r1, #8192
 274 001a 0648     		ldr	r0, .L17+8
 275              	.LVL15:
 156:Core/Src/stm32l4xx_hal_msp.c **** 
 276              		.loc 1 156 5 is_stmt 0 view .LVU67
 277 001c FFF7FEFF 		bl	HAL_GPIO_DeInit
 278              	.LVL16:
 158:Core/Src/stm32l4xx_hal_msp.c **** 
 279              		.loc 1 158 5 is_stmt 1 view .LVU68
 280 0020 4FF48041 		mov	r1, #16384
 281 0024 0348     		ldr	r0, .L17+8
 282 0026 FFF7FEFF 		bl	HAL_GPIO_DeInit
 283              	.LVL17:
 284              		.loc 1 165 1 is_stmt 0 view .LVU69
 285 002a EEE7     		b	.L13
 286              	.L18:
 287              		.align	2
 288              	.L17:
 289 002c 00580040 		.word	1073764352
 290 0030 00100240 		.word	1073876992
 291 0034 00040048 		.word	1207960576
 292              		.cfi_endproc
 293              	.LFE230:
 295              		.section	.text.HAL_UART_MspInit,"ax",%progbits
 296              		.align	1
 297              		.global	HAL_UART_MspInit
 298              		.syntax unified
 299              		.thumb
 300              		.thumb_func
 302              	HAL_UART_MspInit:
 303              	.LVL18:
 304              	.LFB231:
 166:Core/Src/stm32l4xx_hal_msp.c **** 
 167:Core/Src/stm32l4xx_hal_msp.c **** /**
 168:Core/Src/stm32l4xx_hal_msp.c ****   * @brief UART MSP Initialization
 169:Core/Src/stm32l4xx_hal_msp.c ****   * This function configures the hardware resources used in this example
 170:Core/Src/stm32l4xx_hal_msp.c ****   * @param huart: UART handle pointer
 171:Core/Src/stm32l4xx_hal_msp.c ****   * @retval None
 172:Core/Src/stm32l4xx_hal_msp.c ****   */
 173:Core/Src/stm32l4xx_hal_msp.c **** void HAL_UART_MspInit(UART_HandleTypeDef* huart)
 174:Core/Src/stm32l4xx_hal_msp.c **** {
 305              		.loc 1 174 1 is_stmt 1 view -0
 306              		.cfi_startproc
 307              		@ args = 0, pretend = 0, frame = 192
 308              		@ frame_needed = 0, uses_anonymous_args = 0
 309              		.loc 1 174 1 is_stmt 0 view .LVU71
 310 0000 70B5     		push	{r4, r5, r6, lr}
 311              		.cfi_def_cfa_offset 16
ARM GAS  /tmp/cchr4eSW.s 			page 10


 312              		.cfi_offset 4, -16
 313              		.cfi_offset 5, -12
 314              		.cfi_offset 6, -8
 315              		.cfi_offset 14, -4
 316 0002 B0B0     		sub	sp, sp, #192
 317              		.cfi_def_cfa_offset 208
 318 0004 0446     		mov	r4, r0
 319 0006 0646     		mov	r6, r0
 175:Core/Src/stm32l4xx_hal_msp.c ****   GPIO_InitTypeDef GPIO_InitStruct = {0};
 320              		.loc 1 175 3 is_stmt 1 view .LVU72
 321              		.loc 1 175 20 is_stmt 0 view .LVU73
 322 0008 0021     		movs	r1, #0
 323 000a 2B91     		str	r1, [sp, #172]
 324 000c 2C91     		str	r1, [sp, #176]
 325 000e 2D91     		str	r1, [sp, #180]
 326 0010 2E91     		str	r1, [sp, #184]
 327 0012 2F91     		str	r1, [sp, #188]
 176:Core/Src/stm32l4xx_hal_msp.c ****   RCC_PeriphCLKInitTypeDef PeriphClkInit = {0};
 328              		.loc 1 176 3 is_stmt 1 view .LVU74
 329              		.loc 1 176 28 is_stmt 0 view .LVU75
 330 0014 8822     		movs	r2, #136
 331 0016 09A8     		add	r0, sp, #36
 332              	.LVL19:
 333              		.loc 1 176 28 view .LVU76
 334 0018 FFF7FEFF 		bl	memset
 335              	.LVL20:
 177:Core/Src/stm32l4xx_hal_msp.c ****   if(huart->Instance==LPUART1)
 336              		.loc 1 177 3 is_stmt 1 view .LVU77
 337              		.loc 1 177 11 is_stmt 0 view .LVU78
 338 001c 2368     		ldr	r3, [r4]
 339              		.loc 1 177 5 view .LVU79
 340 001e 6A4A     		ldr	r2, .L39
 341 0020 9342     		cmp	r3, r2
 342 0022 0BD0     		beq	.L30
 178:Core/Src/stm32l4xx_hal_msp.c ****   {
 179:Core/Src/stm32l4xx_hal_msp.c ****     /* USER CODE BEGIN LPUART1_MspInit 0 */
 180:Core/Src/stm32l4xx_hal_msp.c **** 
 181:Core/Src/stm32l4xx_hal_msp.c ****     /* USER CODE END LPUART1_MspInit 0 */
 182:Core/Src/stm32l4xx_hal_msp.c **** 
 183:Core/Src/stm32l4xx_hal_msp.c ****   /** Initializes the peripherals clock
 184:Core/Src/stm32l4xx_hal_msp.c ****   */
 185:Core/Src/stm32l4xx_hal_msp.c ****     PeriphClkInit.PeriphClockSelection = RCC_PERIPHCLK_LPUART1;
 186:Core/Src/stm32l4xx_hal_msp.c ****     PeriphClkInit.Lpuart1ClockSelection = RCC_LPUART1CLKSOURCE_PCLK1;
 187:Core/Src/stm32l4xx_hal_msp.c ****     if (HAL_RCCEx_PeriphCLKConfig(&PeriphClkInit) != HAL_OK)
 188:Core/Src/stm32l4xx_hal_msp.c ****     {
 189:Core/Src/stm32l4xx_hal_msp.c ****       Error_Handler();
 190:Core/Src/stm32l4xx_hal_msp.c ****     }
 191:Core/Src/stm32l4xx_hal_msp.c **** 
 192:Core/Src/stm32l4xx_hal_msp.c ****     /* Peripheral clock enable */
 193:Core/Src/stm32l4xx_hal_msp.c ****     __HAL_RCC_LPUART1_CLK_ENABLE();
 194:Core/Src/stm32l4xx_hal_msp.c **** 
 195:Core/Src/stm32l4xx_hal_msp.c ****     __HAL_RCC_GPIOC_CLK_ENABLE();
 196:Core/Src/stm32l4xx_hal_msp.c ****     /**LPUART1 GPIO Configuration
 197:Core/Src/stm32l4xx_hal_msp.c ****     PC0     ------> LPUART1_RX
 198:Core/Src/stm32l4xx_hal_msp.c ****     PC1     ------> LPUART1_TX
 199:Core/Src/stm32l4xx_hal_msp.c ****     */
 200:Core/Src/stm32l4xx_hal_msp.c ****     GPIO_InitStruct.Pin = L0_LPUART1_RX_Pin|L0_LPUART1_TX_Pin;
ARM GAS  /tmp/cchr4eSW.s 			page 11


 201:Core/Src/stm32l4xx_hal_msp.c ****     GPIO_InitStruct.Mode = GPIO_MODE_AF_PP;
 202:Core/Src/stm32l4xx_hal_msp.c ****     GPIO_InitStruct.Pull = GPIO_NOPULL;
 203:Core/Src/stm32l4xx_hal_msp.c ****     GPIO_InitStruct.Speed = GPIO_SPEED_FREQ_VERY_HIGH;
 204:Core/Src/stm32l4xx_hal_msp.c ****     GPIO_InitStruct.Alternate = GPIO_AF8_LPUART1;
 205:Core/Src/stm32l4xx_hal_msp.c ****     HAL_GPIO_Init(GPIOC, &GPIO_InitStruct);
 206:Core/Src/stm32l4xx_hal_msp.c **** 
 207:Core/Src/stm32l4xx_hal_msp.c ****     /* USER CODE BEGIN LPUART1_MspInit 1 */
 208:Core/Src/stm32l4xx_hal_msp.c **** 
 209:Core/Src/stm32l4xx_hal_msp.c ****     /* USER CODE END LPUART1_MspInit 1 */
 210:Core/Src/stm32l4xx_hal_msp.c ****   }
 211:Core/Src/stm32l4xx_hal_msp.c ****   else if(huart->Instance==USART1)
 343              		.loc 1 211 8 is_stmt 1 view .LVU80
 344              		.loc 1 211 10 is_stmt 0 view .LVU81
 345 0024 694A     		ldr	r2, .L39+4
 346 0026 9342     		cmp	r3, r2
 347 0028 32D0     		beq	.L31
 212:Core/Src/stm32l4xx_hal_msp.c ****   {
 213:Core/Src/stm32l4xx_hal_msp.c ****     /* USER CODE BEGIN USART1_MspInit 0 */
 214:Core/Src/stm32l4xx_hal_msp.c **** 
 215:Core/Src/stm32l4xx_hal_msp.c ****     /* USER CODE END USART1_MspInit 0 */
 216:Core/Src/stm32l4xx_hal_msp.c **** 
 217:Core/Src/stm32l4xx_hal_msp.c ****   /** Initializes the peripherals clock
 218:Core/Src/stm32l4xx_hal_msp.c ****   */
 219:Core/Src/stm32l4xx_hal_msp.c ****     PeriphClkInit.PeriphClockSelection = RCC_PERIPHCLK_USART1;
 220:Core/Src/stm32l4xx_hal_msp.c ****     PeriphClkInit.Usart1ClockSelection = RCC_USART1CLKSOURCE_PCLK2;
 221:Core/Src/stm32l4xx_hal_msp.c ****     if (HAL_RCCEx_PeriphCLKConfig(&PeriphClkInit) != HAL_OK)
 222:Core/Src/stm32l4xx_hal_msp.c ****     {
 223:Core/Src/stm32l4xx_hal_msp.c ****       Error_Handler();
 224:Core/Src/stm32l4xx_hal_msp.c ****     }
 225:Core/Src/stm32l4xx_hal_msp.c **** 
 226:Core/Src/stm32l4xx_hal_msp.c ****     /* Peripheral clock enable */
 227:Core/Src/stm32l4xx_hal_msp.c ****     __HAL_RCC_USART1_CLK_ENABLE();
 228:Core/Src/stm32l4xx_hal_msp.c **** 
 229:Core/Src/stm32l4xx_hal_msp.c ****     __HAL_RCC_GPIOA_CLK_ENABLE();
 230:Core/Src/stm32l4xx_hal_msp.c ****     /**USART1 GPIO Configuration
 231:Core/Src/stm32l4xx_hal_msp.c ****     PA9     ------> USART1_TX
 232:Core/Src/stm32l4xx_hal_msp.c ****     PA10     ------> USART1_RX
 233:Core/Src/stm32l4xx_hal_msp.c ****     */
 234:Core/Src/stm32l4xx_hal_msp.c ****     GPIO_InitStruct.Pin = D_USART_RX_Pin|D_USART_TX_Pin;
 235:Core/Src/stm32l4xx_hal_msp.c ****     GPIO_InitStruct.Mode = GPIO_MODE_AF_PP;
 236:Core/Src/stm32l4xx_hal_msp.c ****     GPIO_InitStruct.Pull = GPIO_NOPULL;
 237:Core/Src/stm32l4xx_hal_msp.c ****     GPIO_InitStruct.Speed = GPIO_SPEED_FREQ_VERY_HIGH;
 238:Core/Src/stm32l4xx_hal_msp.c ****     GPIO_InitStruct.Alternate = GPIO_AF7_USART1;
 239:Core/Src/stm32l4xx_hal_msp.c ****     HAL_GPIO_Init(GPIOA, &GPIO_InitStruct);
 240:Core/Src/stm32l4xx_hal_msp.c **** 
 241:Core/Src/stm32l4xx_hal_msp.c ****     /* USART1 DMA Init */
 242:Core/Src/stm32l4xx_hal_msp.c ****     /* USART1_RX Init */
 243:Core/Src/stm32l4xx_hal_msp.c ****     hdma_usart1_rx.Instance = DMA1_Channel5;
 244:Core/Src/stm32l4xx_hal_msp.c ****     hdma_usart1_rx.Init.Request = DMA_REQUEST_2;
 245:Core/Src/stm32l4xx_hal_msp.c ****     hdma_usart1_rx.Init.Direction = DMA_PERIPH_TO_MEMORY;
 246:Core/Src/stm32l4xx_hal_msp.c ****     hdma_usart1_rx.Init.PeriphInc = DMA_PINC_DISABLE;
 247:Core/Src/stm32l4xx_hal_msp.c ****     hdma_usart1_rx.Init.MemInc = DMA_MINC_ENABLE;
 248:Core/Src/stm32l4xx_hal_msp.c ****     hdma_usart1_rx.Init.PeriphDataAlignment = DMA_PDATAALIGN_BYTE;
 249:Core/Src/stm32l4xx_hal_msp.c ****     hdma_usart1_rx.Init.MemDataAlignment = DMA_MDATAALIGN_BYTE;
 250:Core/Src/stm32l4xx_hal_msp.c ****     hdma_usart1_rx.Init.Mode = DMA_CIRCULAR;
 251:Core/Src/stm32l4xx_hal_msp.c ****     hdma_usart1_rx.Init.Priority = DMA_PRIORITY_LOW;
 252:Core/Src/stm32l4xx_hal_msp.c ****     if (HAL_DMA_Init(&hdma_usart1_rx) != HAL_OK)
ARM GAS  /tmp/cchr4eSW.s 			page 12


 253:Core/Src/stm32l4xx_hal_msp.c ****     {
 254:Core/Src/stm32l4xx_hal_msp.c ****       Error_Handler();
 255:Core/Src/stm32l4xx_hal_msp.c ****     }
 256:Core/Src/stm32l4xx_hal_msp.c **** 
 257:Core/Src/stm32l4xx_hal_msp.c ****     __HAL_LINKDMA(huart,hdmarx,hdma_usart1_rx);
 258:Core/Src/stm32l4xx_hal_msp.c **** 
 259:Core/Src/stm32l4xx_hal_msp.c ****     /* USER CODE BEGIN USART1_MspInit 1 */
 260:Core/Src/stm32l4xx_hal_msp.c **** 
 261:Core/Src/stm32l4xx_hal_msp.c ****     /* USER CODE END USART1_MspInit 1 */
 262:Core/Src/stm32l4xx_hal_msp.c ****   }
 263:Core/Src/stm32l4xx_hal_msp.c ****   else if(huart->Instance==USART2)
 348              		.loc 1 263 8 is_stmt 1 view .LVU82
 349              		.loc 1 263 10 is_stmt 0 view .LVU83
 350 002a 694A     		ldr	r2, .L39+8
 351 002c 9342     		cmp	r3, r2
 352 002e 73D0     		beq	.L32
 264:Core/Src/stm32l4xx_hal_msp.c ****   {
 265:Core/Src/stm32l4xx_hal_msp.c ****     /* USER CODE BEGIN USART2_MspInit 0 */
 266:Core/Src/stm32l4xx_hal_msp.c **** 
 267:Core/Src/stm32l4xx_hal_msp.c ****     /* USER CODE END USART2_MspInit 0 */
 268:Core/Src/stm32l4xx_hal_msp.c **** 
 269:Core/Src/stm32l4xx_hal_msp.c ****   /** Initializes the peripherals clock
 270:Core/Src/stm32l4xx_hal_msp.c ****   */
 271:Core/Src/stm32l4xx_hal_msp.c ****     PeriphClkInit.PeriphClockSelection = RCC_PERIPHCLK_USART2;
 272:Core/Src/stm32l4xx_hal_msp.c ****     PeriphClkInit.Usart2ClockSelection = RCC_USART2CLKSOURCE_PCLK1;
 273:Core/Src/stm32l4xx_hal_msp.c ****     if (HAL_RCCEx_PeriphCLKConfig(&PeriphClkInit) != HAL_OK)
 274:Core/Src/stm32l4xx_hal_msp.c ****     {
 275:Core/Src/stm32l4xx_hal_msp.c ****       Error_Handler();
 276:Core/Src/stm32l4xx_hal_msp.c ****     }
 277:Core/Src/stm32l4xx_hal_msp.c **** 
 278:Core/Src/stm32l4xx_hal_msp.c ****     /* Peripheral clock enable */
 279:Core/Src/stm32l4xx_hal_msp.c ****     __HAL_RCC_USART2_CLK_ENABLE();
 280:Core/Src/stm32l4xx_hal_msp.c **** 
 281:Core/Src/stm32l4xx_hal_msp.c ****     __HAL_RCC_GPIOA_CLK_ENABLE();
 282:Core/Src/stm32l4xx_hal_msp.c ****     /**USART2 GPIO Configuration
 283:Core/Src/stm32l4xx_hal_msp.c ****     PA0     ------> USART2_CTS
 284:Core/Src/stm32l4xx_hal_msp.c ****     PA1     ------> USART2_RTS
 285:Core/Src/stm32l4xx_hal_msp.c ****     PA2     ------> USART2_TX
 286:Core/Src/stm32l4xx_hal_msp.c ****     PA3     ------> USART2_RX
 287:Core/Src/stm32l4xx_hal_msp.c ****     */
 288:Core/Src/stm32l4xx_hal_msp.c ****     GPIO_InitStruct.Pin = Wi_USART2_CTS_Pin|Wi_USART2_RTS_Pin|Wi_USART2_TX_Pin|Wi_USART2_RX_Pin;
 289:Core/Src/stm32l4xx_hal_msp.c ****     GPIO_InitStruct.Mode = GPIO_MODE_AF_PP;
 290:Core/Src/stm32l4xx_hal_msp.c ****     GPIO_InitStruct.Pull = GPIO_NOPULL;
 291:Core/Src/stm32l4xx_hal_msp.c ****     GPIO_InitStruct.Speed = GPIO_SPEED_FREQ_VERY_HIGH;
 292:Core/Src/stm32l4xx_hal_msp.c ****     GPIO_InitStruct.Alternate = GPIO_AF7_USART2;
 293:Core/Src/stm32l4xx_hal_msp.c ****     HAL_GPIO_Init(GPIOA, &GPIO_InitStruct);
 294:Core/Src/stm32l4xx_hal_msp.c **** 
 295:Core/Src/stm32l4xx_hal_msp.c ****     /* USER CODE BEGIN USART2_MspInit 1 */
 296:Core/Src/stm32l4xx_hal_msp.c **** 
 297:Core/Src/stm32l4xx_hal_msp.c ****     /* USER CODE END USART2_MspInit 1 */
 298:Core/Src/stm32l4xx_hal_msp.c ****   }
 299:Core/Src/stm32l4xx_hal_msp.c ****   else if(huart->Instance==USART3)
 353              		.loc 1 299 8 is_stmt 1 view .LVU84
 354              		.loc 1 299 10 is_stmt 0 view .LVU85
 355 0030 684A     		ldr	r2, .L39+12
 356 0032 9342     		cmp	r3, r2
 357 0034 00F09C80 		beq	.L33
ARM GAS  /tmp/cchr4eSW.s 			page 13


 358              	.LVL21:
 359              	.L19:
 300:Core/Src/stm32l4xx_hal_msp.c ****   {
 301:Core/Src/stm32l4xx_hal_msp.c ****     /* USER CODE BEGIN USART3_MspInit 0 */
 302:Core/Src/stm32l4xx_hal_msp.c **** 
 303:Core/Src/stm32l4xx_hal_msp.c ****     /* USER CODE END USART3_MspInit 0 */
 304:Core/Src/stm32l4xx_hal_msp.c **** 
 305:Core/Src/stm32l4xx_hal_msp.c ****   /** Initializes the peripherals clock
 306:Core/Src/stm32l4xx_hal_msp.c ****   */
 307:Core/Src/stm32l4xx_hal_msp.c ****     PeriphClkInit.PeriphClockSelection = RCC_PERIPHCLK_USART3;
 308:Core/Src/stm32l4xx_hal_msp.c ****     PeriphClkInit.Usart3ClockSelection = RCC_USART3CLKSOURCE_PCLK1;
 309:Core/Src/stm32l4xx_hal_msp.c ****     if (HAL_RCCEx_PeriphCLKConfig(&PeriphClkInit) != HAL_OK)
 310:Core/Src/stm32l4xx_hal_msp.c ****     {
 311:Core/Src/stm32l4xx_hal_msp.c ****       Error_Handler();
 312:Core/Src/stm32l4xx_hal_msp.c ****     }
 313:Core/Src/stm32l4xx_hal_msp.c **** 
 314:Core/Src/stm32l4xx_hal_msp.c ****     /* Peripheral clock enable */
 315:Core/Src/stm32l4xx_hal_msp.c ****     __HAL_RCC_USART3_CLK_ENABLE();
 316:Core/Src/stm32l4xx_hal_msp.c **** 
 317:Core/Src/stm32l4xx_hal_msp.c ****     __HAL_RCC_GPIOC_CLK_ENABLE();
 318:Core/Src/stm32l4xx_hal_msp.c ****     /**USART3 GPIO Configuration
 319:Core/Src/stm32l4xx_hal_msp.c ****     PC4     ------> USART3_TX
 320:Core/Src/stm32l4xx_hal_msp.c ****     PC5     ------> USART3_RX
 321:Core/Src/stm32l4xx_hal_msp.c ****     */
 322:Core/Src/stm32l4xx_hal_msp.c ****     GPIO_InitStruct.Pin = Wi_USART3_TX_Pin|Wi_USART3_RX_Pin;
 323:Core/Src/stm32l4xx_hal_msp.c ****     GPIO_InitStruct.Mode = GPIO_MODE_AF_PP;
 324:Core/Src/stm32l4xx_hal_msp.c ****     GPIO_InitStruct.Pull = GPIO_NOPULL;
 325:Core/Src/stm32l4xx_hal_msp.c ****     GPIO_InitStruct.Speed = GPIO_SPEED_FREQ_VERY_HIGH;
 326:Core/Src/stm32l4xx_hal_msp.c ****     GPIO_InitStruct.Alternate = GPIO_AF7_USART3;
 327:Core/Src/stm32l4xx_hal_msp.c ****     HAL_GPIO_Init(GPIOC, &GPIO_InitStruct);
 328:Core/Src/stm32l4xx_hal_msp.c **** 
 329:Core/Src/stm32l4xx_hal_msp.c ****     /* USER CODE BEGIN USART3_MspInit 1 */
 330:Core/Src/stm32l4xx_hal_msp.c **** 
 331:Core/Src/stm32l4xx_hal_msp.c ****     /* USER CODE END USART3_MspInit 1 */
 332:Core/Src/stm32l4xx_hal_msp.c ****   }
 333:Core/Src/stm32l4xx_hal_msp.c **** 
 334:Core/Src/stm32l4xx_hal_msp.c **** }
 360              		.loc 1 334 1 view .LVU86
 361 0038 30B0     		add	sp, sp, #192
 362              		.cfi_remember_state
 363              		.cfi_def_cfa_offset 16
 364              		@ sp needed
 365 003a 70BD     		pop	{r4, r5, r6, pc}
 366              	.LVL22:
 367              	.L30:
 368              		.cfi_restore_state
 185:Core/Src/stm32l4xx_hal_msp.c ****     PeriphClkInit.Lpuart1ClockSelection = RCC_LPUART1CLKSOURCE_PCLK1;
 369              		.loc 1 185 5 is_stmt 1 view .LVU87
 185:Core/Src/stm32l4xx_hal_msp.c ****     PeriphClkInit.Lpuart1ClockSelection = RCC_LPUART1CLKSOURCE_PCLK1;
 370              		.loc 1 185 40 is_stmt 0 view .LVU88
 371 003c 2023     		movs	r3, #32
 372 003e 0993     		str	r3, [sp, #36]
 186:Core/Src/stm32l4xx_hal_msp.c ****     if (HAL_RCCEx_PeriphCLKConfig(&PeriphClkInit) != HAL_OK)
 373              		.loc 1 186 5 is_stmt 1 view .LVU89
 187:Core/Src/stm32l4xx_hal_msp.c ****     {
 374              		.loc 1 187 5 view .LVU90
 187:Core/Src/stm32l4xx_hal_msp.c ****     {
ARM GAS  /tmp/cchr4eSW.s 			page 14


 375              		.loc 1 187 9 is_stmt 0 view .LVU91
 376 0040 09A8     		add	r0, sp, #36
 377 0042 FFF7FEFF 		bl	HAL_RCCEx_PeriphCLKConfig
 378              	.LVL23:
 187:Core/Src/stm32l4xx_hal_msp.c ****     {
 379              		.loc 1 187 8 discriminator 1 view .LVU92
 380 0046 00BB     		cbnz	r0, .L34
 381              	.L21:
 193:Core/Src/stm32l4xx_hal_msp.c **** 
 382              		.loc 1 193 5 is_stmt 1 view .LVU93
 383              	.LBB6:
 193:Core/Src/stm32l4xx_hal_msp.c **** 
 384              		.loc 1 193 5 view .LVU94
 193:Core/Src/stm32l4xx_hal_msp.c **** 
 385              		.loc 1 193 5 view .LVU95
 386 0048 634B     		ldr	r3, .L39+16
 387 004a DA6D     		ldr	r2, [r3, #92]
 388 004c 42F00102 		orr	r2, r2, #1
 389 0050 DA65     		str	r2, [r3, #92]
 193:Core/Src/stm32l4xx_hal_msp.c **** 
 390              		.loc 1 193 5 view .LVU96
 391 0052 DA6D     		ldr	r2, [r3, #92]
 392 0054 02F00102 		and	r2, r2, #1
 393 0058 0192     		str	r2, [sp, #4]
 193:Core/Src/stm32l4xx_hal_msp.c **** 
 394              		.loc 1 193 5 view .LVU97
 395 005a 019A     		ldr	r2, [sp, #4]
 396              	.LBE6:
 193:Core/Src/stm32l4xx_hal_msp.c **** 
 397              		.loc 1 193 5 view .LVU98
 195:Core/Src/stm32l4xx_hal_msp.c ****     /**LPUART1 GPIO Configuration
 398              		.loc 1 195 5 view .LVU99
 399              	.LBB7:
 195:Core/Src/stm32l4xx_hal_msp.c ****     /**LPUART1 GPIO Configuration
 400              		.loc 1 195 5 view .LVU100
 195:Core/Src/stm32l4xx_hal_msp.c ****     /**LPUART1 GPIO Configuration
 401              		.loc 1 195 5 view .LVU101
 402 005c DA6C     		ldr	r2, [r3, #76]
 403 005e 42F00402 		orr	r2, r2, #4
 404 0062 DA64     		str	r2, [r3, #76]
 195:Core/Src/stm32l4xx_hal_msp.c ****     /**LPUART1 GPIO Configuration
 405              		.loc 1 195 5 view .LVU102
 406 0064 DB6C     		ldr	r3, [r3, #76]
 407 0066 03F00403 		and	r3, r3, #4
 408 006a 0293     		str	r3, [sp, #8]
 195:Core/Src/stm32l4xx_hal_msp.c ****     /**LPUART1 GPIO Configuration
 409              		.loc 1 195 5 view .LVU103
 410 006c 029B     		ldr	r3, [sp, #8]
 411              	.LBE7:
 195:Core/Src/stm32l4xx_hal_msp.c ****     /**LPUART1 GPIO Configuration
 412              		.loc 1 195 5 view .LVU104
 200:Core/Src/stm32l4xx_hal_msp.c ****     GPIO_InitStruct.Mode = GPIO_MODE_AF_PP;
 413              		.loc 1 200 5 view .LVU105
 200:Core/Src/stm32l4xx_hal_msp.c ****     GPIO_InitStruct.Mode = GPIO_MODE_AF_PP;
 414              		.loc 1 200 25 is_stmt 0 view .LVU106
 415 006e 0323     		movs	r3, #3
 416 0070 2B93     		str	r3, [sp, #172]
ARM GAS  /tmp/cchr4eSW.s 			page 15


 201:Core/Src/stm32l4xx_hal_msp.c ****     GPIO_InitStruct.Pull = GPIO_NOPULL;
 417              		.loc 1 201 5 is_stmt 1 view .LVU107
 201:Core/Src/stm32l4xx_hal_msp.c ****     GPIO_InitStruct.Pull = GPIO_NOPULL;
 418              		.loc 1 201 26 is_stmt 0 view .LVU108
 419 0072 0222     		movs	r2, #2
 420 0074 2C92     		str	r2, [sp, #176]
 202:Core/Src/stm32l4xx_hal_msp.c ****     GPIO_InitStruct.Speed = GPIO_SPEED_FREQ_VERY_HIGH;
 421              		.loc 1 202 5 is_stmt 1 view .LVU109
 202:Core/Src/stm32l4xx_hal_msp.c ****     GPIO_InitStruct.Speed = GPIO_SPEED_FREQ_VERY_HIGH;
 422              		.loc 1 202 26 is_stmt 0 view .LVU110
 423 0076 0022     		movs	r2, #0
 424 0078 2D92     		str	r2, [sp, #180]
 203:Core/Src/stm32l4xx_hal_msp.c ****     GPIO_InitStruct.Alternate = GPIO_AF8_LPUART1;
 425              		.loc 1 203 5 is_stmt 1 view .LVU111
 203:Core/Src/stm32l4xx_hal_msp.c ****     GPIO_InitStruct.Alternate = GPIO_AF8_LPUART1;
 426              		.loc 1 203 27 is_stmt 0 view .LVU112
 427 007a 2E93     		str	r3, [sp, #184]
 204:Core/Src/stm32l4xx_hal_msp.c ****     HAL_GPIO_Init(GPIOC, &GPIO_InitStruct);
 428              		.loc 1 204 5 is_stmt 1 view .LVU113
 204:Core/Src/stm32l4xx_hal_msp.c ****     HAL_GPIO_Init(GPIOC, &GPIO_InitStruct);
 429              		.loc 1 204 31 is_stmt 0 view .LVU114
 430 007c 0823     		movs	r3, #8
 431 007e 2F93     		str	r3, [sp, #188]
 205:Core/Src/stm32l4xx_hal_msp.c **** 
 432              		.loc 1 205 5 is_stmt 1 view .LVU115
 433 0080 2BA9     		add	r1, sp, #172
 434 0082 5648     		ldr	r0, .L39+20
 435 0084 FFF7FEFF 		bl	HAL_GPIO_Init
 436              	.LVL24:
 437 0088 D6E7     		b	.L19
 438              	.L34:
 189:Core/Src/stm32l4xx_hal_msp.c ****     }
 439              		.loc 1 189 7 view .LVU116
 440 008a FFF7FEFF 		bl	Error_Handler
 441              	.LVL25:
 442 008e DBE7     		b	.L21
 443              	.L31:
 219:Core/Src/stm32l4xx_hal_msp.c ****     PeriphClkInit.Usart1ClockSelection = RCC_USART1CLKSOURCE_PCLK2;
 444              		.loc 1 219 5 view .LVU117
 219:Core/Src/stm32l4xx_hal_msp.c ****     PeriphClkInit.Usart1ClockSelection = RCC_USART1CLKSOURCE_PCLK2;
 445              		.loc 1 219 40 is_stmt 0 view .LVU118
 446 0090 0123     		movs	r3, #1
 447 0092 0993     		str	r3, [sp, #36]
 220:Core/Src/stm32l4xx_hal_msp.c ****     if (HAL_RCCEx_PeriphCLKConfig(&PeriphClkInit) != HAL_OK)
 448              		.loc 1 220 5 is_stmt 1 view .LVU119
 221:Core/Src/stm32l4xx_hal_msp.c ****     {
 449              		.loc 1 221 5 view .LVU120
 221:Core/Src/stm32l4xx_hal_msp.c ****     {
 450              		.loc 1 221 9 is_stmt 0 view .LVU121
 451 0094 09A8     		add	r0, sp, #36
 452 0096 FFF7FEFF 		bl	HAL_RCCEx_PeriphCLKConfig
 453              	.LVL26:
 221:Core/Src/stm32l4xx_hal_msp.c ****     {
 454              		.loc 1 221 8 discriminator 1 view .LVU122
 455 009a 0028     		cmp	r0, #0
 456 009c 36D1     		bne	.L35
 457              	.L24:
ARM GAS  /tmp/cchr4eSW.s 			page 16


 227:Core/Src/stm32l4xx_hal_msp.c **** 
 458              		.loc 1 227 5 is_stmt 1 view .LVU123
 459              	.LBB8:
 227:Core/Src/stm32l4xx_hal_msp.c **** 
 460              		.loc 1 227 5 view .LVU124
 227:Core/Src/stm32l4xx_hal_msp.c **** 
 461              		.loc 1 227 5 view .LVU125
 462 009e 4E4B     		ldr	r3, .L39+16
 463 00a0 1A6E     		ldr	r2, [r3, #96]
 464 00a2 42F48042 		orr	r2, r2, #16384
 465 00a6 1A66     		str	r2, [r3, #96]
 227:Core/Src/stm32l4xx_hal_msp.c **** 
 466              		.loc 1 227 5 view .LVU126
 467 00a8 1A6E     		ldr	r2, [r3, #96]
 468 00aa 02F48042 		and	r2, r2, #16384
 469 00ae 0392     		str	r2, [sp, #12]
 227:Core/Src/stm32l4xx_hal_msp.c **** 
 470              		.loc 1 227 5 view .LVU127
 471 00b0 039A     		ldr	r2, [sp, #12]
 472              	.LBE8:
 227:Core/Src/stm32l4xx_hal_msp.c **** 
 473              		.loc 1 227 5 view .LVU128
 229:Core/Src/stm32l4xx_hal_msp.c ****     /**USART1 GPIO Configuration
 474              		.loc 1 229 5 view .LVU129
 475              	.LBB9:
 229:Core/Src/stm32l4xx_hal_msp.c ****     /**USART1 GPIO Configuration
 476              		.loc 1 229 5 view .LVU130
 229:Core/Src/stm32l4xx_hal_msp.c ****     /**USART1 GPIO Configuration
 477              		.loc 1 229 5 view .LVU131
 478 00b2 DA6C     		ldr	r2, [r3, #76]
 479 00b4 42F00102 		orr	r2, r2, #1
 480 00b8 DA64     		str	r2, [r3, #76]
 229:Core/Src/stm32l4xx_hal_msp.c ****     /**USART1 GPIO Configuration
 481              		.loc 1 229 5 view .LVU132
 482 00ba DB6C     		ldr	r3, [r3, #76]
 483 00bc 03F00103 		and	r3, r3, #1
 484 00c0 0493     		str	r3, [sp, #16]
 229:Core/Src/stm32l4xx_hal_msp.c ****     /**USART1 GPIO Configuration
 485              		.loc 1 229 5 view .LVU133
 486 00c2 049B     		ldr	r3, [sp, #16]
 487              	.LBE9:
 229:Core/Src/stm32l4xx_hal_msp.c ****     /**USART1 GPIO Configuration
 488              		.loc 1 229 5 view .LVU134
 234:Core/Src/stm32l4xx_hal_msp.c ****     GPIO_InitStruct.Mode = GPIO_MODE_AF_PP;
 489              		.loc 1 234 5 view .LVU135
 234:Core/Src/stm32l4xx_hal_msp.c ****     GPIO_InitStruct.Mode = GPIO_MODE_AF_PP;
 490              		.loc 1 234 25 is_stmt 0 view .LVU136
 491 00c4 4FF4C063 		mov	r3, #1536
 492 00c8 2B93     		str	r3, [sp, #172]
 235:Core/Src/stm32l4xx_hal_msp.c ****     GPIO_InitStruct.Pull = GPIO_NOPULL;
 493              		.loc 1 235 5 is_stmt 1 view .LVU137
 235:Core/Src/stm32l4xx_hal_msp.c ****     GPIO_InitStruct.Pull = GPIO_NOPULL;
 494              		.loc 1 235 26 is_stmt 0 view .LVU138
 495 00ca 0225     		movs	r5, #2
 496 00cc 2C95     		str	r5, [sp, #176]
 236:Core/Src/stm32l4xx_hal_msp.c ****     GPIO_InitStruct.Speed = GPIO_SPEED_FREQ_VERY_HIGH;
 497              		.loc 1 236 5 is_stmt 1 view .LVU139
ARM GAS  /tmp/cchr4eSW.s 			page 17


 236:Core/Src/stm32l4xx_hal_msp.c ****     GPIO_InitStruct.Speed = GPIO_SPEED_FREQ_VERY_HIGH;
 498              		.loc 1 236 26 is_stmt 0 view .LVU140
 499 00ce 0024     		movs	r4, #0
 500              	.LVL27:
 236:Core/Src/stm32l4xx_hal_msp.c ****     GPIO_InitStruct.Speed = GPIO_SPEED_FREQ_VERY_HIGH;
 501              		.loc 1 236 26 view .LVU141
 502 00d0 2D94     		str	r4, [sp, #180]
 237:Core/Src/stm32l4xx_hal_msp.c ****     GPIO_InitStruct.Alternate = GPIO_AF7_USART1;
 503              		.loc 1 237 5 is_stmt 1 view .LVU142
 237:Core/Src/stm32l4xx_hal_msp.c ****     GPIO_InitStruct.Alternate = GPIO_AF7_USART1;
 504              		.loc 1 237 27 is_stmt 0 view .LVU143
 505 00d2 0323     		movs	r3, #3
 506 00d4 2E93     		str	r3, [sp, #184]
 238:Core/Src/stm32l4xx_hal_msp.c ****     HAL_GPIO_Init(GPIOA, &GPIO_InitStruct);
 507              		.loc 1 238 5 is_stmt 1 view .LVU144
 238:Core/Src/stm32l4xx_hal_msp.c ****     HAL_GPIO_Init(GPIOA, &GPIO_InitStruct);
 508              		.loc 1 238 31 is_stmt 0 view .LVU145
 509 00d6 0723     		movs	r3, #7
 510 00d8 2F93     		str	r3, [sp, #188]
 239:Core/Src/stm32l4xx_hal_msp.c **** 
 511              		.loc 1 239 5 is_stmt 1 view .LVU146
 512 00da 2BA9     		add	r1, sp, #172
 513 00dc 4FF09040 		mov	r0, #1207959552
 514 00e0 FFF7FEFF 		bl	HAL_GPIO_Init
 515              	.LVL28:
 243:Core/Src/stm32l4xx_hal_msp.c ****     hdma_usart1_rx.Init.Request = DMA_REQUEST_2;
 516              		.loc 1 243 5 view .LVU147
 243:Core/Src/stm32l4xx_hal_msp.c ****     hdma_usart1_rx.Init.Request = DMA_REQUEST_2;
 517              		.loc 1 243 29 is_stmt 0 view .LVU148
 518 00e4 3E48     		ldr	r0, .L39+24
 519 00e6 3F4B     		ldr	r3, .L39+28
 520 00e8 0360     		str	r3, [r0]
 244:Core/Src/stm32l4xx_hal_msp.c ****     hdma_usart1_rx.Init.Direction = DMA_PERIPH_TO_MEMORY;
 521              		.loc 1 244 5 is_stmt 1 view .LVU149
 244:Core/Src/stm32l4xx_hal_msp.c ****     hdma_usart1_rx.Init.Direction = DMA_PERIPH_TO_MEMORY;
 522              		.loc 1 244 33 is_stmt 0 view .LVU150
 523 00ea 4560     		str	r5, [r0, #4]
 245:Core/Src/stm32l4xx_hal_msp.c ****     hdma_usart1_rx.Init.PeriphInc = DMA_PINC_DISABLE;
 524              		.loc 1 245 5 is_stmt 1 view .LVU151
 245:Core/Src/stm32l4xx_hal_msp.c ****     hdma_usart1_rx.Init.PeriphInc = DMA_PINC_DISABLE;
 525              		.loc 1 245 35 is_stmt 0 view .LVU152
 526 00ec 8460     		str	r4, [r0, #8]
 246:Core/Src/stm32l4xx_hal_msp.c ****     hdma_usart1_rx.Init.MemInc = DMA_MINC_ENABLE;
 527              		.loc 1 246 5 is_stmt 1 view .LVU153
 246:Core/Src/stm32l4xx_hal_msp.c ****     hdma_usart1_rx.Init.MemInc = DMA_MINC_ENABLE;
 528              		.loc 1 246 35 is_stmt 0 view .LVU154
 529 00ee C460     		str	r4, [r0, #12]
 247:Core/Src/stm32l4xx_hal_msp.c ****     hdma_usart1_rx.Init.PeriphDataAlignment = DMA_PDATAALIGN_BYTE;
 530              		.loc 1 247 5 is_stmt 1 view .LVU155
 247:Core/Src/stm32l4xx_hal_msp.c ****     hdma_usart1_rx.Init.PeriphDataAlignment = DMA_PDATAALIGN_BYTE;
 531              		.loc 1 247 32 is_stmt 0 view .LVU156
 532 00f0 8023     		movs	r3, #128
 533 00f2 0361     		str	r3, [r0, #16]
 248:Core/Src/stm32l4xx_hal_msp.c ****     hdma_usart1_rx.Init.MemDataAlignment = DMA_MDATAALIGN_BYTE;
 534              		.loc 1 248 5 is_stmt 1 view .LVU157
 248:Core/Src/stm32l4xx_hal_msp.c ****     hdma_usart1_rx.Init.MemDataAlignment = DMA_MDATAALIGN_BYTE;
 535              		.loc 1 248 45 is_stmt 0 view .LVU158
ARM GAS  /tmp/cchr4eSW.s 			page 18


 536 00f4 4461     		str	r4, [r0, #20]
 249:Core/Src/stm32l4xx_hal_msp.c ****     hdma_usart1_rx.Init.Mode = DMA_CIRCULAR;
 537              		.loc 1 249 5 is_stmt 1 view .LVU159
 249:Core/Src/stm32l4xx_hal_msp.c ****     hdma_usart1_rx.Init.Mode = DMA_CIRCULAR;
 538              		.loc 1 249 42 is_stmt 0 view .LVU160
 539 00f6 8461     		str	r4, [r0, #24]
 250:Core/Src/stm32l4xx_hal_msp.c ****     hdma_usart1_rx.Init.Priority = DMA_PRIORITY_LOW;
 540              		.loc 1 250 5 is_stmt 1 view .LVU161
 250:Core/Src/stm32l4xx_hal_msp.c ****     hdma_usart1_rx.Init.Priority = DMA_PRIORITY_LOW;
 541              		.loc 1 250 30 is_stmt 0 view .LVU162
 542 00f8 2023     		movs	r3, #32
 543 00fa C361     		str	r3, [r0, #28]
 251:Core/Src/stm32l4xx_hal_msp.c ****     if (HAL_DMA_Init(&hdma_usart1_rx) != HAL_OK)
 544              		.loc 1 251 5 is_stmt 1 view .LVU163
 251:Core/Src/stm32l4xx_hal_msp.c ****     if (HAL_DMA_Init(&hdma_usart1_rx) != HAL_OK)
 545              		.loc 1 251 34 is_stmt 0 view .LVU164
 546 00fc 0462     		str	r4, [r0, #32]
 252:Core/Src/stm32l4xx_hal_msp.c ****     {
 547              		.loc 1 252 5 is_stmt 1 view .LVU165
 252:Core/Src/stm32l4xx_hal_msp.c ****     {
 548              		.loc 1 252 9 is_stmt 0 view .LVU166
 549 00fe FFF7FEFF 		bl	HAL_DMA_Init
 550              	.LVL29:
 252:Core/Src/stm32l4xx_hal_msp.c ****     {
 551              		.loc 1 252 8 discriminator 1 view .LVU167
 552 0102 30B9     		cbnz	r0, .L36
 553              	.L25:
 257:Core/Src/stm32l4xx_hal_msp.c **** 
 554              		.loc 1 257 5 is_stmt 1 view .LVU168
 257:Core/Src/stm32l4xx_hal_msp.c **** 
 555              		.loc 1 257 5 view .LVU169
 556 0104 364B     		ldr	r3, .L39+24
 557 0106 7367     		str	r3, [r6, #116]
 257:Core/Src/stm32l4xx_hal_msp.c **** 
 558              		.loc 1 257 5 view .LVU170
 559 0108 9E62     		str	r6, [r3, #40]
 257:Core/Src/stm32l4xx_hal_msp.c **** 
 560              		.loc 1 257 5 view .LVU171
 561 010a 95E7     		b	.L19
 562              	.LVL30:
 563              	.L35:
 223:Core/Src/stm32l4xx_hal_msp.c ****     }
 564              		.loc 1 223 7 view .LVU172
 565 010c FFF7FEFF 		bl	Error_Handler
 566              	.LVL31:
 567 0110 C5E7     		b	.L24
 568              	.LVL32:
 569              	.L36:
 254:Core/Src/stm32l4xx_hal_msp.c ****     }
 570              		.loc 1 254 7 view .LVU173
 571 0112 FFF7FEFF 		bl	Error_Handler
 572              	.LVL33:
 573 0116 F5E7     		b	.L25
 574              	.LVL34:
 575              	.L32:
 271:Core/Src/stm32l4xx_hal_msp.c ****     PeriphClkInit.Usart2ClockSelection = RCC_USART2CLKSOURCE_PCLK1;
 576              		.loc 1 271 5 view .LVU174
ARM GAS  /tmp/cchr4eSW.s 			page 19


 271:Core/Src/stm32l4xx_hal_msp.c ****     PeriphClkInit.Usart2ClockSelection = RCC_USART2CLKSOURCE_PCLK1;
 577              		.loc 1 271 40 is_stmt 0 view .LVU175
 578 0118 0223     		movs	r3, #2
 579 011a 0993     		str	r3, [sp, #36]
 272:Core/Src/stm32l4xx_hal_msp.c ****     if (HAL_RCCEx_PeriphCLKConfig(&PeriphClkInit) != HAL_OK)
 580              		.loc 1 272 5 is_stmt 1 view .LVU176
 273:Core/Src/stm32l4xx_hal_msp.c ****     {
 581              		.loc 1 273 5 view .LVU177
 273:Core/Src/stm32l4xx_hal_msp.c ****     {
 582              		.loc 1 273 9 is_stmt 0 view .LVU178
 583 011c 09A8     		add	r0, sp, #36
 584 011e FFF7FEFF 		bl	HAL_RCCEx_PeriphCLKConfig
 585              	.LVL35:
 273:Core/Src/stm32l4xx_hal_msp.c ****     {
 586              		.loc 1 273 8 discriminator 1 view .LVU179
 587 0122 10BB     		cbnz	r0, .L37
 588              	.L27:
 279:Core/Src/stm32l4xx_hal_msp.c **** 
 589              		.loc 1 279 5 is_stmt 1 view .LVU180
 590              	.LBB10:
 279:Core/Src/stm32l4xx_hal_msp.c **** 
 591              		.loc 1 279 5 view .LVU181
 279:Core/Src/stm32l4xx_hal_msp.c **** 
 592              		.loc 1 279 5 view .LVU182
 593 0124 2C4B     		ldr	r3, .L39+16
 594 0126 9A6D     		ldr	r2, [r3, #88]
 595 0128 42F40032 		orr	r2, r2, #131072
 596 012c 9A65     		str	r2, [r3, #88]
 279:Core/Src/stm32l4xx_hal_msp.c **** 
 597              		.loc 1 279 5 view .LVU183
 598 012e 9A6D     		ldr	r2, [r3, #88]
 599 0130 02F40032 		and	r2, r2, #131072
 600 0134 0592     		str	r2, [sp, #20]
 279:Core/Src/stm32l4xx_hal_msp.c **** 
 601              		.loc 1 279 5 view .LVU184
 602 0136 059A     		ldr	r2, [sp, #20]
 603              	.LBE10:
 279:Core/Src/stm32l4xx_hal_msp.c **** 
 604              		.loc 1 279 5 view .LVU185
 281:Core/Src/stm32l4xx_hal_msp.c ****     /**USART2 GPIO Configuration
 605              		.loc 1 281 5 view .LVU186
 606              	.LBB11:
 281:Core/Src/stm32l4xx_hal_msp.c ****     /**USART2 GPIO Configuration
 607              		.loc 1 281 5 view .LVU187
 281:Core/Src/stm32l4xx_hal_msp.c ****     /**USART2 GPIO Configuration
 608              		.loc 1 281 5 view .LVU188
 609 0138 DA6C     		ldr	r2, [r3, #76]
 610 013a 42F00102 		orr	r2, r2, #1
 611 013e DA64     		str	r2, [r3, #76]
 281:Core/Src/stm32l4xx_hal_msp.c ****     /**USART2 GPIO Configuration
 612              		.loc 1 281 5 view .LVU189
 613 0140 DB6C     		ldr	r3, [r3, #76]
 614 0142 03F00103 		and	r3, r3, #1
 615 0146 0693     		str	r3, [sp, #24]
 281:Core/Src/stm32l4xx_hal_msp.c ****     /**USART2 GPIO Configuration
 616              		.loc 1 281 5 view .LVU190
 617 0148 069B     		ldr	r3, [sp, #24]
ARM GAS  /tmp/cchr4eSW.s 			page 20


 618              	.LBE11:
 281:Core/Src/stm32l4xx_hal_msp.c ****     /**USART2 GPIO Configuration
 619              		.loc 1 281 5 view .LVU191
 288:Core/Src/stm32l4xx_hal_msp.c ****     GPIO_InitStruct.Mode = GPIO_MODE_AF_PP;
 620              		.loc 1 288 5 view .LVU192
 288:Core/Src/stm32l4xx_hal_msp.c ****     GPIO_InitStruct.Mode = GPIO_MODE_AF_PP;
 621              		.loc 1 288 25 is_stmt 0 view .LVU193
 622 014a 0F23     		movs	r3, #15
 623 014c 2B93     		str	r3, [sp, #172]
 289:Core/Src/stm32l4xx_hal_msp.c ****     GPIO_InitStruct.Pull = GPIO_NOPULL;
 624              		.loc 1 289 5 is_stmt 1 view .LVU194
 289:Core/Src/stm32l4xx_hal_msp.c ****     GPIO_InitStruct.Pull = GPIO_NOPULL;
 625              		.loc 1 289 26 is_stmt 0 view .LVU195
 626 014e 0223     		movs	r3, #2
 627 0150 2C93     		str	r3, [sp, #176]
 290:Core/Src/stm32l4xx_hal_msp.c ****     GPIO_InitStruct.Speed = GPIO_SPEED_FREQ_VERY_HIGH;
 628              		.loc 1 290 5 is_stmt 1 view .LVU196
 290:Core/Src/stm32l4xx_hal_msp.c ****     GPIO_InitStruct.Speed = GPIO_SPEED_FREQ_VERY_HIGH;
 629              		.loc 1 290 26 is_stmt 0 view .LVU197
 630 0152 0023     		movs	r3, #0
 631 0154 2D93     		str	r3, [sp, #180]
 291:Core/Src/stm32l4xx_hal_msp.c ****     GPIO_InitStruct.Alternate = GPIO_AF7_USART2;
 632              		.loc 1 291 5 is_stmt 1 view .LVU198
 291:Core/Src/stm32l4xx_hal_msp.c ****     GPIO_InitStruct.Alternate = GPIO_AF7_USART2;
 633              		.loc 1 291 27 is_stmt 0 view .LVU199
 634 0156 0323     		movs	r3, #3
 635 0158 2E93     		str	r3, [sp, #184]
 292:Core/Src/stm32l4xx_hal_msp.c ****     HAL_GPIO_Init(GPIOA, &GPIO_InitStruct);
 636              		.loc 1 292 5 is_stmt 1 view .LVU200
 292:Core/Src/stm32l4xx_hal_msp.c ****     HAL_GPIO_Init(GPIOA, &GPIO_InitStruct);
 637              		.loc 1 292 31 is_stmt 0 view .LVU201
 638 015a 0723     		movs	r3, #7
 639 015c 2F93     		str	r3, [sp, #188]
 293:Core/Src/stm32l4xx_hal_msp.c **** 
 640              		.loc 1 293 5 is_stmt 1 view .LVU202
 641 015e 2BA9     		add	r1, sp, #172
 642 0160 4FF09040 		mov	r0, #1207959552
 643 0164 FFF7FEFF 		bl	HAL_GPIO_Init
 644              	.LVL36:
 645 0168 66E7     		b	.L19
 646              	.L37:
 275:Core/Src/stm32l4xx_hal_msp.c ****     }
 647              		.loc 1 275 7 view .LVU203
 648 016a FFF7FEFF 		bl	Error_Handler
 649              	.LVL37:
 650 016e D9E7     		b	.L27
 651              	.L33:
 307:Core/Src/stm32l4xx_hal_msp.c ****     PeriphClkInit.Usart3ClockSelection = RCC_USART3CLKSOURCE_PCLK1;
 652              		.loc 1 307 5 view .LVU204
 307:Core/Src/stm32l4xx_hal_msp.c ****     PeriphClkInit.Usart3ClockSelection = RCC_USART3CLKSOURCE_PCLK1;
 653              		.loc 1 307 40 is_stmt 0 view .LVU205
 654 0170 0423     		movs	r3, #4
 655 0172 0993     		str	r3, [sp, #36]
 308:Core/Src/stm32l4xx_hal_msp.c ****     if (HAL_RCCEx_PeriphCLKConfig(&PeriphClkInit) != HAL_OK)
 656              		.loc 1 308 5 is_stmt 1 view .LVU206
 309:Core/Src/stm32l4xx_hal_msp.c ****     {
 657              		.loc 1 309 5 view .LVU207
ARM GAS  /tmp/cchr4eSW.s 			page 21


 309:Core/Src/stm32l4xx_hal_msp.c ****     {
 658              		.loc 1 309 9 is_stmt 0 view .LVU208
 659 0174 09A8     		add	r0, sp, #36
 660 0176 FFF7FEFF 		bl	HAL_RCCEx_PeriphCLKConfig
 661              	.LVL38:
 309:Core/Src/stm32l4xx_hal_msp.c ****     {
 662              		.loc 1 309 8 discriminator 1 view .LVU209
 663 017a 08BB     		cbnz	r0, .L38
 664              	.L28:
 315:Core/Src/stm32l4xx_hal_msp.c **** 
 665              		.loc 1 315 5 is_stmt 1 view .LVU210
 666              	.LBB12:
 315:Core/Src/stm32l4xx_hal_msp.c **** 
 667              		.loc 1 315 5 view .LVU211
 315:Core/Src/stm32l4xx_hal_msp.c **** 
 668              		.loc 1 315 5 view .LVU212
 669 017c 164B     		ldr	r3, .L39+16
 670 017e 9A6D     		ldr	r2, [r3, #88]
 671 0180 42F48022 		orr	r2, r2, #262144
 672 0184 9A65     		str	r2, [r3, #88]
 315:Core/Src/stm32l4xx_hal_msp.c **** 
 673              		.loc 1 315 5 view .LVU213
 674 0186 9A6D     		ldr	r2, [r3, #88]
 675 0188 02F48022 		and	r2, r2, #262144
 676 018c 0792     		str	r2, [sp, #28]
 315:Core/Src/stm32l4xx_hal_msp.c **** 
 677              		.loc 1 315 5 view .LVU214
 678 018e 079A     		ldr	r2, [sp, #28]
 679              	.LBE12:
 315:Core/Src/stm32l4xx_hal_msp.c **** 
 680              		.loc 1 315 5 view .LVU215
 317:Core/Src/stm32l4xx_hal_msp.c ****     /**USART3 GPIO Configuration
 681              		.loc 1 317 5 view .LVU216
 682              	.LBB13:
 317:Core/Src/stm32l4xx_hal_msp.c ****     /**USART3 GPIO Configuration
 683              		.loc 1 317 5 view .LVU217
 317:Core/Src/stm32l4xx_hal_msp.c ****     /**USART3 GPIO Configuration
 684              		.loc 1 317 5 view .LVU218
 685 0190 DA6C     		ldr	r2, [r3, #76]
 686 0192 42F00402 		orr	r2, r2, #4
 687 0196 DA64     		str	r2, [r3, #76]
 317:Core/Src/stm32l4xx_hal_msp.c ****     /**USART3 GPIO Configuration
 688              		.loc 1 317 5 view .LVU219
 689 0198 DB6C     		ldr	r3, [r3, #76]
 690 019a 03F00403 		and	r3, r3, #4
 691 019e 0893     		str	r3, [sp, #32]
 317:Core/Src/stm32l4xx_hal_msp.c ****     /**USART3 GPIO Configuration
 692              		.loc 1 317 5 view .LVU220
 693 01a0 089B     		ldr	r3, [sp, #32]
 694              	.LBE13:
 317:Core/Src/stm32l4xx_hal_msp.c ****     /**USART3 GPIO Configuration
 695              		.loc 1 317 5 view .LVU221
 322:Core/Src/stm32l4xx_hal_msp.c ****     GPIO_InitStruct.Mode = GPIO_MODE_AF_PP;
 696              		.loc 1 322 5 view .LVU222
 322:Core/Src/stm32l4xx_hal_msp.c ****     GPIO_InitStruct.Mode = GPIO_MODE_AF_PP;
 697              		.loc 1 322 25 is_stmt 0 view .LVU223
 698 01a2 3023     		movs	r3, #48
ARM GAS  /tmp/cchr4eSW.s 			page 22


 699 01a4 2B93     		str	r3, [sp, #172]
 323:Core/Src/stm32l4xx_hal_msp.c ****     GPIO_InitStruct.Pull = GPIO_NOPULL;
 700              		.loc 1 323 5 is_stmt 1 view .LVU224
 323:Core/Src/stm32l4xx_hal_msp.c ****     GPIO_InitStruct.Pull = GPIO_NOPULL;
 701              		.loc 1 323 26 is_stmt 0 view .LVU225
 702 01a6 0223     		movs	r3, #2
 703 01a8 2C93     		str	r3, [sp, #176]
 324:Core/Src/stm32l4xx_hal_msp.c ****     GPIO_InitStruct.Speed = GPIO_SPEED_FREQ_VERY_HIGH;
 704              		.loc 1 324 5 is_stmt 1 view .LVU226
 324:Core/Src/stm32l4xx_hal_msp.c ****     GPIO_InitStruct.Speed = GPIO_SPEED_FREQ_VERY_HIGH;
 705              		.loc 1 324 26 is_stmt 0 view .LVU227
 706 01aa 0023     		movs	r3, #0
 707 01ac 2D93     		str	r3, [sp, #180]
 325:Core/Src/stm32l4xx_hal_msp.c ****     GPIO_InitStruct.Alternate = GPIO_AF7_USART3;
 708              		.loc 1 325 5 is_stmt 1 view .LVU228
 325:Core/Src/stm32l4xx_hal_msp.c ****     GPIO_InitStruct.Alternate = GPIO_AF7_USART3;
 709              		.loc 1 325 27 is_stmt 0 view .LVU229
 710 01ae 0323     		movs	r3, #3
 711 01b0 2E93     		str	r3, [sp, #184]
 326:Core/Src/stm32l4xx_hal_msp.c ****     HAL_GPIO_Init(GPIOC, &GPIO_InitStruct);
 712              		.loc 1 326 5 is_stmt 1 view .LVU230
 326:Core/Src/stm32l4xx_hal_msp.c ****     HAL_GPIO_Init(GPIOC, &GPIO_InitStruct);
 713              		.loc 1 326 31 is_stmt 0 view .LVU231
 714 01b2 0723     		movs	r3, #7
 715 01b4 2F93     		str	r3, [sp, #188]
 327:Core/Src/stm32l4xx_hal_msp.c **** 
 716              		.loc 1 327 5 is_stmt 1 view .LVU232
 717 01b6 2BA9     		add	r1, sp, #172
 718 01b8 0848     		ldr	r0, .L39+20
 719 01ba FFF7FEFF 		bl	HAL_GPIO_Init
 720              	.LVL39:
 721              		.loc 1 334 1 is_stmt 0 view .LVU233
 722 01be 3BE7     		b	.L19
 723              	.L38:
 311:Core/Src/stm32l4xx_hal_msp.c ****     }
 724              		.loc 1 311 7 is_stmt 1 view .LVU234
 725 01c0 FFF7FEFF 		bl	Error_Handler
 726              	.LVL40:
 727 01c4 DAE7     		b	.L28
 728              	.L40:
 729 01c6 00BF     		.align	2
 730              	.L39:
 731 01c8 00800040 		.word	1073774592
 732 01cc 00380140 		.word	1073821696
 733 01d0 00440040 		.word	1073759232
 734 01d4 00480040 		.word	1073760256
 735 01d8 00100240 		.word	1073876992
 736 01dc 00080048 		.word	1207961600
 737 01e0 00000000 		.word	hdma_usart1_rx
 738 01e4 58000240 		.word	1073872984
 739              		.cfi_endproc
 740              	.LFE231:
 742              		.section	.text.HAL_UART_MspDeInit,"ax",%progbits
 743              		.align	1
 744              		.global	HAL_UART_MspDeInit
 745              		.syntax unified
 746              		.thumb
ARM GAS  /tmp/cchr4eSW.s 			page 23


 747              		.thumb_func
 749              	HAL_UART_MspDeInit:
 750              	.LVL41:
 751              	.LFB232:
 335:Core/Src/stm32l4xx_hal_msp.c **** 
 336:Core/Src/stm32l4xx_hal_msp.c **** /**
 337:Core/Src/stm32l4xx_hal_msp.c ****   * @brief UART MSP De-Initialization
 338:Core/Src/stm32l4xx_hal_msp.c ****   * This function freeze the hardware resources used in this example
 339:Core/Src/stm32l4xx_hal_msp.c ****   * @param huart: UART handle pointer
 340:Core/Src/stm32l4xx_hal_msp.c ****   * @retval None
 341:Core/Src/stm32l4xx_hal_msp.c ****   */
 342:Core/Src/stm32l4xx_hal_msp.c **** void HAL_UART_MspDeInit(UART_HandleTypeDef* huart)
 343:Core/Src/stm32l4xx_hal_msp.c **** {
 752              		.loc 1 343 1 view -0
 753              		.cfi_startproc
 754              		@ args = 0, pretend = 0, frame = 0
 755              		@ frame_needed = 0, uses_anonymous_args = 0
 756              		.loc 1 343 1 is_stmt 0 view .LVU236
 757 0000 10B5     		push	{r4, lr}
 758              		.cfi_def_cfa_offset 8
 759              		.cfi_offset 4, -8
 760              		.cfi_offset 14, -4
 344:Core/Src/stm32l4xx_hal_msp.c ****   if(huart->Instance==LPUART1)
 761              		.loc 1 344 3 is_stmt 1 view .LVU237
 762              		.loc 1 344 11 is_stmt 0 view .LVU238
 763 0002 0368     		ldr	r3, [r0]
 764              		.loc 1 344 5 view .LVU239
 765 0004 1F4A     		ldr	r2, .L51
 766 0006 9342     		cmp	r3, r2
 767 0008 0AD0     		beq	.L47
 768 000a 0446     		mov	r4, r0
 345:Core/Src/stm32l4xx_hal_msp.c ****   {
 346:Core/Src/stm32l4xx_hal_msp.c ****     /* USER CODE BEGIN LPUART1_MspDeInit 0 */
 347:Core/Src/stm32l4xx_hal_msp.c **** 
 348:Core/Src/stm32l4xx_hal_msp.c ****     /* USER CODE END LPUART1_MspDeInit 0 */
 349:Core/Src/stm32l4xx_hal_msp.c ****     /* Peripheral clock disable */
 350:Core/Src/stm32l4xx_hal_msp.c ****     __HAL_RCC_LPUART1_CLK_DISABLE();
 351:Core/Src/stm32l4xx_hal_msp.c **** 
 352:Core/Src/stm32l4xx_hal_msp.c ****     /**LPUART1 GPIO Configuration
 353:Core/Src/stm32l4xx_hal_msp.c ****     PC0     ------> LPUART1_RX
 354:Core/Src/stm32l4xx_hal_msp.c ****     PC1     ------> LPUART1_TX
 355:Core/Src/stm32l4xx_hal_msp.c ****     */
 356:Core/Src/stm32l4xx_hal_msp.c ****     HAL_GPIO_DeInit(GPIOC, L0_LPUART1_RX_Pin|L0_LPUART1_TX_Pin);
 357:Core/Src/stm32l4xx_hal_msp.c **** 
 358:Core/Src/stm32l4xx_hal_msp.c ****     /* USER CODE BEGIN LPUART1_MspDeInit 1 */
 359:Core/Src/stm32l4xx_hal_msp.c **** 
 360:Core/Src/stm32l4xx_hal_msp.c ****     /* USER CODE END LPUART1_MspDeInit 1 */
 361:Core/Src/stm32l4xx_hal_msp.c ****   }
 362:Core/Src/stm32l4xx_hal_msp.c ****   else if(huart->Instance==USART1)
 769              		.loc 1 362 8 is_stmt 1 view .LVU240
 770              		.loc 1 362 10 is_stmt 0 view .LVU241
 771 000c 1E4A     		ldr	r2, .L51+4
 772 000e 9342     		cmp	r3, r2
 773 0010 11D0     		beq	.L48
 363:Core/Src/stm32l4xx_hal_msp.c ****   {
 364:Core/Src/stm32l4xx_hal_msp.c ****     /* USER CODE BEGIN USART1_MspDeInit 0 */
 365:Core/Src/stm32l4xx_hal_msp.c **** 
ARM GAS  /tmp/cchr4eSW.s 			page 24


 366:Core/Src/stm32l4xx_hal_msp.c ****     /* USER CODE END USART1_MspDeInit 0 */
 367:Core/Src/stm32l4xx_hal_msp.c ****     /* Peripheral clock disable */
 368:Core/Src/stm32l4xx_hal_msp.c ****     __HAL_RCC_USART1_CLK_DISABLE();
 369:Core/Src/stm32l4xx_hal_msp.c **** 
 370:Core/Src/stm32l4xx_hal_msp.c ****     /**USART1 GPIO Configuration
 371:Core/Src/stm32l4xx_hal_msp.c ****     PA9     ------> USART1_TX
 372:Core/Src/stm32l4xx_hal_msp.c ****     PA10     ------> USART1_RX
 373:Core/Src/stm32l4xx_hal_msp.c ****     */
 374:Core/Src/stm32l4xx_hal_msp.c ****     HAL_GPIO_DeInit(GPIOA, D_USART_RX_Pin|D_USART_TX_Pin);
 375:Core/Src/stm32l4xx_hal_msp.c **** 
 376:Core/Src/stm32l4xx_hal_msp.c ****     /* USART1 DMA DeInit */
 377:Core/Src/stm32l4xx_hal_msp.c ****     HAL_DMA_DeInit(huart->hdmarx);
 378:Core/Src/stm32l4xx_hal_msp.c ****     /* USER CODE BEGIN USART1_MspDeInit 1 */
 379:Core/Src/stm32l4xx_hal_msp.c **** 
 380:Core/Src/stm32l4xx_hal_msp.c ****     /* USER CODE END USART1_MspDeInit 1 */
 381:Core/Src/stm32l4xx_hal_msp.c ****   }
 382:Core/Src/stm32l4xx_hal_msp.c ****   else if(huart->Instance==USART2)
 774              		.loc 1 382 8 is_stmt 1 view .LVU242
 775              		.loc 1 382 10 is_stmt 0 view .LVU243
 776 0012 1E4A     		ldr	r2, .L51+8
 777 0014 9342     		cmp	r3, r2
 778 0016 1ED0     		beq	.L49
 383:Core/Src/stm32l4xx_hal_msp.c ****   {
 384:Core/Src/stm32l4xx_hal_msp.c ****     /* USER CODE BEGIN USART2_MspDeInit 0 */
 385:Core/Src/stm32l4xx_hal_msp.c **** 
 386:Core/Src/stm32l4xx_hal_msp.c ****     /* USER CODE END USART2_MspDeInit 0 */
 387:Core/Src/stm32l4xx_hal_msp.c ****     /* Peripheral clock disable */
 388:Core/Src/stm32l4xx_hal_msp.c ****     __HAL_RCC_USART2_CLK_DISABLE();
 389:Core/Src/stm32l4xx_hal_msp.c **** 
 390:Core/Src/stm32l4xx_hal_msp.c ****     /**USART2 GPIO Configuration
 391:Core/Src/stm32l4xx_hal_msp.c ****     PA0     ------> USART2_CTS
 392:Core/Src/stm32l4xx_hal_msp.c ****     PA1     ------> USART2_RTS
 393:Core/Src/stm32l4xx_hal_msp.c ****     PA2     ------> USART2_TX
 394:Core/Src/stm32l4xx_hal_msp.c ****     PA3     ------> USART2_RX
 395:Core/Src/stm32l4xx_hal_msp.c ****     */
 396:Core/Src/stm32l4xx_hal_msp.c ****     HAL_GPIO_DeInit(GPIOA, Wi_USART2_CTS_Pin|Wi_USART2_RTS_Pin|Wi_USART2_TX_Pin|Wi_USART2_RX_Pin);
 397:Core/Src/stm32l4xx_hal_msp.c **** 
 398:Core/Src/stm32l4xx_hal_msp.c ****     /* USER CODE BEGIN USART2_MspDeInit 1 */
 399:Core/Src/stm32l4xx_hal_msp.c **** 
 400:Core/Src/stm32l4xx_hal_msp.c ****     /* USER CODE END USART2_MspDeInit 1 */
 401:Core/Src/stm32l4xx_hal_msp.c ****   }
 402:Core/Src/stm32l4xx_hal_msp.c ****   else if(huart->Instance==USART3)
 779              		.loc 1 402 8 is_stmt 1 view .LVU244
 780              		.loc 1 402 10 is_stmt 0 view .LVU245
 781 0018 1D4A     		ldr	r2, .L51+12
 782 001a 9342     		cmp	r3, r2
 783 001c 27D0     		beq	.L50
 784              	.LVL42:
 785              	.L41:
 403:Core/Src/stm32l4xx_hal_msp.c ****   {
 404:Core/Src/stm32l4xx_hal_msp.c ****     /* USER CODE BEGIN USART3_MspDeInit 0 */
 405:Core/Src/stm32l4xx_hal_msp.c **** 
 406:Core/Src/stm32l4xx_hal_msp.c ****     /* USER CODE END USART3_MspDeInit 0 */
 407:Core/Src/stm32l4xx_hal_msp.c ****     /* Peripheral clock disable */
 408:Core/Src/stm32l4xx_hal_msp.c ****     __HAL_RCC_USART3_CLK_DISABLE();
 409:Core/Src/stm32l4xx_hal_msp.c **** 
 410:Core/Src/stm32l4xx_hal_msp.c ****     /**USART3 GPIO Configuration
ARM GAS  /tmp/cchr4eSW.s 			page 25


 411:Core/Src/stm32l4xx_hal_msp.c ****     PC4     ------> USART3_TX
 412:Core/Src/stm32l4xx_hal_msp.c ****     PC5     ------> USART3_RX
 413:Core/Src/stm32l4xx_hal_msp.c ****     */
 414:Core/Src/stm32l4xx_hal_msp.c ****     HAL_GPIO_DeInit(GPIOC, Wi_USART3_TX_Pin|Wi_USART3_RX_Pin);
 415:Core/Src/stm32l4xx_hal_msp.c **** 
 416:Core/Src/stm32l4xx_hal_msp.c ****     /* USER CODE BEGIN USART3_MspDeInit 1 */
 417:Core/Src/stm32l4xx_hal_msp.c **** 
 418:Core/Src/stm32l4xx_hal_msp.c ****     /* USER CODE END USART3_MspDeInit 1 */
 419:Core/Src/stm32l4xx_hal_msp.c ****   }
 420:Core/Src/stm32l4xx_hal_msp.c **** 
 421:Core/Src/stm32l4xx_hal_msp.c **** }
 786              		.loc 1 421 1 view .LVU246
 787 001e 10BD     		pop	{r4, pc}
 788              	.LVL43:
 789              	.L47:
 350:Core/Src/stm32l4xx_hal_msp.c **** 
 790              		.loc 1 350 5 is_stmt 1 view .LVU247
 791 0020 02F5C832 		add	r2, r2, #102400
 792 0024 D36D     		ldr	r3, [r2, #92]
 793 0026 23F00103 		bic	r3, r3, #1
 794 002a D365     		str	r3, [r2, #92]
 356:Core/Src/stm32l4xx_hal_msp.c **** 
 795              		.loc 1 356 5 view .LVU248
 796 002c 0321     		movs	r1, #3
 797 002e 1948     		ldr	r0, .L51+16
 798              	.LVL44:
 356:Core/Src/stm32l4xx_hal_msp.c **** 
 799              		.loc 1 356 5 is_stmt 0 view .LVU249
 800 0030 FFF7FEFF 		bl	HAL_GPIO_DeInit
 801              	.LVL45:
 802 0034 F3E7     		b	.L41
 803              	.LVL46:
 804              	.L48:
 368:Core/Src/stm32l4xx_hal_msp.c **** 
 805              		.loc 1 368 5 is_stmt 1 view .LVU250
 806 0036 02F55842 		add	r2, r2, #55296
 807 003a 136E     		ldr	r3, [r2, #96]
 808 003c 23F48043 		bic	r3, r3, #16384
 809 0040 1366     		str	r3, [r2, #96]
 374:Core/Src/stm32l4xx_hal_msp.c **** 
 810              		.loc 1 374 5 view .LVU251
 811 0042 4FF4C061 		mov	r1, #1536
 812 0046 4FF09040 		mov	r0, #1207959552
 813              	.LVL47:
 374:Core/Src/stm32l4xx_hal_msp.c **** 
 814              		.loc 1 374 5 is_stmt 0 view .LVU252
 815 004a FFF7FEFF 		bl	HAL_GPIO_DeInit
 816              	.LVL48:
 377:Core/Src/stm32l4xx_hal_msp.c ****     /* USER CODE BEGIN USART1_MspDeInit 1 */
 817              		.loc 1 377 5 is_stmt 1 view .LVU253
 818 004e 606F     		ldr	r0, [r4, #116]
 819 0050 FFF7FEFF 		bl	HAL_DMA_DeInit
 820              	.LVL49:
 821 0054 E3E7     		b	.L41
 822              	.LVL50:
 823              	.L49:
 388:Core/Src/stm32l4xx_hal_msp.c **** 
ARM GAS  /tmp/cchr4eSW.s 			page 26


 824              		.loc 1 388 5 view .LVU254
 825 0056 02F5E632 		add	r2, r2, #117760
 826 005a 936D     		ldr	r3, [r2, #88]
 827 005c 23F40033 		bic	r3, r3, #131072
 828 0060 9365     		str	r3, [r2, #88]
 396:Core/Src/stm32l4xx_hal_msp.c **** 
 829              		.loc 1 396 5 view .LVU255
 830 0062 0F21     		movs	r1, #15
 831 0064 4FF09040 		mov	r0, #1207959552
 832              	.LVL51:
 396:Core/Src/stm32l4xx_hal_msp.c **** 
 833              		.loc 1 396 5 is_stmt 0 view .LVU256
 834 0068 FFF7FEFF 		bl	HAL_GPIO_DeInit
 835              	.LVL52:
 836 006c D7E7     		b	.L41
 837              	.LVL53:
 838              	.L50:
 408:Core/Src/stm32l4xx_hal_msp.c **** 
 839              		.loc 1 408 5 is_stmt 1 view .LVU257
 840 006e 02F5E432 		add	r2, r2, #116736
 841 0072 936D     		ldr	r3, [r2, #88]
 842 0074 23F48023 		bic	r3, r3, #262144
 843 0078 9365     		str	r3, [r2, #88]
 414:Core/Src/stm32l4xx_hal_msp.c **** 
 844              		.loc 1 414 5 view .LVU258
 845 007a 3021     		movs	r1, #48
 846 007c 0548     		ldr	r0, .L51+16
 847              	.LVL54:
 414:Core/Src/stm32l4xx_hal_msp.c **** 
 848              		.loc 1 414 5 is_stmt 0 view .LVU259
 849 007e FFF7FEFF 		bl	HAL_GPIO_DeInit
 850              	.LVL55:
 851              		.loc 1 421 1 view .LVU260
 852 0082 CCE7     		b	.L41
 853              	.L52:
 854              		.align	2
 855              	.L51:
 856 0084 00800040 		.word	1073774592
 857 0088 00380140 		.word	1073821696
 858 008c 00440040 		.word	1073759232
 859 0090 00480040 		.word	1073760256
 860 0094 00080048 		.word	1207961600
 861              		.cfi_endproc
 862              	.LFE232:
 864              		.section	.text.HAL_RTC_MspInit,"ax",%progbits
 865              		.align	1
 866              		.global	HAL_RTC_MspInit
 867              		.syntax unified
 868              		.thumb
 869              		.thumb_func
 871              	HAL_RTC_MspInit:
 872              	.LVL56:
 873              	.LFB233:
 422:Core/Src/stm32l4xx_hal_msp.c **** 
 423:Core/Src/stm32l4xx_hal_msp.c **** /**
 424:Core/Src/stm32l4xx_hal_msp.c ****   * @brief RTC MSP Initialization
 425:Core/Src/stm32l4xx_hal_msp.c ****   * This function configures the hardware resources used in this example
ARM GAS  /tmp/cchr4eSW.s 			page 27


 426:Core/Src/stm32l4xx_hal_msp.c ****   * @param hrtc: RTC handle pointer
 427:Core/Src/stm32l4xx_hal_msp.c ****   * @retval None
 428:Core/Src/stm32l4xx_hal_msp.c ****   */
 429:Core/Src/stm32l4xx_hal_msp.c **** void HAL_RTC_MspInit(RTC_HandleTypeDef* hrtc)
 430:Core/Src/stm32l4xx_hal_msp.c **** {
 874              		.loc 1 430 1 is_stmt 1 view -0
 875              		.cfi_startproc
 876              		@ args = 0, pretend = 0, frame = 136
 877              		@ frame_needed = 0, uses_anonymous_args = 0
 878              		.loc 1 430 1 is_stmt 0 view .LVU262
 879 0000 10B5     		push	{r4, lr}
 880              		.cfi_def_cfa_offset 8
 881              		.cfi_offset 4, -8
 882              		.cfi_offset 14, -4
 883 0002 A2B0     		sub	sp, sp, #136
 884              		.cfi_def_cfa_offset 144
 885 0004 0446     		mov	r4, r0
 431:Core/Src/stm32l4xx_hal_msp.c ****   RCC_PeriphCLKInitTypeDef PeriphClkInit = {0};
 886              		.loc 1 431 3 is_stmt 1 view .LVU263
 887              		.loc 1 431 28 is_stmt 0 view .LVU264
 888 0006 8822     		movs	r2, #136
 889 0008 0021     		movs	r1, #0
 890 000a 6846     		mov	r0, sp
 891              	.LVL57:
 892              		.loc 1 431 28 view .LVU265
 893 000c FFF7FEFF 		bl	memset
 894              	.LVL58:
 432:Core/Src/stm32l4xx_hal_msp.c ****   if(hrtc->Instance==RTC)
 895              		.loc 1 432 3 is_stmt 1 view .LVU266
 896              		.loc 1 432 10 is_stmt 0 view .LVU267
 897 0010 2268     		ldr	r2, [r4]
 898              		.loc 1 432 5 view .LVU268
 899 0012 114B     		ldr	r3, .L59
 900 0014 9A42     		cmp	r2, r3
 901 0016 01D0     		beq	.L57
 902              	.L53:
 433:Core/Src/stm32l4xx_hal_msp.c ****   {
 434:Core/Src/stm32l4xx_hal_msp.c ****     /* USER CODE BEGIN RTC_MspInit 0 */
 435:Core/Src/stm32l4xx_hal_msp.c **** 
 436:Core/Src/stm32l4xx_hal_msp.c ****     /* USER CODE END RTC_MspInit 0 */
 437:Core/Src/stm32l4xx_hal_msp.c **** 
 438:Core/Src/stm32l4xx_hal_msp.c ****   /** Initializes the peripherals clock
 439:Core/Src/stm32l4xx_hal_msp.c ****   */
 440:Core/Src/stm32l4xx_hal_msp.c ****     PeriphClkInit.PeriphClockSelection = RCC_PERIPHCLK_RTC;
 441:Core/Src/stm32l4xx_hal_msp.c ****     PeriphClkInit.RTCClockSelection = RCC_RTCCLKSOURCE_LSI;
 442:Core/Src/stm32l4xx_hal_msp.c ****     if (HAL_RCCEx_PeriphCLKConfig(&PeriphClkInit) != HAL_OK)
 443:Core/Src/stm32l4xx_hal_msp.c ****     {
 444:Core/Src/stm32l4xx_hal_msp.c ****       Error_Handler();
 445:Core/Src/stm32l4xx_hal_msp.c ****     }
 446:Core/Src/stm32l4xx_hal_msp.c **** 
 447:Core/Src/stm32l4xx_hal_msp.c ****     /* Peripheral clock enable */
 448:Core/Src/stm32l4xx_hal_msp.c ****     __HAL_RCC_RTC_ENABLE();
 449:Core/Src/stm32l4xx_hal_msp.c ****     /* RTC interrupt Init */
 450:Core/Src/stm32l4xx_hal_msp.c ****     HAL_NVIC_SetPriority(RTC_WKUP_IRQn, 0, 0);
 451:Core/Src/stm32l4xx_hal_msp.c ****     HAL_NVIC_EnableIRQ(RTC_WKUP_IRQn);
 452:Core/Src/stm32l4xx_hal_msp.c ****     /* USER CODE BEGIN RTC_MspInit 1 */
 453:Core/Src/stm32l4xx_hal_msp.c **** 
ARM GAS  /tmp/cchr4eSW.s 			page 28


 454:Core/Src/stm32l4xx_hal_msp.c ****     /* USER CODE END RTC_MspInit 1 */
 455:Core/Src/stm32l4xx_hal_msp.c **** 
 456:Core/Src/stm32l4xx_hal_msp.c ****   }
 457:Core/Src/stm32l4xx_hal_msp.c **** 
 458:Core/Src/stm32l4xx_hal_msp.c **** }
 903              		.loc 1 458 1 view .LVU269
 904 0018 22B0     		add	sp, sp, #136
 905              		.cfi_remember_state
 906              		.cfi_def_cfa_offset 8
 907              		@ sp needed
 908 001a 10BD     		pop	{r4, pc}
 909              	.LVL59:
 910              	.L57:
 911              		.cfi_restore_state
 440:Core/Src/stm32l4xx_hal_msp.c ****     PeriphClkInit.RTCClockSelection = RCC_RTCCLKSOURCE_LSI;
 912              		.loc 1 440 5 is_stmt 1 view .LVU270
 440:Core/Src/stm32l4xx_hal_msp.c ****     PeriphClkInit.RTCClockSelection = RCC_RTCCLKSOURCE_LSI;
 913              		.loc 1 440 40 is_stmt 0 view .LVU271
 914 001c 4FF40033 		mov	r3, #131072
 915 0020 0093     		str	r3, [sp]
 441:Core/Src/stm32l4xx_hal_msp.c ****     if (HAL_RCCEx_PeriphCLKConfig(&PeriphClkInit) != HAL_OK)
 916              		.loc 1 441 5 is_stmt 1 view .LVU272
 441:Core/Src/stm32l4xx_hal_msp.c ****     if (HAL_RCCEx_PeriphCLKConfig(&PeriphClkInit) != HAL_OK)
 917              		.loc 1 441 37 is_stmt 0 view .LVU273
 918 0022 4FF40073 		mov	r3, #512
 919 0026 2193     		str	r3, [sp, #132]
 442:Core/Src/stm32l4xx_hal_msp.c ****     {
 920              		.loc 1 442 5 is_stmt 1 view .LVU274
 442:Core/Src/stm32l4xx_hal_msp.c ****     {
 921              		.loc 1 442 9 is_stmt 0 view .LVU275
 922 0028 6846     		mov	r0, sp
 923 002a FFF7FEFF 		bl	HAL_RCCEx_PeriphCLKConfig
 924              	.LVL60:
 442:Core/Src/stm32l4xx_hal_msp.c ****     {
 925              		.loc 1 442 8 discriminator 1 view .LVU276
 926 002e 78B9     		cbnz	r0, .L58
 927              	.L55:
 448:Core/Src/stm32l4xx_hal_msp.c ****     /* RTC interrupt Init */
 928              		.loc 1 448 5 is_stmt 1 view .LVU277
 929 0030 0A4A     		ldr	r2, .L59+4
 930 0032 D2F89030 		ldr	r3, [r2, #144]
 931 0036 43F40043 		orr	r3, r3, #32768
 932 003a C2F89030 		str	r3, [r2, #144]
 450:Core/Src/stm32l4xx_hal_msp.c ****     HAL_NVIC_EnableIRQ(RTC_WKUP_IRQn);
 933              		.loc 1 450 5 view .LVU278
 934 003e 0022     		movs	r2, #0
 935 0040 1146     		mov	r1, r2
 936 0042 0320     		movs	r0, #3
 937 0044 FFF7FEFF 		bl	HAL_NVIC_SetPriority
 938              	.LVL61:
 451:Core/Src/stm32l4xx_hal_msp.c ****     /* USER CODE BEGIN RTC_MspInit 1 */
 939              		.loc 1 451 5 view .LVU279
 940 0048 0320     		movs	r0, #3
 941 004a FFF7FEFF 		bl	HAL_NVIC_EnableIRQ
 942              	.LVL62:
 943              		.loc 1 458 1 is_stmt 0 view .LVU280
 944 004e E3E7     		b	.L53
ARM GAS  /tmp/cchr4eSW.s 			page 29


 945              	.L58:
 444:Core/Src/stm32l4xx_hal_msp.c ****     }
 946              		.loc 1 444 7 is_stmt 1 view .LVU281
 947 0050 FFF7FEFF 		bl	Error_Handler
 948              	.LVL63:
 949 0054 ECE7     		b	.L55
 950              	.L60:
 951 0056 00BF     		.align	2
 952              	.L59:
 953 0058 00280040 		.word	1073752064
 954 005c 00100240 		.word	1073876992
 955              		.cfi_endproc
 956              	.LFE233:
 958              		.section	.text.HAL_RTC_MspDeInit,"ax",%progbits
 959              		.align	1
 960              		.global	HAL_RTC_MspDeInit
 961              		.syntax unified
 962              		.thumb
 963              		.thumb_func
 965              	HAL_RTC_MspDeInit:
 966              	.LVL64:
 967              	.LFB234:
 459:Core/Src/stm32l4xx_hal_msp.c **** 
 460:Core/Src/stm32l4xx_hal_msp.c **** /**
 461:Core/Src/stm32l4xx_hal_msp.c ****   * @brief RTC MSP De-Initialization
 462:Core/Src/stm32l4xx_hal_msp.c ****   * This function freeze the hardware resources used in this example
 463:Core/Src/stm32l4xx_hal_msp.c ****   * @param hrtc: RTC handle pointer
 464:Core/Src/stm32l4xx_hal_msp.c ****   * @retval None
 465:Core/Src/stm32l4xx_hal_msp.c ****   */
 466:Core/Src/stm32l4xx_hal_msp.c **** void HAL_RTC_MspDeInit(RTC_HandleTypeDef* hrtc)
 467:Core/Src/stm32l4xx_hal_msp.c **** {
 968              		.loc 1 467 1 view -0
 969              		.cfi_startproc
 970              		@ args = 0, pretend = 0, frame = 0
 971              		@ frame_needed = 0, uses_anonymous_args = 0
 972              		.loc 1 467 1 is_stmt 0 view .LVU283
 973 0000 08B5     		push	{r3, lr}
 974              		.cfi_def_cfa_offset 8
 975              		.cfi_offset 3, -8
 976              		.cfi_offset 14, -4
 468:Core/Src/stm32l4xx_hal_msp.c ****   if(hrtc->Instance==RTC)
 977              		.loc 1 468 3 is_stmt 1 view .LVU284
 978              		.loc 1 468 10 is_stmt 0 view .LVU285
 979 0002 0268     		ldr	r2, [r0]
 980              		.loc 1 468 5 view .LVU286
 981 0004 074B     		ldr	r3, .L65
 982 0006 9A42     		cmp	r2, r3
 983 0008 00D0     		beq	.L64
 984              	.LVL65:
 985              	.L61:
 469:Core/Src/stm32l4xx_hal_msp.c ****   {
 470:Core/Src/stm32l4xx_hal_msp.c ****     /* USER CODE BEGIN RTC_MspDeInit 0 */
 471:Core/Src/stm32l4xx_hal_msp.c **** 
 472:Core/Src/stm32l4xx_hal_msp.c ****     /* USER CODE END RTC_MspDeInit 0 */
 473:Core/Src/stm32l4xx_hal_msp.c ****     /* Peripheral clock disable */
 474:Core/Src/stm32l4xx_hal_msp.c ****     __HAL_RCC_RTC_DISABLE();
 475:Core/Src/stm32l4xx_hal_msp.c **** 
ARM GAS  /tmp/cchr4eSW.s 			page 30


 476:Core/Src/stm32l4xx_hal_msp.c ****     /* RTC interrupt DeInit */
 477:Core/Src/stm32l4xx_hal_msp.c ****     HAL_NVIC_DisableIRQ(RTC_WKUP_IRQn);
 478:Core/Src/stm32l4xx_hal_msp.c ****     /* USER CODE BEGIN RTC_MspDeInit 1 */
 479:Core/Src/stm32l4xx_hal_msp.c **** 
 480:Core/Src/stm32l4xx_hal_msp.c ****     /* USER CODE END RTC_MspDeInit 1 */
 481:Core/Src/stm32l4xx_hal_msp.c ****   }
 482:Core/Src/stm32l4xx_hal_msp.c **** 
 483:Core/Src/stm32l4xx_hal_msp.c **** }
 986              		.loc 1 483 1 view .LVU287
 987 000a 08BD     		pop	{r3, pc}
 988              	.LVL66:
 989              	.L64:
 474:Core/Src/stm32l4xx_hal_msp.c **** 
 990              		.loc 1 474 5 is_stmt 1 view .LVU288
 991 000c 064A     		ldr	r2, .L65+4
 992 000e D2F89030 		ldr	r3, [r2, #144]
 993 0012 23F40043 		bic	r3, r3, #32768
 994 0016 C2F89030 		str	r3, [r2, #144]
 477:Core/Src/stm32l4xx_hal_msp.c ****     /* USER CODE BEGIN RTC_MspDeInit 1 */
 995              		.loc 1 477 5 view .LVU289
 996 001a 0320     		movs	r0, #3
 997              	.LVL67:
 477:Core/Src/stm32l4xx_hal_msp.c ****     /* USER CODE BEGIN RTC_MspDeInit 1 */
 998              		.loc 1 477 5 is_stmt 0 view .LVU290
 999 001c FFF7FEFF 		bl	HAL_NVIC_DisableIRQ
 1000              	.LVL68:
 1001              		.loc 1 483 1 view .LVU291
 1002 0020 F3E7     		b	.L61
 1003              	.L66:
 1004 0022 00BF     		.align	2
 1005              	.L65:
 1006 0024 00280040 		.word	1073752064
 1007 0028 00100240 		.word	1073876992
 1008              		.cfi_endproc
 1009              	.LFE234:
 1011              		.section	.text.HAL_SD_MspInit,"ax",%progbits
 1012              		.align	1
 1013              		.global	HAL_SD_MspInit
 1014              		.syntax unified
 1015              		.thumb
 1016              		.thumb_func
 1018              	HAL_SD_MspInit:
 1019              	.LVL69:
 1020              	.LFB235:
 484:Core/Src/stm32l4xx_hal_msp.c **** 
 485:Core/Src/stm32l4xx_hal_msp.c **** /**
 486:Core/Src/stm32l4xx_hal_msp.c ****   * @brief SD MSP Initialization
 487:Core/Src/stm32l4xx_hal_msp.c ****   * This function configures the hardware resources used in this example
 488:Core/Src/stm32l4xx_hal_msp.c ****   * @param hsd: SD handle pointer
 489:Core/Src/stm32l4xx_hal_msp.c ****   * @retval None
 490:Core/Src/stm32l4xx_hal_msp.c ****   */
 491:Core/Src/stm32l4xx_hal_msp.c **** void HAL_SD_MspInit(SD_HandleTypeDef* hsd)
 492:Core/Src/stm32l4xx_hal_msp.c **** {
 1021              		.loc 1 492 1 is_stmt 1 view -0
 1022              		.cfi_startproc
 1023              		@ args = 0, pretend = 0, frame = 168
 1024              		@ frame_needed = 0, uses_anonymous_args = 0
ARM GAS  /tmp/cchr4eSW.s 			page 31


 1025              		.loc 1 492 1 is_stmt 0 view .LVU293
 1026 0000 F0B5     		push	{r4, r5, r6, r7, lr}
 1027              		.cfi_def_cfa_offset 20
 1028              		.cfi_offset 4, -20
 1029              		.cfi_offset 5, -16
 1030              		.cfi_offset 6, -12
 1031              		.cfi_offset 7, -8
 1032              		.cfi_offset 14, -4
 1033 0002 ABB0     		sub	sp, sp, #172
 1034              		.cfi_def_cfa_offset 192
 1035 0004 0446     		mov	r4, r0
 493:Core/Src/stm32l4xx_hal_msp.c ****   GPIO_InitTypeDef GPIO_InitStruct = {0};
 1036              		.loc 1 493 3 is_stmt 1 view .LVU294
 1037              		.loc 1 493 20 is_stmt 0 view .LVU295
 1038 0006 0021     		movs	r1, #0
 1039 0008 2591     		str	r1, [sp, #148]
 1040 000a 2691     		str	r1, [sp, #152]
 1041 000c 2791     		str	r1, [sp, #156]
 1042 000e 2891     		str	r1, [sp, #160]
 1043 0010 2991     		str	r1, [sp, #164]
 494:Core/Src/stm32l4xx_hal_msp.c ****   RCC_PeriphCLKInitTypeDef PeriphClkInit = {0};
 1044              		.loc 1 494 3 is_stmt 1 view .LVU296
 1045              		.loc 1 494 28 is_stmt 0 view .LVU297
 1046 0012 8822     		movs	r2, #136
 1047 0014 03A8     		add	r0, sp, #12
 1048              	.LVL70:
 1049              		.loc 1 494 28 view .LVU298
 1050 0016 FFF7FEFF 		bl	memset
 1051              	.LVL71:
 495:Core/Src/stm32l4xx_hal_msp.c ****   if(hsd->Instance==SDMMC1)
 1052              		.loc 1 495 3 is_stmt 1 view .LVU299
 1053              		.loc 1 495 9 is_stmt 0 view .LVU300
 1054 001a 2268     		ldr	r2, [r4]
 1055              		.loc 1 495 5 view .LVU301
 1056 001c 4A4B     		ldr	r3, .L77
 1057 001e 9A42     		cmp	r2, r3
 1058 0020 01D0     		beq	.L73
 1059              	.L67:
 496:Core/Src/stm32l4xx_hal_msp.c ****   {
 497:Core/Src/stm32l4xx_hal_msp.c ****     /* USER CODE BEGIN SDMMC1_MspInit 0 */
 498:Core/Src/stm32l4xx_hal_msp.c **** 
 499:Core/Src/stm32l4xx_hal_msp.c ****     /* USER CODE END SDMMC1_MspInit 0 */
 500:Core/Src/stm32l4xx_hal_msp.c **** 
 501:Core/Src/stm32l4xx_hal_msp.c ****   /** Initializes the peripherals clock
 502:Core/Src/stm32l4xx_hal_msp.c ****   */
 503:Core/Src/stm32l4xx_hal_msp.c ****     PeriphClkInit.PeriphClockSelection = RCC_PERIPHCLK_SDMMC1;
 504:Core/Src/stm32l4xx_hal_msp.c ****     PeriphClkInit.Sdmmc1ClockSelection = RCC_SDMMC1CLKSOURCE_PLLSAI1;
 505:Core/Src/stm32l4xx_hal_msp.c ****     PeriphClkInit.PLLSAI1.PLLSAI1Source = RCC_PLLSOURCE_MSI;
 506:Core/Src/stm32l4xx_hal_msp.c ****     PeriphClkInit.PLLSAI1.PLLSAI1M = 1;
 507:Core/Src/stm32l4xx_hal_msp.c ****     PeriphClkInit.PLLSAI1.PLLSAI1N = 24;
 508:Core/Src/stm32l4xx_hal_msp.c ****     PeriphClkInit.PLLSAI1.PLLSAI1P = RCC_PLLP_DIV7;
 509:Core/Src/stm32l4xx_hal_msp.c ****     PeriphClkInit.PLLSAI1.PLLSAI1Q = RCC_PLLQ_DIV2;
 510:Core/Src/stm32l4xx_hal_msp.c ****     PeriphClkInit.PLLSAI1.PLLSAI1R = RCC_PLLR_DIV2;
 511:Core/Src/stm32l4xx_hal_msp.c ****     PeriphClkInit.PLLSAI1.PLLSAI1ClockOut = RCC_PLLSAI1_48M2CLK;
 512:Core/Src/stm32l4xx_hal_msp.c ****     if (HAL_RCCEx_PeriphCLKConfig(&PeriphClkInit) != HAL_OK)
 513:Core/Src/stm32l4xx_hal_msp.c ****     {
 514:Core/Src/stm32l4xx_hal_msp.c ****       Error_Handler();
ARM GAS  /tmp/cchr4eSW.s 			page 32


 515:Core/Src/stm32l4xx_hal_msp.c ****     }
 516:Core/Src/stm32l4xx_hal_msp.c **** 
 517:Core/Src/stm32l4xx_hal_msp.c ****     /* Peripheral clock enable */
 518:Core/Src/stm32l4xx_hal_msp.c ****     __HAL_RCC_SDMMC1_CLK_ENABLE();
 519:Core/Src/stm32l4xx_hal_msp.c **** 
 520:Core/Src/stm32l4xx_hal_msp.c ****     __HAL_RCC_GPIOC_CLK_ENABLE();
 521:Core/Src/stm32l4xx_hal_msp.c ****     __HAL_RCC_GPIOD_CLK_ENABLE();
 522:Core/Src/stm32l4xx_hal_msp.c ****     /**SDMMC1 GPIO Configuration
 523:Core/Src/stm32l4xx_hal_msp.c ****     PC8     ------> SDMMC1_D0
 524:Core/Src/stm32l4xx_hal_msp.c ****     PC9     ------> SDMMC1_D1
 525:Core/Src/stm32l4xx_hal_msp.c ****     PC10     ------> SDMMC1_D2
 526:Core/Src/stm32l4xx_hal_msp.c ****     PC11     ------> SDMMC1_D3
 527:Core/Src/stm32l4xx_hal_msp.c ****     PC12     ------> SDMMC1_CK
 528:Core/Src/stm32l4xx_hal_msp.c ****     PD2     ------> SDMMC1_CMD
 529:Core/Src/stm32l4xx_hal_msp.c ****     */
 530:Core/Src/stm32l4xx_hal_msp.c ****     GPIO_InitStruct.Pin = GPIO_PIN_8|GPIO_PIN_9|GPIO_PIN_10|GPIO_PIN_11
 531:Core/Src/stm32l4xx_hal_msp.c ****                           |GPIO_PIN_12;
 532:Core/Src/stm32l4xx_hal_msp.c ****     GPIO_InitStruct.Mode = GPIO_MODE_AF_PP;
 533:Core/Src/stm32l4xx_hal_msp.c ****     GPIO_InitStruct.Pull = GPIO_NOPULL;
 534:Core/Src/stm32l4xx_hal_msp.c ****     GPIO_InitStruct.Speed = GPIO_SPEED_FREQ_VERY_HIGH;
 535:Core/Src/stm32l4xx_hal_msp.c ****     GPIO_InitStruct.Alternate = GPIO_AF12_SDMMC1;
 536:Core/Src/stm32l4xx_hal_msp.c ****     HAL_GPIO_Init(GPIOC, &GPIO_InitStruct);
 537:Core/Src/stm32l4xx_hal_msp.c **** 
 538:Core/Src/stm32l4xx_hal_msp.c ****     GPIO_InitStruct.Pin = GPIO_PIN_2;
 539:Core/Src/stm32l4xx_hal_msp.c ****     GPIO_InitStruct.Mode = GPIO_MODE_AF_PP;
 540:Core/Src/stm32l4xx_hal_msp.c ****     GPIO_InitStruct.Pull = GPIO_NOPULL;
 541:Core/Src/stm32l4xx_hal_msp.c ****     GPIO_InitStruct.Speed = GPIO_SPEED_FREQ_VERY_HIGH;
 542:Core/Src/stm32l4xx_hal_msp.c ****     GPIO_InitStruct.Alternate = GPIO_AF12_SDMMC1;
 543:Core/Src/stm32l4xx_hal_msp.c ****     HAL_GPIO_Init(GPIOD, &GPIO_InitStruct);
 544:Core/Src/stm32l4xx_hal_msp.c **** 
 545:Core/Src/stm32l4xx_hal_msp.c ****     /* SDMMC1 DMA Init */
 546:Core/Src/stm32l4xx_hal_msp.c ****     /* SDMMC1_RX Init */
 547:Core/Src/stm32l4xx_hal_msp.c ****     hdma_sdmmc1_rx.Instance = DMA2_Channel4;
 548:Core/Src/stm32l4xx_hal_msp.c ****     hdma_sdmmc1_rx.Init.Request = DMA_REQUEST_7;
 549:Core/Src/stm32l4xx_hal_msp.c ****     hdma_sdmmc1_rx.Init.Direction = DMA_PERIPH_TO_MEMORY;
 550:Core/Src/stm32l4xx_hal_msp.c ****     hdma_sdmmc1_rx.Init.PeriphInc = DMA_PINC_DISABLE;
 551:Core/Src/stm32l4xx_hal_msp.c ****     hdma_sdmmc1_rx.Init.MemInc = DMA_MINC_ENABLE;
 552:Core/Src/stm32l4xx_hal_msp.c ****     hdma_sdmmc1_rx.Init.PeriphDataAlignment = DMA_PDATAALIGN_WORD;
 553:Core/Src/stm32l4xx_hal_msp.c ****     hdma_sdmmc1_rx.Init.MemDataAlignment = DMA_MDATAALIGN_WORD;
 554:Core/Src/stm32l4xx_hal_msp.c ****     hdma_sdmmc1_rx.Init.Mode = DMA_NORMAL;
 555:Core/Src/stm32l4xx_hal_msp.c ****     hdma_sdmmc1_rx.Init.Priority = DMA_PRIORITY_LOW;
 556:Core/Src/stm32l4xx_hal_msp.c ****     if (HAL_DMA_Init(&hdma_sdmmc1_rx) != HAL_OK)
 557:Core/Src/stm32l4xx_hal_msp.c ****     {
 558:Core/Src/stm32l4xx_hal_msp.c ****       Error_Handler();
 559:Core/Src/stm32l4xx_hal_msp.c ****     }
 560:Core/Src/stm32l4xx_hal_msp.c **** 
 561:Core/Src/stm32l4xx_hal_msp.c ****     __HAL_LINKDMA(hsd,hdmarx,hdma_sdmmc1_rx);
 562:Core/Src/stm32l4xx_hal_msp.c **** 
 563:Core/Src/stm32l4xx_hal_msp.c ****     /* SDMMC1_TX Init */
 564:Core/Src/stm32l4xx_hal_msp.c ****     hdma_sdmmc1_tx.Instance = DMA2_Channel5;
 565:Core/Src/stm32l4xx_hal_msp.c ****     hdma_sdmmc1_tx.Init.Request = DMA_REQUEST_7;
 566:Core/Src/stm32l4xx_hal_msp.c ****     hdma_sdmmc1_tx.Init.Direction = DMA_MEMORY_TO_PERIPH;
 567:Core/Src/stm32l4xx_hal_msp.c ****     hdma_sdmmc1_tx.Init.PeriphInc = DMA_PINC_DISABLE;
 568:Core/Src/stm32l4xx_hal_msp.c ****     hdma_sdmmc1_tx.Init.MemInc = DMA_MINC_ENABLE;
 569:Core/Src/stm32l4xx_hal_msp.c ****     hdma_sdmmc1_tx.Init.PeriphDataAlignment = DMA_PDATAALIGN_WORD;
 570:Core/Src/stm32l4xx_hal_msp.c ****     hdma_sdmmc1_tx.Init.MemDataAlignment = DMA_MDATAALIGN_WORD;
 571:Core/Src/stm32l4xx_hal_msp.c ****     hdma_sdmmc1_tx.Init.Mode = DMA_NORMAL;
ARM GAS  /tmp/cchr4eSW.s 			page 33


 572:Core/Src/stm32l4xx_hal_msp.c ****     hdma_sdmmc1_tx.Init.Priority = DMA_PRIORITY_LOW;
 573:Core/Src/stm32l4xx_hal_msp.c ****     if (HAL_DMA_Init(&hdma_sdmmc1_tx) != HAL_OK)
 574:Core/Src/stm32l4xx_hal_msp.c ****     {
 575:Core/Src/stm32l4xx_hal_msp.c ****       Error_Handler();
 576:Core/Src/stm32l4xx_hal_msp.c ****     }
 577:Core/Src/stm32l4xx_hal_msp.c **** 
 578:Core/Src/stm32l4xx_hal_msp.c ****     __HAL_LINKDMA(hsd,hdmatx,hdma_sdmmc1_tx);
 579:Core/Src/stm32l4xx_hal_msp.c **** 
 580:Core/Src/stm32l4xx_hal_msp.c ****     /* SDMMC1 interrupt Init */
 581:Core/Src/stm32l4xx_hal_msp.c ****     HAL_NVIC_SetPriority(SDMMC1_IRQn, 0, 0);
 582:Core/Src/stm32l4xx_hal_msp.c ****     HAL_NVIC_EnableIRQ(SDMMC1_IRQn);
 583:Core/Src/stm32l4xx_hal_msp.c ****     /* USER CODE BEGIN SDMMC1_MspInit 1 */
 584:Core/Src/stm32l4xx_hal_msp.c **** 
 585:Core/Src/stm32l4xx_hal_msp.c ****     /* USER CODE END SDMMC1_MspInit 1 */
 586:Core/Src/stm32l4xx_hal_msp.c **** 
 587:Core/Src/stm32l4xx_hal_msp.c ****   }
 588:Core/Src/stm32l4xx_hal_msp.c **** 
 589:Core/Src/stm32l4xx_hal_msp.c **** }
 1060              		.loc 1 589 1 view .LVU302
 1061 0022 2BB0     		add	sp, sp, #172
 1062              		.cfi_remember_state
 1063              		.cfi_def_cfa_offset 20
 1064              		@ sp needed
 1065 0024 F0BD     		pop	{r4, r5, r6, r7, pc}
 1066              	.LVL72:
 1067              	.L73:
 1068              		.cfi_restore_state
 503:Core/Src/stm32l4xx_hal_msp.c ****     PeriphClkInit.Sdmmc1ClockSelection = RCC_SDMMC1CLKSOURCE_PLLSAI1;
 1069              		.loc 1 503 5 is_stmt 1 view .LVU303
 503:Core/Src/stm32l4xx_hal_msp.c ****     PeriphClkInit.Sdmmc1ClockSelection = RCC_SDMMC1CLKSOURCE_PLLSAI1;
 1070              		.loc 1 503 40 is_stmt 0 view .LVU304
 1071 0026 4FF40023 		mov	r3, #524288
 1072 002a 0393     		str	r3, [sp, #12]
 504:Core/Src/stm32l4xx_hal_msp.c ****     PeriphClkInit.PLLSAI1.PLLSAI1Source = RCC_PLLSOURCE_MSI;
 1073              		.loc 1 504 5 is_stmt 1 view .LVU305
 504:Core/Src/stm32l4xx_hal_msp.c ****     PeriphClkInit.PLLSAI1.PLLSAI1Source = RCC_PLLSOURCE_MSI;
 1074              		.loc 1 504 40 is_stmt 0 view .LVU306
 1075 002c 4FF08063 		mov	r3, #67108864
 1076 0030 1F93     		str	r3, [sp, #124]
 505:Core/Src/stm32l4xx_hal_msp.c ****     PeriphClkInit.PLLSAI1.PLLSAI1M = 1;
 1077              		.loc 1 505 5 is_stmt 1 view .LVU307
 505:Core/Src/stm32l4xx_hal_msp.c ****     PeriphClkInit.PLLSAI1.PLLSAI1M = 1;
 1078              		.loc 1 505 41 is_stmt 0 view .LVU308
 1079 0032 0123     		movs	r3, #1
 1080 0034 0493     		str	r3, [sp, #16]
 506:Core/Src/stm32l4xx_hal_msp.c ****     PeriphClkInit.PLLSAI1.PLLSAI1N = 24;
 1081              		.loc 1 506 5 is_stmt 1 view .LVU309
 506:Core/Src/stm32l4xx_hal_msp.c ****     PeriphClkInit.PLLSAI1.PLLSAI1N = 24;
 1082              		.loc 1 506 36 is_stmt 0 view .LVU310
 1083 0036 0593     		str	r3, [sp, #20]
 507:Core/Src/stm32l4xx_hal_msp.c ****     PeriphClkInit.PLLSAI1.PLLSAI1P = RCC_PLLP_DIV7;
 1084              		.loc 1 507 5 is_stmt 1 view .LVU311
 507:Core/Src/stm32l4xx_hal_msp.c ****     PeriphClkInit.PLLSAI1.PLLSAI1P = RCC_PLLP_DIV7;
 1085              		.loc 1 507 36 is_stmt 0 view .LVU312
 1086 0038 1823     		movs	r3, #24
 1087 003a 0693     		str	r3, [sp, #24]
 508:Core/Src/stm32l4xx_hal_msp.c ****     PeriphClkInit.PLLSAI1.PLLSAI1Q = RCC_PLLQ_DIV2;
ARM GAS  /tmp/cchr4eSW.s 			page 34


 1088              		.loc 1 508 5 is_stmt 1 view .LVU313
 508:Core/Src/stm32l4xx_hal_msp.c ****     PeriphClkInit.PLLSAI1.PLLSAI1Q = RCC_PLLQ_DIV2;
 1089              		.loc 1 508 36 is_stmt 0 view .LVU314
 1090 003c 0723     		movs	r3, #7
 1091 003e 0793     		str	r3, [sp, #28]
 509:Core/Src/stm32l4xx_hal_msp.c ****     PeriphClkInit.PLLSAI1.PLLSAI1R = RCC_PLLR_DIV2;
 1092              		.loc 1 509 5 is_stmt 1 view .LVU315
 509:Core/Src/stm32l4xx_hal_msp.c ****     PeriphClkInit.PLLSAI1.PLLSAI1R = RCC_PLLR_DIV2;
 1093              		.loc 1 509 36 is_stmt 0 view .LVU316
 1094 0040 0223     		movs	r3, #2
 1095 0042 0893     		str	r3, [sp, #32]
 510:Core/Src/stm32l4xx_hal_msp.c ****     PeriphClkInit.PLLSAI1.PLLSAI1ClockOut = RCC_PLLSAI1_48M2CLK;
 1096              		.loc 1 510 5 is_stmt 1 view .LVU317
 510:Core/Src/stm32l4xx_hal_msp.c ****     PeriphClkInit.PLLSAI1.PLLSAI1ClockOut = RCC_PLLSAI1_48M2CLK;
 1097              		.loc 1 510 36 is_stmt 0 view .LVU318
 1098 0044 0993     		str	r3, [sp, #36]
 511:Core/Src/stm32l4xx_hal_msp.c ****     if (HAL_RCCEx_PeriphCLKConfig(&PeriphClkInit) != HAL_OK)
 1099              		.loc 1 511 5 is_stmt 1 view .LVU319
 511:Core/Src/stm32l4xx_hal_msp.c ****     if (HAL_RCCEx_PeriphCLKConfig(&PeriphClkInit) != HAL_OK)
 1100              		.loc 1 511 43 is_stmt 0 view .LVU320
 1101 0046 4FF48013 		mov	r3, #1048576
 1102 004a 0A93     		str	r3, [sp, #40]
 512:Core/Src/stm32l4xx_hal_msp.c ****     {
 1103              		.loc 1 512 5 is_stmt 1 view .LVU321
 512:Core/Src/stm32l4xx_hal_msp.c ****     {
 1104              		.loc 1 512 9 is_stmt 0 view .LVU322
 1105 004c 03A8     		add	r0, sp, #12
 1106 004e FFF7FEFF 		bl	HAL_RCCEx_PeriphCLKConfig
 1107              	.LVL73:
 512:Core/Src/stm32l4xx_hal_msp.c ****     {
 1108              		.loc 1 512 8 discriminator 1 view .LVU323
 1109 0052 0028     		cmp	r0, #0
 1110 0054 6ED1     		bne	.L74
 1111              	.L69:
 518:Core/Src/stm32l4xx_hal_msp.c **** 
 1112              		.loc 1 518 5 is_stmt 1 view .LVU324
 1113              	.LBB14:
 518:Core/Src/stm32l4xx_hal_msp.c **** 
 1114              		.loc 1 518 5 view .LVU325
 518:Core/Src/stm32l4xx_hal_msp.c **** 
 1115              		.loc 1 518 5 view .LVU326
 1116 0056 3D4B     		ldr	r3, .L77+4
 1117 0058 1A6E     		ldr	r2, [r3, #96]
 1118 005a 42F48062 		orr	r2, r2, #1024
 1119 005e 1A66     		str	r2, [r3, #96]
 518:Core/Src/stm32l4xx_hal_msp.c **** 
 1120              		.loc 1 518 5 view .LVU327
 1121 0060 1A6E     		ldr	r2, [r3, #96]
 1122 0062 02F48062 		and	r2, r2, #1024
 1123 0066 0092     		str	r2, [sp]
 518:Core/Src/stm32l4xx_hal_msp.c **** 
 1124              		.loc 1 518 5 view .LVU328
 1125 0068 009A     		ldr	r2, [sp]
 1126              	.LBE14:
 518:Core/Src/stm32l4xx_hal_msp.c **** 
 1127              		.loc 1 518 5 view .LVU329
 520:Core/Src/stm32l4xx_hal_msp.c ****     __HAL_RCC_GPIOD_CLK_ENABLE();
ARM GAS  /tmp/cchr4eSW.s 			page 35


 1128              		.loc 1 520 5 view .LVU330
 1129              	.LBB15:
 520:Core/Src/stm32l4xx_hal_msp.c ****     __HAL_RCC_GPIOD_CLK_ENABLE();
 1130              		.loc 1 520 5 view .LVU331
 520:Core/Src/stm32l4xx_hal_msp.c ****     __HAL_RCC_GPIOD_CLK_ENABLE();
 1131              		.loc 1 520 5 view .LVU332
 1132 006a DA6C     		ldr	r2, [r3, #76]
 1133 006c 42F00402 		orr	r2, r2, #4
 1134 0070 DA64     		str	r2, [r3, #76]
 520:Core/Src/stm32l4xx_hal_msp.c ****     __HAL_RCC_GPIOD_CLK_ENABLE();
 1135              		.loc 1 520 5 view .LVU333
 1136 0072 DA6C     		ldr	r2, [r3, #76]
 1137 0074 02F00402 		and	r2, r2, #4
 1138 0078 0192     		str	r2, [sp, #4]
 520:Core/Src/stm32l4xx_hal_msp.c ****     __HAL_RCC_GPIOD_CLK_ENABLE();
 1139              		.loc 1 520 5 view .LVU334
 1140 007a 019A     		ldr	r2, [sp, #4]
 1141              	.LBE15:
 520:Core/Src/stm32l4xx_hal_msp.c ****     __HAL_RCC_GPIOD_CLK_ENABLE();
 1142              		.loc 1 520 5 view .LVU335
 521:Core/Src/stm32l4xx_hal_msp.c ****     /**SDMMC1 GPIO Configuration
 1143              		.loc 1 521 5 view .LVU336
 1144              	.LBB16:
 521:Core/Src/stm32l4xx_hal_msp.c ****     /**SDMMC1 GPIO Configuration
 1145              		.loc 1 521 5 view .LVU337
 521:Core/Src/stm32l4xx_hal_msp.c ****     /**SDMMC1 GPIO Configuration
 1146              		.loc 1 521 5 view .LVU338
 1147 007c DA6C     		ldr	r2, [r3, #76]
 1148 007e 42F00802 		orr	r2, r2, #8
 1149 0082 DA64     		str	r2, [r3, #76]
 521:Core/Src/stm32l4xx_hal_msp.c ****     /**SDMMC1 GPIO Configuration
 1150              		.loc 1 521 5 view .LVU339
 1151 0084 DB6C     		ldr	r3, [r3, #76]
 1152 0086 03F00803 		and	r3, r3, #8
 1153 008a 0293     		str	r3, [sp, #8]
 521:Core/Src/stm32l4xx_hal_msp.c ****     /**SDMMC1 GPIO Configuration
 1154              		.loc 1 521 5 view .LVU340
 1155 008c 029B     		ldr	r3, [sp, #8]
 1156              	.LBE16:
 521:Core/Src/stm32l4xx_hal_msp.c ****     /**SDMMC1 GPIO Configuration
 1157              		.loc 1 521 5 view .LVU341
 530:Core/Src/stm32l4xx_hal_msp.c ****                           |GPIO_PIN_12;
 1158              		.loc 1 530 5 view .LVU342
 530:Core/Src/stm32l4xx_hal_msp.c ****                           |GPIO_PIN_12;
 1159              		.loc 1 530 25 is_stmt 0 view .LVU343
 1160 008e 4FF4F853 		mov	r3, #7936
 1161 0092 2593     		str	r3, [sp, #148]
 532:Core/Src/stm32l4xx_hal_msp.c ****     GPIO_InitStruct.Pull = GPIO_NOPULL;
 1162              		.loc 1 532 5 is_stmt 1 view .LVU344
 532:Core/Src/stm32l4xx_hal_msp.c ****     GPIO_InitStruct.Pull = GPIO_NOPULL;
 1163              		.loc 1 532 26 is_stmt 0 view .LVU345
 1164 0094 0226     		movs	r6, #2
 1165 0096 2696     		str	r6, [sp, #152]
 533:Core/Src/stm32l4xx_hal_msp.c ****     GPIO_InitStruct.Speed = GPIO_SPEED_FREQ_VERY_HIGH;
 1166              		.loc 1 533 5 is_stmt 1 view .LVU346
 533:Core/Src/stm32l4xx_hal_msp.c ****     GPIO_InitStruct.Speed = GPIO_SPEED_FREQ_VERY_HIGH;
 1167              		.loc 1 533 26 is_stmt 0 view .LVU347
ARM GAS  /tmp/cchr4eSW.s 			page 36


 1168 0098 0025     		movs	r5, #0
 1169 009a 2795     		str	r5, [sp, #156]
 534:Core/Src/stm32l4xx_hal_msp.c ****     GPIO_InitStruct.Alternate = GPIO_AF12_SDMMC1;
 1170              		.loc 1 534 5 is_stmt 1 view .LVU348
 534:Core/Src/stm32l4xx_hal_msp.c ****     GPIO_InitStruct.Alternate = GPIO_AF12_SDMMC1;
 1171              		.loc 1 534 27 is_stmt 0 view .LVU349
 1172 009c 0327     		movs	r7, #3
 1173 009e 2897     		str	r7, [sp, #160]
 535:Core/Src/stm32l4xx_hal_msp.c ****     HAL_GPIO_Init(GPIOC, &GPIO_InitStruct);
 1174              		.loc 1 535 5 is_stmt 1 view .LVU350
 535:Core/Src/stm32l4xx_hal_msp.c ****     HAL_GPIO_Init(GPIOC, &GPIO_InitStruct);
 1175              		.loc 1 535 31 is_stmt 0 view .LVU351
 1176 00a0 0C23     		movs	r3, #12
 1177 00a2 2993     		str	r3, [sp, #164]
 536:Core/Src/stm32l4xx_hal_msp.c **** 
 1178              		.loc 1 536 5 is_stmt 1 view .LVU352
 1179 00a4 25A9     		add	r1, sp, #148
 1180 00a6 2A48     		ldr	r0, .L77+8
 1181 00a8 FFF7FEFF 		bl	HAL_GPIO_Init
 1182              	.LVL74:
 538:Core/Src/stm32l4xx_hal_msp.c ****     GPIO_InitStruct.Mode = GPIO_MODE_AF_PP;
 1183              		.loc 1 538 5 view .LVU353
 538:Core/Src/stm32l4xx_hal_msp.c ****     GPIO_InitStruct.Mode = GPIO_MODE_AF_PP;
 1184              		.loc 1 538 25 is_stmt 0 view .LVU354
 1185 00ac 0423     		movs	r3, #4
 1186 00ae 2593     		str	r3, [sp, #148]
 539:Core/Src/stm32l4xx_hal_msp.c ****     GPIO_InitStruct.Pull = GPIO_NOPULL;
 1187              		.loc 1 539 5 is_stmt 1 view .LVU355
 539:Core/Src/stm32l4xx_hal_msp.c ****     GPIO_InitStruct.Pull = GPIO_NOPULL;
 1188              		.loc 1 539 26 is_stmt 0 view .LVU356
 1189 00b0 2696     		str	r6, [sp, #152]
 540:Core/Src/stm32l4xx_hal_msp.c ****     GPIO_InitStruct.Speed = GPIO_SPEED_FREQ_VERY_HIGH;
 1190              		.loc 1 540 5 is_stmt 1 view .LVU357
 540:Core/Src/stm32l4xx_hal_msp.c ****     GPIO_InitStruct.Speed = GPIO_SPEED_FREQ_VERY_HIGH;
 1191              		.loc 1 540 26 is_stmt 0 view .LVU358
 1192 00b2 2795     		str	r5, [sp, #156]
 541:Core/Src/stm32l4xx_hal_msp.c ****     GPIO_InitStruct.Alternate = GPIO_AF12_SDMMC1;
 1193              		.loc 1 541 5 is_stmt 1 view .LVU359
 541:Core/Src/stm32l4xx_hal_msp.c ****     GPIO_InitStruct.Alternate = GPIO_AF12_SDMMC1;
 1194              		.loc 1 541 27 is_stmt 0 view .LVU360
 1195 00b4 2897     		str	r7, [sp, #160]
 542:Core/Src/stm32l4xx_hal_msp.c ****     HAL_GPIO_Init(GPIOD, &GPIO_InitStruct);
 1196              		.loc 1 542 5 is_stmt 1 view .LVU361
 542:Core/Src/stm32l4xx_hal_msp.c ****     HAL_GPIO_Init(GPIOD, &GPIO_InitStruct);
 1197              		.loc 1 542 31 is_stmt 0 view .LVU362
 1198 00b6 0C23     		movs	r3, #12
 1199 00b8 2993     		str	r3, [sp, #164]
 543:Core/Src/stm32l4xx_hal_msp.c **** 
 1200              		.loc 1 543 5 is_stmt 1 view .LVU363
 1201 00ba 25A9     		add	r1, sp, #148
 1202 00bc 2548     		ldr	r0, .L77+12
 1203 00be FFF7FEFF 		bl	HAL_GPIO_Init
 1204              	.LVL75:
 547:Core/Src/stm32l4xx_hal_msp.c ****     hdma_sdmmc1_rx.Init.Request = DMA_REQUEST_7;
 1205              		.loc 1 547 5 view .LVU364
 547:Core/Src/stm32l4xx_hal_msp.c ****     hdma_sdmmc1_rx.Init.Request = DMA_REQUEST_7;
 1206              		.loc 1 547 29 is_stmt 0 view .LVU365
ARM GAS  /tmp/cchr4eSW.s 			page 37


 1207 00c2 2548     		ldr	r0, .L77+16
 1208 00c4 254B     		ldr	r3, .L77+20
 1209 00c6 0360     		str	r3, [r0]
 548:Core/Src/stm32l4xx_hal_msp.c ****     hdma_sdmmc1_rx.Init.Direction = DMA_PERIPH_TO_MEMORY;
 1210              		.loc 1 548 5 is_stmt 1 view .LVU366
 548:Core/Src/stm32l4xx_hal_msp.c ****     hdma_sdmmc1_rx.Init.Direction = DMA_PERIPH_TO_MEMORY;
 1211              		.loc 1 548 33 is_stmt 0 view .LVU367
 1212 00c8 0723     		movs	r3, #7
 1213 00ca 4360     		str	r3, [r0, #4]
 549:Core/Src/stm32l4xx_hal_msp.c ****     hdma_sdmmc1_rx.Init.PeriphInc = DMA_PINC_DISABLE;
 1214              		.loc 1 549 5 is_stmt 1 view .LVU368
 549:Core/Src/stm32l4xx_hal_msp.c ****     hdma_sdmmc1_rx.Init.PeriphInc = DMA_PINC_DISABLE;
 1215              		.loc 1 549 35 is_stmt 0 view .LVU369
 1216 00cc 8560     		str	r5, [r0, #8]
 550:Core/Src/stm32l4xx_hal_msp.c ****     hdma_sdmmc1_rx.Init.MemInc = DMA_MINC_ENABLE;
 1217              		.loc 1 550 5 is_stmt 1 view .LVU370
 550:Core/Src/stm32l4xx_hal_msp.c ****     hdma_sdmmc1_rx.Init.MemInc = DMA_MINC_ENABLE;
 1218              		.loc 1 550 35 is_stmt 0 view .LVU371
 1219 00ce C560     		str	r5, [r0, #12]
 551:Core/Src/stm32l4xx_hal_msp.c ****     hdma_sdmmc1_rx.Init.PeriphDataAlignment = DMA_PDATAALIGN_WORD;
 1220              		.loc 1 551 5 is_stmt 1 view .LVU372
 551:Core/Src/stm32l4xx_hal_msp.c ****     hdma_sdmmc1_rx.Init.PeriphDataAlignment = DMA_PDATAALIGN_WORD;
 1221              		.loc 1 551 32 is_stmt 0 view .LVU373
 1222 00d0 8023     		movs	r3, #128
 1223 00d2 0361     		str	r3, [r0, #16]
 552:Core/Src/stm32l4xx_hal_msp.c ****     hdma_sdmmc1_rx.Init.MemDataAlignment = DMA_MDATAALIGN_WORD;
 1224              		.loc 1 552 5 is_stmt 1 view .LVU374
 552:Core/Src/stm32l4xx_hal_msp.c ****     hdma_sdmmc1_rx.Init.MemDataAlignment = DMA_MDATAALIGN_WORD;
 1225              		.loc 1 552 45 is_stmt 0 view .LVU375
 1226 00d4 4FF40073 		mov	r3, #512
 1227 00d8 4361     		str	r3, [r0, #20]
 553:Core/Src/stm32l4xx_hal_msp.c ****     hdma_sdmmc1_rx.Init.Mode = DMA_NORMAL;
 1228              		.loc 1 553 5 is_stmt 1 view .LVU376
 553:Core/Src/stm32l4xx_hal_msp.c ****     hdma_sdmmc1_rx.Init.Mode = DMA_NORMAL;
 1229              		.loc 1 553 42 is_stmt 0 view .LVU377
 1230 00da 4FF40063 		mov	r3, #2048
 1231 00de 8361     		str	r3, [r0, #24]
 554:Core/Src/stm32l4xx_hal_msp.c ****     hdma_sdmmc1_rx.Init.Priority = DMA_PRIORITY_LOW;
 1232              		.loc 1 554 5 is_stmt 1 view .LVU378
 554:Core/Src/stm32l4xx_hal_msp.c ****     hdma_sdmmc1_rx.Init.Priority = DMA_PRIORITY_LOW;
 1233              		.loc 1 554 30 is_stmt 0 view .LVU379
 1234 00e0 C561     		str	r5, [r0, #28]
 555:Core/Src/stm32l4xx_hal_msp.c ****     if (HAL_DMA_Init(&hdma_sdmmc1_rx) != HAL_OK)
 1235              		.loc 1 555 5 is_stmt 1 view .LVU380
 555:Core/Src/stm32l4xx_hal_msp.c ****     if (HAL_DMA_Init(&hdma_sdmmc1_rx) != HAL_OK)
 1236              		.loc 1 555 34 is_stmt 0 view .LVU381
 1237 00e2 0562     		str	r5, [r0, #32]
 556:Core/Src/stm32l4xx_hal_msp.c ****     {
 1238              		.loc 1 556 5 is_stmt 1 view .LVU382
 556:Core/Src/stm32l4xx_hal_msp.c ****     {
 1239              		.loc 1 556 9 is_stmt 0 view .LVU383
 1240 00e4 FFF7FEFF 		bl	HAL_DMA_Init
 1241              	.LVL76:
 556:Core/Src/stm32l4xx_hal_msp.c ****     {
 1242              		.loc 1 556 8 discriminator 1 view .LVU384
 1243 00e8 38BB     		cbnz	r0, .L75
 1244              	.L70:
ARM GAS  /tmp/cchr4eSW.s 			page 38


 561:Core/Src/stm32l4xx_hal_msp.c **** 
 1245              		.loc 1 561 5 is_stmt 1 view .LVU385
 561:Core/Src/stm32l4xx_hal_msp.c **** 
 1246              		.loc 1 561 5 view .LVU386
 1247 00ea 1B4B     		ldr	r3, .L77+16
 1248 00ec 2364     		str	r3, [r4, #64]
 561:Core/Src/stm32l4xx_hal_msp.c **** 
 1249              		.loc 1 561 5 view .LVU387
 1250 00ee 9C62     		str	r4, [r3, #40]
 561:Core/Src/stm32l4xx_hal_msp.c **** 
 1251              		.loc 1 561 5 view .LVU388
 564:Core/Src/stm32l4xx_hal_msp.c ****     hdma_sdmmc1_tx.Init.Request = DMA_REQUEST_7;
 1252              		.loc 1 564 5 view .LVU389
 564:Core/Src/stm32l4xx_hal_msp.c ****     hdma_sdmmc1_tx.Init.Request = DMA_REQUEST_7;
 1253              		.loc 1 564 29 is_stmt 0 view .LVU390
 1254 00f0 1B48     		ldr	r0, .L77+24
 1255 00f2 1C4B     		ldr	r3, .L77+28
 1256 00f4 0360     		str	r3, [r0]
 565:Core/Src/stm32l4xx_hal_msp.c ****     hdma_sdmmc1_tx.Init.Direction = DMA_MEMORY_TO_PERIPH;
 1257              		.loc 1 565 5 is_stmt 1 view .LVU391
 565:Core/Src/stm32l4xx_hal_msp.c ****     hdma_sdmmc1_tx.Init.Direction = DMA_MEMORY_TO_PERIPH;
 1258              		.loc 1 565 33 is_stmt 0 view .LVU392
 1259 00f6 0723     		movs	r3, #7
 1260 00f8 4360     		str	r3, [r0, #4]
 566:Core/Src/stm32l4xx_hal_msp.c ****     hdma_sdmmc1_tx.Init.PeriphInc = DMA_PINC_DISABLE;
 1261              		.loc 1 566 5 is_stmt 1 view .LVU393
 566:Core/Src/stm32l4xx_hal_msp.c ****     hdma_sdmmc1_tx.Init.PeriphInc = DMA_PINC_DISABLE;
 1262              		.loc 1 566 35 is_stmt 0 view .LVU394
 1263 00fa 1023     		movs	r3, #16
 1264 00fc 8360     		str	r3, [r0, #8]
 567:Core/Src/stm32l4xx_hal_msp.c ****     hdma_sdmmc1_tx.Init.MemInc = DMA_MINC_ENABLE;
 1265              		.loc 1 567 5 is_stmt 1 view .LVU395
 567:Core/Src/stm32l4xx_hal_msp.c ****     hdma_sdmmc1_tx.Init.MemInc = DMA_MINC_ENABLE;
 1266              		.loc 1 567 35 is_stmt 0 view .LVU396
 1267 00fe 0023     		movs	r3, #0
 1268 0100 C360     		str	r3, [r0, #12]
 568:Core/Src/stm32l4xx_hal_msp.c ****     hdma_sdmmc1_tx.Init.PeriphDataAlignment = DMA_PDATAALIGN_WORD;
 1269              		.loc 1 568 5 is_stmt 1 view .LVU397
 568:Core/Src/stm32l4xx_hal_msp.c ****     hdma_sdmmc1_tx.Init.PeriphDataAlignment = DMA_PDATAALIGN_WORD;
 1270              		.loc 1 568 32 is_stmt 0 view .LVU398
 1271 0102 8022     		movs	r2, #128
 1272 0104 0261     		str	r2, [r0, #16]
 569:Core/Src/stm32l4xx_hal_msp.c ****     hdma_sdmmc1_tx.Init.MemDataAlignment = DMA_MDATAALIGN_WORD;
 1273              		.loc 1 569 5 is_stmt 1 view .LVU399
 569:Core/Src/stm32l4xx_hal_msp.c ****     hdma_sdmmc1_tx.Init.MemDataAlignment = DMA_MDATAALIGN_WORD;
 1274              		.loc 1 569 45 is_stmt 0 view .LVU400
 1275 0106 4FF40072 		mov	r2, #512
 1276 010a 4261     		str	r2, [r0, #20]
 570:Core/Src/stm32l4xx_hal_msp.c ****     hdma_sdmmc1_tx.Init.Mode = DMA_NORMAL;
 1277              		.loc 1 570 5 is_stmt 1 view .LVU401
 570:Core/Src/stm32l4xx_hal_msp.c ****     hdma_sdmmc1_tx.Init.Mode = DMA_NORMAL;
 1278              		.loc 1 570 42 is_stmt 0 view .LVU402
 1279 010c 4FF40062 		mov	r2, #2048
 1280 0110 8261     		str	r2, [r0, #24]
 571:Core/Src/stm32l4xx_hal_msp.c ****     hdma_sdmmc1_tx.Init.Priority = DMA_PRIORITY_LOW;
 1281              		.loc 1 571 5 is_stmt 1 view .LVU403
 571:Core/Src/stm32l4xx_hal_msp.c ****     hdma_sdmmc1_tx.Init.Priority = DMA_PRIORITY_LOW;
ARM GAS  /tmp/cchr4eSW.s 			page 39


 1282              		.loc 1 571 30 is_stmt 0 view .LVU404
 1283 0112 C361     		str	r3, [r0, #28]
 572:Core/Src/stm32l4xx_hal_msp.c ****     if (HAL_DMA_Init(&hdma_sdmmc1_tx) != HAL_OK)
 1284              		.loc 1 572 5 is_stmt 1 view .LVU405
 572:Core/Src/stm32l4xx_hal_msp.c ****     if (HAL_DMA_Init(&hdma_sdmmc1_tx) != HAL_OK)
 1285              		.loc 1 572 34 is_stmt 0 view .LVU406
 1286 0114 0362     		str	r3, [r0, #32]
 573:Core/Src/stm32l4xx_hal_msp.c ****     {
 1287              		.loc 1 573 5 is_stmt 1 view .LVU407
 573:Core/Src/stm32l4xx_hal_msp.c ****     {
 1288              		.loc 1 573 9 is_stmt 0 view .LVU408
 1289 0116 FFF7FEFF 		bl	HAL_DMA_Init
 1290              	.LVL77:
 573:Core/Src/stm32l4xx_hal_msp.c ****     {
 1291              		.loc 1 573 8 discriminator 1 view .LVU409
 1292 011a 88B9     		cbnz	r0, .L76
 1293              	.L71:
 578:Core/Src/stm32l4xx_hal_msp.c **** 
 1294              		.loc 1 578 5 is_stmt 1 view .LVU410
 578:Core/Src/stm32l4xx_hal_msp.c **** 
 1295              		.loc 1 578 5 view .LVU411
 1296 011c 104B     		ldr	r3, .L77+24
 1297 011e E363     		str	r3, [r4, #60]
 578:Core/Src/stm32l4xx_hal_msp.c **** 
 1298              		.loc 1 578 5 view .LVU412
 1299 0120 9C62     		str	r4, [r3, #40]
 578:Core/Src/stm32l4xx_hal_msp.c **** 
 1300              		.loc 1 578 5 view .LVU413
 581:Core/Src/stm32l4xx_hal_msp.c ****     HAL_NVIC_EnableIRQ(SDMMC1_IRQn);
 1301              		.loc 1 581 5 view .LVU414
 1302 0122 0022     		movs	r2, #0
 1303 0124 1146     		mov	r1, r2
 1304 0126 3120     		movs	r0, #49
 1305 0128 FFF7FEFF 		bl	HAL_NVIC_SetPriority
 1306              	.LVL78:
 582:Core/Src/stm32l4xx_hal_msp.c ****     /* USER CODE BEGIN SDMMC1_MspInit 1 */
 1307              		.loc 1 582 5 view .LVU415
 1308 012c 3120     		movs	r0, #49
 1309 012e FFF7FEFF 		bl	HAL_NVIC_EnableIRQ
 1310              	.LVL79:
 1311              		.loc 1 589 1 is_stmt 0 view .LVU416
 1312 0132 76E7     		b	.L67
 1313              	.L74:
 514:Core/Src/stm32l4xx_hal_msp.c ****     }
 1314              		.loc 1 514 7 is_stmt 1 view .LVU417
 1315 0134 FFF7FEFF 		bl	Error_Handler
 1316              	.LVL80:
 1317 0138 8DE7     		b	.L69
 1318              	.L75:
 558:Core/Src/stm32l4xx_hal_msp.c ****     }
 1319              		.loc 1 558 7 view .LVU418
 1320 013a FFF7FEFF 		bl	Error_Handler
 1321              	.LVL81:
 1322 013e D4E7     		b	.L70
 1323              	.L76:
 575:Core/Src/stm32l4xx_hal_msp.c ****     }
 1324              		.loc 1 575 7 view .LVU419
ARM GAS  /tmp/cchr4eSW.s 			page 40


 1325 0140 FFF7FEFF 		bl	Error_Handler
 1326              	.LVL82:
 1327 0144 EAE7     		b	.L71
 1328              	.L78:
 1329 0146 00BF     		.align	2
 1330              	.L77:
 1331 0148 00280140 		.word	1073817600
 1332 014c 00100240 		.word	1073876992
 1333 0150 00080048 		.word	1207961600
 1334 0154 000C0048 		.word	1207962624
 1335 0158 00000000 		.word	hdma_sdmmc1_rx
 1336 015c 44040240 		.word	1073873988
 1337 0160 00000000 		.word	hdma_sdmmc1_tx
 1338 0164 58040240 		.word	1073874008
 1339              		.cfi_endproc
 1340              	.LFE235:
 1342              		.section	.text.HAL_SD_MspDeInit,"ax",%progbits
 1343              		.align	1
 1344              		.global	HAL_SD_MspDeInit
 1345              		.syntax unified
 1346              		.thumb
 1347              		.thumb_func
 1349              	HAL_SD_MspDeInit:
 1350              	.LVL83:
 1351              	.LFB236:
 590:Core/Src/stm32l4xx_hal_msp.c **** 
 591:Core/Src/stm32l4xx_hal_msp.c **** /**
 592:Core/Src/stm32l4xx_hal_msp.c ****   * @brief SD MSP De-Initialization
 593:Core/Src/stm32l4xx_hal_msp.c ****   * This function freeze the hardware resources used in this example
 594:Core/Src/stm32l4xx_hal_msp.c ****   * @param hsd: SD handle pointer
 595:Core/Src/stm32l4xx_hal_msp.c ****   * @retval None
 596:Core/Src/stm32l4xx_hal_msp.c ****   */
 597:Core/Src/stm32l4xx_hal_msp.c **** void HAL_SD_MspDeInit(SD_HandleTypeDef* hsd)
 598:Core/Src/stm32l4xx_hal_msp.c **** {
 1352              		.loc 1 598 1 view -0
 1353              		.cfi_startproc
 1354              		@ args = 0, pretend = 0, frame = 0
 1355              		@ frame_needed = 0, uses_anonymous_args = 0
 599:Core/Src/stm32l4xx_hal_msp.c ****   if(hsd->Instance==SDMMC1)
 1356              		.loc 1 599 3 view .LVU421
 1357              		.loc 1 599 9 is_stmt 0 view .LVU422
 1358 0000 0268     		ldr	r2, [r0]
 1359              		.loc 1 599 5 view .LVU423
 1360 0002 0F4B     		ldr	r3, .L86
 1361 0004 9A42     		cmp	r2, r3
 1362 0006 00D0     		beq	.L85
 1363 0008 7047     		bx	lr
 1364              	.L85:
 598:Core/Src/stm32l4xx_hal_msp.c ****   if(hsd->Instance==SDMMC1)
 1365              		.loc 1 598 1 view .LVU424
 1366 000a 10B5     		push	{r4, lr}
 1367              		.cfi_def_cfa_offset 8
 1368              		.cfi_offset 4, -8
 1369              		.cfi_offset 14, -4
 1370 000c 0446     		mov	r4, r0
 600:Core/Src/stm32l4xx_hal_msp.c ****   {
 601:Core/Src/stm32l4xx_hal_msp.c ****     /* USER CODE BEGIN SDMMC1_MspDeInit 0 */
ARM GAS  /tmp/cchr4eSW.s 			page 41


 602:Core/Src/stm32l4xx_hal_msp.c **** 
 603:Core/Src/stm32l4xx_hal_msp.c ****     /* USER CODE END SDMMC1_MspDeInit 0 */
 604:Core/Src/stm32l4xx_hal_msp.c ****     /* Peripheral clock disable */
 605:Core/Src/stm32l4xx_hal_msp.c ****     __HAL_RCC_SDMMC1_CLK_DISABLE();
 1371              		.loc 1 605 5 is_stmt 1 view .LVU425
 1372 000e 0D4A     		ldr	r2, .L86+4
 1373 0010 136E     		ldr	r3, [r2, #96]
 1374 0012 23F48063 		bic	r3, r3, #1024
 1375 0016 1366     		str	r3, [r2, #96]
 606:Core/Src/stm32l4xx_hal_msp.c **** 
 607:Core/Src/stm32l4xx_hal_msp.c ****     /**SDMMC1 GPIO Configuration
 608:Core/Src/stm32l4xx_hal_msp.c ****     PC8     ------> SDMMC1_D0
 609:Core/Src/stm32l4xx_hal_msp.c ****     PC9     ------> SDMMC1_D1
 610:Core/Src/stm32l4xx_hal_msp.c ****     PC10     ------> SDMMC1_D2
 611:Core/Src/stm32l4xx_hal_msp.c ****     PC11     ------> SDMMC1_D3
 612:Core/Src/stm32l4xx_hal_msp.c ****     PC12     ------> SDMMC1_CK
 613:Core/Src/stm32l4xx_hal_msp.c ****     PD2     ------> SDMMC1_CMD
 614:Core/Src/stm32l4xx_hal_msp.c ****     */
 615:Core/Src/stm32l4xx_hal_msp.c ****     HAL_GPIO_DeInit(GPIOC, GPIO_PIN_8|GPIO_PIN_9|GPIO_PIN_10|GPIO_PIN_11
 1376              		.loc 1 615 5 view .LVU426
 1377 0018 4FF4F851 		mov	r1, #7936
 1378 001c 0A48     		ldr	r0, .L86+8
 1379              	.LVL84:
 1380              		.loc 1 615 5 is_stmt 0 view .LVU427
 1381 001e FFF7FEFF 		bl	HAL_GPIO_DeInit
 1382              	.LVL85:
 616:Core/Src/stm32l4xx_hal_msp.c ****                           |GPIO_PIN_12);
 617:Core/Src/stm32l4xx_hal_msp.c **** 
 618:Core/Src/stm32l4xx_hal_msp.c ****     HAL_GPIO_DeInit(GPIOD, GPIO_PIN_2);
 1383              		.loc 1 618 5 is_stmt 1 view .LVU428
 1384 0022 0421     		movs	r1, #4
 1385 0024 0948     		ldr	r0, .L86+12
 1386 0026 FFF7FEFF 		bl	HAL_GPIO_DeInit
 1387              	.LVL86:
 619:Core/Src/stm32l4xx_hal_msp.c **** 
 620:Core/Src/stm32l4xx_hal_msp.c ****     /* SDMMC1 DMA DeInit */
 621:Core/Src/stm32l4xx_hal_msp.c ****     HAL_DMA_DeInit(hsd->hdmarx);
 1388              		.loc 1 621 5 view .LVU429
 1389 002a 206C     		ldr	r0, [r4, #64]
 1390 002c FFF7FEFF 		bl	HAL_DMA_DeInit
 1391              	.LVL87:
 622:Core/Src/stm32l4xx_hal_msp.c ****     HAL_DMA_DeInit(hsd->hdmatx);
 1392              		.loc 1 622 5 view .LVU430
 1393 0030 E06B     		ldr	r0, [r4, #60]
 1394 0032 FFF7FEFF 		bl	HAL_DMA_DeInit
 1395              	.LVL88:
 623:Core/Src/stm32l4xx_hal_msp.c **** 
 624:Core/Src/stm32l4xx_hal_msp.c ****     /* SDMMC1 interrupt DeInit */
 625:Core/Src/stm32l4xx_hal_msp.c ****     HAL_NVIC_DisableIRQ(SDMMC1_IRQn);
 1396              		.loc 1 625 5 view .LVU431
 1397 0036 3120     		movs	r0, #49
 1398 0038 FFF7FEFF 		bl	HAL_NVIC_DisableIRQ
 1399              	.LVL89:
 626:Core/Src/stm32l4xx_hal_msp.c ****     /* USER CODE BEGIN SDMMC1_MspDeInit 1 */
 627:Core/Src/stm32l4xx_hal_msp.c **** 
 628:Core/Src/stm32l4xx_hal_msp.c ****     /* USER CODE END SDMMC1_MspDeInit 1 */
 629:Core/Src/stm32l4xx_hal_msp.c ****   }
ARM GAS  /tmp/cchr4eSW.s 			page 42


 630:Core/Src/stm32l4xx_hal_msp.c **** 
 631:Core/Src/stm32l4xx_hal_msp.c **** }
 1400              		.loc 1 631 1 is_stmt 0 view .LVU432
 1401 003c 10BD     		pop	{r4, pc}
 1402              	.LVL90:
 1403              	.L87:
 1404              		.loc 1 631 1 view .LVU433
 1405 003e 00BF     		.align	2
 1406              	.L86:
 1407 0040 00280140 		.word	1073817600
 1408 0044 00100240 		.word	1073876992
 1409 0048 00080048 		.word	1207961600
 1410 004c 000C0048 		.word	1207962624
 1411              		.cfi_endproc
 1412              	.LFE236:
 1414              		.section	.text.HAL_SPI_MspInit,"ax",%progbits
 1415              		.align	1
 1416              		.global	HAL_SPI_MspInit
 1417              		.syntax unified
 1418              		.thumb
 1419              		.thumb_func
 1421              	HAL_SPI_MspInit:
 1422              	.LVL91:
 1423              	.LFB237:
 632:Core/Src/stm32l4xx_hal_msp.c **** 
 633:Core/Src/stm32l4xx_hal_msp.c **** /**
 634:Core/Src/stm32l4xx_hal_msp.c ****   * @brief SPI MSP Initialization
 635:Core/Src/stm32l4xx_hal_msp.c ****   * This function configures the hardware resources used in this example
 636:Core/Src/stm32l4xx_hal_msp.c ****   * @param hspi: SPI handle pointer
 637:Core/Src/stm32l4xx_hal_msp.c ****   * @retval None
 638:Core/Src/stm32l4xx_hal_msp.c ****   */
 639:Core/Src/stm32l4xx_hal_msp.c **** void HAL_SPI_MspInit(SPI_HandleTypeDef* hspi)
 640:Core/Src/stm32l4xx_hal_msp.c **** {
 1424              		.loc 1 640 1 is_stmt 1 view -0
 1425              		.cfi_startproc
 1426              		@ args = 0, pretend = 0, frame = 32
 1427              		@ frame_needed = 0, uses_anonymous_args = 0
 1428              		.loc 1 640 1 is_stmt 0 view .LVU435
 1429 0000 00B5     		push	{lr}
 1430              		.cfi_def_cfa_offset 4
 1431              		.cfi_offset 14, -4
 1432 0002 89B0     		sub	sp, sp, #36
 1433              		.cfi_def_cfa_offset 40
 641:Core/Src/stm32l4xx_hal_msp.c ****   GPIO_InitTypeDef GPIO_InitStruct = {0};
 1434              		.loc 1 641 3 is_stmt 1 view .LVU436
 1435              		.loc 1 641 20 is_stmt 0 view .LVU437
 1436 0004 0023     		movs	r3, #0
 1437 0006 0393     		str	r3, [sp, #12]
 1438 0008 0493     		str	r3, [sp, #16]
 1439 000a 0593     		str	r3, [sp, #20]
 1440 000c 0693     		str	r3, [sp, #24]
 1441 000e 0793     		str	r3, [sp, #28]
 642:Core/Src/stm32l4xx_hal_msp.c ****   if(hspi->Instance==SPI1)
 1442              		.loc 1 642 3 is_stmt 1 view .LVU438
 1443              		.loc 1 642 10 is_stmt 0 view .LVU439
 1444 0010 0268     		ldr	r2, [r0]
 1445              		.loc 1 642 5 view .LVU440
ARM GAS  /tmp/cchr4eSW.s 			page 43


 1446 0012 134B     		ldr	r3, .L92
 1447 0014 9A42     		cmp	r2, r3
 1448 0016 01D0     		beq	.L91
 1449              	.LVL92:
 1450              	.L88:
 643:Core/Src/stm32l4xx_hal_msp.c ****   {
 644:Core/Src/stm32l4xx_hal_msp.c ****     /* USER CODE BEGIN SPI1_MspInit 0 */
 645:Core/Src/stm32l4xx_hal_msp.c **** 
 646:Core/Src/stm32l4xx_hal_msp.c ****     /* USER CODE END SPI1_MspInit 0 */
 647:Core/Src/stm32l4xx_hal_msp.c ****     /* Peripheral clock enable */
 648:Core/Src/stm32l4xx_hal_msp.c ****     __HAL_RCC_SPI1_CLK_ENABLE();
 649:Core/Src/stm32l4xx_hal_msp.c **** 
 650:Core/Src/stm32l4xx_hal_msp.c ****     __HAL_RCC_GPIOA_CLK_ENABLE();
 651:Core/Src/stm32l4xx_hal_msp.c ****     /**SPI1 GPIO Configuration
 652:Core/Src/stm32l4xx_hal_msp.c ****     PA5     ------> SPI1_SCK
 653:Core/Src/stm32l4xx_hal_msp.c ****     PA6     ------> SPI1_MISO
 654:Core/Src/stm32l4xx_hal_msp.c ****     PA7     ------> SPI1_MOSI
 655:Core/Src/stm32l4xx_hal_msp.c ****     */
 656:Core/Src/stm32l4xx_hal_msp.c ****     GPIO_InitStruct.Pin = SD_SPI1_SCK_Pin|SD_SPI1_MISO_Pin|SD_SPI1_MOSI_Pin;
 657:Core/Src/stm32l4xx_hal_msp.c ****     GPIO_InitStruct.Mode = GPIO_MODE_AF_PP;
 658:Core/Src/stm32l4xx_hal_msp.c ****     GPIO_InitStruct.Pull = GPIO_NOPULL;
 659:Core/Src/stm32l4xx_hal_msp.c ****     GPIO_InitStruct.Speed = GPIO_SPEED_FREQ_VERY_HIGH;
 660:Core/Src/stm32l4xx_hal_msp.c ****     GPIO_InitStruct.Alternate = GPIO_AF5_SPI1;
 661:Core/Src/stm32l4xx_hal_msp.c ****     HAL_GPIO_Init(GPIOA, &GPIO_InitStruct);
 662:Core/Src/stm32l4xx_hal_msp.c **** 
 663:Core/Src/stm32l4xx_hal_msp.c ****     /* USER CODE BEGIN SPI1_MspInit 1 */
 664:Core/Src/stm32l4xx_hal_msp.c **** 
 665:Core/Src/stm32l4xx_hal_msp.c ****     /* USER CODE END SPI1_MspInit 1 */
 666:Core/Src/stm32l4xx_hal_msp.c **** 
 667:Core/Src/stm32l4xx_hal_msp.c ****   }
 668:Core/Src/stm32l4xx_hal_msp.c **** 
 669:Core/Src/stm32l4xx_hal_msp.c **** }
 1451              		.loc 1 669 1 view .LVU441
 1452 0018 09B0     		add	sp, sp, #36
 1453              		.cfi_remember_state
 1454              		.cfi_def_cfa_offset 4
 1455              		@ sp needed
 1456 001a 00BD     		pop	{pc}
 1457              	.LVL93:
 1458              	.L91:
 1459              		.cfi_restore_state
 648:Core/Src/stm32l4xx_hal_msp.c **** 
 1460              		.loc 1 648 5 is_stmt 1 view .LVU442
 1461              	.LBB17:
 648:Core/Src/stm32l4xx_hal_msp.c **** 
 1462              		.loc 1 648 5 view .LVU443
 648:Core/Src/stm32l4xx_hal_msp.c **** 
 1463              		.loc 1 648 5 view .LVU444
 1464 001c 03F56043 		add	r3, r3, #57344
 1465 0020 1A6E     		ldr	r2, [r3, #96]
 1466 0022 42F48052 		orr	r2, r2, #4096
 1467 0026 1A66     		str	r2, [r3, #96]
 648:Core/Src/stm32l4xx_hal_msp.c **** 
 1468              		.loc 1 648 5 view .LVU445
 1469 0028 1A6E     		ldr	r2, [r3, #96]
 1470 002a 02F48052 		and	r2, r2, #4096
 1471 002e 0192     		str	r2, [sp, #4]
ARM GAS  /tmp/cchr4eSW.s 			page 44


 648:Core/Src/stm32l4xx_hal_msp.c **** 
 1472              		.loc 1 648 5 view .LVU446
 1473 0030 019A     		ldr	r2, [sp, #4]
 1474              	.LBE17:
 648:Core/Src/stm32l4xx_hal_msp.c **** 
 1475              		.loc 1 648 5 view .LVU447
 650:Core/Src/stm32l4xx_hal_msp.c ****     /**SPI1 GPIO Configuration
 1476              		.loc 1 650 5 view .LVU448
 1477              	.LBB18:
 650:Core/Src/stm32l4xx_hal_msp.c ****     /**SPI1 GPIO Configuration
 1478              		.loc 1 650 5 view .LVU449
 650:Core/Src/stm32l4xx_hal_msp.c ****     /**SPI1 GPIO Configuration
 1479              		.loc 1 650 5 view .LVU450
 1480 0032 DA6C     		ldr	r2, [r3, #76]
 1481 0034 42F00102 		orr	r2, r2, #1
 1482 0038 DA64     		str	r2, [r3, #76]
 650:Core/Src/stm32l4xx_hal_msp.c ****     /**SPI1 GPIO Configuration
 1483              		.loc 1 650 5 view .LVU451
 1484 003a DB6C     		ldr	r3, [r3, #76]
 1485 003c 03F00103 		and	r3, r3, #1
 1486 0040 0293     		str	r3, [sp, #8]
 650:Core/Src/stm32l4xx_hal_msp.c ****     /**SPI1 GPIO Configuration
 1487              		.loc 1 650 5 view .LVU452
 1488 0042 029B     		ldr	r3, [sp, #8]
 1489              	.LBE18:
 650:Core/Src/stm32l4xx_hal_msp.c ****     /**SPI1 GPIO Configuration
 1490              		.loc 1 650 5 view .LVU453
 656:Core/Src/stm32l4xx_hal_msp.c ****     GPIO_InitStruct.Mode = GPIO_MODE_AF_PP;
 1491              		.loc 1 656 5 view .LVU454
 656:Core/Src/stm32l4xx_hal_msp.c ****     GPIO_InitStruct.Mode = GPIO_MODE_AF_PP;
 1492              		.loc 1 656 25 is_stmt 0 view .LVU455
 1493 0044 E023     		movs	r3, #224
 1494 0046 0393     		str	r3, [sp, #12]
 657:Core/Src/stm32l4xx_hal_msp.c ****     GPIO_InitStruct.Pull = GPIO_NOPULL;
 1495              		.loc 1 657 5 is_stmt 1 view .LVU456
 657:Core/Src/stm32l4xx_hal_msp.c ****     GPIO_InitStruct.Pull = GPIO_NOPULL;
 1496              		.loc 1 657 26 is_stmt 0 view .LVU457
 1497 0048 0223     		movs	r3, #2
 1498 004a 0493     		str	r3, [sp, #16]
 658:Core/Src/stm32l4xx_hal_msp.c ****     GPIO_InitStruct.Speed = GPIO_SPEED_FREQ_VERY_HIGH;
 1499              		.loc 1 658 5 is_stmt 1 view .LVU458
 659:Core/Src/stm32l4xx_hal_msp.c ****     GPIO_InitStruct.Alternate = GPIO_AF5_SPI1;
 1500              		.loc 1 659 5 view .LVU459
 659:Core/Src/stm32l4xx_hal_msp.c ****     GPIO_InitStruct.Alternate = GPIO_AF5_SPI1;
 1501              		.loc 1 659 27 is_stmt 0 view .LVU460
 1502 004c 0323     		movs	r3, #3
 1503 004e 0693     		str	r3, [sp, #24]
 660:Core/Src/stm32l4xx_hal_msp.c ****     HAL_GPIO_Init(GPIOA, &GPIO_InitStruct);
 1504              		.loc 1 660 5 is_stmt 1 view .LVU461
 660:Core/Src/stm32l4xx_hal_msp.c ****     HAL_GPIO_Init(GPIOA, &GPIO_InitStruct);
 1505              		.loc 1 660 31 is_stmt 0 view .LVU462
 1506 0050 0523     		movs	r3, #5
 1507 0052 0793     		str	r3, [sp, #28]
 661:Core/Src/stm32l4xx_hal_msp.c **** 
 1508              		.loc 1 661 5 is_stmt 1 view .LVU463
 1509 0054 03A9     		add	r1, sp, #12
 1510 0056 4FF09040 		mov	r0, #1207959552
ARM GAS  /tmp/cchr4eSW.s 			page 45


 1511              	.LVL94:
 661:Core/Src/stm32l4xx_hal_msp.c **** 
 1512              		.loc 1 661 5 is_stmt 0 view .LVU464
 1513 005a FFF7FEFF 		bl	HAL_GPIO_Init
 1514              	.LVL95:
 1515              		.loc 1 669 1 view .LVU465
 1516 005e DBE7     		b	.L88
 1517              	.L93:
 1518              		.align	2
 1519              	.L92:
 1520 0060 00300140 		.word	1073819648
 1521              		.cfi_endproc
 1522              	.LFE237:
 1524              		.section	.text.HAL_SPI_MspDeInit,"ax",%progbits
 1525              		.align	1
 1526              		.global	HAL_SPI_MspDeInit
 1527              		.syntax unified
 1528              		.thumb
 1529              		.thumb_func
 1531              	HAL_SPI_MspDeInit:
 1532              	.LVL96:
 1533              	.LFB238:
 670:Core/Src/stm32l4xx_hal_msp.c **** 
 671:Core/Src/stm32l4xx_hal_msp.c **** /**
 672:Core/Src/stm32l4xx_hal_msp.c ****   * @brief SPI MSP De-Initialization
 673:Core/Src/stm32l4xx_hal_msp.c ****   * This function freeze the hardware resources used in this example
 674:Core/Src/stm32l4xx_hal_msp.c ****   * @param hspi: SPI handle pointer
 675:Core/Src/stm32l4xx_hal_msp.c ****   * @retval None
 676:Core/Src/stm32l4xx_hal_msp.c ****   */
 677:Core/Src/stm32l4xx_hal_msp.c **** void HAL_SPI_MspDeInit(SPI_HandleTypeDef* hspi)
 678:Core/Src/stm32l4xx_hal_msp.c **** {
 1534              		.loc 1 678 1 is_stmt 1 view -0
 1535              		.cfi_startproc
 1536              		@ args = 0, pretend = 0, frame = 0
 1537              		@ frame_needed = 0, uses_anonymous_args = 0
 1538              		.loc 1 678 1 is_stmt 0 view .LVU467
 1539 0000 08B5     		push	{r3, lr}
 1540              		.cfi_def_cfa_offset 8
 1541              		.cfi_offset 3, -8
 1542              		.cfi_offset 14, -4
 679:Core/Src/stm32l4xx_hal_msp.c ****   if(hspi->Instance==SPI1)
 1543              		.loc 1 679 3 is_stmt 1 view .LVU468
 1544              		.loc 1 679 10 is_stmt 0 view .LVU469
 1545 0002 0268     		ldr	r2, [r0]
 1546              		.loc 1 679 5 view .LVU470
 1547 0004 074B     		ldr	r3, .L98
 1548 0006 9A42     		cmp	r2, r3
 1549 0008 00D0     		beq	.L97
 1550              	.LVL97:
 1551              	.L94:
 680:Core/Src/stm32l4xx_hal_msp.c ****   {
 681:Core/Src/stm32l4xx_hal_msp.c ****     /* USER CODE BEGIN SPI1_MspDeInit 0 */
 682:Core/Src/stm32l4xx_hal_msp.c **** 
 683:Core/Src/stm32l4xx_hal_msp.c ****     /* USER CODE END SPI1_MspDeInit 0 */
 684:Core/Src/stm32l4xx_hal_msp.c ****     /* Peripheral clock disable */
 685:Core/Src/stm32l4xx_hal_msp.c ****     __HAL_RCC_SPI1_CLK_DISABLE();
 686:Core/Src/stm32l4xx_hal_msp.c **** 
ARM GAS  /tmp/cchr4eSW.s 			page 46


 687:Core/Src/stm32l4xx_hal_msp.c ****     /**SPI1 GPIO Configuration
 688:Core/Src/stm32l4xx_hal_msp.c ****     PA5     ------> SPI1_SCK
 689:Core/Src/stm32l4xx_hal_msp.c ****     PA6     ------> SPI1_MISO
 690:Core/Src/stm32l4xx_hal_msp.c ****     PA7     ------> SPI1_MOSI
 691:Core/Src/stm32l4xx_hal_msp.c ****     */
 692:Core/Src/stm32l4xx_hal_msp.c ****     HAL_GPIO_DeInit(GPIOA, SD_SPI1_SCK_Pin|SD_SPI1_MISO_Pin|SD_SPI1_MOSI_Pin);
 693:Core/Src/stm32l4xx_hal_msp.c **** 
 694:Core/Src/stm32l4xx_hal_msp.c ****     /* USER CODE BEGIN SPI1_MspDeInit 1 */
 695:Core/Src/stm32l4xx_hal_msp.c **** 
 696:Core/Src/stm32l4xx_hal_msp.c ****     /* USER CODE END SPI1_MspDeInit 1 */
 697:Core/Src/stm32l4xx_hal_msp.c ****   }
 698:Core/Src/stm32l4xx_hal_msp.c **** 
 699:Core/Src/stm32l4xx_hal_msp.c **** }
 1552              		.loc 1 699 1 view .LVU471
 1553 000a 08BD     		pop	{r3, pc}
 1554              	.LVL98:
 1555              	.L97:
 685:Core/Src/stm32l4xx_hal_msp.c **** 
 1556              		.loc 1 685 5 is_stmt 1 view .LVU472
 1557 000c 064A     		ldr	r2, .L98+4
 1558 000e 136E     		ldr	r3, [r2, #96]
 1559 0010 23F48053 		bic	r3, r3, #4096
 1560 0014 1366     		str	r3, [r2, #96]
 692:Core/Src/stm32l4xx_hal_msp.c **** 
 1561              		.loc 1 692 5 view .LVU473
 1562 0016 E021     		movs	r1, #224
 1563 0018 4FF09040 		mov	r0, #1207959552
 1564              	.LVL99:
 692:Core/Src/stm32l4xx_hal_msp.c **** 
 1565              		.loc 1 692 5 is_stmt 0 view .LVU474
 1566 001c FFF7FEFF 		bl	HAL_GPIO_DeInit
 1567              	.LVL100:
 1568              		.loc 1 699 1 view .LVU475
 1569 0020 F3E7     		b	.L94
 1570              	.L99:
 1571 0022 00BF     		.align	2
 1572              	.L98:
 1573 0024 00300140 		.word	1073819648
 1574 0028 00100240 		.word	1073876992
 1575              		.cfi_endproc
 1576              	.LFE238:
 1578              		.text
 1579              	.Letext0:
 1580              		.file 2 "Drivers/CMSIS/Device/ST/STM32L4xx/Include/stm32l476xx.h"
 1581              		.file 3 "/home/glen/.config/Code/User/globalStorage/bmd.stm32-for-vscode/@xpack-dev-tools/arm-none
 1582              		.file 4 "/home/glen/.config/Code/User/globalStorage/bmd.stm32-for-vscode/@xpack-dev-tools/arm-none
 1583              		.file 5 "Drivers/STM32L4xx_HAL_Driver/Inc/stm32l4xx_hal_def.h"
 1584              		.file 6 "Drivers/STM32L4xx_HAL_Driver/Inc/stm32l4xx_hal_rcc_ex.h"
 1585              		.file 7 "Drivers/STM32L4xx_HAL_Driver/Inc/stm32l4xx_hal_gpio.h"
 1586              		.file 8 "Drivers/STM32L4xx_HAL_Driver/Inc/stm32l4xx_hal_dma.h"
 1587              		.file 9 "Drivers/STM32L4xx_HAL_Driver/Inc/stm32l4xx_hal_i2c.h"
 1588              		.file 10 "Drivers/STM32L4xx_HAL_Driver/Inc/stm32l4xx_hal_rtc.h"
 1589              		.file 11 "Drivers/STM32L4xx_HAL_Driver/Inc/stm32l4xx_ll_sdmmc.h"
 1590              		.file 12 "Drivers/STM32L4xx_HAL_Driver/Inc/stm32l4xx_hal_sd.h"
 1591              		.file 13 "Drivers/STM32L4xx_HAL_Driver/Inc/stm32l4xx_hal_spi.h"
 1592              		.file 14 "Drivers/STM32L4xx_HAL_Driver/Inc/stm32l4xx_hal_uart.h"
 1593              		.file 15 "Drivers/STM32L4xx_HAL_Driver/Inc/stm32l4xx_hal_cortex.h"
ARM GAS  /tmp/cchr4eSW.s 			page 47


 1594              		.file 16 "Drivers/STM32L4xx_HAL_Driver/Inc/stm32l4xx_ll_dma.h"
 1595              		.file 17 "Core/Inc/main.h"
 1596              		.file 18 "<built-in>"
ARM GAS  /tmp/cchr4eSW.s 			page 48

