ARM GAS  /tmp/ccEbPtKE.s 			page 1


   1              		.cpu cortex-m4
   2              		.arch armv7e-m
   3              		.fpu fpv4-sp-d16
   4              		.eabi_attribute 27, 1
   5              		.eabi_attribute 28, 1
   6              		.eabi_attribute 20, 1
   7              		.eabi_attribute 21, 1
   8              		.eabi_attribute 23, 3
   9              		.eabi_attribute 24, 1
  10              		.eabi_attribute 25, 1
  11              		.eabi_attribute 26, 1
  12              		.eabi_attribute 30, 1
  13              		.eabi_attribute 34, 1
  14              		.eabi_attribute 18, 4
  15              		.file	"stm32l4xx_hal_msp.c"
  16              		.text
  17              	.Ltext0:
  18              		.cfi_sections	.debug_frame
  19              		.file 1 "Core/Src/stm32l4xx_hal_msp.c"
  20              		.section	.text.HAL_MspInit,"ax",%progbits
  21              		.align	1
  22              		.global	HAL_MspInit
  23              		.syntax unified
  24              		.thumb
  25              		.thumb_func
  27              	HAL_MspInit:
  28              	.LFB228:
   1:Core/Src/stm32l4xx_hal_msp.c **** /* USER CODE BEGIN Header */
   2:Core/Src/stm32l4xx_hal_msp.c **** /**
   3:Core/Src/stm32l4xx_hal_msp.c ****   ******************************************************************************
   4:Core/Src/stm32l4xx_hal_msp.c ****   * @file         stm32l4xx_hal_msp.c
   5:Core/Src/stm32l4xx_hal_msp.c ****   * @brief        This file provides code for the MSP Initialization
   6:Core/Src/stm32l4xx_hal_msp.c ****   *               and de-Initialization codes.
   7:Core/Src/stm32l4xx_hal_msp.c ****   ******************************************************************************
   8:Core/Src/stm32l4xx_hal_msp.c ****   * @attention
   9:Core/Src/stm32l4xx_hal_msp.c ****   *
  10:Core/Src/stm32l4xx_hal_msp.c ****   * Copyright (c) 2026 STMicroelectronics.
  11:Core/Src/stm32l4xx_hal_msp.c ****   * All rights reserved.
  12:Core/Src/stm32l4xx_hal_msp.c ****   *
  13:Core/Src/stm32l4xx_hal_msp.c ****   * This software is licensed under terms that can be found in the LICENSE file
  14:Core/Src/stm32l4xx_hal_msp.c ****   * in the root directory of this software component.
  15:Core/Src/stm32l4xx_hal_msp.c ****   * If no LICENSE file comes with this software, it is provided AS-IS.
  16:Core/Src/stm32l4xx_hal_msp.c ****   *
  17:Core/Src/stm32l4xx_hal_msp.c ****   ******************************************************************************
  18:Core/Src/stm32l4xx_hal_msp.c ****   */
  19:Core/Src/stm32l4xx_hal_msp.c **** /* USER CODE END Header */
  20:Core/Src/stm32l4xx_hal_msp.c **** /* Includes ------------------------------------------------------------------*/
  21:Core/Src/stm32l4xx_hal_msp.c **** #include "main.h"
  22:Core/Src/stm32l4xx_hal_msp.c **** /* USER CODE BEGIN Includes */
  23:Core/Src/stm32l4xx_hal_msp.c **** 
  24:Core/Src/stm32l4xx_hal_msp.c **** /* USER CODE END Includes */
  25:Core/Src/stm32l4xx_hal_msp.c **** extern DMA_HandleTypeDef hdma_usart1_rx;
  26:Core/Src/stm32l4xx_hal_msp.c **** 
  27:Core/Src/stm32l4xx_hal_msp.c **** extern DMA_HandleTypeDef hdma_sdmmc1_rx;
  28:Core/Src/stm32l4xx_hal_msp.c **** 
  29:Core/Src/stm32l4xx_hal_msp.c **** extern DMA_HandleTypeDef hdma_sdmmc1_tx;
  30:Core/Src/stm32l4xx_hal_msp.c **** 
ARM GAS  /tmp/ccEbPtKE.s 			page 2


  31:Core/Src/stm32l4xx_hal_msp.c **** /* Private typedef -----------------------------------------------------------*/
  32:Core/Src/stm32l4xx_hal_msp.c **** /* USER CODE BEGIN TD */
  33:Core/Src/stm32l4xx_hal_msp.c **** 
  34:Core/Src/stm32l4xx_hal_msp.c **** /* USER CODE END TD */
  35:Core/Src/stm32l4xx_hal_msp.c **** 
  36:Core/Src/stm32l4xx_hal_msp.c **** /* Private define ------------------------------------------------------------*/
  37:Core/Src/stm32l4xx_hal_msp.c **** /* USER CODE BEGIN Define */
  38:Core/Src/stm32l4xx_hal_msp.c **** 
  39:Core/Src/stm32l4xx_hal_msp.c **** /* USER CODE END Define */
  40:Core/Src/stm32l4xx_hal_msp.c **** 
  41:Core/Src/stm32l4xx_hal_msp.c **** /* Private macro -------------------------------------------------------------*/
  42:Core/Src/stm32l4xx_hal_msp.c **** /* USER CODE BEGIN Macro */
  43:Core/Src/stm32l4xx_hal_msp.c **** 
  44:Core/Src/stm32l4xx_hal_msp.c **** /* USER CODE END Macro */
  45:Core/Src/stm32l4xx_hal_msp.c **** 
  46:Core/Src/stm32l4xx_hal_msp.c **** /* Private variables ---------------------------------------------------------*/
  47:Core/Src/stm32l4xx_hal_msp.c **** /* USER CODE BEGIN PV */
  48:Core/Src/stm32l4xx_hal_msp.c **** 
  49:Core/Src/stm32l4xx_hal_msp.c **** /* USER CODE END PV */
  50:Core/Src/stm32l4xx_hal_msp.c **** 
  51:Core/Src/stm32l4xx_hal_msp.c **** /* Private function prototypes -----------------------------------------------*/
  52:Core/Src/stm32l4xx_hal_msp.c **** /* USER CODE BEGIN PFP */
  53:Core/Src/stm32l4xx_hal_msp.c **** 
  54:Core/Src/stm32l4xx_hal_msp.c **** /* USER CODE END PFP */
  55:Core/Src/stm32l4xx_hal_msp.c **** 
  56:Core/Src/stm32l4xx_hal_msp.c **** /* External functions --------------------------------------------------------*/
  57:Core/Src/stm32l4xx_hal_msp.c **** /* USER CODE BEGIN ExternalFunctions */
  58:Core/Src/stm32l4xx_hal_msp.c **** 
  59:Core/Src/stm32l4xx_hal_msp.c **** /* USER CODE END ExternalFunctions */
  60:Core/Src/stm32l4xx_hal_msp.c **** 
  61:Core/Src/stm32l4xx_hal_msp.c **** /* USER CODE BEGIN 0 */
  62:Core/Src/stm32l4xx_hal_msp.c **** 
  63:Core/Src/stm32l4xx_hal_msp.c **** /* USER CODE END 0 */
  64:Core/Src/stm32l4xx_hal_msp.c **** /**
  65:Core/Src/stm32l4xx_hal_msp.c ****   * Initializes the Global MSP.
  66:Core/Src/stm32l4xx_hal_msp.c ****   */
  67:Core/Src/stm32l4xx_hal_msp.c **** void HAL_MspInit(void)
  68:Core/Src/stm32l4xx_hal_msp.c **** {
  29              		.loc 1 68 1 view -0
  30              		.cfi_startproc
  31              		@ args = 0, pretend = 0, frame = 8
  32              		@ frame_needed = 0, uses_anonymous_args = 0
  33              		@ link register save eliminated.
  34 0000 82B0     		sub	sp, sp, #8
  35              		.cfi_def_cfa_offset 8
  69:Core/Src/stm32l4xx_hal_msp.c **** 
  70:Core/Src/stm32l4xx_hal_msp.c ****   /* USER CODE BEGIN MspInit 0 */
  71:Core/Src/stm32l4xx_hal_msp.c **** 
  72:Core/Src/stm32l4xx_hal_msp.c ****   /* USER CODE END MspInit 0 */
  73:Core/Src/stm32l4xx_hal_msp.c **** 
  74:Core/Src/stm32l4xx_hal_msp.c ****   __HAL_RCC_SYSCFG_CLK_ENABLE();
  36              		.loc 1 74 3 view .LVU1
  37              	.LBB2:
  38              		.loc 1 74 3 view .LVU2
  39              		.loc 1 74 3 view .LVU3
  40 0002 0A4B     		ldr	r3, .L3
  41 0004 1A6E     		ldr	r2, [r3, #96]
ARM GAS  /tmp/ccEbPtKE.s 			page 3


  42 0006 42F00102 		orr	r2, r2, #1
  43 000a 1A66     		str	r2, [r3, #96]
  44              		.loc 1 74 3 view .LVU4
  45 000c 1A6E     		ldr	r2, [r3, #96]
  46 000e 02F00102 		and	r2, r2, #1
  47 0012 0092     		str	r2, [sp]
  48              		.loc 1 74 3 view .LVU5
  49 0014 009A     		ldr	r2, [sp]
  50              	.LBE2:
  51              		.loc 1 74 3 view .LVU6
  75:Core/Src/stm32l4xx_hal_msp.c ****   __HAL_RCC_PWR_CLK_ENABLE();
  52              		.loc 1 75 3 view .LVU7
  53              	.LBB3:
  54              		.loc 1 75 3 view .LVU8
  55              		.loc 1 75 3 view .LVU9
  56 0016 9A6D     		ldr	r2, [r3, #88]
  57 0018 42F08052 		orr	r2, r2, #268435456
  58 001c 9A65     		str	r2, [r3, #88]
  59              		.loc 1 75 3 view .LVU10
  60 001e 9B6D     		ldr	r3, [r3, #88]
  61 0020 03F08053 		and	r3, r3, #268435456
  62 0024 0193     		str	r3, [sp, #4]
  63              		.loc 1 75 3 view .LVU11
  64 0026 019B     		ldr	r3, [sp, #4]
  65              	.LBE3:
  66              		.loc 1 75 3 view .LVU12
  76:Core/Src/stm32l4xx_hal_msp.c **** 
  77:Core/Src/stm32l4xx_hal_msp.c ****   /* System interrupt init*/
  78:Core/Src/stm32l4xx_hal_msp.c **** 
  79:Core/Src/stm32l4xx_hal_msp.c ****   /* USER CODE BEGIN MspInit 1 */
  80:Core/Src/stm32l4xx_hal_msp.c **** 
  81:Core/Src/stm32l4xx_hal_msp.c ****   /* USER CODE END MspInit 1 */
  82:Core/Src/stm32l4xx_hal_msp.c **** }
  67              		.loc 1 82 1 is_stmt 0 view .LVU13
  68 0028 02B0     		add	sp, sp, #8
  69              		.cfi_def_cfa_offset 0
  70              		@ sp needed
  71 002a 7047     		bx	lr
  72              	.L4:
  73              		.align	2
  74              	.L3:
  75 002c 00100240 		.word	1073876992
  76              		.cfi_endproc
  77              	.LFE228:
  79              		.section	.text.HAL_I2C_MspInit,"ax",%progbits
  80              		.align	1
  81              		.global	HAL_I2C_MspInit
  82              		.syntax unified
  83              		.thumb
  84              		.thumb_func
  86              	HAL_I2C_MspInit:
  87              	.LVL0:
  88              	.LFB229:
  83:Core/Src/stm32l4xx_hal_msp.c **** 
  84:Core/Src/stm32l4xx_hal_msp.c **** /**
  85:Core/Src/stm32l4xx_hal_msp.c ****   * @brief I2C MSP Initialization
  86:Core/Src/stm32l4xx_hal_msp.c ****   * This function configures the hardware resources used in this example
ARM GAS  /tmp/ccEbPtKE.s 			page 4


  87:Core/Src/stm32l4xx_hal_msp.c ****   * @param hi2c: I2C handle pointer
  88:Core/Src/stm32l4xx_hal_msp.c ****   * @retval None
  89:Core/Src/stm32l4xx_hal_msp.c ****   */
  90:Core/Src/stm32l4xx_hal_msp.c **** void HAL_I2C_MspInit(I2C_HandleTypeDef* hi2c)
  91:Core/Src/stm32l4xx_hal_msp.c **** {
  89              		.loc 1 91 1 is_stmt 1 view -0
  90              		.cfi_startproc
  91              		@ args = 0, pretend = 0, frame = 168
  92              		@ frame_needed = 0, uses_anonymous_args = 0
  93              		.loc 1 91 1 is_stmt 0 view .LVU15
  94 0000 10B5     		push	{r4, lr}
  95              		.cfi_def_cfa_offset 8
  96              		.cfi_offset 4, -8
  97              		.cfi_offset 14, -4
  98 0002 AAB0     		sub	sp, sp, #168
  99              		.cfi_def_cfa_offset 176
 100 0004 0446     		mov	r4, r0
  92:Core/Src/stm32l4xx_hal_msp.c ****   GPIO_InitTypeDef GPIO_InitStruct = {0};
 101              		.loc 1 92 3 is_stmt 1 view .LVU16
 102              		.loc 1 92 20 is_stmt 0 view .LVU17
 103 0006 0021     		movs	r1, #0
 104 0008 2591     		str	r1, [sp, #148]
 105 000a 2691     		str	r1, [sp, #152]
 106 000c 2791     		str	r1, [sp, #156]
 107 000e 2891     		str	r1, [sp, #160]
 108 0010 2991     		str	r1, [sp, #164]
  93:Core/Src/stm32l4xx_hal_msp.c ****   RCC_PeriphCLKInitTypeDef PeriphClkInit = {0};
 109              		.loc 1 93 3 is_stmt 1 view .LVU18
 110              		.loc 1 93 28 is_stmt 0 view .LVU19
 111 0012 8822     		movs	r2, #136
 112 0014 03A8     		add	r0, sp, #12
 113              	.LVL1:
 114              		.loc 1 93 28 view .LVU20
 115 0016 FFF7FEFF 		bl	memset
 116              	.LVL2:
  94:Core/Src/stm32l4xx_hal_msp.c ****   if(hi2c->Instance==I2C2)
 117              		.loc 1 94 3 is_stmt 1 view .LVU21
 118              		.loc 1 94 10 is_stmt 0 view .LVU22
 119 001a 2268     		ldr	r2, [r4]
 120              		.loc 1 94 5 view .LVU23
 121 001c 184B     		ldr	r3, .L11
 122 001e 9A42     		cmp	r2, r3
 123 0020 01D0     		beq	.L9
 124              	.LVL3:
 125              	.L5:
  95:Core/Src/stm32l4xx_hal_msp.c ****   {
  96:Core/Src/stm32l4xx_hal_msp.c ****     /* USER CODE BEGIN I2C2_MspInit 0 */
  97:Core/Src/stm32l4xx_hal_msp.c **** 
  98:Core/Src/stm32l4xx_hal_msp.c ****     /* USER CODE END I2C2_MspInit 0 */
  99:Core/Src/stm32l4xx_hal_msp.c **** 
 100:Core/Src/stm32l4xx_hal_msp.c ****   /** Initializes the peripherals clock
 101:Core/Src/stm32l4xx_hal_msp.c ****   */
 102:Core/Src/stm32l4xx_hal_msp.c ****     PeriphClkInit.PeriphClockSelection = RCC_PERIPHCLK_I2C2;
 103:Core/Src/stm32l4xx_hal_msp.c ****     PeriphClkInit.I2c2ClockSelection = RCC_I2C2CLKSOURCE_PCLK1;
 104:Core/Src/stm32l4xx_hal_msp.c ****     if (HAL_RCCEx_PeriphCLKConfig(&PeriphClkInit) != HAL_OK)
 105:Core/Src/stm32l4xx_hal_msp.c ****     {
 106:Core/Src/stm32l4xx_hal_msp.c ****       Error_Handler();
ARM GAS  /tmp/ccEbPtKE.s 			page 5


 107:Core/Src/stm32l4xx_hal_msp.c ****     }
 108:Core/Src/stm32l4xx_hal_msp.c **** 
 109:Core/Src/stm32l4xx_hal_msp.c ****     __HAL_RCC_GPIOB_CLK_ENABLE();
 110:Core/Src/stm32l4xx_hal_msp.c ****     /**I2C2 GPIO Configuration
 111:Core/Src/stm32l4xx_hal_msp.c ****     PB13     ------> I2C2_SCL
 112:Core/Src/stm32l4xx_hal_msp.c ****     PB14     ------> I2C2_SDA
 113:Core/Src/stm32l4xx_hal_msp.c ****     */
 114:Core/Src/stm32l4xx_hal_msp.c ****     GPIO_InitStruct.Pin = GPIO_PIN_13|GPIO_PIN_14;
 115:Core/Src/stm32l4xx_hal_msp.c ****     GPIO_InitStruct.Mode = GPIO_MODE_AF_OD;
 116:Core/Src/stm32l4xx_hal_msp.c ****     GPIO_InitStruct.Pull = GPIO_NOPULL;
 117:Core/Src/stm32l4xx_hal_msp.c ****     GPIO_InitStruct.Speed = GPIO_SPEED_FREQ_VERY_HIGH;
 118:Core/Src/stm32l4xx_hal_msp.c ****     GPIO_InitStruct.Alternate = GPIO_AF4_I2C2;
 119:Core/Src/stm32l4xx_hal_msp.c ****     HAL_GPIO_Init(GPIOB, &GPIO_InitStruct);
 120:Core/Src/stm32l4xx_hal_msp.c **** 
 121:Core/Src/stm32l4xx_hal_msp.c ****     /* Peripheral clock enable */
 122:Core/Src/stm32l4xx_hal_msp.c ****     __HAL_RCC_I2C2_CLK_ENABLE();
 123:Core/Src/stm32l4xx_hal_msp.c ****     /* USER CODE BEGIN I2C2_MspInit 1 */
 124:Core/Src/stm32l4xx_hal_msp.c **** 
 125:Core/Src/stm32l4xx_hal_msp.c ****     /* USER CODE END I2C2_MspInit 1 */
 126:Core/Src/stm32l4xx_hal_msp.c **** 
 127:Core/Src/stm32l4xx_hal_msp.c ****   }
 128:Core/Src/stm32l4xx_hal_msp.c **** 
 129:Core/Src/stm32l4xx_hal_msp.c **** }
 126              		.loc 1 129 1 view .LVU24
 127 0022 2AB0     		add	sp, sp, #168
 128              		.cfi_remember_state
 129              		.cfi_def_cfa_offset 8
 130              		@ sp needed
 131 0024 10BD     		pop	{r4, pc}
 132              	.LVL4:
 133              	.L9:
 134              		.cfi_restore_state
 102:Core/Src/stm32l4xx_hal_msp.c ****     PeriphClkInit.I2c2ClockSelection = RCC_I2C2CLKSOURCE_PCLK1;
 135              		.loc 1 102 5 is_stmt 1 view .LVU25
 102:Core/Src/stm32l4xx_hal_msp.c ****     PeriphClkInit.I2c2ClockSelection = RCC_I2C2CLKSOURCE_PCLK1;
 136              		.loc 1 102 40 is_stmt 0 view .LVU26
 137 0026 8023     		movs	r3, #128
 138 0028 0393     		str	r3, [sp, #12]
 103:Core/Src/stm32l4xx_hal_msp.c ****     if (HAL_RCCEx_PeriphCLKConfig(&PeriphClkInit) != HAL_OK)
 139              		.loc 1 103 5 is_stmt 1 view .LVU27
 104:Core/Src/stm32l4xx_hal_msp.c ****     {
 140              		.loc 1 104 5 view .LVU28
 104:Core/Src/stm32l4xx_hal_msp.c ****     {
 141              		.loc 1 104 9 is_stmt 0 view .LVU29
 142 002a 03A8     		add	r0, sp, #12
 143 002c FFF7FEFF 		bl	HAL_RCCEx_PeriphCLKConfig
 144              	.LVL5:
 104:Core/Src/stm32l4xx_hal_msp.c ****     {
 145              		.loc 1 104 8 discriminator 1 view .LVU30
 146 0030 10BB     		cbnz	r0, .L10
 147              	.L7:
 109:Core/Src/stm32l4xx_hal_msp.c ****     /**I2C2 GPIO Configuration
 148              		.loc 1 109 5 is_stmt 1 view .LVU31
 149              	.LBB4:
 109:Core/Src/stm32l4xx_hal_msp.c ****     /**I2C2 GPIO Configuration
 150              		.loc 1 109 5 view .LVU32
 109:Core/Src/stm32l4xx_hal_msp.c ****     /**I2C2 GPIO Configuration
ARM GAS  /tmp/ccEbPtKE.s 			page 6


 151              		.loc 1 109 5 view .LVU33
 152 0032 144C     		ldr	r4, .L11+4
 153              	.LVL6:
 109:Core/Src/stm32l4xx_hal_msp.c ****     /**I2C2 GPIO Configuration
 154              		.loc 1 109 5 is_stmt 0 view .LVU34
 155 0034 E36C     		ldr	r3, [r4, #76]
 156 0036 43F00203 		orr	r3, r3, #2
 157 003a E364     		str	r3, [r4, #76]
 109:Core/Src/stm32l4xx_hal_msp.c ****     /**I2C2 GPIO Configuration
 158              		.loc 1 109 5 is_stmt 1 view .LVU35
 159 003c E36C     		ldr	r3, [r4, #76]
 160 003e 03F00203 		and	r3, r3, #2
 161 0042 0193     		str	r3, [sp, #4]
 109:Core/Src/stm32l4xx_hal_msp.c ****     /**I2C2 GPIO Configuration
 162              		.loc 1 109 5 view .LVU36
 163 0044 019B     		ldr	r3, [sp, #4]
 164              	.LBE4:
 109:Core/Src/stm32l4xx_hal_msp.c ****     /**I2C2 GPIO Configuration
 165              		.loc 1 109 5 view .LVU37
 114:Core/Src/stm32l4xx_hal_msp.c ****     GPIO_InitStruct.Mode = GPIO_MODE_AF_OD;
 166              		.loc 1 114 5 view .LVU38
 114:Core/Src/stm32l4xx_hal_msp.c ****     GPIO_InitStruct.Mode = GPIO_MODE_AF_OD;
 167              		.loc 1 114 25 is_stmt 0 view .LVU39
 168 0046 4FF4C043 		mov	r3, #24576
 169 004a 2593     		str	r3, [sp, #148]
 115:Core/Src/stm32l4xx_hal_msp.c ****     GPIO_InitStruct.Pull = GPIO_NOPULL;
 170              		.loc 1 115 5 is_stmt 1 view .LVU40
 115:Core/Src/stm32l4xx_hal_msp.c ****     GPIO_InitStruct.Pull = GPIO_NOPULL;
 171              		.loc 1 115 26 is_stmt 0 view .LVU41
 172 004c 1223     		movs	r3, #18
 173 004e 2693     		str	r3, [sp, #152]
 116:Core/Src/stm32l4xx_hal_msp.c ****     GPIO_InitStruct.Speed = GPIO_SPEED_FREQ_VERY_HIGH;
 174              		.loc 1 116 5 is_stmt 1 view .LVU42
 116:Core/Src/stm32l4xx_hal_msp.c ****     GPIO_InitStruct.Speed = GPIO_SPEED_FREQ_VERY_HIGH;
 175              		.loc 1 116 26 is_stmt 0 view .LVU43
 176 0050 0023     		movs	r3, #0
 177 0052 2793     		str	r3, [sp, #156]
 117:Core/Src/stm32l4xx_hal_msp.c ****     GPIO_InitStruct.Alternate = GPIO_AF4_I2C2;
 178              		.loc 1 117 5 is_stmt 1 view .LVU44
 117:Core/Src/stm32l4xx_hal_msp.c ****     GPIO_InitStruct.Alternate = GPIO_AF4_I2C2;
 179              		.loc 1 117 27 is_stmt 0 view .LVU45
 180 0054 0323     		movs	r3, #3
 181 0056 2893     		str	r3, [sp, #160]
 118:Core/Src/stm32l4xx_hal_msp.c ****     HAL_GPIO_Init(GPIOB, &GPIO_InitStruct);
 182              		.loc 1 118 5 is_stmt 1 view .LVU46
 118:Core/Src/stm32l4xx_hal_msp.c ****     HAL_GPIO_Init(GPIOB, &GPIO_InitStruct);
 183              		.loc 1 118 31 is_stmt 0 view .LVU47
 184 0058 0423     		movs	r3, #4
 185 005a 2993     		str	r3, [sp, #164]
 119:Core/Src/stm32l4xx_hal_msp.c **** 
 186              		.loc 1 119 5 is_stmt 1 view .LVU48
 187 005c 25A9     		add	r1, sp, #148
 188 005e 0A48     		ldr	r0, .L11+8
 189 0060 FFF7FEFF 		bl	HAL_GPIO_Init
 190              	.LVL7:
 122:Core/Src/stm32l4xx_hal_msp.c ****     /* USER CODE BEGIN I2C2_MspInit 1 */
 191              		.loc 1 122 5 view .LVU49
ARM GAS  /tmp/ccEbPtKE.s 			page 7


 192              	.LBB5:
 122:Core/Src/stm32l4xx_hal_msp.c ****     /* USER CODE BEGIN I2C2_MspInit 1 */
 193              		.loc 1 122 5 view .LVU50
 122:Core/Src/stm32l4xx_hal_msp.c ****     /* USER CODE BEGIN I2C2_MspInit 1 */
 194              		.loc 1 122 5 view .LVU51
 195 0064 A36D     		ldr	r3, [r4, #88]
 196 0066 43F48003 		orr	r3, r3, #4194304
 197 006a A365     		str	r3, [r4, #88]
 122:Core/Src/stm32l4xx_hal_msp.c ****     /* USER CODE BEGIN I2C2_MspInit 1 */
 198              		.loc 1 122 5 view .LVU52
 199 006c A36D     		ldr	r3, [r4, #88]
 200 006e 03F48003 		and	r3, r3, #4194304
 201 0072 0293     		str	r3, [sp, #8]
 122:Core/Src/stm32l4xx_hal_msp.c ****     /* USER CODE BEGIN I2C2_MspInit 1 */
 202              		.loc 1 122 5 view .LVU53
 203 0074 029B     		ldr	r3, [sp, #8]
 204              	.LBE5:
 122:Core/Src/stm32l4xx_hal_msp.c ****     /* USER CODE BEGIN I2C2_MspInit 1 */
 205              		.loc 1 122 5 view .LVU54
 206              		.loc 1 129 1 is_stmt 0 view .LVU55
 207 0076 D4E7     		b	.L5
 208              	.LVL8:
 209              	.L10:
 106:Core/Src/stm32l4xx_hal_msp.c ****     }
 210              		.loc 1 106 7 is_stmt 1 view .LVU56
 211 0078 FFF7FEFF 		bl	Error_Handler
 212              	.LVL9:
 213 007c D9E7     		b	.L7
 214              	.L12:
 215 007e 00BF     		.align	2
 216              	.L11:
 217 0080 00580040 		.word	1073764352
 218 0084 00100240 		.word	1073876992
 219 0088 00040048 		.word	1207960576
 220              		.cfi_endproc
 221              	.LFE229:
 223              		.section	.text.HAL_I2C_MspDeInit,"ax",%progbits
 224              		.align	1
 225              		.global	HAL_I2C_MspDeInit
 226              		.syntax unified
 227              		.thumb
 228              		.thumb_func
 230              	HAL_I2C_MspDeInit:
 231              	.LVL10:
 232              	.LFB230:
 130:Core/Src/stm32l4xx_hal_msp.c **** 
 131:Core/Src/stm32l4xx_hal_msp.c **** /**
 132:Core/Src/stm32l4xx_hal_msp.c ****   * @brief I2C MSP De-Initialization
 133:Core/Src/stm32l4xx_hal_msp.c ****   * This function freeze the hardware resources used in this example
 134:Core/Src/stm32l4xx_hal_msp.c ****   * @param hi2c: I2C handle pointer
 135:Core/Src/stm32l4xx_hal_msp.c ****   * @retval None
 136:Core/Src/stm32l4xx_hal_msp.c ****   */
 137:Core/Src/stm32l4xx_hal_msp.c **** void HAL_I2C_MspDeInit(I2C_HandleTypeDef* hi2c)
 138:Core/Src/stm32l4xx_hal_msp.c **** {
 233              		.loc 1 138 1 view -0
 234              		.cfi_startproc
 235              		@ args = 0, pretend = 0, frame = 0
ARM GAS  /tmp/ccEbPtKE.s 			page 8


 236              		@ frame_needed = 0, uses_anonymous_args = 0
 237              		.loc 1 138 1 is_stmt 0 view .LVU58
 238 0000 08B5     		push	{r3, lr}
 239              		.cfi_def_cfa_offset 8
 240              		.cfi_offset 3, -8
 241              		.cfi_offset 14, -4
 139:Core/Src/stm32l4xx_hal_msp.c ****   if(hi2c->Instance==I2C2)
 242              		.loc 1 139 3 is_stmt 1 view .LVU59
 243              		.loc 1 139 10 is_stmt 0 view .LVU60
 244 0002 0268     		ldr	r2, [r0]
 245              		.loc 1 139 5 view .LVU61
 246 0004 094B     		ldr	r3, .L17
 247 0006 9A42     		cmp	r2, r3
 248 0008 00D0     		beq	.L16
 249              	.LVL11:
 250              	.L13:
 140:Core/Src/stm32l4xx_hal_msp.c ****   {
 141:Core/Src/stm32l4xx_hal_msp.c ****     /* USER CODE BEGIN I2C2_MspDeInit 0 */
 142:Core/Src/stm32l4xx_hal_msp.c **** 
 143:Core/Src/stm32l4xx_hal_msp.c ****     /* USER CODE END I2C2_MspDeInit 0 */
 144:Core/Src/stm32l4xx_hal_msp.c ****     /* Peripheral clock disable */
 145:Core/Src/stm32l4xx_hal_msp.c ****     __HAL_RCC_I2C2_CLK_DISABLE();
 146:Core/Src/stm32l4xx_hal_msp.c **** 
 147:Core/Src/stm32l4xx_hal_msp.c ****     /**I2C2 GPIO Configuration
 148:Core/Src/stm32l4xx_hal_msp.c ****     PB13     ------> I2C2_SCL
 149:Core/Src/stm32l4xx_hal_msp.c ****     PB14     ------> I2C2_SDA
 150:Core/Src/stm32l4xx_hal_msp.c ****     */
 151:Core/Src/stm32l4xx_hal_msp.c ****     HAL_GPIO_DeInit(GPIOB, GPIO_PIN_13);
 152:Core/Src/stm32l4xx_hal_msp.c **** 
 153:Core/Src/stm32l4xx_hal_msp.c ****     HAL_GPIO_DeInit(GPIOB, GPIO_PIN_14);
 154:Core/Src/stm32l4xx_hal_msp.c **** 
 155:Core/Src/stm32l4xx_hal_msp.c ****     /* USER CODE BEGIN I2C2_MspDeInit 1 */
 156:Core/Src/stm32l4xx_hal_msp.c **** 
 157:Core/Src/stm32l4xx_hal_msp.c ****     /* USER CODE END I2C2_MspDeInit 1 */
 158:Core/Src/stm32l4xx_hal_msp.c ****   }
 159:Core/Src/stm32l4xx_hal_msp.c **** 
 160:Core/Src/stm32l4xx_hal_msp.c **** }
 251              		.loc 1 160 1 view .LVU62
 252 000a 08BD     		pop	{r3, pc}
 253              	.LVL12:
 254              	.L16:
 145:Core/Src/stm32l4xx_hal_msp.c **** 
 255              		.loc 1 145 5 is_stmt 1 view .LVU63
 256 000c 084A     		ldr	r2, .L17+4
 257 000e 936D     		ldr	r3, [r2, #88]
 258 0010 23F48003 		bic	r3, r3, #4194304
 259 0014 9365     		str	r3, [r2, #88]
 151:Core/Src/stm32l4xx_hal_msp.c **** 
 260              		.loc 1 151 5 view .LVU64
 261 0016 4FF40051 		mov	r1, #8192
 262 001a 0648     		ldr	r0, .L17+8
 263              	.LVL13:
 151:Core/Src/stm32l4xx_hal_msp.c **** 
 264              		.loc 1 151 5 is_stmt 0 view .LVU65
 265 001c FFF7FEFF 		bl	HAL_GPIO_DeInit
 266              	.LVL14:
 153:Core/Src/stm32l4xx_hal_msp.c **** 
ARM GAS  /tmp/ccEbPtKE.s 			page 9


 267              		.loc 1 153 5 is_stmt 1 view .LVU66
 268 0020 4FF48041 		mov	r1, #16384
 269 0024 0348     		ldr	r0, .L17+8
 270 0026 FFF7FEFF 		bl	HAL_GPIO_DeInit
 271              	.LVL15:
 272              		.loc 1 160 1 is_stmt 0 view .LVU67
 273 002a EEE7     		b	.L13
 274              	.L18:
 275              		.align	2
 276              	.L17:
 277 002c 00580040 		.word	1073764352
 278 0030 00100240 		.word	1073876992
 279 0034 00040048 		.word	1207960576
 280              		.cfi_endproc
 281              	.LFE230:
 283              		.section	.text.HAL_UART_MspInit,"ax",%progbits
 284              		.align	1
 285              		.global	HAL_UART_MspInit
 286              		.syntax unified
 287              		.thumb
 288              		.thumb_func
 290              	HAL_UART_MspInit:
 291              	.LVL16:
 292              	.LFB231:
 161:Core/Src/stm32l4xx_hal_msp.c **** 
 162:Core/Src/stm32l4xx_hal_msp.c **** /**
 163:Core/Src/stm32l4xx_hal_msp.c ****   * @brief UART MSP Initialization
 164:Core/Src/stm32l4xx_hal_msp.c ****   * This function configures the hardware resources used in this example
 165:Core/Src/stm32l4xx_hal_msp.c ****   * @param huart: UART handle pointer
 166:Core/Src/stm32l4xx_hal_msp.c ****   * @retval None
 167:Core/Src/stm32l4xx_hal_msp.c ****   */
 168:Core/Src/stm32l4xx_hal_msp.c **** void HAL_UART_MspInit(UART_HandleTypeDef* huart)
 169:Core/Src/stm32l4xx_hal_msp.c **** {
 293              		.loc 1 169 1 is_stmt 1 view -0
 294              		.cfi_startproc
 295              		@ args = 0, pretend = 0, frame = 192
 296              		@ frame_needed = 0, uses_anonymous_args = 0
 297              		.loc 1 169 1 is_stmt 0 view .LVU69
 298 0000 70B5     		push	{r4, r5, r6, lr}
 299              		.cfi_def_cfa_offset 16
 300              		.cfi_offset 4, -16
 301              		.cfi_offset 5, -12
 302              		.cfi_offset 6, -8
 303              		.cfi_offset 14, -4
 304 0002 B0B0     		sub	sp, sp, #192
 305              		.cfi_def_cfa_offset 208
 306 0004 0446     		mov	r4, r0
 307 0006 0646     		mov	r6, r0
 170:Core/Src/stm32l4xx_hal_msp.c ****   GPIO_InitTypeDef GPIO_InitStruct = {0};
 308              		.loc 1 170 3 is_stmt 1 view .LVU70
 309              		.loc 1 170 20 is_stmt 0 view .LVU71
 310 0008 0021     		movs	r1, #0
 311 000a 2B91     		str	r1, [sp, #172]
 312 000c 2C91     		str	r1, [sp, #176]
 313 000e 2D91     		str	r1, [sp, #180]
 314 0010 2E91     		str	r1, [sp, #184]
 315 0012 2F91     		str	r1, [sp, #188]
ARM GAS  /tmp/ccEbPtKE.s 			page 10


 171:Core/Src/stm32l4xx_hal_msp.c ****   RCC_PeriphCLKInitTypeDef PeriphClkInit = {0};
 316              		.loc 1 171 3 is_stmt 1 view .LVU72
 317              		.loc 1 171 28 is_stmt 0 view .LVU73
 318 0014 8822     		movs	r2, #136
 319 0016 09A8     		add	r0, sp, #36
 320              	.LVL17:
 321              		.loc 1 171 28 view .LVU74
 322 0018 FFF7FEFF 		bl	memset
 323              	.LVL18:
 172:Core/Src/stm32l4xx_hal_msp.c ****   if(huart->Instance==LPUART1)
 324              		.loc 1 172 3 is_stmt 1 view .LVU75
 325              		.loc 1 172 11 is_stmt 0 view .LVU76
 326 001c 2368     		ldr	r3, [r4]
 327              		.loc 1 172 5 view .LVU77
 328 001e 6A4A     		ldr	r2, .L39
 329 0020 9342     		cmp	r3, r2
 330 0022 0BD0     		beq	.L30
 173:Core/Src/stm32l4xx_hal_msp.c ****   {
 174:Core/Src/stm32l4xx_hal_msp.c ****     /* USER CODE BEGIN LPUART1_MspInit 0 */
 175:Core/Src/stm32l4xx_hal_msp.c **** 
 176:Core/Src/stm32l4xx_hal_msp.c ****     /* USER CODE END LPUART1_MspInit 0 */
 177:Core/Src/stm32l4xx_hal_msp.c **** 
 178:Core/Src/stm32l4xx_hal_msp.c ****   /** Initializes the peripherals clock
 179:Core/Src/stm32l4xx_hal_msp.c ****   */
 180:Core/Src/stm32l4xx_hal_msp.c ****     PeriphClkInit.PeriphClockSelection = RCC_PERIPHCLK_LPUART1;
 181:Core/Src/stm32l4xx_hal_msp.c ****     PeriphClkInit.Lpuart1ClockSelection = RCC_LPUART1CLKSOURCE_PCLK1;
 182:Core/Src/stm32l4xx_hal_msp.c ****     if (HAL_RCCEx_PeriphCLKConfig(&PeriphClkInit) != HAL_OK)
 183:Core/Src/stm32l4xx_hal_msp.c ****     {
 184:Core/Src/stm32l4xx_hal_msp.c ****       Error_Handler();
 185:Core/Src/stm32l4xx_hal_msp.c ****     }
 186:Core/Src/stm32l4xx_hal_msp.c **** 
 187:Core/Src/stm32l4xx_hal_msp.c ****     /* Peripheral clock enable */
 188:Core/Src/stm32l4xx_hal_msp.c ****     __HAL_RCC_LPUART1_CLK_ENABLE();
 189:Core/Src/stm32l4xx_hal_msp.c **** 
 190:Core/Src/stm32l4xx_hal_msp.c ****     __HAL_RCC_GPIOC_CLK_ENABLE();
 191:Core/Src/stm32l4xx_hal_msp.c ****     /**LPUART1 GPIO Configuration
 192:Core/Src/stm32l4xx_hal_msp.c ****     PC0     ------> LPUART1_RX
 193:Core/Src/stm32l4xx_hal_msp.c ****     PC1     ------> LPUART1_TX
 194:Core/Src/stm32l4xx_hal_msp.c ****     */
 195:Core/Src/stm32l4xx_hal_msp.c ****     GPIO_InitStruct.Pin = L0_LPUART1_RX_Pin|L0_LPUART1_TX_Pin;
 196:Core/Src/stm32l4xx_hal_msp.c ****     GPIO_InitStruct.Mode = GPIO_MODE_AF_PP;
 197:Core/Src/stm32l4xx_hal_msp.c ****     GPIO_InitStruct.Pull = GPIO_NOPULL;
 198:Core/Src/stm32l4xx_hal_msp.c ****     GPIO_InitStruct.Speed = GPIO_SPEED_FREQ_VERY_HIGH;
 199:Core/Src/stm32l4xx_hal_msp.c ****     GPIO_InitStruct.Alternate = GPIO_AF8_LPUART1;
 200:Core/Src/stm32l4xx_hal_msp.c ****     HAL_GPIO_Init(GPIOC, &GPIO_InitStruct);
 201:Core/Src/stm32l4xx_hal_msp.c **** 
 202:Core/Src/stm32l4xx_hal_msp.c ****     /* USER CODE BEGIN LPUART1_MspInit 1 */
 203:Core/Src/stm32l4xx_hal_msp.c **** 
 204:Core/Src/stm32l4xx_hal_msp.c ****     /* USER CODE END LPUART1_MspInit 1 */
 205:Core/Src/stm32l4xx_hal_msp.c ****   }
 206:Core/Src/stm32l4xx_hal_msp.c ****   else if(huart->Instance==USART1)
 331              		.loc 1 206 8 is_stmt 1 view .LVU78
 332              		.loc 1 206 10 is_stmt 0 view .LVU79
 333 0024 694A     		ldr	r2, .L39+4
 334 0026 9342     		cmp	r3, r2
 335 0028 32D0     		beq	.L31
 207:Core/Src/stm32l4xx_hal_msp.c ****   {
ARM GAS  /tmp/ccEbPtKE.s 			page 11


 208:Core/Src/stm32l4xx_hal_msp.c ****     /* USER CODE BEGIN USART1_MspInit 0 */
 209:Core/Src/stm32l4xx_hal_msp.c **** 
 210:Core/Src/stm32l4xx_hal_msp.c ****     /* USER CODE END USART1_MspInit 0 */
 211:Core/Src/stm32l4xx_hal_msp.c **** 
 212:Core/Src/stm32l4xx_hal_msp.c ****   /** Initializes the peripherals clock
 213:Core/Src/stm32l4xx_hal_msp.c ****   */
 214:Core/Src/stm32l4xx_hal_msp.c ****     PeriphClkInit.PeriphClockSelection = RCC_PERIPHCLK_USART1;
 215:Core/Src/stm32l4xx_hal_msp.c ****     PeriphClkInit.Usart1ClockSelection = RCC_USART1CLKSOURCE_PCLK2;
 216:Core/Src/stm32l4xx_hal_msp.c ****     if (HAL_RCCEx_PeriphCLKConfig(&PeriphClkInit) != HAL_OK)
 217:Core/Src/stm32l4xx_hal_msp.c ****     {
 218:Core/Src/stm32l4xx_hal_msp.c ****       Error_Handler();
 219:Core/Src/stm32l4xx_hal_msp.c ****     }
 220:Core/Src/stm32l4xx_hal_msp.c **** 
 221:Core/Src/stm32l4xx_hal_msp.c ****     /* Peripheral clock enable */
 222:Core/Src/stm32l4xx_hal_msp.c ****     __HAL_RCC_USART1_CLK_ENABLE();
 223:Core/Src/stm32l4xx_hal_msp.c **** 
 224:Core/Src/stm32l4xx_hal_msp.c ****     __HAL_RCC_GPIOA_CLK_ENABLE();
 225:Core/Src/stm32l4xx_hal_msp.c ****     /**USART1 GPIO Configuration
 226:Core/Src/stm32l4xx_hal_msp.c ****     PA9     ------> USART1_TX
 227:Core/Src/stm32l4xx_hal_msp.c ****     PA10     ------> USART1_RX
 228:Core/Src/stm32l4xx_hal_msp.c ****     */
 229:Core/Src/stm32l4xx_hal_msp.c ****     GPIO_InitStruct.Pin = D_USART_RX_Pin|D_USART_TX_Pin;
 230:Core/Src/stm32l4xx_hal_msp.c ****     GPIO_InitStruct.Mode = GPIO_MODE_AF_PP;
 231:Core/Src/stm32l4xx_hal_msp.c ****     GPIO_InitStruct.Pull = GPIO_NOPULL;
 232:Core/Src/stm32l4xx_hal_msp.c ****     GPIO_InitStruct.Speed = GPIO_SPEED_FREQ_VERY_HIGH;
 233:Core/Src/stm32l4xx_hal_msp.c ****     GPIO_InitStruct.Alternate = GPIO_AF7_USART1;
 234:Core/Src/stm32l4xx_hal_msp.c ****     HAL_GPIO_Init(GPIOA, &GPIO_InitStruct);
 235:Core/Src/stm32l4xx_hal_msp.c **** 
 236:Core/Src/stm32l4xx_hal_msp.c ****     /* USART1 DMA Init */
 237:Core/Src/stm32l4xx_hal_msp.c ****     /* USART1_RX Init */
 238:Core/Src/stm32l4xx_hal_msp.c ****     hdma_usart1_rx.Instance = DMA1_Channel5;
 239:Core/Src/stm32l4xx_hal_msp.c ****     hdma_usart1_rx.Init.Request = DMA_REQUEST_2;
 240:Core/Src/stm32l4xx_hal_msp.c ****     hdma_usart1_rx.Init.Direction = DMA_PERIPH_TO_MEMORY;
 241:Core/Src/stm32l4xx_hal_msp.c ****     hdma_usart1_rx.Init.PeriphInc = DMA_PINC_DISABLE;
 242:Core/Src/stm32l4xx_hal_msp.c ****     hdma_usart1_rx.Init.MemInc = DMA_MINC_ENABLE;
 243:Core/Src/stm32l4xx_hal_msp.c ****     hdma_usart1_rx.Init.PeriphDataAlignment = DMA_PDATAALIGN_BYTE;
 244:Core/Src/stm32l4xx_hal_msp.c ****     hdma_usart1_rx.Init.MemDataAlignment = DMA_MDATAALIGN_BYTE;
 245:Core/Src/stm32l4xx_hal_msp.c ****     hdma_usart1_rx.Init.Mode = DMA_CIRCULAR;
 246:Core/Src/stm32l4xx_hal_msp.c ****     hdma_usart1_rx.Init.Priority = DMA_PRIORITY_LOW;
 247:Core/Src/stm32l4xx_hal_msp.c ****     if (HAL_DMA_Init(&hdma_usart1_rx) != HAL_OK)
 248:Core/Src/stm32l4xx_hal_msp.c ****     {
 249:Core/Src/stm32l4xx_hal_msp.c ****       Error_Handler();
 250:Core/Src/stm32l4xx_hal_msp.c ****     }
 251:Core/Src/stm32l4xx_hal_msp.c **** 
 252:Core/Src/stm32l4xx_hal_msp.c ****     __HAL_LINKDMA(huart,hdmarx,hdma_usart1_rx);
 253:Core/Src/stm32l4xx_hal_msp.c **** 
 254:Core/Src/stm32l4xx_hal_msp.c ****     /* USER CODE BEGIN USART1_MspInit 1 */
 255:Core/Src/stm32l4xx_hal_msp.c **** 
 256:Core/Src/stm32l4xx_hal_msp.c ****     /* USER CODE END USART1_MspInit 1 */
 257:Core/Src/stm32l4xx_hal_msp.c ****   }
 258:Core/Src/stm32l4xx_hal_msp.c ****   else if(huart->Instance==USART2)
 336              		.loc 1 258 8 is_stmt 1 view .LVU80
 337              		.loc 1 258 10 is_stmt 0 view .LVU81
 338 002a 694A     		ldr	r2, .L39+8
 339 002c 9342     		cmp	r3, r2
 340 002e 73D0     		beq	.L32
 259:Core/Src/stm32l4xx_hal_msp.c ****   {
ARM GAS  /tmp/ccEbPtKE.s 			page 12


 260:Core/Src/stm32l4xx_hal_msp.c ****     /* USER CODE BEGIN USART2_MspInit 0 */
 261:Core/Src/stm32l4xx_hal_msp.c **** 
 262:Core/Src/stm32l4xx_hal_msp.c ****     /* USER CODE END USART2_MspInit 0 */
 263:Core/Src/stm32l4xx_hal_msp.c **** 
 264:Core/Src/stm32l4xx_hal_msp.c ****   /** Initializes the peripherals clock
 265:Core/Src/stm32l4xx_hal_msp.c ****   */
 266:Core/Src/stm32l4xx_hal_msp.c ****     PeriphClkInit.PeriphClockSelection = RCC_PERIPHCLK_USART2;
 267:Core/Src/stm32l4xx_hal_msp.c ****     PeriphClkInit.Usart2ClockSelection = RCC_USART2CLKSOURCE_PCLK1;
 268:Core/Src/stm32l4xx_hal_msp.c ****     if (HAL_RCCEx_PeriphCLKConfig(&PeriphClkInit) != HAL_OK)
 269:Core/Src/stm32l4xx_hal_msp.c ****     {
 270:Core/Src/stm32l4xx_hal_msp.c ****       Error_Handler();
 271:Core/Src/stm32l4xx_hal_msp.c ****     }
 272:Core/Src/stm32l4xx_hal_msp.c **** 
 273:Core/Src/stm32l4xx_hal_msp.c ****     /* Peripheral clock enable */
 274:Core/Src/stm32l4xx_hal_msp.c ****     __HAL_RCC_USART2_CLK_ENABLE();
 275:Core/Src/stm32l4xx_hal_msp.c **** 
 276:Core/Src/stm32l4xx_hal_msp.c ****     __HAL_RCC_GPIOA_CLK_ENABLE();
 277:Core/Src/stm32l4xx_hal_msp.c ****     /**USART2 GPIO Configuration
 278:Core/Src/stm32l4xx_hal_msp.c ****     PA0     ------> USART2_CTS
 279:Core/Src/stm32l4xx_hal_msp.c ****     PA1     ------> USART2_RTS
 280:Core/Src/stm32l4xx_hal_msp.c ****     PA2     ------> USART2_TX
 281:Core/Src/stm32l4xx_hal_msp.c ****     PA3     ------> USART2_RX
 282:Core/Src/stm32l4xx_hal_msp.c ****     */
 283:Core/Src/stm32l4xx_hal_msp.c ****     GPIO_InitStruct.Pin = Wi_USART2_CTS_Pin|Wi_USART2_RTS_Pin|Wi_USART2_TX_Pin|Wi_USART2_RX_Pin;
 284:Core/Src/stm32l4xx_hal_msp.c ****     GPIO_InitStruct.Mode = GPIO_MODE_AF_PP;
 285:Core/Src/stm32l4xx_hal_msp.c ****     GPIO_InitStruct.Pull = GPIO_NOPULL;
 286:Core/Src/stm32l4xx_hal_msp.c ****     GPIO_InitStruct.Speed = GPIO_SPEED_FREQ_VERY_HIGH;
 287:Core/Src/stm32l4xx_hal_msp.c ****     GPIO_InitStruct.Alternate = GPIO_AF7_USART2;
 288:Core/Src/stm32l4xx_hal_msp.c ****     HAL_GPIO_Init(GPIOA, &GPIO_InitStruct);
 289:Core/Src/stm32l4xx_hal_msp.c **** 
 290:Core/Src/stm32l4xx_hal_msp.c ****     /* USER CODE BEGIN USART2_MspInit 1 */
 291:Core/Src/stm32l4xx_hal_msp.c **** 
 292:Core/Src/stm32l4xx_hal_msp.c ****     /* USER CODE END USART2_MspInit 1 */
 293:Core/Src/stm32l4xx_hal_msp.c ****   }
 294:Core/Src/stm32l4xx_hal_msp.c ****   else if(huart->Instance==USART3)
 341              		.loc 1 294 8 is_stmt 1 view .LVU82
 342              		.loc 1 294 10 is_stmt 0 view .LVU83
 343 0030 684A     		ldr	r2, .L39+12
 344 0032 9342     		cmp	r3, r2
 345 0034 00F09C80 		beq	.L33
 346              	.LVL19:
 347              	.L19:
 295:Core/Src/stm32l4xx_hal_msp.c ****   {
 296:Core/Src/stm32l4xx_hal_msp.c ****     /* USER CODE BEGIN USART3_MspInit 0 */
 297:Core/Src/stm32l4xx_hal_msp.c **** 
 298:Core/Src/stm32l4xx_hal_msp.c ****     /* USER CODE END USART3_MspInit 0 */
 299:Core/Src/stm32l4xx_hal_msp.c **** 
 300:Core/Src/stm32l4xx_hal_msp.c ****   /** Initializes the peripherals clock
 301:Core/Src/stm32l4xx_hal_msp.c ****   */
 302:Core/Src/stm32l4xx_hal_msp.c ****     PeriphClkInit.PeriphClockSelection = RCC_PERIPHCLK_USART3;
 303:Core/Src/stm32l4xx_hal_msp.c ****     PeriphClkInit.Usart3ClockSelection = RCC_USART3CLKSOURCE_PCLK1;
 304:Core/Src/stm32l4xx_hal_msp.c ****     if (HAL_RCCEx_PeriphCLKConfig(&PeriphClkInit) != HAL_OK)
 305:Core/Src/stm32l4xx_hal_msp.c ****     {
 306:Core/Src/stm32l4xx_hal_msp.c ****       Error_Handler();
 307:Core/Src/stm32l4xx_hal_msp.c ****     }
 308:Core/Src/stm32l4xx_hal_msp.c **** 
 309:Core/Src/stm32l4xx_hal_msp.c ****     /* Peripheral clock enable */
ARM GAS  /tmp/ccEbPtKE.s 			page 13


 310:Core/Src/stm32l4xx_hal_msp.c ****     __HAL_RCC_USART3_CLK_ENABLE();
 311:Core/Src/stm32l4xx_hal_msp.c **** 
 312:Core/Src/stm32l4xx_hal_msp.c ****     __HAL_RCC_GPIOC_CLK_ENABLE();
 313:Core/Src/stm32l4xx_hal_msp.c ****     /**USART3 GPIO Configuration
 314:Core/Src/stm32l4xx_hal_msp.c ****     PC4     ------> USART3_TX
 315:Core/Src/stm32l4xx_hal_msp.c ****     PC5     ------> USART3_RX
 316:Core/Src/stm32l4xx_hal_msp.c ****     */
 317:Core/Src/stm32l4xx_hal_msp.c ****     GPIO_InitStruct.Pin = Wi_USART3_TX_Pin|Wi_USART3_RX_Pin;
 318:Core/Src/stm32l4xx_hal_msp.c ****     GPIO_InitStruct.Mode = GPIO_MODE_AF_PP;
 319:Core/Src/stm32l4xx_hal_msp.c ****     GPIO_InitStruct.Pull = GPIO_NOPULL;
 320:Core/Src/stm32l4xx_hal_msp.c ****     GPIO_InitStruct.Speed = GPIO_SPEED_FREQ_VERY_HIGH;
 321:Core/Src/stm32l4xx_hal_msp.c ****     GPIO_InitStruct.Alternate = GPIO_AF7_USART3;
 322:Core/Src/stm32l4xx_hal_msp.c ****     HAL_GPIO_Init(GPIOC, &GPIO_InitStruct);
 323:Core/Src/stm32l4xx_hal_msp.c **** 
 324:Core/Src/stm32l4xx_hal_msp.c ****     /* USER CODE BEGIN USART3_MspInit 1 */
 325:Core/Src/stm32l4xx_hal_msp.c **** 
 326:Core/Src/stm32l4xx_hal_msp.c ****     /* USER CODE END USART3_MspInit 1 */
 327:Core/Src/stm32l4xx_hal_msp.c ****   }
 328:Core/Src/stm32l4xx_hal_msp.c **** 
 329:Core/Src/stm32l4xx_hal_msp.c **** }
 348              		.loc 1 329 1 view .LVU84
 349 0038 30B0     		add	sp, sp, #192
 350              		.cfi_remember_state
 351              		.cfi_def_cfa_offset 16
 352              		@ sp needed
 353 003a 70BD     		pop	{r4, r5, r6, pc}
 354              	.LVL20:
 355              	.L30:
 356              		.cfi_restore_state
 180:Core/Src/stm32l4xx_hal_msp.c ****     PeriphClkInit.Lpuart1ClockSelection = RCC_LPUART1CLKSOURCE_PCLK1;
 357              		.loc 1 180 5 is_stmt 1 view .LVU85
 180:Core/Src/stm32l4xx_hal_msp.c ****     PeriphClkInit.Lpuart1ClockSelection = RCC_LPUART1CLKSOURCE_PCLK1;
 358              		.loc 1 180 40 is_stmt 0 view .LVU86
 359 003c 2023     		movs	r3, #32
 360 003e 0993     		str	r3, [sp, #36]
 181:Core/Src/stm32l4xx_hal_msp.c ****     if (HAL_RCCEx_PeriphCLKConfig(&PeriphClkInit) != HAL_OK)
 361              		.loc 1 181 5 is_stmt 1 view .LVU87
 182:Core/Src/stm32l4xx_hal_msp.c ****     {
 362              		.loc 1 182 5 view .LVU88
 182:Core/Src/stm32l4xx_hal_msp.c ****     {
 363              		.loc 1 182 9 is_stmt 0 view .LVU89
 364 0040 09A8     		add	r0, sp, #36
 365 0042 FFF7FEFF 		bl	HAL_RCCEx_PeriphCLKConfig
 366              	.LVL21:
 182:Core/Src/stm32l4xx_hal_msp.c ****     {
 367              		.loc 1 182 8 discriminator 1 view .LVU90
 368 0046 00BB     		cbnz	r0, .L34
 369              	.L21:
 188:Core/Src/stm32l4xx_hal_msp.c **** 
 370              		.loc 1 188 5 is_stmt 1 view .LVU91
 371              	.LBB6:
 188:Core/Src/stm32l4xx_hal_msp.c **** 
 372              		.loc 1 188 5 view .LVU92
 188:Core/Src/stm32l4xx_hal_msp.c **** 
 373              		.loc 1 188 5 view .LVU93
 374 0048 634B     		ldr	r3, .L39+16
 375 004a DA6D     		ldr	r2, [r3, #92]
ARM GAS  /tmp/ccEbPtKE.s 			page 14


 376 004c 42F00102 		orr	r2, r2, #1
 377 0050 DA65     		str	r2, [r3, #92]
 188:Core/Src/stm32l4xx_hal_msp.c **** 
 378              		.loc 1 188 5 view .LVU94
 379 0052 DA6D     		ldr	r2, [r3, #92]
 380 0054 02F00102 		and	r2, r2, #1
 381 0058 0192     		str	r2, [sp, #4]
 188:Core/Src/stm32l4xx_hal_msp.c **** 
 382              		.loc 1 188 5 view .LVU95
 383 005a 019A     		ldr	r2, [sp, #4]
 384              	.LBE6:
 188:Core/Src/stm32l4xx_hal_msp.c **** 
 385              		.loc 1 188 5 view .LVU96
 190:Core/Src/stm32l4xx_hal_msp.c ****     /**LPUART1 GPIO Configuration
 386              		.loc 1 190 5 view .LVU97
 387              	.LBB7:
 190:Core/Src/stm32l4xx_hal_msp.c ****     /**LPUART1 GPIO Configuration
 388              		.loc 1 190 5 view .LVU98
 190:Core/Src/stm32l4xx_hal_msp.c ****     /**LPUART1 GPIO Configuration
 389              		.loc 1 190 5 view .LVU99
 390 005c DA6C     		ldr	r2, [r3, #76]
 391 005e 42F00402 		orr	r2, r2, #4
 392 0062 DA64     		str	r2, [r3, #76]
 190:Core/Src/stm32l4xx_hal_msp.c ****     /**LPUART1 GPIO Configuration
 393              		.loc 1 190 5 view .LVU100
 394 0064 DB6C     		ldr	r3, [r3, #76]
 395 0066 03F00403 		and	r3, r3, #4
 396 006a 0293     		str	r3, [sp, #8]
 190:Core/Src/stm32l4xx_hal_msp.c ****     /**LPUART1 GPIO Configuration
 397              		.loc 1 190 5 view .LVU101
 398 006c 029B     		ldr	r3, [sp, #8]
 399              	.LBE7:
 190:Core/Src/stm32l4xx_hal_msp.c ****     /**LPUART1 GPIO Configuration
 400              		.loc 1 190 5 view .LVU102
 195:Core/Src/stm32l4xx_hal_msp.c ****     GPIO_InitStruct.Mode = GPIO_MODE_AF_PP;
 401              		.loc 1 195 5 view .LVU103
 195:Core/Src/stm32l4xx_hal_msp.c ****     GPIO_InitStruct.Mode = GPIO_MODE_AF_PP;
 402              		.loc 1 195 25 is_stmt 0 view .LVU104
 403 006e 0323     		movs	r3, #3
 404 0070 2B93     		str	r3, [sp, #172]
 196:Core/Src/stm32l4xx_hal_msp.c ****     GPIO_InitStruct.Pull = GPIO_NOPULL;
 405              		.loc 1 196 5 is_stmt 1 view .LVU105
 196:Core/Src/stm32l4xx_hal_msp.c ****     GPIO_InitStruct.Pull = GPIO_NOPULL;
 406              		.loc 1 196 26 is_stmt 0 view .LVU106
 407 0072 0222     		movs	r2, #2
 408 0074 2C92     		str	r2, [sp, #176]
 197:Core/Src/stm32l4xx_hal_msp.c ****     GPIO_InitStruct.Speed = GPIO_SPEED_FREQ_VERY_HIGH;
 409              		.loc 1 197 5 is_stmt 1 view .LVU107
 197:Core/Src/stm32l4xx_hal_msp.c ****     GPIO_InitStruct.Speed = GPIO_SPEED_FREQ_VERY_HIGH;
 410              		.loc 1 197 26 is_stmt 0 view .LVU108
 411 0076 0022     		movs	r2, #0
 412 0078 2D92     		str	r2, [sp, #180]
 198:Core/Src/stm32l4xx_hal_msp.c ****     GPIO_InitStruct.Alternate = GPIO_AF8_LPUART1;
 413              		.loc 1 198 5 is_stmt 1 view .LVU109
 198:Core/Src/stm32l4xx_hal_msp.c ****     GPIO_InitStruct.Alternate = GPIO_AF8_LPUART1;
 414              		.loc 1 198 27 is_stmt 0 view .LVU110
 415 007a 2E93     		str	r3, [sp, #184]
ARM GAS  /tmp/ccEbPtKE.s 			page 15


 199:Core/Src/stm32l4xx_hal_msp.c ****     HAL_GPIO_Init(GPIOC, &GPIO_InitStruct);
 416              		.loc 1 199 5 is_stmt 1 view .LVU111
 199:Core/Src/stm32l4xx_hal_msp.c ****     HAL_GPIO_Init(GPIOC, &GPIO_InitStruct);
 417              		.loc 1 199 31 is_stmt 0 view .LVU112
 418 007c 0823     		movs	r3, #8
 419 007e 2F93     		str	r3, [sp, #188]
 200:Core/Src/stm32l4xx_hal_msp.c **** 
 420              		.loc 1 200 5 is_stmt 1 view .LVU113
 421 0080 2BA9     		add	r1, sp, #172
 422 0082 5648     		ldr	r0, .L39+20
 423 0084 FFF7FEFF 		bl	HAL_GPIO_Init
 424              	.LVL22:
 425 0088 D6E7     		b	.L19
 426              	.L34:
 184:Core/Src/stm32l4xx_hal_msp.c ****     }
 427              		.loc 1 184 7 view .LVU114
 428 008a FFF7FEFF 		bl	Error_Handler
 429              	.LVL23:
 430 008e DBE7     		b	.L21
 431              	.L31:
 214:Core/Src/stm32l4xx_hal_msp.c ****     PeriphClkInit.Usart1ClockSelection = RCC_USART1CLKSOURCE_PCLK2;
 432              		.loc 1 214 5 view .LVU115
 214:Core/Src/stm32l4xx_hal_msp.c ****     PeriphClkInit.Usart1ClockSelection = RCC_USART1CLKSOURCE_PCLK2;
 433              		.loc 1 214 40 is_stmt 0 view .LVU116
 434 0090 0123     		movs	r3, #1
 435 0092 0993     		str	r3, [sp, #36]
 215:Core/Src/stm32l4xx_hal_msp.c ****     if (HAL_RCCEx_PeriphCLKConfig(&PeriphClkInit) != HAL_OK)
 436              		.loc 1 215 5 is_stmt 1 view .LVU117
 216:Core/Src/stm32l4xx_hal_msp.c ****     {
 437              		.loc 1 216 5 view .LVU118
 216:Core/Src/stm32l4xx_hal_msp.c ****     {
 438              		.loc 1 216 9 is_stmt 0 view .LVU119
 439 0094 09A8     		add	r0, sp, #36
 440 0096 FFF7FEFF 		bl	HAL_RCCEx_PeriphCLKConfig
 441              	.LVL24:
 216:Core/Src/stm32l4xx_hal_msp.c ****     {
 442              		.loc 1 216 8 discriminator 1 view .LVU120
 443 009a 0028     		cmp	r0, #0
 444 009c 36D1     		bne	.L35
 445              	.L24:
 222:Core/Src/stm32l4xx_hal_msp.c **** 
 446              		.loc 1 222 5 is_stmt 1 view .LVU121
 447              	.LBB8:
 222:Core/Src/stm32l4xx_hal_msp.c **** 
 448              		.loc 1 222 5 view .LVU122
 222:Core/Src/stm32l4xx_hal_msp.c **** 
 449              		.loc 1 222 5 view .LVU123
 450 009e 4E4B     		ldr	r3, .L39+16
 451 00a0 1A6E     		ldr	r2, [r3, #96]
 452 00a2 42F48042 		orr	r2, r2, #16384
 453 00a6 1A66     		str	r2, [r3, #96]
 222:Core/Src/stm32l4xx_hal_msp.c **** 
 454              		.loc 1 222 5 view .LVU124
 455 00a8 1A6E     		ldr	r2, [r3, #96]
 456 00aa 02F48042 		and	r2, r2, #16384
 457 00ae 0392     		str	r2, [sp, #12]
 222:Core/Src/stm32l4xx_hal_msp.c **** 
ARM GAS  /tmp/ccEbPtKE.s 			page 16


 458              		.loc 1 222 5 view .LVU125
 459 00b0 039A     		ldr	r2, [sp, #12]
 460              	.LBE8:
 222:Core/Src/stm32l4xx_hal_msp.c **** 
 461              		.loc 1 222 5 view .LVU126
 224:Core/Src/stm32l4xx_hal_msp.c ****     /**USART1 GPIO Configuration
 462              		.loc 1 224 5 view .LVU127
 463              	.LBB9:
 224:Core/Src/stm32l4xx_hal_msp.c ****     /**USART1 GPIO Configuration
 464              		.loc 1 224 5 view .LVU128
 224:Core/Src/stm32l4xx_hal_msp.c ****     /**USART1 GPIO Configuration
 465              		.loc 1 224 5 view .LVU129
 466 00b2 DA6C     		ldr	r2, [r3, #76]
 467 00b4 42F00102 		orr	r2, r2, #1
 468 00b8 DA64     		str	r2, [r3, #76]
 224:Core/Src/stm32l4xx_hal_msp.c ****     /**USART1 GPIO Configuration
 469              		.loc 1 224 5 view .LVU130
 470 00ba DB6C     		ldr	r3, [r3, #76]
 471 00bc 03F00103 		and	r3, r3, #1
 472 00c0 0493     		str	r3, [sp, #16]
 224:Core/Src/stm32l4xx_hal_msp.c ****     /**USART1 GPIO Configuration
 473              		.loc 1 224 5 view .LVU131
 474 00c2 049B     		ldr	r3, [sp, #16]
 475              	.LBE9:
 224:Core/Src/stm32l4xx_hal_msp.c ****     /**USART1 GPIO Configuration
 476              		.loc 1 224 5 view .LVU132
 229:Core/Src/stm32l4xx_hal_msp.c ****     GPIO_InitStruct.Mode = GPIO_MODE_AF_PP;
 477              		.loc 1 229 5 view .LVU133
 229:Core/Src/stm32l4xx_hal_msp.c ****     GPIO_InitStruct.Mode = GPIO_MODE_AF_PP;
 478              		.loc 1 229 25 is_stmt 0 view .LVU134
 479 00c4 4FF4C063 		mov	r3, #1536
 480 00c8 2B93     		str	r3, [sp, #172]
 230:Core/Src/stm32l4xx_hal_msp.c ****     GPIO_InitStruct.Pull = GPIO_NOPULL;
 481              		.loc 1 230 5 is_stmt 1 view .LVU135
 230:Core/Src/stm32l4xx_hal_msp.c ****     GPIO_InitStruct.Pull = GPIO_NOPULL;
 482              		.loc 1 230 26 is_stmt 0 view .LVU136
 483 00ca 0225     		movs	r5, #2
 484 00cc 2C95     		str	r5, [sp, #176]
 231:Core/Src/stm32l4xx_hal_msp.c ****     GPIO_InitStruct.Speed = GPIO_SPEED_FREQ_VERY_HIGH;
 485              		.loc 1 231 5 is_stmt 1 view .LVU137
 231:Core/Src/stm32l4xx_hal_msp.c ****     GPIO_InitStruct.Speed = GPIO_SPEED_FREQ_VERY_HIGH;
 486              		.loc 1 231 26 is_stmt 0 view .LVU138
 487 00ce 0024     		movs	r4, #0
 488              	.LVL25:
 231:Core/Src/stm32l4xx_hal_msp.c ****     GPIO_InitStruct.Speed = GPIO_SPEED_FREQ_VERY_HIGH;
 489              		.loc 1 231 26 view .LVU139
 490 00d0 2D94     		str	r4, [sp, #180]
 232:Core/Src/stm32l4xx_hal_msp.c ****     GPIO_InitStruct.Alternate = GPIO_AF7_USART1;
 491              		.loc 1 232 5 is_stmt 1 view .LVU140
 232:Core/Src/stm32l4xx_hal_msp.c ****     GPIO_InitStruct.Alternate = GPIO_AF7_USART1;
 492              		.loc 1 232 27 is_stmt 0 view .LVU141
 493 00d2 0323     		movs	r3, #3
 494 00d4 2E93     		str	r3, [sp, #184]
 233:Core/Src/stm32l4xx_hal_msp.c ****     HAL_GPIO_Init(GPIOA, &GPIO_InitStruct);
 495              		.loc 1 233 5 is_stmt 1 view .LVU142
 233:Core/Src/stm32l4xx_hal_msp.c ****     HAL_GPIO_Init(GPIOA, &GPIO_InitStruct);
 496              		.loc 1 233 31 is_stmt 0 view .LVU143
ARM GAS  /tmp/ccEbPtKE.s 			page 17


 497 00d6 0723     		movs	r3, #7
 498 00d8 2F93     		str	r3, [sp, #188]
 234:Core/Src/stm32l4xx_hal_msp.c **** 
 499              		.loc 1 234 5 is_stmt 1 view .LVU144
 500 00da 2BA9     		add	r1, sp, #172
 501 00dc 4FF09040 		mov	r0, #1207959552
 502 00e0 FFF7FEFF 		bl	HAL_GPIO_Init
 503              	.LVL26:
 238:Core/Src/stm32l4xx_hal_msp.c ****     hdma_usart1_rx.Init.Request = DMA_REQUEST_2;
 504              		.loc 1 238 5 view .LVU145
 238:Core/Src/stm32l4xx_hal_msp.c ****     hdma_usart1_rx.Init.Request = DMA_REQUEST_2;
 505              		.loc 1 238 29 is_stmt 0 view .LVU146
 506 00e4 3E48     		ldr	r0, .L39+24
 507 00e6 3F4B     		ldr	r3, .L39+28
 508 00e8 0360     		str	r3, [r0]
 239:Core/Src/stm32l4xx_hal_msp.c ****     hdma_usart1_rx.Init.Direction = DMA_PERIPH_TO_MEMORY;
 509              		.loc 1 239 5 is_stmt 1 view .LVU147
 239:Core/Src/stm32l4xx_hal_msp.c ****     hdma_usart1_rx.Init.Direction = DMA_PERIPH_TO_MEMORY;
 510              		.loc 1 239 33 is_stmt 0 view .LVU148
 511 00ea 4560     		str	r5, [r0, #4]
 240:Core/Src/stm32l4xx_hal_msp.c ****     hdma_usart1_rx.Init.PeriphInc = DMA_PINC_DISABLE;
 512              		.loc 1 240 5 is_stmt 1 view .LVU149
 240:Core/Src/stm32l4xx_hal_msp.c ****     hdma_usart1_rx.Init.PeriphInc = DMA_PINC_DISABLE;
 513              		.loc 1 240 35 is_stmt 0 view .LVU150
 514 00ec 8460     		str	r4, [r0, #8]
 241:Core/Src/stm32l4xx_hal_msp.c ****     hdma_usart1_rx.Init.MemInc = DMA_MINC_ENABLE;
 515              		.loc 1 241 5 is_stmt 1 view .LVU151
 241:Core/Src/stm32l4xx_hal_msp.c ****     hdma_usart1_rx.Init.MemInc = DMA_MINC_ENABLE;
 516              		.loc 1 241 35 is_stmt 0 view .LVU152
 517 00ee C460     		str	r4, [r0, #12]
 242:Core/Src/stm32l4xx_hal_msp.c ****     hdma_usart1_rx.Init.PeriphDataAlignment = DMA_PDATAALIGN_BYTE;
 518              		.loc 1 242 5 is_stmt 1 view .LVU153
 242:Core/Src/stm32l4xx_hal_msp.c ****     hdma_usart1_rx.Init.PeriphDataAlignment = DMA_PDATAALIGN_BYTE;
 519              		.loc 1 242 32 is_stmt 0 view .LVU154
 520 00f0 8023     		movs	r3, #128
 521 00f2 0361     		str	r3, [r0, #16]
 243:Core/Src/stm32l4xx_hal_msp.c ****     hdma_usart1_rx.Init.MemDataAlignment = DMA_MDATAALIGN_BYTE;
 522              		.loc 1 243 5 is_stmt 1 view .LVU155
 243:Core/Src/stm32l4xx_hal_msp.c ****     hdma_usart1_rx.Init.MemDataAlignment = DMA_MDATAALIGN_BYTE;
 523              		.loc 1 243 45 is_stmt 0 view .LVU156
 524 00f4 4461     		str	r4, [r0, #20]
 244:Core/Src/stm32l4xx_hal_msp.c ****     hdma_usart1_rx.Init.Mode = DMA_CIRCULAR;
 525              		.loc 1 244 5 is_stmt 1 view .LVU157
 244:Core/Src/stm32l4xx_hal_msp.c ****     hdma_usart1_rx.Init.Mode = DMA_CIRCULAR;
 526              		.loc 1 244 42 is_stmt 0 view .LVU158
 527 00f6 8461     		str	r4, [r0, #24]
 245:Core/Src/stm32l4xx_hal_msp.c ****     hdma_usart1_rx.Init.Priority = DMA_PRIORITY_LOW;
 528              		.loc 1 245 5 is_stmt 1 view .LVU159
 245:Core/Src/stm32l4xx_hal_msp.c ****     hdma_usart1_rx.Init.Priority = DMA_PRIORITY_LOW;
 529              		.loc 1 245 30 is_stmt 0 view .LVU160
 530 00f8 2023     		movs	r3, #32
 531 00fa C361     		str	r3, [r0, #28]
 246:Core/Src/stm32l4xx_hal_msp.c ****     if (HAL_DMA_Init(&hdma_usart1_rx) != HAL_OK)
 532              		.loc 1 246 5 is_stmt 1 view .LVU161
 246:Core/Src/stm32l4xx_hal_msp.c ****     if (HAL_DMA_Init(&hdma_usart1_rx) != HAL_OK)
 533              		.loc 1 246 34 is_stmt 0 view .LVU162
 534 00fc 0462     		str	r4, [r0, #32]
ARM GAS  /tmp/ccEbPtKE.s 			page 18


 247:Core/Src/stm32l4xx_hal_msp.c ****     {
 535              		.loc 1 247 5 is_stmt 1 view .LVU163
 247:Core/Src/stm32l4xx_hal_msp.c ****     {
 536              		.loc 1 247 9 is_stmt 0 view .LVU164
 537 00fe FFF7FEFF 		bl	HAL_DMA_Init
 538              	.LVL27:
 247:Core/Src/stm32l4xx_hal_msp.c ****     {
 539              		.loc 1 247 8 discriminator 1 view .LVU165
 540 0102 30B9     		cbnz	r0, .L36
 541              	.L25:
 252:Core/Src/stm32l4xx_hal_msp.c **** 
 542              		.loc 1 252 5 is_stmt 1 view .LVU166
 252:Core/Src/stm32l4xx_hal_msp.c **** 
 543              		.loc 1 252 5 view .LVU167
 544 0104 364B     		ldr	r3, .L39+24
 545 0106 7367     		str	r3, [r6, #116]
 252:Core/Src/stm32l4xx_hal_msp.c **** 
 546              		.loc 1 252 5 view .LVU168
 547 0108 9E62     		str	r6, [r3, #40]
 252:Core/Src/stm32l4xx_hal_msp.c **** 
 548              		.loc 1 252 5 view .LVU169
 549 010a 95E7     		b	.L19
 550              	.LVL28:
 551              	.L35:
 218:Core/Src/stm32l4xx_hal_msp.c ****     }
 552              		.loc 1 218 7 view .LVU170
 553 010c FFF7FEFF 		bl	Error_Handler
 554              	.LVL29:
 555 0110 C5E7     		b	.L24
 556              	.LVL30:
 557              	.L36:
 249:Core/Src/stm32l4xx_hal_msp.c ****     }
 558              		.loc 1 249 7 view .LVU171
 559 0112 FFF7FEFF 		bl	Error_Handler
 560              	.LVL31:
 561 0116 F5E7     		b	.L25
 562              	.LVL32:
 563              	.L32:
 266:Core/Src/stm32l4xx_hal_msp.c ****     PeriphClkInit.Usart2ClockSelection = RCC_USART2CLKSOURCE_PCLK1;
 564              		.loc 1 266 5 view .LVU172
 266:Core/Src/stm32l4xx_hal_msp.c ****     PeriphClkInit.Usart2ClockSelection = RCC_USART2CLKSOURCE_PCLK1;
 565              		.loc 1 266 40 is_stmt 0 view .LVU173
 566 0118 0223     		movs	r3, #2
 567 011a 0993     		str	r3, [sp, #36]
 267:Core/Src/stm32l4xx_hal_msp.c ****     if (HAL_RCCEx_PeriphCLKConfig(&PeriphClkInit) != HAL_OK)
 568              		.loc 1 267 5 is_stmt 1 view .LVU174
 268:Core/Src/stm32l4xx_hal_msp.c ****     {
 569              		.loc 1 268 5 view .LVU175
 268:Core/Src/stm32l4xx_hal_msp.c ****     {
 570              		.loc 1 268 9 is_stmt 0 view .LVU176
 571 011c 09A8     		add	r0, sp, #36
 572 011e FFF7FEFF 		bl	HAL_RCCEx_PeriphCLKConfig
 573              	.LVL33:
 268:Core/Src/stm32l4xx_hal_msp.c ****     {
 574              		.loc 1 268 8 discriminator 1 view .LVU177
 575 0122 10BB     		cbnz	r0, .L37
 576              	.L27:
ARM GAS  /tmp/ccEbPtKE.s 			page 19


 274:Core/Src/stm32l4xx_hal_msp.c **** 
 577              		.loc 1 274 5 is_stmt 1 view .LVU178
 578              	.LBB10:
 274:Core/Src/stm32l4xx_hal_msp.c **** 
 579              		.loc 1 274 5 view .LVU179
 274:Core/Src/stm32l4xx_hal_msp.c **** 
 580              		.loc 1 274 5 view .LVU180
 581 0124 2C4B     		ldr	r3, .L39+16
 582 0126 9A6D     		ldr	r2, [r3, #88]
 583 0128 42F40032 		orr	r2, r2, #131072
 584 012c 9A65     		str	r2, [r3, #88]
 274:Core/Src/stm32l4xx_hal_msp.c **** 
 585              		.loc 1 274 5 view .LVU181
 586 012e 9A6D     		ldr	r2, [r3, #88]
 587 0130 02F40032 		and	r2, r2, #131072
 588 0134 0592     		str	r2, [sp, #20]
 274:Core/Src/stm32l4xx_hal_msp.c **** 
 589              		.loc 1 274 5 view .LVU182
 590 0136 059A     		ldr	r2, [sp, #20]
 591              	.LBE10:
 274:Core/Src/stm32l4xx_hal_msp.c **** 
 592              		.loc 1 274 5 view .LVU183
 276:Core/Src/stm32l4xx_hal_msp.c ****     /**USART2 GPIO Configuration
 593              		.loc 1 276 5 view .LVU184
 594              	.LBB11:
 276:Core/Src/stm32l4xx_hal_msp.c ****     /**USART2 GPIO Configuration
 595              		.loc 1 276 5 view .LVU185
 276:Core/Src/stm32l4xx_hal_msp.c ****     /**USART2 GPIO Configuration
 596              		.loc 1 276 5 view .LVU186
 597 0138 DA6C     		ldr	r2, [r3, #76]
 598 013a 42F00102 		orr	r2, r2, #1
 599 013e DA64     		str	r2, [r3, #76]
 276:Core/Src/stm32l4xx_hal_msp.c ****     /**USART2 GPIO Configuration
 600              		.loc 1 276 5 view .LVU187
 601 0140 DB6C     		ldr	r3, [r3, #76]
 602 0142 03F00103 		and	r3, r3, #1
 603 0146 0693     		str	r3, [sp, #24]
 276:Core/Src/stm32l4xx_hal_msp.c ****     /**USART2 GPIO Configuration
 604              		.loc 1 276 5 view .LVU188
 605 0148 069B     		ldr	r3, [sp, #24]
 606              	.LBE11:
 276:Core/Src/stm32l4xx_hal_msp.c ****     /**USART2 GPIO Configuration
 607              		.loc 1 276 5 view .LVU189
 283:Core/Src/stm32l4xx_hal_msp.c ****     GPIO_InitStruct.Mode = GPIO_MODE_AF_PP;
 608              		.loc 1 283 5 view .LVU190
 283:Core/Src/stm32l4xx_hal_msp.c ****     GPIO_InitStruct.Mode = GPIO_MODE_AF_PP;
 609              		.loc 1 283 25 is_stmt 0 view .LVU191
 610 014a 0F23     		movs	r3, #15
 611 014c 2B93     		str	r3, [sp, #172]
 284:Core/Src/stm32l4xx_hal_msp.c ****     GPIO_InitStruct.Pull = GPIO_NOPULL;
 612              		.loc 1 284 5 is_stmt 1 view .LVU192
 284:Core/Src/stm32l4xx_hal_msp.c ****     GPIO_InitStruct.Pull = GPIO_NOPULL;
 613              		.loc 1 284 26 is_stmt 0 view .LVU193
 614 014e 0223     		movs	r3, #2
 615 0150 2C93     		str	r3, [sp, #176]
 285:Core/Src/stm32l4xx_hal_msp.c ****     GPIO_InitStruct.Speed = GPIO_SPEED_FREQ_VERY_HIGH;
 616              		.loc 1 285 5 is_stmt 1 view .LVU194
ARM GAS  /tmp/ccEbPtKE.s 			page 20


 285:Core/Src/stm32l4xx_hal_msp.c ****     GPIO_InitStruct.Speed = GPIO_SPEED_FREQ_VERY_HIGH;
 617              		.loc 1 285 26 is_stmt 0 view .LVU195
 618 0152 0023     		movs	r3, #0
 619 0154 2D93     		str	r3, [sp, #180]
 286:Core/Src/stm32l4xx_hal_msp.c ****     GPIO_InitStruct.Alternate = GPIO_AF7_USART2;
 620              		.loc 1 286 5 is_stmt 1 view .LVU196
 286:Core/Src/stm32l4xx_hal_msp.c ****     GPIO_InitStruct.Alternate = GPIO_AF7_USART2;
 621              		.loc 1 286 27 is_stmt 0 view .LVU197
 622 0156 0323     		movs	r3, #3
 623 0158 2E93     		str	r3, [sp, #184]
 287:Core/Src/stm32l4xx_hal_msp.c ****     HAL_GPIO_Init(GPIOA, &GPIO_InitStruct);
 624              		.loc 1 287 5 is_stmt 1 view .LVU198
 287:Core/Src/stm32l4xx_hal_msp.c ****     HAL_GPIO_Init(GPIOA, &GPIO_InitStruct);
 625              		.loc 1 287 31 is_stmt 0 view .LVU199
 626 015a 0723     		movs	r3, #7
 627 015c 2F93     		str	r3, [sp, #188]
 288:Core/Src/stm32l4xx_hal_msp.c **** 
 628              		.loc 1 288 5 is_stmt 1 view .LVU200
 629 015e 2BA9     		add	r1, sp, #172
 630 0160 4FF09040 		mov	r0, #1207959552
 631 0164 FFF7FEFF 		bl	HAL_GPIO_Init
 632              	.LVL34:
 633 0168 66E7     		b	.L19
 634              	.L37:
 270:Core/Src/stm32l4xx_hal_msp.c ****     }
 635              		.loc 1 270 7 view .LVU201
 636 016a FFF7FEFF 		bl	Error_Handler
 637              	.LVL35:
 638 016e D9E7     		b	.L27
 639              	.L33:
 302:Core/Src/stm32l4xx_hal_msp.c ****     PeriphClkInit.Usart3ClockSelection = RCC_USART3CLKSOURCE_PCLK1;
 640              		.loc 1 302 5 view .LVU202
 302:Core/Src/stm32l4xx_hal_msp.c ****     PeriphClkInit.Usart3ClockSelection = RCC_USART3CLKSOURCE_PCLK1;
 641              		.loc 1 302 40 is_stmt 0 view .LVU203
 642 0170 0423     		movs	r3, #4
 643 0172 0993     		str	r3, [sp, #36]
 303:Core/Src/stm32l4xx_hal_msp.c ****     if (HAL_RCCEx_PeriphCLKConfig(&PeriphClkInit) != HAL_OK)
 644              		.loc 1 303 5 is_stmt 1 view .LVU204
 304:Core/Src/stm32l4xx_hal_msp.c ****     {
 645              		.loc 1 304 5 view .LVU205
 304:Core/Src/stm32l4xx_hal_msp.c ****     {
 646              		.loc 1 304 9 is_stmt 0 view .LVU206
 647 0174 09A8     		add	r0, sp, #36
 648 0176 FFF7FEFF 		bl	HAL_RCCEx_PeriphCLKConfig
 649              	.LVL36:
 304:Core/Src/stm32l4xx_hal_msp.c ****     {
 650              		.loc 1 304 8 discriminator 1 view .LVU207
 651 017a 08BB     		cbnz	r0, .L38
 652              	.L28:
 310:Core/Src/stm32l4xx_hal_msp.c **** 
 653              		.loc 1 310 5 is_stmt 1 view .LVU208
 654              	.LBB12:
 310:Core/Src/stm32l4xx_hal_msp.c **** 
 655              		.loc 1 310 5 view .LVU209
 310:Core/Src/stm32l4xx_hal_msp.c **** 
 656              		.loc 1 310 5 view .LVU210
 657 017c 164B     		ldr	r3, .L39+16
ARM GAS  /tmp/ccEbPtKE.s 			page 21


 658 017e 9A6D     		ldr	r2, [r3, #88]
 659 0180 42F48022 		orr	r2, r2, #262144
 660 0184 9A65     		str	r2, [r3, #88]
 310:Core/Src/stm32l4xx_hal_msp.c **** 
 661              		.loc 1 310 5 view .LVU211
 662 0186 9A6D     		ldr	r2, [r3, #88]
 663 0188 02F48022 		and	r2, r2, #262144
 664 018c 0792     		str	r2, [sp, #28]
 310:Core/Src/stm32l4xx_hal_msp.c **** 
 665              		.loc 1 310 5 view .LVU212
 666 018e 079A     		ldr	r2, [sp, #28]
 667              	.LBE12:
 310:Core/Src/stm32l4xx_hal_msp.c **** 
 668              		.loc 1 310 5 view .LVU213
 312:Core/Src/stm32l4xx_hal_msp.c ****     /**USART3 GPIO Configuration
 669              		.loc 1 312 5 view .LVU214
 670              	.LBB13:
 312:Core/Src/stm32l4xx_hal_msp.c ****     /**USART3 GPIO Configuration
 671              		.loc 1 312 5 view .LVU215
 312:Core/Src/stm32l4xx_hal_msp.c ****     /**USART3 GPIO Configuration
 672              		.loc 1 312 5 view .LVU216
 673 0190 DA6C     		ldr	r2, [r3, #76]
 674 0192 42F00402 		orr	r2, r2, #4
 675 0196 DA64     		str	r2, [r3, #76]
 312:Core/Src/stm32l4xx_hal_msp.c ****     /**USART3 GPIO Configuration
 676              		.loc 1 312 5 view .LVU217
 677 0198 DB6C     		ldr	r3, [r3, #76]
 678 019a 03F00403 		and	r3, r3, #4
 679 019e 0893     		str	r3, [sp, #32]
 312:Core/Src/stm32l4xx_hal_msp.c ****     /**USART3 GPIO Configuration
 680              		.loc 1 312 5 view .LVU218
 681 01a0 089B     		ldr	r3, [sp, #32]
 682              	.LBE13:
 312:Core/Src/stm32l4xx_hal_msp.c ****     /**USART3 GPIO Configuration
 683              		.loc 1 312 5 view .LVU219
 317:Core/Src/stm32l4xx_hal_msp.c ****     GPIO_InitStruct.Mode = GPIO_MODE_AF_PP;
 684              		.loc 1 317 5 view .LVU220
 317:Core/Src/stm32l4xx_hal_msp.c ****     GPIO_InitStruct.Mode = GPIO_MODE_AF_PP;
 685              		.loc 1 317 25 is_stmt 0 view .LVU221
 686 01a2 3023     		movs	r3, #48
 687 01a4 2B93     		str	r3, [sp, #172]
 318:Core/Src/stm32l4xx_hal_msp.c ****     GPIO_InitStruct.Pull = GPIO_NOPULL;
 688              		.loc 1 318 5 is_stmt 1 view .LVU222
 318:Core/Src/stm32l4xx_hal_msp.c ****     GPIO_InitStruct.Pull = GPIO_NOPULL;
 689              		.loc 1 318 26 is_stmt 0 view .LVU223
 690 01a6 0223     		movs	r3, #2
 691 01a8 2C93     		str	r3, [sp, #176]
 319:Core/Src/stm32l4xx_hal_msp.c ****     GPIO_InitStruct.Speed = GPIO_SPEED_FREQ_VERY_HIGH;
 692              		.loc 1 319 5 is_stmt 1 view .LVU224
 319:Core/Src/stm32l4xx_hal_msp.c ****     GPIO_InitStruct.Speed = GPIO_SPEED_FREQ_VERY_HIGH;
 693              		.loc 1 319 26 is_stmt 0 view .LVU225
 694 01aa 0023     		movs	r3, #0
 695 01ac 2D93     		str	r3, [sp, #180]
 320:Core/Src/stm32l4xx_hal_msp.c ****     GPIO_InitStruct.Alternate = GPIO_AF7_USART3;
 696              		.loc 1 320 5 is_stmt 1 view .LVU226
 320:Core/Src/stm32l4xx_hal_msp.c ****     GPIO_InitStruct.Alternate = GPIO_AF7_USART3;
 697              		.loc 1 320 27 is_stmt 0 view .LVU227
ARM GAS  /tmp/ccEbPtKE.s 			page 22


 698 01ae 0323     		movs	r3, #3
 699 01b0 2E93     		str	r3, [sp, #184]
 321:Core/Src/stm32l4xx_hal_msp.c ****     HAL_GPIO_Init(GPIOC, &GPIO_InitStruct);
 700              		.loc 1 321 5 is_stmt 1 view .LVU228
 321:Core/Src/stm32l4xx_hal_msp.c ****     HAL_GPIO_Init(GPIOC, &GPIO_InitStruct);
 701              		.loc 1 321 31 is_stmt 0 view .LVU229
 702 01b2 0723     		movs	r3, #7
 703 01b4 2F93     		str	r3, [sp, #188]
 322:Core/Src/stm32l4xx_hal_msp.c **** 
 704              		.loc 1 322 5 is_stmt 1 view .LVU230
 705 01b6 2BA9     		add	r1, sp, #172
 706 01b8 0848     		ldr	r0, .L39+20
 707 01ba FFF7FEFF 		bl	HAL_GPIO_Init
 708              	.LVL37:
 709              		.loc 1 329 1 is_stmt 0 view .LVU231
 710 01be 3BE7     		b	.L19
 711              	.L38:
 306:Core/Src/stm32l4xx_hal_msp.c ****     }
 712              		.loc 1 306 7 is_stmt 1 view .LVU232
 713 01c0 FFF7FEFF 		bl	Error_Handler
 714              	.LVL38:
 715 01c4 DAE7     		b	.L28
 716              	.L40:
 717 01c6 00BF     		.align	2
 718              	.L39:
 719 01c8 00800040 		.word	1073774592
 720 01cc 00380140 		.word	1073821696
 721 01d0 00440040 		.word	1073759232
 722 01d4 00480040 		.word	1073760256
 723 01d8 00100240 		.word	1073876992
 724 01dc 00080048 		.word	1207961600
 725 01e0 00000000 		.word	hdma_usart1_rx
 726 01e4 58000240 		.word	1073872984
 727              		.cfi_endproc
 728              	.LFE231:
 730              		.section	.text.HAL_UART_MspDeInit,"ax",%progbits
 731              		.align	1
 732              		.global	HAL_UART_MspDeInit
 733              		.syntax unified
 734              		.thumb
 735              		.thumb_func
 737              	HAL_UART_MspDeInit:
 738              	.LVL39:
 739              	.LFB232:
 330:Core/Src/stm32l4xx_hal_msp.c **** 
 331:Core/Src/stm32l4xx_hal_msp.c **** /**
 332:Core/Src/stm32l4xx_hal_msp.c ****   * @brief UART MSP De-Initialization
 333:Core/Src/stm32l4xx_hal_msp.c ****   * This function freeze the hardware resources used in this example
 334:Core/Src/stm32l4xx_hal_msp.c ****   * @param huart: UART handle pointer
 335:Core/Src/stm32l4xx_hal_msp.c ****   * @retval None
 336:Core/Src/stm32l4xx_hal_msp.c ****   */
 337:Core/Src/stm32l4xx_hal_msp.c **** void HAL_UART_MspDeInit(UART_HandleTypeDef* huart)
 338:Core/Src/stm32l4xx_hal_msp.c **** {
 740              		.loc 1 338 1 view -0
 741              		.cfi_startproc
 742              		@ args = 0, pretend = 0, frame = 0
 743              		@ frame_needed = 0, uses_anonymous_args = 0
ARM GAS  /tmp/ccEbPtKE.s 			page 23


 744              		.loc 1 338 1 is_stmt 0 view .LVU234
 745 0000 10B5     		push	{r4, lr}
 746              		.cfi_def_cfa_offset 8
 747              		.cfi_offset 4, -8
 748              		.cfi_offset 14, -4
 339:Core/Src/stm32l4xx_hal_msp.c ****   if(huart->Instance==LPUART1)
 749              		.loc 1 339 3 is_stmt 1 view .LVU235
 750              		.loc 1 339 11 is_stmt 0 view .LVU236
 751 0002 0368     		ldr	r3, [r0]
 752              		.loc 1 339 5 view .LVU237
 753 0004 1F4A     		ldr	r2, .L51
 754 0006 9342     		cmp	r3, r2
 755 0008 0AD0     		beq	.L47
 756 000a 0446     		mov	r4, r0
 340:Core/Src/stm32l4xx_hal_msp.c ****   {
 341:Core/Src/stm32l4xx_hal_msp.c ****     /* USER CODE BEGIN LPUART1_MspDeInit 0 */
 342:Core/Src/stm32l4xx_hal_msp.c **** 
 343:Core/Src/stm32l4xx_hal_msp.c ****     /* USER CODE END LPUART1_MspDeInit 0 */
 344:Core/Src/stm32l4xx_hal_msp.c ****     /* Peripheral clock disable */
 345:Core/Src/stm32l4xx_hal_msp.c ****     __HAL_RCC_LPUART1_CLK_DISABLE();
 346:Core/Src/stm32l4xx_hal_msp.c **** 
 347:Core/Src/stm32l4xx_hal_msp.c ****     /**LPUART1 GPIO Configuration
 348:Core/Src/stm32l4xx_hal_msp.c ****     PC0     ------> LPUART1_RX
 349:Core/Src/stm32l4xx_hal_msp.c ****     PC1     ------> LPUART1_TX
 350:Core/Src/stm32l4xx_hal_msp.c ****     */
 351:Core/Src/stm32l4xx_hal_msp.c ****     HAL_GPIO_DeInit(GPIOC, L0_LPUART1_RX_Pin|L0_LPUART1_TX_Pin);
 352:Core/Src/stm32l4xx_hal_msp.c **** 
 353:Core/Src/stm32l4xx_hal_msp.c ****     /* USER CODE BEGIN LPUART1_MspDeInit 1 */
 354:Core/Src/stm32l4xx_hal_msp.c **** 
 355:Core/Src/stm32l4xx_hal_msp.c ****     /* USER CODE END LPUART1_MspDeInit 1 */
 356:Core/Src/stm32l4xx_hal_msp.c ****   }
 357:Core/Src/stm32l4xx_hal_msp.c ****   else if(huart->Instance==USART1)
 757              		.loc 1 357 8 is_stmt 1 view .LVU238
 758              		.loc 1 357 10 is_stmt 0 view .LVU239
 759 000c 1E4A     		ldr	r2, .L51+4
 760 000e 9342     		cmp	r3, r2
 761 0010 11D0     		beq	.L48
 358:Core/Src/stm32l4xx_hal_msp.c ****   {
 359:Core/Src/stm32l4xx_hal_msp.c ****     /* USER CODE BEGIN USART1_MspDeInit 0 */
 360:Core/Src/stm32l4xx_hal_msp.c **** 
 361:Core/Src/stm32l4xx_hal_msp.c ****     /* USER CODE END USART1_MspDeInit 0 */
 362:Core/Src/stm32l4xx_hal_msp.c ****     /* Peripheral clock disable */
 363:Core/Src/stm32l4xx_hal_msp.c ****     __HAL_RCC_USART1_CLK_DISABLE();
 364:Core/Src/stm32l4xx_hal_msp.c **** 
 365:Core/Src/stm32l4xx_hal_msp.c ****     /**USART1 GPIO Configuration
 366:Core/Src/stm32l4xx_hal_msp.c ****     PA9     ------> USART1_TX
 367:Core/Src/stm32l4xx_hal_msp.c ****     PA10     ------> USART1_RX
 368:Core/Src/stm32l4xx_hal_msp.c ****     */
 369:Core/Src/stm32l4xx_hal_msp.c ****     HAL_GPIO_DeInit(GPIOA, D_USART_RX_Pin|D_USART_TX_Pin);
 370:Core/Src/stm32l4xx_hal_msp.c **** 
 371:Core/Src/stm32l4xx_hal_msp.c ****     /* USART1 DMA DeInit */
 372:Core/Src/stm32l4xx_hal_msp.c ****     HAL_DMA_DeInit(huart->hdmarx);
 373:Core/Src/stm32l4xx_hal_msp.c ****     /* USER CODE BEGIN USART1_MspDeInit 1 */
 374:Core/Src/stm32l4xx_hal_msp.c **** 
 375:Core/Src/stm32l4xx_hal_msp.c ****     /* USER CODE END USART1_MspDeInit 1 */
 376:Core/Src/stm32l4xx_hal_msp.c ****   }
 377:Core/Src/stm32l4xx_hal_msp.c ****   else if(huart->Instance==USART2)
ARM GAS  /tmp/ccEbPtKE.s 			page 24


 762              		.loc 1 377 8 is_stmt 1 view .LVU240
 763              		.loc 1 377 10 is_stmt 0 view .LVU241
 764 0012 1E4A     		ldr	r2, .L51+8
 765 0014 9342     		cmp	r3, r2
 766 0016 1ED0     		beq	.L49
 378:Core/Src/stm32l4xx_hal_msp.c ****   {
 379:Core/Src/stm32l4xx_hal_msp.c ****     /* USER CODE BEGIN USART2_MspDeInit 0 */
 380:Core/Src/stm32l4xx_hal_msp.c **** 
 381:Core/Src/stm32l4xx_hal_msp.c ****     /* USER CODE END USART2_MspDeInit 0 */
 382:Core/Src/stm32l4xx_hal_msp.c ****     /* Peripheral clock disable */
 383:Core/Src/stm32l4xx_hal_msp.c ****     __HAL_RCC_USART2_CLK_DISABLE();
 384:Core/Src/stm32l4xx_hal_msp.c **** 
 385:Core/Src/stm32l4xx_hal_msp.c ****     /**USART2 GPIO Configuration
 386:Core/Src/stm32l4xx_hal_msp.c ****     PA0     ------> USART2_CTS
 387:Core/Src/stm32l4xx_hal_msp.c ****     PA1     ------> USART2_RTS
 388:Core/Src/stm32l4xx_hal_msp.c ****     PA2     ------> USART2_TX
 389:Core/Src/stm32l4xx_hal_msp.c ****     PA3     ------> USART2_RX
 390:Core/Src/stm32l4xx_hal_msp.c ****     */
 391:Core/Src/stm32l4xx_hal_msp.c ****     HAL_GPIO_DeInit(GPIOA, Wi_USART2_CTS_Pin|Wi_USART2_RTS_Pin|Wi_USART2_TX_Pin|Wi_USART2_RX_Pin);
 392:Core/Src/stm32l4xx_hal_msp.c **** 
 393:Core/Src/stm32l4xx_hal_msp.c ****     /* USER CODE BEGIN USART2_MspDeInit 1 */
 394:Core/Src/stm32l4xx_hal_msp.c **** 
 395:Core/Src/stm32l4xx_hal_msp.c ****     /* USER CODE END USART2_MspDeInit 1 */
 396:Core/Src/stm32l4xx_hal_msp.c ****   }
 397:Core/Src/stm32l4xx_hal_msp.c ****   else if(huart->Instance==USART3)
 767              		.loc 1 397 8 is_stmt 1 view .LVU242
 768              		.loc 1 397 10 is_stmt 0 view .LVU243
 769 0018 1D4A     		ldr	r2, .L51+12
 770 001a 9342     		cmp	r3, r2
 771 001c 27D0     		beq	.L50
 772              	.LVL40:
 773              	.L41:
 398:Core/Src/stm32l4xx_hal_msp.c ****   {
 399:Core/Src/stm32l4xx_hal_msp.c ****     /* USER CODE BEGIN USART3_MspDeInit 0 */
 400:Core/Src/stm32l4xx_hal_msp.c **** 
 401:Core/Src/stm32l4xx_hal_msp.c ****     /* USER CODE END USART3_MspDeInit 0 */
 402:Core/Src/stm32l4xx_hal_msp.c ****     /* Peripheral clock disable */
 403:Core/Src/stm32l4xx_hal_msp.c ****     __HAL_RCC_USART3_CLK_DISABLE();
 404:Core/Src/stm32l4xx_hal_msp.c **** 
 405:Core/Src/stm32l4xx_hal_msp.c ****     /**USART3 GPIO Configuration
 406:Core/Src/stm32l4xx_hal_msp.c ****     PC4     ------> USART3_TX
 407:Core/Src/stm32l4xx_hal_msp.c ****     PC5     ------> USART3_RX
 408:Core/Src/stm32l4xx_hal_msp.c ****     */
 409:Core/Src/stm32l4xx_hal_msp.c ****     HAL_GPIO_DeInit(GPIOC, Wi_USART3_TX_Pin|Wi_USART3_RX_Pin);
 410:Core/Src/stm32l4xx_hal_msp.c **** 
 411:Core/Src/stm32l4xx_hal_msp.c ****     /* USER CODE BEGIN USART3_MspDeInit 1 */
 412:Core/Src/stm32l4xx_hal_msp.c **** 
 413:Core/Src/stm32l4xx_hal_msp.c ****     /* USER CODE END USART3_MspDeInit 1 */
 414:Core/Src/stm32l4xx_hal_msp.c ****   }
 415:Core/Src/stm32l4xx_hal_msp.c **** 
 416:Core/Src/stm32l4xx_hal_msp.c **** }
 774              		.loc 1 416 1 view .LVU244
 775 001e 10BD     		pop	{r4, pc}
 776              	.LVL41:
 777              	.L47:
 345:Core/Src/stm32l4xx_hal_msp.c **** 
 778              		.loc 1 345 5 is_stmt 1 view .LVU245
ARM GAS  /tmp/ccEbPtKE.s 			page 25


 779 0020 02F5C832 		add	r2, r2, #102400
 780 0024 D36D     		ldr	r3, [r2, #92]
 781 0026 23F00103 		bic	r3, r3, #1
 782 002a D365     		str	r3, [r2, #92]
 351:Core/Src/stm32l4xx_hal_msp.c **** 
 783              		.loc 1 351 5 view .LVU246
 784 002c 0321     		movs	r1, #3
 785 002e 1948     		ldr	r0, .L51+16
 786              	.LVL42:
 351:Core/Src/stm32l4xx_hal_msp.c **** 
 787              		.loc 1 351 5 is_stmt 0 view .LVU247
 788 0030 FFF7FEFF 		bl	HAL_GPIO_DeInit
 789              	.LVL43:
 790 0034 F3E7     		b	.L41
 791              	.LVL44:
 792              	.L48:
 363:Core/Src/stm32l4xx_hal_msp.c **** 
 793              		.loc 1 363 5 is_stmt 1 view .LVU248
 794 0036 02F55842 		add	r2, r2, #55296
 795 003a 136E     		ldr	r3, [r2, #96]
 796 003c 23F48043 		bic	r3, r3, #16384
 797 0040 1366     		str	r3, [r2, #96]
 369:Core/Src/stm32l4xx_hal_msp.c **** 
 798              		.loc 1 369 5 view .LVU249
 799 0042 4FF4C061 		mov	r1, #1536
 800 0046 4FF09040 		mov	r0, #1207959552
 801              	.LVL45:
 369:Core/Src/stm32l4xx_hal_msp.c **** 
 802              		.loc 1 369 5 is_stmt 0 view .LVU250
 803 004a FFF7FEFF 		bl	HAL_GPIO_DeInit
 804              	.LVL46:
 372:Core/Src/stm32l4xx_hal_msp.c ****     /* USER CODE BEGIN USART1_MspDeInit 1 */
 805              		.loc 1 372 5 is_stmt 1 view .LVU251
 806 004e 606F     		ldr	r0, [r4, #116]
 807 0050 FFF7FEFF 		bl	HAL_DMA_DeInit
 808              	.LVL47:
 809 0054 E3E7     		b	.L41
 810              	.LVL48:
 811              	.L49:
 383:Core/Src/stm32l4xx_hal_msp.c **** 
 812              		.loc 1 383 5 view .LVU252
 813 0056 02F5E632 		add	r2, r2, #117760
 814 005a 936D     		ldr	r3, [r2, #88]
 815 005c 23F40033 		bic	r3, r3, #131072
 816 0060 9365     		str	r3, [r2, #88]
 391:Core/Src/stm32l4xx_hal_msp.c **** 
 817              		.loc 1 391 5 view .LVU253
 818 0062 0F21     		movs	r1, #15
 819 0064 4FF09040 		mov	r0, #1207959552
 820              	.LVL49:
 391:Core/Src/stm32l4xx_hal_msp.c **** 
 821              		.loc 1 391 5 is_stmt 0 view .LVU254
 822 0068 FFF7FEFF 		bl	HAL_GPIO_DeInit
 823              	.LVL50:
 824 006c D7E7     		b	.L41
 825              	.LVL51:
 826              	.L50:
ARM GAS  /tmp/ccEbPtKE.s 			page 26


 403:Core/Src/stm32l4xx_hal_msp.c **** 
 827              		.loc 1 403 5 is_stmt 1 view .LVU255
 828 006e 02F5E432 		add	r2, r2, #116736
 829 0072 936D     		ldr	r3, [r2, #88]
 830 0074 23F48023 		bic	r3, r3, #262144
 831 0078 9365     		str	r3, [r2, #88]
 409:Core/Src/stm32l4xx_hal_msp.c **** 
 832              		.loc 1 409 5 view .LVU256
 833 007a 3021     		movs	r1, #48
 834 007c 0548     		ldr	r0, .L51+16
 835              	.LVL52:
 409:Core/Src/stm32l4xx_hal_msp.c **** 
 836              		.loc 1 409 5 is_stmt 0 view .LVU257
 837 007e FFF7FEFF 		bl	HAL_GPIO_DeInit
 838              	.LVL53:
 839              		.loc 1 416 1 view .LVU258
 840 0082 CCE7     		b	.L41
 841              	.L52:
 842              		.align	2
 843              	.L51:
 844 0084 00800040 		.word	1073774592
 845 0088 00380140 		.word	1073821696
 846 008c 00440040 		.word	1073759232
 847 0090 00480040 		.word	1073760256
 848 0094 00080048 		.word	1207961600
 849              		.cfi_endproc
 850              	.LFE232:
 852              		.section	.text.HAL_RTC_MspInit,"ax",%progbits
 853              		.align	1
 854              		.global	HAL_RTC_MspInit
 855              		.syntax unified
 856              		.thumb
 857              		.thumb_func
 859              	HAL_RTC_MspInit:
 860              	.LVL54:
 861              	.LFB233:
 417:Core/Src/stm32l4xx_hal_msp.c **** 
 418:Core/Src/stm32l4xx_hal_msp.c **** /**
 419:Core/Src/stm32l4xx_hal_msp.c ****   * @brief RTC MSP Initialization
 420:Core/Src/stm32l4xx_hal_msp.c ****   * This function configures the hardware resources used in this example
 421:Core/Src/stm32l4xx_hal_msp.c ****   * @param hrtc: RTC handle pointer
 422:Core/Src/stm32l4xx_hal_msp.c ****   * @retval None
 423:Core/Src/stm32l4xx_hal_msp.c ****   */
 424:Core/Src/stm32l4xx_hal_msp.c **** void HAL_RTC_MspInit(RTC_HandleTypeDef* hrtc)
 425:Core/Src/stm32l4xx_hal_msp.c **** {
 862              		.loc 1 425 1 is_stmt 1 view -0
 863              		.cfi_startproc
 864              		@ args = 0, pretend = 0, frame = 136
 865              		@ frame_needed = 0, uses_anonymous_args = 0
 866              		.loc 1 425 1 is_stmt 0 view .LVU260
 867 0000 10B5     		push	{r4, lr}
 868              		.cfi_def_cfa_offset 8
 869              		.cfi_offset 4, -8
 870              		.cfi_offset 14, -4
 871 0002 A2B0     		sub	sp, sp, #136
 872              		.cfi_def_cfa_offset 144
 873 0004 0446     		mov	r4, r0
ARM GAS  /tmp/ccEbPtKE.s 			page 27


 426:Core/Src/stm32l4xx_hal_msp.c ****   RCC_PeriphCLKInitTypeDef PeriphClkInit = {0};
 874              		.loc 1 426 3 is_stmt 1 view .LVU261
 875              		.loc 1 426 28 is_stmt 0 view .LVU262
 876 0006 8822     		movs	r2, #136
 877 0008 0021     		movs	r1, #0
 878 000a 6846     		mov	r0, sp
 879              	.LVL55:
 880              		.loc 1 426 28 view .LVU263
 881 000c FFF7FEFF 		bl	memset
 882              	.LVL56:
 427:Core/Src/stm32l4xx_hal_msp.c ****   if(hrtc->Instance==RTC)
 883              		.loc 1 427 3 is_stmt 1 view .LVU264
 884              		.loc 1 427 10 is_stmt 0 view .LVU265
 885 0010 2268     		ldr	r2, [r4]
 886              		.loc 1 427 5 view .LVU266
 887 0012 0D4B     		ldr	r3, .L59
 888 0014 9A42     		cmp	r2, r3
 889 0016 01D0     		beq	.L57
 890              	.L53:
 428:Core/Src/stm32l4xx_hal_msp.c ****   {
 429:Core/Src/stm32l4xx_hal_msp.c ****     /* USER CODE BEGIN RTC_MspInit 0 */
 430:Core/Src/stm32l4xx_hal_msp.c **** 
 431:Core/Src/stm32l4xx_hal_msp.c ****     /* USER CODE END RTC_MspInit 0 */
 432:Core/Src/stm32l4xx_hal_msp.c **** 
 433:Core/Src/stm32l4xx_hal_msp.c ****   /** Initializes the peripherals clock
 434:Core/Src/stm32l4xx_hal_msp.c ****   */
 435:Core/Src/stm32l4xx_hal_msp.c ****     PeriphClkInit.PeriphClockSelection = RCC_PERIPHCLK_RTC;
 436:Core/Src/stm32l4xx_hal_msp.c ****     PeriphClkInit.RTCClockSelection = RCC_RTCCLKSOURCE_LSI;
 437:Core/Src/stm32l4xx_hal_msp.c ****     if (HAL_RCCEx_PeriphCLKConfig(&PeriphClkInit) != HAL_OK)
 438:Core/Src/stm32l4xx_hal_msp.c ****     {
 439:Core/Src/stm32l4xx_hal_msp.c ****       Error_Handler();
 440:Core/Src/stm32l4xx_hal_msp.c ****     }
 441:Core/Src/stm32l4xx_hal_msp.c **** 
 442:Core/Src/stm32l4xx_hal_msp.c ****     /* Peripheral clock enable */
 443:Core/Src/stm32l4xx_hal_msp.c ****     __HAL_RCC_RTC_ENABLE();
 444:Core/Src/stm32l4xx_hal_msp.c ****     /* USER CODE BEGIN RTC_MspInit 1 */
 445:Core/Src/stm32l4xx_hal_msp.c **** 
 446:Core/Src/stm32l4xx_hal_msp.c ****     /* USER CODE END RTC_MspInit 1 */
 447:Core/Src/stm32l4xx_hal_msp.c **** 
 448:Core/Src/stm32l4xx_hal_msp.c ****   }
 449:Core/Src/stm32l4xx_hal_msp.c **** 
 450:Core/Src/stm32l4xx_hal_msp.c **** }
 891              		.loc 1 450 1 view .LVU267
 892 0018 22B0     		add	sp, sp, #136
 893              		.cfi_remember_state
 894              		.cfi_def_cfa_offset 8
 895              		@ sp needed
 896 001a 10BD     		pop	{r4, pc}
 897              	.LVL57:
 898              	.L57:
 899              		.cfi_restore_state
 435:Core/Src/stm32l4xx_hal_msp.c ****     PeriphClkInit.RTCClockSelection = RCC_RTCCLKSOURCE_LSI;
 900              		.loc 1 435 5 is_stmt 1 view .LVU268
 435:Core/Src/stm32l4xx_hal_msp.c ****     PeriphClkInit.RTCClockSelection = RCC_RTCCLKSOURCE_LSI;
 901              		.loc 1 435 40 is_stmt 0 view .LVU269
 902 001c 4FF40033 		mov	r3, #131072
 903 0020 0093     		str	r3, [sp]
ARM GAS  /tmp/ccEbPtKE.s 			page 28


 436:Core/Src/stm32l4xx_hal_msp.c ****     if (HAL_RCCEx_PeriphCLKConfig(&PeriphClkInit) != HAL_OK)
 904              		.loc 1 436 5 is_stmt 1 view .LVU270
 436:Core/Src/stm32l4xx_hal_msp.c ****     if (HAL_RCCEx_PeriphCLKConfig(&PeriphClkInit) != HAL_OK)
 905              		.loc 1 436 37 is_stmt 0 view .LVU271
 906 0022 4FF40073 		mov	r3, #512
 907 0026 2193     		str	r3, [sp, #132]
 437:Core/Src/stm32l4xx_hal_msp.c ****     {
 908              		.loc 1 437 5 is_stmt 1 view .LVU272
 437:Core/Src/stm32l4xx_hal_msp.c ****     {
 909              		.loc 1 437 9 is_stmt 0 view .LVU273
 910 0028 6846     		mov	r0, sp
 911 002a FFF7FEFF 		bl	HAL_RCCEx_PeriphCLKConfig
 912              	.LVL58:
 437:Core/Src/stm32l4xx_hal_msp.c ****     {
 913              		.loc 1 437 8 discriminator 1 view .LVU274
 914 002e 38B9     		cbnz	r0, .L58
 915              	.L55:
 443:Core/Src/stm32l4xx_hal_msp.c ****     /* USER CODE BEGIN RTC_MspInit 1 */
 916              		.loc 1 443 5 is_stmt 1 view .LVU275
 917 0030 064A     		ldr	r2, .L59+4
 918 0032 D2F89030 		ldr	r3, [r2, #144]
 919 0036 43F40043 		orr	r3, r3, #32768
 920 003a C2F89030 		str	r3, [r2, #144]
 921              		.loc 1 450 1 is_stmt 0 view .LVU276
 922 003e EBE7     		b	.L53
 923              	.L58:
 439:Core/Src/stm32l4xx_hal_msp.c ****     }
 924              		.loc 1 439 7 is_stmt 1 view .LVU277
 925 0040 FFF7FEFF 		bl	Error_Handler
 926              	.LVL59:
 927 0044 F4E7     		b	.L55
 928              	.L60:
 929 0046 00BF     		.align	2
 930              	.L59:
 931 0048 00280040 		.word	1073752064
 932 004c 00100240 		.word	1073876992
 933              		.cfi_endproc
 934              	.LFE233:
 936              		.section	.text.HAL_RTC_MspDeInit,"ax",%progbits
 937              		.align	1
 938              		.global	HAL_RTC_MspDeInit
 939              		.syntax unified
 940              		.thumb
 941              		.thumb_func
 943              	HAL_RTC_MspDeInit:
 944              	.LVL60:
 945              	.LFB234:
 451:Core/Src/stm32l4xx_hal_msp.c **** 
 452:Core/Src/stm32l4xx_hal_msp.c **** /**
 453:Core/Src/stm32l4xx_hal_msp.c ****   * @brief RTC MSP De-Initialization
 454:Core/Src/stm32l4xx_hal_msp.c ****   * This function freeze the hardware resources used in this example
 455:Core/Src/stm32l4xx_hal_msp.c ****   * @param hrtc: RTC handle pointer
 456:Core/Src/stm32l4xx_hal_msp.c ****   * @retval None
 457:Core/Src/stm32l4xx_hal_msp.c ****   */
 458:Core/Src/stm32l4xx_hal_msp.c **** void HAL_RTC_MspDeInit(RTC_HandleTypeDef* hrtc)
 459:Core/Src/stm32l4xx_hal_msp.c **** {
 946              		.loc 1 459 1 view -0
ARM GAS  /tmp/ccEbPtKE.s 			page 29


 947              		.cfi_startproc
 948              		@ args = 0, pretend = 0, frame = 0
 949              		@ frame_needed = 0, uses_anonymous_args = 0
 950              		@ link register save eliminated.
 460:Core/Src/stm32l4xx_hal_msp.c ****   if(hrtc->Instance==RTC)
 951              		.loc 1 460 3 view .LVU279
 952              		.loc 1 460 10 is_stmt 0 view .LVU280
 953 0000 0268     		ldr	r2, [r0]
 954              		.loc 1 460 5 view .LVU281
 955 0002 064B     		ldr	r3, .L64
 956 0004 9A42     		cmp	r2, r3
 957 0006 00D0     		beq	.L63
 958              	.L61:
 461:Core/Src/stm32l4xx_hal_msp.c ****   {
 462:Core/Src/stm32l4xx_hal_msp.c ****     /* USER CODE BEGIN RTC_MspDeInit 0 */
 463:Core/Src/stm32l4xx_hal_msp.c **** 
 464:Core/Src/stm32l4xx_hal_msp.c ****     /* USER CODE END RTC_MspDeInit 0 */
 465:Core/Src/stm32l4xx_hal_msp.c ****     /* Peripheral clock disable */
 466:Core/Src/stm32l4xx_hal_msp.c ****     __HAL_RCC_RTC_DISABLE();
 467:Core/Src/stm32l4xx_hal_msp.c ****     /* USER CODE BEGIN RTC_MspDeInit 1 */
 468:Core/Src/stm32l4xx_hal_msp.c **** 
 469:Core/Src/stm32l4xx_hal_msp.c ****     /* USER CODE END RTC_MspDeInit 1 */
 470:Core/Src/stm32l4xx_hal_msp.c ****   }
 471:Core/Src/stm32l4xx_hal_msp.c **** 
 472:Core/Src/stm32l4xx_hal_msp.c **** }
 959              		.loc 1 472 1 view .LVU282
 960 0008 7047     		bx	lr
 961              	.L63:
 466:Core/Src/stm32l4xx_hal_msp.c ****     /* USER CODE BEGIN RTC_MspDeInit 1 */
 962              		.loc 1 466 5 is_stmt 1 view .LVU283
 963 000a 054A     		ldr	r2, .L64+4
 964 000c D2F89030 		ldr	r3, [r2, #144]
 965 0010 23F40043 		bic	r3, r3, #32768
 966 0014 C2F89030 		str	r3, [r2, #144]
 967              		.loc 1 472 1 is_stmt 0 view .LVU284
 968 0018 F6E7     		b	.L61
 969              	.L65:
 970 001a 00BF     		.align	2
 971              	.L64:
 972 001c 00280040 		.word	1073752064
 973 0020 00100240 		.word	1073876992
 974              		.cfi_endproc
 975              	.LFE234:
 977              		.section	.text.HAL_SD_MspInit,"ax",%progbits
 978              		.align	1
 979              		.global	HAL_SD_MspInit
 980              		.syntax unified
 981              		.thumb
 982              		.thumb_func
 984              	HAL_SD_MspInit:
 985              	.LVL61:
 986              	.LFB235:
 473:Core/Src/stm32l4xx_hal_msp.c **** 
 474:Core/Src/stm32l4xx_hal_msp.c **** /**
 475:Core/Src/stm32l4xx_hal_msp.c ****   * @brief SD MSP Initialization
 476:Core/Src/stm32l4xx_hal_msp.c ****   * This function configures the hardware resources used in this example
 477:Core/Src/stm32l4xx_hal_msp.c ****   * @param hsd: SD handle pointer
ARM GAS  /tmp/ccEbPtKE.s 			page 30


 478:Core/Src/stm32l4xx_hal_msp.c ****   * @retval None
 479:Core/Src/stm32l4xx_hal_msp.c ****   */
 480:Core/Src/stm32l4xx_hal_msp.c **** void HAL_SD_MspInit(SD_HandleTypeDef* hsd)
 481:Core/Src/stm32l4xx_hal_msp.c **** {
 987              		.loc 1 481 1 is_stmt 1 view -0
 988              		.cfi_startproc
 989              		@ args = 0, pretend = 0, frame = 168
 990              		@ frame_needed = 0, uses_anonymous_args = 0
 991              		.loc 1 481 1 is_stmt 0 view .LVU286
 992 0000 F0B5     		push	{r4, r5, r6, r7, lr}
 993              		.cfi_def_cfa_offset 20
 994              		.cfi_offset 4, -20
 995              		.cfi_offset 5, -16
 996              		.cfi_offset 6, -12
 997              		.cfi_offset 7, -8
 998              		.cfi_offset 14, -4
 999 0002 ABB0     		sub	sp, sp, #172
 1000              		.cfi_def_cfa_offset 192
 1001 0004 0446     		mov	r4, r0
 482:Core/Src/stm32l4xx_hal_msp.c ****   GPIO_InitTypeDef GPIO_InitStruct = {0};
 1002              		.loc 1 482 3 is_stmt 1 view .LVU287
 1003              		.loc 1 482 20 is_stmt 0 view .LVU288
 1004 0006 0021     		movs	r1, #0
 1005 0008 2591     		str	r1, [sp, #148]
 1006 000a 2691     		str	r1, [sp, #152]
 1007 000c 2791     		str	r1, [sp, #156]
 1008 000e 2891     		str	r1, [sp, #160]
 1009 0010 2991     		str	r1, [sp, #164]
 483:Core/Src/stm32l4xx_hal_msp.c ****   RCC_PeriphCLKInitTypeDef PeriphClkInit = {0};
 1010              		.loc 1 483 3 is_stmt 1 view .LVU289
 1011              		.loc 1 483 28 is_stmt 0 view .LVU290
 1012 0012 8822     		movs	r2, #136
 1013 0014 03A8     		add	r0, sp, #12
 1014              	.LVL62:
 1015              		.loc 1 483 28 view .LVU291
 1016 0016 FFF7FEFF 		bl	memset
 1017              	.LVL63:
 484:Core/Src/stm32l4xx_hal_msp.c ****   if(hsd->Instance==SDMMC1)
 1018              		.loc 1 484 3 is_stmt 1 view .LVU292
 1019              		.loc 1 484 9 is_stmt 0 view .LVU293
 1020 001a 2268     		ldr	r2, [r4]
 1021              		.loc 1 484 5 view .LVU294
 1022 001c 4A4B     		ldr	r3, .L76
 1023 001e 9A42     		cmp	r2, r3
 1024 0020 01D0     		beq	.L72
 1025              	.L66:
 485:Core/Src/stm32l4xx_hal_msp.c ****   {
 486:Core/Src/stm32l4xx_hal_msp.c ****     /* USER CODE BEGIN SDMMC1_MspInit 0 */
 487:Core/Src/stm32l4xx_hal_msp.c **** 
 488:Core/Src/stm32l4xx_hal_msp.c ****     /* USER CODE END SDMMC1_MspInit 0 */
 489:Core/Src/stm32l4xx_hal_msp.c **** 
 490:Core/Src/stm32l4xx_hal_msp.c ****   /** Initializes the peripherals clock
 491:Core/Src/stm32l4xx_hal_msp.c ****   */
 492:Core/Src/stm32l4xx_hal_msp.c ****     PeriphClkInit.PeriphClockSelection = RCC_PERIPHCLK_SDMMC1;
 493:Core/Src/stm32l4xx_hal_msp.c ****     PeriphClkInit.Sdmmc1ClockSelection = RCC_SDMMC1CLKSOURCE_PLLSAI1;
 494:Core/Src/stm32l4xx_hal_msp.c ****     PeriphClkInit.PLLSAI1.PLLSAI1Source = RCC_PLLSOURCE_MSI;
 495:Core/Src/stm32l4xx_hal_msp.c ****     PeriphClkInit.PLLSAI1.PLLSAI1M = 1;
ARM GAS  /tmp/ccEbPtKE.s 			page 31


 496:Core/Src/stm32l4xx_hal_msp.c ****     PeriphClkInit.PLLSAI1.PLLSAI1N = 24;
 497:Core/Src/stm32l4xx_hal_msp.c ****     PeriphClkInit.PLLSAI1.PLLSAI1P = RCC_PLLP_DIV7;
 498:Core/Src/stm32l4xx_hal_msp.c ****     PeriphClkInit.PLLSAI1.PLLSAI1Q = RCC_PLLQ_DIV2;
 499:Core/Src/stm32l4xx_hal_msp.c ****     PeriphClkInit.PLLSAI1.PLLSAI1R = RCC_PLLR_DIV2;
 500:Core/Src/stm32l4xx_hal_msp.c ****     PeriphClkInit.PLLSAI1.PLLSAI1ClockOut = RCC_PLLSAI1_48M2CLK;
 501:Core/Src/stm32l4xx_hal_msp.c ****     if (HAL_RCCEx_PeriphCLKConfig(&PeriphClkInit) != HAL_OK)
 502:Core/Src/stm32l4xx_hal_msp.c ****     {
 503:Core/Src/stm32l4xx_hal_msp.c ****       Error_Handler();
 504:Core/Src/stm32l4xx_hal_msp.c ****     }
 505:Core/Src/stm32l4xx_hal_msp.c **** 
 506:Core/Src/stm32l4xx_hal_msp.c ****     /* Peripheral clock enable */
 507:Core/Src/stm32l4xx_hal_msp.c ****     __HAL_RCC_SDMMC1_CLK_ENABLE();
 508:Core/Src/stm32l4xx_hal_msp.c **** 
 509:Core/Src/stm32l4xx_hal_msp.c ****     __HAL_RCC_GPIOC_CLK_ENABLE();
 510:Core/Src/stm32l4xx_hal_msp.c ****     __HAL_RCC_GPIOD_CLK_ENABLE();
 511:Core/Src/stm32l4xx_hal_msp.c ****     /**SDMMC1 GPIO Configuration
 512:Core/Src/stm32l4xx_hal_msp.c ****     PC8     ------> SDMMC1_D0
 513:Core/Src/stm32l4xx_hal_msp.c ****     PC9     ------> SDMMC1_D1
 514:Core/Src/stm32l4xx_hal_msp.c ****     PC10     ------> SDMMC1_D2
 515:Core/Src/stm32l4xx_hal_msp.c ****     PC11     ------> SDMMC1_D3
 516:Core/Src/stm32l4xx_hal_msp.c ****     PC12     ------> SDMMC1_CK
 517:Core/Src/stm32l4xx_hal_msp.c ****     PD2     ------> SDMMC1_CMD
 518:Core/Src/stm32l4xx_hal_msp.c ****     */
 519:Core/Src/stm32l4xx_hal_msp.c ****     GPIO_InitStruct.Pin = GPIO_PIN_8|GPIO_PIN_9|GPIO_PIN_10|GPIO_PIN_11
 520:Core/Src/stm32l4xx_hal_msp.c ****                           |GPIO_PIN_12;
 521:Core/Src/stm32l4xx_hal_msp.c ****     GPIO_InitStruct.Mode = GPIO_MODE_AF_PP;
 522:Core/Src/stm32l4xx_hal_msp.c ****     GPIO_InitStruct.Pull = GPIO_NOPULL;
 523:Core/Src/stm32l4xx_hal_msp.c ****     GPIO_InitStruct.Speed = GPIO_SPEED_FREQ_VERY_HIGH;
 524:Core/Src/stm32l4xx_hal_msp.c ****     GPIO_InitStruct.Alternate = GPIO_AF12_SDMMC1;
 525:Core/Src/stm32l4xx_hal_msp.c ****     HAL_GPIO_Init(GPIOC, &GPIO_InitStruct);
 526:Core/Src/stm32l4xx_hal_msp.c **** 
 527:Core/Src/stm32l4xx_hal_msp.c ****     GPIO_InitStruct.Pin = GPIO_PIN_2;
 528:Core/Src/stm32l4xx_hal_msp.c ****     GPIO_InitStruct.Mode = GPIO_MODE_AF_PP;
 529:Core/Src/stm32l4xx_hal_msp.c ****     GPIO_InitStruct.Pull = GPIO_NOPULL;
 530:Core/Src/stm32l4xx_hal_msp.c ****     GPIO_InitStruct.Speed = GPIO_SPEED_FREQ_VERY_HIGH;
 531:Core/Src/stm32l4xx_hal_msp.c ****     GPIO_InitStruct.Alternate = GPIO_AF12_SDMMC1;
 532:Core/Src/stm32l4xx_hal_msp.c ****     HAL_GPIO_Init(GPIOD, &GPIO_InitStruct);
 533:Core/Src/stm32l4xx_hal_msp.c **** 
 534:Core/Src/stm32l4xx_hal_msp.c ****     /* SDMMC1 DMA Init */
 535:Core/Src/stm32l4xx_hal_msp.c ****     /* SDMMC1_RX Init */
 536:Core/Src/stm32l4xx_hal_msp.c ****     hdma_sdmmc1_rx.Instance = DMA2_Channel4;
 537:Core/Src/stm32l4xx_hal_msp.c ****     hdma_sdmmc1_rx.Init.Request = DMA_REQUEST_7;
 538:Core/Src/stm32l4xx_hal_msp.c ****     hdma_sdmmc1_rx.Init.Direction = DMA_PERIPH_TO_MEMORY;
 539:Core/Src/stm32l4xx_hal_msp.c ****     hdma_sdmmc1_rx.Init.PeriphInc = DMA_PINC_DISABLE;
 540:Core/Src/stm32l4xx_hal_msp.c ****     hdma_sdmmc1_rx.Init.MemInc = DMA_MINC_ENABLE;
 541:Core/Src/stm32l4xx_hal_msp.c ****     hdma_sdmmc1_rx.Init.PeriphDataAlignment = DMA_PDATAALIGN_WORD;
 542:Core/Src/stm32l4xx_hal_msp.c ****     hdma_sdmmc1_rx.Init.MemDataAlignment = DMA_MDATAALIGN_WORD;
 543:Core/Src/stm32l4xx_hal_msp.c ****     hdma_sdmmc1_rx.Init.Mode = DMA_NORMAL;
 544:Core/Src/stm32l4xx_hal_msp.c ****     hdma_sdmmc1_rx.Init.Priority = DMA_PRIORITY_LOW;
 545:Core/Src/stm32l4xx_hal_msp.c ****     if (HAL_DMA_Init(&hdma_sdmmc1_rx) != HAL_OK)
 546:Core/Src/stm32l4xx_hal_msp.c ****     {
 547:Core/Src/stm32l4xx_hal_msp.c ****       Error_Handler();
 548:Core/Src/stm32l4xx_hal_msp.c ****     }
 549:Core/Src/stm32l4xx_hal_msp.c **** 
 550:Core/Src/stm32l4xx_hal_msp.c ****     __HAL_LINKDMA(hsd,hdmarx,hdma_sdmmc1_rx);
 551:Core/Src/stm32l4xx_hal_msp.c **** 
 552:Core/Src/stm32l4xx_hal_msp.c ****     /* SDMMC1_TX Init */
ARM GAS  /tmp/ccEbPtKE.s 			page 32


 553:Core/Src/stm32l4xx_hal_msp.c ****     hdma_sdmmc1_tx.Instance = DMA2_Channel5;
 554:Core/Src/stm32l4xx_hal_msp.c ****     hdma_sdmmc1_tx.Init.Request = DMA_REQUEST_7;
 555:Core/Src/stm32l4xx_hal_msp.c ****     hdma_sdmmc1_tx.Init.Direction = DMA_MEMORY_TO_PERIPH;
 556:Core/Src/stm32l4xx_hal_msp.c ****     hdma_sdmmc1_tx.Init.PeriphInc = DMA_PINC_DISABLE;
 557:Core/Src/stm32l4xx_hal_msp.c ****     hdma_sdmmc1_tx.Init.MemInc = DMA_MINC_ENABLE;
 558:Core/Src/stm32l4xx_hal_msp.c ****     hdma_sdmmc1_tx.Init.PeriphDataAlignment = DMA_PDATAALIGN_WORD;
 559:Core/Src/stm32l4xx_hal_msp.c ****     hdma_sdmmc1_tx.Init.MemDataAlignment = DMA_MDATAALIGN_WORD;
 560:Core/Src/stm32l4xx_hal_msp.c ****     hdma_sdmmc1_tx.Init.Mode = DMA_NORMAL;
 561:Core/Src/stm32l4xx_hal_msp.c ****     hdma_sdmmc1_tx.Init.Priority = DMA_PRIORITY_LOW;
 562:Core/Src/stm32l4xx_hal_msp.c ****     if (HAL_DMA_Init(&hdma_sdmmc1_tx) != HAL_OK)
 563:Core/Src/stm32l4xx_hal_msp.c ****     {
 564:Core/Src/stm32l4xx_hal_msp.c ****       Error_Handler();
 565:Core/Src/stm32l4xx_hal_msp.c ****     }
 566:Core/Src/stm32l4xx_hal_msp.c **** 
 567:Core/Src/stm32l4xx_hal_msp.c ****     __HAL_LINKDMA(hsd,hdmatx,hdma_sdmmc1_tx);
 568:Core/Src/stm32l4xx_hal_msp.c **** 
 569:Core/Src/stm32l4xx_hal_msp.c ****     /* SDMMC1 interrupt Init */
 570:Core/Src/stm32l4xx_hal_msp.c ****     HAL_NVIC_SetPriority(SDMMC1_IRQn, 0, 0);
 571:Core/Src/stm32l4xx_hal_msp.c ****     HAL_NVIC_EnableIRQ(SDMMC1_IRQn);
 572:Core/Src/stm32l4xx_hal_msp.c ****     /* USER CODE BEGIN SDMMC1_MspInit 1 */
 573:Core/Src/stm32l4xx_hal_msp.c **** 
 574:Core/Src/stm32l4xx_hal_msp.c ****     /* USER CODE END SDMMC1_MspInit 1 */
 575:Core/Src/stm32l4xx_hal_msp.c **** 
 576:Core/Src/stm32l4xx_hal_msp.c ****   }
 577:Core/Src/stm32l4xx_hal_msp.c **** 
 578:Core/Src/stm32l4xx_hal_msp.c **** }
 1026              		.loc 1 578 1 view .LVU295
 1027 0022 2BB0     		add	sp, sp, #172
 1028              		.cfi_remember_state
 1029              		.cfi_def_cfa_offset 20
 1030              		@ sp needed
 1031 0024 F0BD     		pop	{r4, r5, r6, r7, pc}
 1032              	.LVL64:
 1033              	.L72:
 1034              		.cfi_restore_state
 492:Core/Src/stm32l4xx_hal_msp.c ****     PeriphClkInit.Sdmmc1ClockSelection = RCC_SDMMC1CLKSOURCE_PLLSAI1;
 1035              		.loc 1 492 5 is_stmt 1 view .LVU296
 492:Core/Src/stm32l4xx_hal_msp.c ****     PeriphClkInit.Sdmmc1ClockSelection = RCC_SDMMC1CLKSOURCE_PLLSAI1;
 1036              		.loc 1 492 40 is_stmt 0 view .LVU297
 1037 0026 4FF40023 		mov	r3, #524288
 1038 002a 0393     		str	r3, [sp, #12]
 493:Core/Src/stm32l4xx_hal_msp.c ****     PeriphClkInit.PLLSAI1.PLLSAI1Source = RCC_PLLSOURCE_MSI;
 1039              		.loc 1 493 5 is_stmt 1 view .LVU298
 493:Core/Src/stm32l4xx_hal_msp.c ****     PeriphClkInit.PLLSAI1.PLLSAI1Source = RCC_PLLSOURCE_MSI;
 1040              		.loc 1 493 40 is_stmt 0 view .LVU299
 1041 002c 4FF08063 		mov	r3, #67108864
 1042 0030 1F93     		str	r3, [sp, #124]
 494:Core/Src/stm32l4xx_hal_msp.c ****     PeriphClkInit.PLLSAI1.PLLSAI1M = 1;
 1043              		.loc 1 494 5 is_stmt 1 view .LVU300
 494:Core/Src/stm32l4xx_hal_msp.c ****     PeriphClkInit.PLLSAI1.PLLSAI1M = 1;
 1044              		.loc 1 494 41 is_stmt 0 view .LVU301
 1045 0032 0123     		movs	r3, #1
 1046 0034 0493     		str	r3, [sp, #16]
 495:Core/Src/stm32l4xx_hal_msp.c ****     PeriphClkInit.PLLSAI1.PLLSAI1N = 24;
 1047              		.loc 1 495 5 is_stmt 1 view .LVU302
 495:Core/Src/stm32l4xx_hal_msp.c ****     PeriphClkInit.PLLSAI1.PLLSAI1N = 24;
 1048              		.loc 1 495 36 is_stmt 0 view .LVU303
ARM GAS  /tmp/ccEbPtKE.s 			page 33


 1049 0036 0593     		str	r3, [sp, #20]
 496:Core/Src/stm32l4xx_hal_msp.c ****     PeriphClkInit.PLLSAI1.PLLSAI1P = RCC_PLLP_DIV7;
 1050              		.loc 1 496 5 is_stmt 1 view .LVU304
 496:Core/Src/stm32l4xx_hal_msp.c ****     PeriphClkInit.PLLSAI1.PLLSAI1P = RCC_PLLP_DIV7;
 1051              		.loc 1 496 36 is_stmt 0 view .LVU305
 1052 0038 1823     		movs	r3, #24
 1053 003a 0693     		str	r3, [sp, #24]
 497:Core/Src/stm32l4xx_hal_msp.c ****     PeriphClkInit.PLLSAI1.PLLSAI1Q = RCC_PLLQ_DIV2;
 1054              		.loc 1 497 5 is_stmt 1 view .LVU306
 497:Core/Src/stm32l4xx_hal_msp.c ****     PeriphClkInit.PLLSAI1.PLLSAI1Q = RCC_PLLQ_DIV2;
 1055              		.loc 1 497 36 is_stmt 0 view .LVU307
 1056 003c 0723     		movs	r3, #7
 1057 003e 0793     		str	r3, [sp, #28]
 498:Core/Src/stm32l4xx_hal_msp.c ****     PeriphClkInit.PLLSAI1.PLLSAI1R = RCC_PLLR_DIV2;
 1058              		.loc 1 498 5 is_stmt 1 view .LVU308
 498:Core/Src/stm32l4xx_hal_msp.c ****     PeriphClkInit.PLLSAI1.PLLSAI1R = RCC_PLLR_DIV2;
 1059              		.loc 1 498 36 is_stmt 0 view .LVU309
 1060 0040 0223     		movs	r3, #2
 1061 0042 0893     		str	r3, [sp, #32]
 499:Core/Src/stm32l4xx_hal_msp.c ****     PeriphClkInit.PLLSAI1.PLLSAI1ClockOut = RCC_PLLSAI1_48M2CLK;
 1062              		.loc 1 499 5 is_stmt 1 view .LVU310
 499:Core/Src/stm32l4xx_hal_msp.c ****     PeriphClkInit.PLLSAI1.PLLSAI1ClockOut = RCC_PLLSAI1_48M2CLK;
 1063              		.loc 1 499 36 is_stmt 0 view .LVU311
 1064 0044 0993     		str	r3, [sp, #36]
 500:Core/Src/stm32l4xx_hal_msp.c ****     if (HAL_RCCEx_PeriphCLKConfig(&PeriphClkInit) != HAL_OK)
 1065              		.loc 1 500 5 is_stmt 1 view .LVU312
 500:Core/Src/stm32l4xx_hal_msp.c ****     if (HAL_RCCEx_PeriphCLKConfig(&PeriphClkInit) != HAL_OK)
 1066              		.loc 1 500 43 is_stmt 0 view .LVU313
 1067 0046 4FF48013 		mov	r3, #1048576
 1068 004a 0A93     		str	r3, [sp, #40]
 501:Core/Src/stm32l4xx_hal_msp.c ****     {
 1069              		.loc 1 501 5 is_stmt 1 view .LVU314
 501:Core/Src/stm32l4xx_hal_msp.c ****     {
 1070              		.loc 1 501 9 is_stmt 0 view .LVU315
 1071 004c 03A8     		add	r0, sp, #12
 1072 004e FFF7FEFF 		bl	HAL_RCCEx_PeriphCLKConfig
 1073              	.LVL65:
 501:Core/Src/stm32l4xx_hal_msp.c ****     {
 1074              		.loc 1 501 8 discriminator 1 view .LVU316
 1075 0052 0028     		cmp	r0, #0
 1076 0054 6ED1     		bne	.L73
 1077              	.L68:
 507:Core/Src/stm32l4xx_hal_msp.c **** 
 1078              		.loc 1 507 5 is_stmt 1 view .LVU317
 1079              	.LBB14:
 507:Core/Src/stm32l4xx_hal_msp.c **** 
 1080              		.loc 1 507 5 view .LVU318
 507:Core/Src/stm32l4xx_hal_msp.c **** 
 1081              		.loc 1 507 5 view .LVU319
 1082 0056 3D4B     		ldr	r3, .L76+4
 1083 0058 1A6E     		ldr	r2, [r3, #96]
 1084 005a 42F48062 		orr	r2, r2, #1024
 1085 005e 1A66     		str	r2, [r3, #96]
 507:Core/Src/stm32l4xx_hal_msp.c **** 
 1086              		.loc 1 507 5 view .LVU320
 1087 0060 1A6E     		ldr	r2, [r3, #96]
 1088 0062 02F48062 		and	r2, r2, #1024
ARM GAS  /tmp/ccEbPtKE.s 			page 34


 1089 0066 0092     		str	r2, [sp]
 507:Core/Src/stm32l4xx_hal_msp.c **** 
 1090              		.loc 1 507 5 view .LVU321
 1091 0068 009A     		ldr	r2, [sp]
 1092              	.LBE14:
 507:Core/Src/stm32l4xx_hal_msp.c **** 
 1093              		.loc 1 507 5 view .LVU322
 509:Core/Src/stm32l4xx_hal_msp.c ****     __HAL_RCC_GPIOD_CLK_ENABLE();
 1094              		.loc 1 509 5 view .LVU323
 1095              	.LBB15:
 509:Core/Src/stm32l4xx_hal_msp.c ****     __HAL_RCC_GPIOD_CLK_ENABLE();
 1096              		.loc 1 509 5 view .LVU324
 509:Core/Src/stm32l4xx_hal_msp.c ****     __HAL_RCC_GPIOD_CLK_ENABLE();
 1097              		.loc 1 509 5 view .LVU325
 1098 006a DA6C     		ldr	r2, [r3, #76]
 1099 006c 42F00402 		orr	r2, r2, #4
 1100 0070 DA64     		str	r2, [r3, #76]
 509:Core/Src/stm32l4xx_hal_msp.c ****     __HAL_RCC_GPIOD_CLK_ENABLE();
 1101              		.loc 1 509 5 view .LVU326
 1102 0072 DA6C     		ldr	r2, [r3, #76]
 1103 0074 02F00402 		and	r2, r2, #4
 1104 0078 0192     		str	r2, [sp, #4]
 509:Core/Src/stm32l4xx_hal_msp.c ****     __HAL_RCC_GPIOD_CLK_ENABLE();
 1105              		.loc 1 509 5 view .LVU327
 1106 007a 019A     		ldr	r2, [sp, #4]
 1107              	.LBE15:
 509:Core/Src/stm32l4xx_hal_msp.c ****     __HAL_RCC_GPIOD_CLK_ENABLE();
 1108              		.loc 1 509 5 view .LVU328
 510:Core/Src/stm32l4xx_hal_msp.c ****     /**SDMMC1 GPIO Configuration
 1109              		.loc 1 510 5 view .LVU329
 1110              	.LBB16:
 510:Core/Src/stm32l4xx_hal_msp.c ****     /**SDMMC1 GPIO Configuration
 1111              		.loc 1 510 5 view .LVU330
 510:Core/Src/stm32l4xx_hal_msp.c ****     /**SDMMC1 GPIO Configuration
 1112              		.loc 1 510 5 view .LVU331
 1113 007c DA6C     		ldr	r2, [r3, #76]
 1114 007e 42F00802 		orr	r2, r2, #8
 1115 0082 DA64     		str	r2, [r3, #76]
 510:Core/Src/stm32l4xx_hal_msp.c ****     /**SDMMC1 GPIO Configuration
 1116              		.loc 1 510 5 view .LVU332
 1117 0084 DB6C     		ldr	r3, [r3, #76]
 1118 0086 03F00803 		and	r3, r3, #8
 1119 008a 0293     		str	r3, [sp, #8]
 510:Core/Src/stm32l4xx_hal_msp.c ****     /**SDMMC1 GPIO Configuration
 1120              		.loc 1 510 5 view .LVU333
 1121 008c 029B     		ldr	r3, [sp, #8]
 1122              	.LBE16:
 510:Core/Src/stm32l4xx_hal_msp.c ****     /**SDMMC1 GPIO Configuration
 1123              		.loc 1 510 5 view .LVU334
 519:Core/Src/stm32l4xx_hal_msp.c ****                           |GPIO_PIN_12;
 1124              		.loc 1 519 5 view .LVU335
 519:Core/Src/stm32l4xx_hal_msp.c ****                           |GPIO_PIN_12;
 1125              		.loc 1 519 25 is_stmt 0 view .LVU336
 1126 008e 4FF4F853 		mov	r3, #7936
 1127 0092 2593     		str	r3, [sp, #148]
 521:Core/Src/stm32l4xx_hal_msp.c ****     GPIO_InitStruct.Pull = GPIO_NOPULL;
 1128              		.loc 1 521 5 is_stmt 1 view .LVU337
ARM GAS  /tmp/ccEbPtKE.s 			page 35


 521:Core/Src/stm32l4xx_hal_msp.c ****     GPIO_InitStruct.Pull = GPIO_NOPULL;
 1129              		.loc 1 521 26 is_stmt 0 view .LVU338
 1130 0094 0226     		movs	r6, #2
 1131 0096 2696     		str	r6, [sp, #152]
 522:Core/Src/stm32l4xx_hal_msp.c ****     GPIO_InitStruct.Speed = GPIO_SPEED_FREQ_VERY_HIGH;
 1132              		.loc 1 522 5 is_stmt 1 view .LVU339
 522:Core/Src/stm32l4xx_hal_msp.c ****     GPIO_InitStruct.Speed = GPIO_SPEED_FREQ_VERY_HIGH;
 1133              		.loc 1 522 26 is_stmt 0 view .LVU340
 1134 0098 0025     		movs	r5, #0
 1135 009a 2795     		str	r5, [sp, #156]
 523:Core/Src/stm32l4xx_hal_msp.c ****     GPIO_InitStruct.Alternate = GPIO_AF12_SDMMC1;
 1136              		.loc 1 523 5 is_stmt 1 view .LVU341
 523:Core/Src/stm32l4xx_hal_msp.c ****     GPIO_InitStruct.Alternate = GPIO_AF12_SDMMC1;
 1137              		.loc 1 523 27 is_stmt 0 view .LVU342
 1138 009c 0327     		movs	r7, #3
 1139 009e 2897     		str	r7, [sp, #160]
 524:Core/Src/stm32l4xx_hal_msp.c ****     HAL_GPIO_Init(GPIOC, &GPIO_InitStruct);
 1140              		.loc 1 524 5 is_stmt 1 view .LVU343
 524:Core/Src/stm32l4xx_hal_msp.c ****     HAL_GPIO_Init(GPIOC, &GPIO_InitStruct);
 1141              		.loc 1 524 31 is_stmt 0 view .LVU344
 1142 00a0 0C23     		movs	r3, #12
 1143 00a2 2993     		str	r3, [sp, #164]
 525:Core/Src/stm32l4xx_hal_msp.c **** 
 1144              		.loc 1 525 5 is_stmt 1 view .LVU345
 1145 00a4 25A9     		add	r1, sp, #148
 1146 00a6 2A48     		ldr	r0, .L76+8
 1147 00a8 FFF7FEFF 		bl	HAL_GPIO_Init
 1148              	.LVL66:
 527:Core/Src/stm32l4xx_hal_msp.c ****     GPIO_InitStruct.Mode = GPIO_MODE_AF_PP;
 1149              		.loc 1 527 5 view .LVU346
 527:Core/Src/stm32l4xx_hal_msp.c ****     GPIO_InitStruct.Mode = GPIO_MODE_AF_PP;
 1150              		.loc 1 527 25 is_stmt 0 view .LVU347
 1151 00ac 0423     		movs	r3, #4
 1152 00ae 2593     		str	r3, [sp, #148]
 528:Core/Src/stm32l4xx_hal_msp.c ****     GPIO_InitStruct.Pull = GPIO_NOPULL;
 1153              		.loc 1 528 5 is_stmt 1 view .LVU348
 528:Core/Src/stm32l4xx_hal_msp.c ****     GPIO_InitStruct.Pull = GPIO_NOPULL;
 1154              		.loc 1 528 26 is_stmt 0 view .LVU349
 1155 00b0 2696     		str	r6, [sp, #152]
 529:Core/Src/stm32l4xx_hal_msp.c ****     GPIO_InitStruct.Speed = GPIO_SPEED_FREQ_VERY_HIGH;
 1156              		.loc 1 529 5 is_stmt 1 view .LVU350
 529:Core/Src/stm32l4xx_hal_msp.c ****     GPIO_InitStruct.Speed = GPIO_SPEED_FREQ_VERY_HIGH;
 1157              		.loc 1 529 26 is_stmt 0 view .LVU351
 1158 00b2 2795     		str	r5, [sp, #156]
 530:Core/Src/stm32l4xx_hal_msp.c ****     GPIO_InitStruct.Alternate = GPIO_AF12_SDMMC1;
 1159              		.loc 1 530 5 is_stmt 1 view .LVU352
 530:Core/Src/stm32l4xx_hal_msp.c ****     GPIO_InitStruct.Alternate = GPIO_AF12_SDMMC1;
 1160              		.loc 1 530 27 is_stmt 0 view .LVU353
 1161 00b4 2897     		str	r7, [sp, #160]
 531:Core/Src/stm32l4xx_hal_msp.c ****     HAL_GPIO_Init(GPIOD, &GPIO_InitStruct);
 1162              		.loc 1 531 5 is_stmt 1 view .LVU354
 531:Core/Src/stm32l4xx_hal_msp.c ****     HAL_GPIO_Init(GPIOD, &GPIO_InitStruct);
 1163              		.loc 1 531 31 is_stmt 0 view .LVU355
 1164 00b6 0C23     		movs	r3, #12
 1165 00b8 2993     		str	r3, [sp, #164]
 532:Core/Src/stm32l4xx_hal_msp.c **** 
 1166              		.loc 1 532 5 is_stmt 1 view .LVU356
ARM GAS  /tmp/ccEbPtKE.s 			page 36


 1167 00ba 25A9     		add	r1, sp, #148
 1168 00bc 2548     		ldr	r0, .L76+12
 1169 00be FFF7FEFF 		bl	HAL_GPIO_Init
 1170              	.LVL67:
 536:Core/Src/stm32l4xx_hal_msp.c ****     hdma_sdmmc1_rx.Init.Request = DMA_REQUEST_7;
 1171              		.loc 1 536 5 view .LVU357
 536:Core/Src/stm32l4xx_hal_msp.c ****     hdma_sdmmc1_rx.Init.Request = DMA_REQUEST_7;
 1172              		.loc 1 536 29 is_stmt 0 view .LVU358
 1173 00c2 2548     		ldr	r0, .L76+16
 1174 00c4 254B     		ldr	r3, .L76+20
 1175 00c6 0360     		str	r3, [r0]
 537:Core/Src/stm32l4xx_hal_msp.c ****     hdma_sdmmc1_rx.Init.Direction = DMA_PERIPH_TO_MEMORY;
 1176              		.loc 1 537 5 is_stmt 1 view .LVU359
 537:Core/Src/stm32l4xx_hal_msp.c ****     hdma_sdmmc1_rx.Init.Direction = DMA_PERIPH_TO_MEMORY;
 1177              		.loc 1 537 33 is_stmt 0 view .LVU360
 1178 00c8 0723     		movs	r3, #7
 1179 00ca 4360     		str	r3, [r0, #4]
 538:Core/Src/stm32l4xx_hal_msp.c ****     hdma_sdmmc1_rx.Init.PeriphInc = DMA_PINC_DISABLE;
 1180              		.loc 1 538 5 is_stmt 1 view .LVU361
 538:Core/Src/stm32l4xx_hal_msp.c ****     hdma_sdmmc1_rx.Init.PeriphInc = DMA_PINC_DISABLE;
 1181              		.loc 1 538 35 is_stmt 0 view .LVU362
 1182 00cc 8560     		str	r5, [r0, #8]
 539:Core/Src/stm32l4xx_hal_msp.c ****     hdma_sdmmc1_rx.Init.MemInc = DMA_MINC_ENABLE;
 1183              		.loc 1 539 5 is_stmt 1 view .LVU363
 539:Core/Src/stm32l4xx_hal_msp.c ****     hdma_sdmmc1_rx.Init.MemInc = DMA_MINC_ENABLE;
 1184              		.loc 1 539 35 is_stmt 0 view .LVU364
 1185 00ce C560     		str	r5, [r0, #12]
 540:Core/Src/stm32l4xx_hal_msp.c ****     hdma_sdmmc1_rx.Init.PeriphDataAlignment = DMA_PDATAALIGN_WORD;
 1186              		.loc 1 540 5 is_stmt 1 view .LVU365
 540:Core/Src/stm32l4xx_hal_msp.c ****     hdma_sdmmc1_rx.Init.PeriphDataAlignment = DMA_PDATAALIGN_WORD;
 1187              		.loc 1 540 32 is_stmt 0 view .LVU366
 1188 00d0 8023     		movs	r3, #128
 1189 00d2 0361     		str	r3, [r0, #16]
 541:Core/Src/stm32l4xx_hal_msp.c ****     hdma_sdmmc1_rx.Init.MemDataAlignment = DMA_MDATAALIGN_WORD;
 1190              		.loc 1 541 5 is_stmt 1 view .LVU367
 541:Core/Src/stm32l4xx_hal_msp.c ****     hdma_sdmmc1_rx.Init.MemDataAlignment = DMA_MDATAALIGN_WORD;
 1191              		.loc 1 541 45 is_stmt 0 view .LVU368
 1192 00d4 4FF40073 		mov	r3, #512
 1193 00d8 4361     		str	r3, [r0, #20]
 542:Core/Src/stm32l4xx_hal_msp.c ****     hdma_sdmmc1_rx.Init.Mode = DMA_NORMAL;
 1194              		.loc 1 542 5 is_stmt 1 view .LVU369
 542:Core/Src/stm32l4xx_hal_msp.c ****     hdma_sdmmc1_rx.Init.Mode = DMA_NORMAL;
 1195              		.loc 1 542 42 is_stmt 0 view .LVU370
 1196 00da 4FF40063 		mov	r3, #2048
 1197 00de 8361     		str	r3, [r0, #24]
 543:Core/Src/stm32l4xx_hal_msp.c ****     hdma_sdmmc1_rx.Init.Priority = DMA_PRIORITY_LOW;
 1198              		.loc 1 543 5 is_stmt 1 view .LVU371
 543:Core/Src/stm32l4xx_hal_msp.c ****     hdma_sdmmc1_rx.Init.Priority = DMA_PRIORITY_LOW;
 1199              		.loc 1 543 30 is_stmt 0 view .LVU372
 1200 00e0 C561     		str	r5, [r0, #28]
 544:Core/Src/stm32l4xx_hal_msp.c ****     if (HAL_DMA_Init(&hdma_sdmmc1_rx) != HAL_OK)
 1201              		.loc 1 544 5 is_stmt 1 view .LVU373
 544:Core/Src/stm32l4xx_hal_msp.c ****     if (HAL_DMA_Init(&hdma_sdmmc1_rx) != HAL_OK)
 1202              		.loc 1 544 34 is_stmt 0 view .LVU374
 1203 00e2 0562     		str	r5, [r0, #32]
 545:Core/Src/stm32l4xx_hal_msp.c ****     {
 1204              		.loc 1 545 5 is_stmt 1 view .LVU375
ARM GAS  /tmp/ccEbPtKE.s 			page 37


 545:Core/Src/stm32l4xx_hal_msp.c ****     {
 1205              		.loc 1 545 9 is_stmt 0 view .LVU376
 1206 00e4 FFF7FEFF 		bl	HAL_DMA_Init
 1207              	.LVL68:
 545:Core/Src/stm32l4xx_hal_msp.c ****     {
 1208              		.loc 1 545 8 discriminator 1 view .LVU377
 1209 00e8 38BB     		cbnz	r0, .L74
 1210              	.L69:
 550:Core/Src/stm32l4xx_hal_msp.c **** 
 1211              		.loc 1 550 5 is_stmt 1 view .LVU378
 550:Core/Src/stm32l4xx_hal_msp.c **** 
 1212              		.loc 1 550 5 view .LVU379
 1213 00ea 1B4B     		ldr	r3, .L76+16
 1214 00ec 2364     		str	r3, [r4, #64]
 550:Core/Src/stm32l4xx_hal_msp.c **** 
 1215              		.loc 1 550 5 view .LVU380
 1216 00ee 9C62     		str	r4, [r3, #40]
 550:Core/Src/stm32l4xx_hal_msp.c **** 
 1217              		.loc 1 550 5 view .LVU381
 553:Core/Src/stm32l4xx_hal_msp.c ****     hdma_sdmmc1_tx.Init.Request = DMA_REQUEST_7;
 1218              		.loc 1 553 5 view .LVU382
 553:Core/Src/stm32l4xx_hal_msp.c ****     hdma_sdmmc1_tx.Init.Request = DMA_REQUEST_7;
 1219              		.loc 1 553 29 is_stmt 0 view .LVU383
 1220 00f0 1B48     		ldr	r0, .L76+24
 1221 00f2 1C4B     		ldr	r3, .L76+28
 1222 00f4 0360     		str	r3, [r0]
 554:Core/Src/stm32l4xx_hal_msp.c ****     hdma_sdmmc1_tx.Init.Direction = DMA_MEMORY_TO_PERIPH;
 1223              		.loc 1 554 5 is_stmt 1 view .LVU384
 554:Core/Src/stm32l4xx_hal_msp.c ****     hdma_sdmmc1_tx.Init.Direction = DMA_MEMORY_TO_PERIPH;
 1224              		.loc 1 554 33 is_stmt 0 view .LVU385
 1225 00f6 0723     		movs	r3, #7
 1226 00f8 4360     		str	r3, [r0, #4]
 555:Core/Src/stm32l4xx_hal_msp.c ****     hdma_sdmmc1_tx.Init.PeriphInc = DMA_PINC_DISABLE;
 1227              		.loc 1 555 5 is_stmt 1 view .LVU386
 555:Core/Src/stm32l4xx_hal_msp.c ****     hdma_sdmmc1_tx.Init.PeriphInc = DMA_PINC_DISABLE;
 1228              		.loc 1 555 35 is_stmt 0 view .LVU387
 1229 00fa 1023     		movs	r3, #16
 1230 00fc 8360     		str	r3, [r0, #8]
 556:Core/Src/stm32l4xx_hal_msp.c ****     hdma_sdmmc1_tx.Init.MemInc = DMA_MINC_ENABLE;
 1231              		.loc 1 556 5 is_stmt 1 view .LVU388
 556:Core/Src/stm32l4xx_hal_msp.c ****     hdma_sdmmc1_tx.Init.MemInc = DMA_MINC_ENABLE;
 1232              		.loc 1 556 35 is_stmt 0 view .LVU389
 1233 00fe 0023     		movs	r3, #0
 1234 0100 C360     		str	r3, [r0, #12]
 557:Core/Src/stm32l4xx_hal_msp.c ****     hdma_sdmmc1_tx.Init.PeriphDataAlignment = DMA_PDATAALIGN_WORD;
 1235              		.loc 1 557 5 is_stmt 1 view .LVU390
 557:Core/Src/stm32l4xx_hal_msp.c ****     hdma_sdmmc1_tx.Init.PeriphDataAlignment = DMA_PDATAALIGN_WORD;
 1236              		.loc 1 557 32 is_stmt 0 view .LVU391
 1237 0102 8022     		movs	r2, #128
 1238 0104 0261     		str	r2, [r0, #16]
 558:Core/Src/stm32l4xx_hal_msp.c ****     hdma_sdmmc1_tx.Init.MemDataAlignment = DMA_MDATAALIGN_WORD;
 1239              		.loc 1 558 5 is_stmt 1 view .LVU392
 558:Core/Src/stm32l4xx_hal_msp.c ****     hdma_sdmmc1_tx.Init.MemDataAlignment = DMA_MDATAALIGN_WORD;
 1240              		.loc 1 558 45 is_stmt 0 view .LVU393
 1241 0106 4FF40072 		mov	r2, #512
 1242 010a 4261     		str	r2, [r0, #20]
 559:Core/Src/stm32l4xx_hal_msp.c ****     hdma_sdmmc1_tx.Init.Mode = DMA_NORMAL;
ARM GAS  /tmp/ccEbPtKE.s 			page 38


 1243              		.loc 1 559 5 is_stmt 1 view .LVU394
 559:Core/Src/stm32l4xx_hal_msp.c ****     hdma_sdmmc1_tx.Init.Mode = DMA_NORMAL;
 1244              		.loc 1 559 42 is_stmt 0 view .LVU395
 1245 010c 4FF40062 		mov	r2, #2048
 1246 0110 8261     		str	r2, [r0, #24]
 560:Core/Src/stm32l4xx_hal_msp.c ****     hdma_sdmmc1_tx.Init.Priority = DMA_PRIORITY_LOW;
 1247              		.loc 1 560 5 is_stmt 1 view .LVU396
 560:Core/Src/stm32l4xx_hal_msp.c ****     hdma_sdmmc1_tx.Init.Priority = DMA_PRIORITY_LOW;
 1248              		.loc 1 560 30 is_stmt 0 view .LVU397
 1249 0112 C361     		str	r3, [r0, #28]
 561:Core/Src/stm32l4xx_hal_msp.c ****     if (HAL_DMA_Init(&hdma_sdmmc1_tx) != HAL_OK)
 1250              		.loc 1 561 5 is_stmt 1 view .LVU398
 561:Core/Src/stm32l4xx_hal_msp.c ****     if (HAL_DMA_Init(&hdma_sdmmc1_tx) != HAL_OK)
 1251              		.loc 1 561 34 is_stmt 0 view .LVU399
 1252 0114 0362     		str	r3, [r0, #32]
 562:Core/Src/stm32l4xx_hal_msp.c ****     {
 1253              		.loc 1 562 5 is_stmt 1 view .LVU400
 562:Core/Src/stm32l4xx_hal_msp.c ****     {
 1254              		.loc 1 562 9 is_stmt 0 view .LVU401
 1255 0116 FFF7FEFF 		bl	HAL_DMA_Init
 1256              	.LVL69:
 562:Core/Src/stm32l4xx_hal_msp.c ****     {
 1257              		.loc 1 562 8 discriminator 1 view .LVU402
 1258 011a 88B9     		cbnz	r0, .L75
 1259              	.L70:
 567:Core/Src/stm32l4xx_hal_msp.c **** 
 1260              		.loc 1 567 5 is_stmt 1 view .LVU403
 567:Core/Src/stm32l4xx_hal_msp.c **** 
 1261              		.loc 1 567 5 view .LVU404
 1262 011c 104B     		ldr	r3, .L76+24
 1263 011e E363     		str	r3, [r4, #60]
 567:Core/Src/stm32l4xx_hal_msp.c **** 
 1264              		.loc 1 567 5 view .LVU405
 1265 0120 9C62     		str	r4, [r3, #40]
 567:Core/Src/stm32l4xx_hal_msp.c **** 
 1266              		.loc 1 567 5 view .LVU406
 570:Core/Src/stm32l4xx_hal_msp.c ****     HAL_NVIC_EnableIRQ(SDMMC1_IRQn);
 1267              		.loc 1 570 5 view .LVU407
 1268 0122 0022     		movs	r2, #0
 1269 0124 1146     		mov	r1, r2
 1270 0126 3120     		movs	r0, #49
 1271 0128 FFF7FEFF 		bl	HAL_NVIC_SetPriority
 1272              	.LVL70:
 571:Core/Src/stm32l4xx_hal_msp.c ****     /* USER CODE BEGIN SDMMC1_MspInit 1 */
 1273              		.loc 1 571 5 view .LVU408
 1274 012c 3120     		movs	r0, #49
 1275 012e FFF7FEFF 		bl	HAL_NVIC_EnableIRQ
 1276              	.LVL71:
 1277              		.loc 1 578 1 is_stmt 0 view .LVU409
 1278 0132 76E7     		b	.L66
 1279              	.L73:
 503:Core/Src/stm32l4xx_hal_msp.c ****     }
 1280              		.loc 1 503 7 is_stmt 1 view .LVU410
 1281 0134 FFF7FEFF 		bl	Error_Handler
 1282              	.LVL72:
 1283 0138 8DE7     		b	.L68
 1284              	.L74:
ARM GAS  /tmp/ccEbPtKE.s 			page 39


 547:Core/Src/stm32l4xx_hal_msp.c ****     }
 1285              		.loc 1 547 7 view .LVU411
 1286 013a FFF7FEFF 		bl	Error_Handler
 1287              	.LVL73:
 1288 013e D4E7     		b	.L69
 1289              	.L75:
 564:Core/Src/stm32l4xx_hal_msp.c ****     }
 1290              		.loc 1 564 7 view .LVU412
 1291 0140 FFF7FEFF 		bl	Error_Handler
 1292              	.LVL74:
 1293 0144 EAE7     		b	.L70
 1294              	.L77:
 1295 0146 00BF     		.align	2
 1296              	.L76:
 1297 0148 00280140 		.word	1073817600
 1298 014c 00100240 		.word	1073876992
 1299 0150 00080048 		.word	1207961600
 1300 0154 000C0048 		.word	1207962624
 1301 0158 00000000 		.word	hdma_sdmmc1_rx
 1302 015c 44040240 		.word	1073873988
 1303 0160 00000000 		.word	hdma_sdmmc1_tx
 1304 0164 58040240 		.word	1073874008
 1305              		.cfi_endproc
 1306              	.LFE235:
 1308              		.section	.text.HAL_SD_MspDeInit,"ax",%progbits
 1309              		.align	1
 1310              		.global	HAL_SD_MspDeInit
 1311              		.syntax unified
 1312              		.thumb
 1313              		.thumb_func
 1315              	HAL_SD_MspDeInit:
 1316              	.LVL75:
 1317              	.LFB236:
 579:Core/Src/stm32l4xx_hal_msp.c **** 
 580:Core/Src/stm32l4xx_hal_msp.c **** /**
 581:Core/Src/stm32l4xx_hal_msp.c ****   * @brief SD MSP De-Initialization
 582:Core/Src/stm32l4xx_hal_msp.c ****   * This function freeze the hardware resources used in this example
 583:Core/Src/stm32l4xx_hal_msp.c ****   * @param hsd: SD handle pointer
 584:Core/Src/stm32l4xx_hal_msp.c ****   * @retval None
 585:Core/Src/stm32l4xx_hal_msp.c ****   */
 586:Core/Src/stm32l4xx_hal_msp.c **** void HAL_SD_MspDeInit(SD_HandleTypeDef* hsd)
 587:Core/Src/stm32l4xx_hal_msp.c **** {
 1318              		.loc 1 587 1 view -0
 1319              		.cfi_startproc
 1320              		@ args = 0, pretend = 0, frame = 0
 1321              		@ frame_needed = 0, uses_anonymous_args = 0
 588:Core/Src/stm32l4xx_hal_msp.c ****   if(hsd->Instance==SDMMC1)
 1322              		.loc 1 588 3 view .LVU414
 1323              		.loc 1 588 9 is_stmt 0 view .LVU415
 1324 0000 0268     		ldr	r2, [r0]
 1325              		.loc 1 588 5 view .LVU416
 1326 0002 0F4B     		ldr	r3, .L85
 1327 0004 9A42     		cmp	r2, r3
 1328 0006 00D0     		beq	.L84
 1329 0008 7047     		bx	lr
 1330              	.L84:
 587:Core/Src/stm32l4xx_hal_msp.c ****   if(hsd->Instance==SDMMC1)
ARM GAS  /tmp/ccEbPtKE.s 			page 40


 1331              		.loc 1 587 1 view .LVU417
 1332 000a 10B5     		push	{r4, lr}
 1333              		.cfi_def_cfa_offset 8
 1334              		.cfi_offset 4, -8
 1335              		.cfi_offset 14, -4
 1336 000c 0446     		mov	r4, r0
 589:Core/Src/stm32l4xx_hal_msp.c ****   {
 590:Core/Src/stm32l4xx_hal_msp.c ****     /* USER CODE BEGIN SDMMC1_MspDeInit 0 */
 591:Core/Src/stm32l4xx_hal_msp.c **** 
 592:Core/Src/stm32l4xx_hal_msp.c ****     /* USER CODE END SDMMC1_MspDeInit 0 */
 593:Core/Src/stm32l4xx_hal_msp.c ****     /* Peripheral clock disable */
 594:Core/Src/stm32l4xx_hal_msp.c ****     __HAL_RCC_SDMMC1_CLK_DISABLE();
 1337              		.loc 1 594 5 is_stmt 1 view .LVU418
 1338 000e 0D4A     		ldr	r2, .L85+4
 1339 0010 136E     		ldr	r3, [r2, #96]
 1340 0012 23F48063 		bic	r3, r3, #1024
 1341 0016 1366     		str	r3, [r2, #96]
 595:Core/Src/stm32l4xx_hal_msp.c **** 
 596:Core/Src/stm32l4xx_hal_msp.c ****     /**SDMMC1 GPIO Configuration
 597:Core/Src/stm32l4xx_hal_msp.c ****     PC8     ------> SDMMC1_D0
 598:Core/Src/stm32l4xx_hal_msp.c ****     PC9     ------> SDMMC1_D1
 599:Core/Src/stm32l4xx_hal_msp.c ****     PC10     ------> SDMMC1_D2
 600:Core/Src/stm32l4xx_hal_msp.c ****     PC11     ------> SDMMC1_D3
 601:Core/Src/stm32l4xx_hal_msp.c ****     PC12     ------> SDMMC1_CK
 602:Core/Src/stm32l4xx_hal_msp.c ****     PD2     ------> SDMMC1_CMD
 603:Core/Src/stm32l4xx_hal_msp.c ****     */
 604:Core/Src/stm32l4xx_hal_msp.c ****     HAL_GPIO_DeInit(GPIOC, GPIO_PIN_8|GPIO_PIN_9|GPIO_PIN_10|GPIO_PIN_11
 1342              		.loc 1 604 5 view .LVU419
 1343 0018 4FF4F851 		mov	r1, #7936
 1344 001c 0A48     		ldr	r0, .L85+8
 1345              	.LVL76:
 1346              		.loc 1 604 5 is_stmt 0 view .LVU420
 1347 001e FFF7FEFF 		bl	HAL_GPIO_DeInit
 1348              	.LVL77:
 605:Core/Src/stm32l4xx_hal_msp.c ****                           |GPIO_PIN_12);
 606:Core/Src/stm32l4xx_hal_msp.c **** 
 607:Core/Src/stm32l4xx_hal_msp.c ****     HAL_GPIO_DeInit(GPIOD, GPIO_PIN_2);
 1349              		.loc 1 607 5 is_stmt 1 view .LVU421
 1350 0022 0421     		movs	r1, #4
 1351 0024 0948     		ldr	r0, .L85+12
 1352 0026 FFF7FEFF 		bl	HAL_GPIO_DeInit
 1353              	.LVL78:
 608:Core/Src/stm32l4xx_hal_msp.c **** 
 609:Core/Src/stm32l4xx_hal_msp.c ****     /* SDMMC1 DMA DeInit */
 610:Core/Src/stm32l4xx_hal_msp.c ****     HAL_DMA_DeInit(hsd->hdmarx);
 1354              		.loc 1 610 5 view .LVU422
 1355 002a 206C     		ldr	r0, [r4, #64]
 1356 002c FFF7FEFF 		bl	HAL_DMA_DeInit
 1357              	.LVL79:
 611:Core/Src/stm32l4xx_hal_msp.c ****     HAL_DMA_DeInit(hsd->hdmatx);
 1358              		.loc 1 611 5 view .LVU423
 1359 0030 E06B     		ldr	r0, [r4, #60]
 1360 0032 FFF7FEFF 		bl	HAL_DMA_DeInit
 1361              	.LVL80:
 612:Core/Src/stm32l4xx_hal_msp.c **** 
 613:Core/Src/stm32l4xx_hal_msp.c ****     /* SDMMC1 interrupt DeInit */
 614:Core/Src/stm32l4xx_hal_msp.c ****     HAL_NVIC_DisableIRQ(SDMMC1_IRQn);
ARM GAS  /tmp/ccEbPtKE.s 			page 41


 1362              		.loc 1 614 5 view .LVU424
 1363 0036 3120     		movs	r0, #49
 1364 0038 FFF7FEFF 		bl	HAL_NVIC_DisableIRQ
 1365              	.LVL81:
 615:Core/Src/stm32l4xx_hal_msp.c ****     /* USER CODE BEGIN SDMMC1_MspDeInit 1 */
 616:Core/Src/stm32l4xx_hal_msp.c **** 
 617:Core/Src/stm32l4xx_hal_msp.c ****     /* USER CODE END SDMMC1_MspDeInit 1 */
 618:Core/Src/stm32l4xx_hal_msp.c ****   }
 619:Core/Src/stm32l4xx_hal_msp.c **** 
 620:Core/Src/stm32l4xx_hal_msp.c **** }
 1366              		.loc 1 620 1 is_stmt 0 view .LVU425
 1367 003c 10BD     		pop	{r4, pc}
 1368              	.LVL82:
 1369              	.L86:
 1370              		.loc 1 620 1 view .LVU426
 1371 003e 00BF     		.align	2
 1372              	.L85:
 1373 0040 00280140 		.word	1073817600
 1374 0044 00100240 		.word	1073876992
 1375 0048 00080048 		.word	1207961600
 1376 004c 000C0048 		.word	1207962624
 1377              		.cfi_endproc
 1378              	.LFE236:
 1380              		.section	.text.HAL_SPI_MspInit,"ax",%progbits
 1381              		.align	1
 1382              		.global	HAL_SPI_MspInit
 1383              		.syntax unified
 1384              		.thumb
 1385              		.thumb_func
 1387              	HAL_SPI_MspInit:
 1388              	.LVL83:
 1389              	.LFB237:
 621:Core/Src/stm32l4xx_hal_msp.c **** 
 622:Core/Src/stm32l4xx_hal_msp.c **** /**
 623:Core/Src/stm32l4xx_hal_msp.c ****   * @brief SPI MSP Initialization
 624:Core/Src/stm32l4xx_hal_msp.c ****   * This function configures the hardware resources used in this example
 625:Core/Src/stm32l4xx_hal_msp.c ****   * @param hspi: SPI handle pointer
 626:Core/Src/stm32l4xx_hal_msp.c ****   * @retval None
 627:Core/Src/stm32l4xx_hal_msp.c ****   */
 628:Core/Src/stm32l4xx_hal_msp.c **** void HAL_SPI_MspInit(SPI_HandleTypeDef* hspi)
 629:Core/Src/stm32l4xx_hal_msp.c **** {
 1390              		.loc 1 629 1 is_stmt 1 view -0
 1391              		.cfi_startproc
 1392              		@ args = 0, pretend = 0, frame = 32
 1393              		@ frame_needed = 0, uses_anonymous_args = 0
 1394              		.loc 1 629 1 is_stmt 0 view .LVU428
 1395 0000 00B5     		push	{lr}
 1396              		.cfi_def_cfa_offset 4
 1397              		.cfi_offset 14, -4
 1398 0002 89B0     		sub	sp, sp, #36
 1399              		.cfi_def_cfa_offset 40
 630:Core/Src/stm32l4xx_hal_msp.c ****   GPIO_InitTypeDef GPIO_InitStruct = {0};
 1400              		.loc 1 630 3 is_stmt 1 view .LVU429
 1401              		.loc 1 630 20 is_stmt 0 view .LVU430
 1402 0004 0023     		movs	r3, #0
 1403 0006 0393     		str	r3, [sp, #12]
 1404 0008 0493     		str	r3, [sp, #16]
ARM GAS  /tmp/ccEbPtKE.s 			page 42


 1405 000a 0593     		str	r3, [sp, #20]
 1406 000c 0693     		str	r3, [sp, #24]
 1407 000e 0793     		str	r3, [sp, #28]
 631:Core/Src/stm32l4xx_hal_msp.c ****   if(hspi->Instance==SPI1)
 1408              		.loc 1 631 3 is_stmt 1 view .LVU431
 1409              		.loc 1 631 10 is_stmt 0 view .LVU432
 1410 0010 0268     		ldr	r2, [r0]
 1411              		.loc 1 631 5 view .LVU433
 1412 0012 134B     		ldr	r3, .L91
 1413 0014 9A42     		cmp	r2, r3
 1414 0016 01D0     		beq	.L90
 1415              	.LVL84:
 1416              	.L87:
 632:Core/Src/stm32l4xx_hal_msp.c ****   {
 633:Core/Src/stm32l4xx_hal_msp.c ****     /* USER CODE BEGIN SPI1_MspInit 0 */
 634:Core/Src/stm32l4xx_hal_msp.c **** 
 635:Core/Src/stm32l4xx_hal_msp.c ****     /* USER CODE END SPI1_MspInit 0 */
 636:Core/Src/stm32l4xx_hal_msp.c ****     /* Peripheral clock enable */
 637:Core/Src/stm32l4xx_hal_msp.c ****     __HAL_RCC_SPI1_CLK_ENABLE();
 638:Core/Src/stm32l4xx_hal_msp.c **** 
 639:Core/Src/stm32l4xx_hal_msp.c ****     __HAL_RCC_GPIOA_CLK_ENABLE();
 640:Core/Src/stm32l4xx_hal_msp.c ****     /**SPI1 GPIO Configuration
 641:Core/Src/stm32l4xx_hal_msp.c ****     PA5     ------> SPI1_SCK
 642:Core/Src/stm32l4xx_hal_msp.c ****     PA6     ------> SPI1_MISO
 643:Core/Src/stm32l4xx_hal_msp.c ****     PA7     ------> SPI1_MOSI
 644:Core/Src/stm32l4xx_hal_msp.c ****     */
 645:Core/Src/stm32l4xx_hal_msp.c ****     GPIO_InitStruct.Pin = SD_SPI1_SCK_Pin|SD_SPI1_MISO_Pin|SD_SPI1_MOSI_Pin;
 646:Core/Src/stm32l4xx_hal_msp.c ****     GPIO_InitStruct.Mode = GPIO_MODE_AF_PP;
 647:Core/Src/stm32l4xx_hal_msp.c ****     GPIO_InitStruct.Pull = GPIO_NOPULL;
 648:Core/Src/stm32l4xx_hal_msp.c ****     GPIO_InitStruct.Speed = GPIO_SPEED_FREQ_VERY_HIGH;
 649:Core/Src/stm32l4xx_hal_msp.c ****     GPIO_InitStruct.Alternate = GPIO_AF5_SPI1;
 650:Core/Src/stm32l4xx_hal_msp.c ****     HAL_GPIO_Init(GPIOA, &GPIO_InitStruct);
 651:Core/Src/stm32l4xx_hal_msp.c **** 
 652:Core/Src/stm32l4xx_hal_msp.c ****     /* USER CODE BEGIN SPI1_MspInit 1 */
 653:Core/Src/stm32l4xx_hal_msp.c **** 
 654:Core/Src/stm32l4xx_hal_msp.c ****     /* USER CODE END SPI1_MspInit 1 */
 655:Core/Src/stm32l4xx_hal_msp.c **** 
 656:Core/Src/stm32l4xx_hal_msp.c ****   }
 657:Core/Src/stm32l4xx_hal_msp.c **** 
 658:Core/Src/stm32l4xx_hal_msp.c **** }
 1417              		.loc 1 658 1 view .LVU434
 1418 0018 09B0     		add	sp, sp, #36
 1419              		.cfi_remember_state
 1420              		.cfi_def_cfa_offset 4
 1421              		@ sp needed
 1422 001a 00BD     		pop	{pc}
 1423              	.LVL85:
 1424              	.L90:
 1425              		.cfi_restore_state
 637:Core/Src/stm32l4xx_hal_msp.c **** 
 1426              		.loc 1 637 5 is_stmt 1 view .LVU435
 1427              	.LBB17:
 637:Core/Src/stm32l4xx_hal_msp.c **** 
 1428              		.loc 1 637 5 view .LVU436
 637:Core/Src/stm32l4xx_hal_msp.c **** 
 1429              		.loc 1 637 5 view .LVU437
 1430 001c 03F56043 		add	r3, r3, #57344
ARM GAS  /tmp/ccEbPtKE.s 			page 43


 1431 0020 1A6E     		ldr	r2, [r3, #96]
 1432 0022 42F48052 		orr	r2, r2, #4096
 1433 0026 1A66     		str	r2, [r3, #96]
 637:Core/Src/stm32l4xx_hal_msp.c **** 
 1434              		.loc 1 637 5 view .LVU438
 1435 0028 1A6E     		ldr	r2, [r3, #96]
 1436 002a 02F48052 		and	r2, r2, #4096
 1437 002e 0192     		str	r2, [sp, #4]
 637:Core/Src/stm32l4xx_hal_msp.c **** 
 1438              		.loc 1 637 5 view .LVU439
 1439 0030 019A     		ldr	r2, [sp, #4]
 1440              	.LBE17:
 637:Core/Src/stm32l4xx_hal_msp.c **** 
 1441              		.loc 1 637 5 view .LVU440
 639:Core/Src/stm32l4xx_hal_msp.c ****     /**SPI1 GPIO Configuration
 1442              		.loc 1 639 5 view .LVU441
 1443              	.LBB18:
 639:Core/Src/stm32l4xx_hal_msp.c ****     /**SPI1 GPIO Configuration
 1444              		.loc 1 639 5 view .LVU442
 639:Core/Src/stm32l4xx_hal_msp.c ****     /**SPI1 GPIO Configuration
 1445              		.loc 1 639 5 view .LVU443
 1446 0032 DA6C     		ldr	r2, [r3, #76]
 1447 0034 42F00102 		orr	r2, r2, #1
 1448 0038 DA64     		str	r2, [r3, #76]
 639:Core/Src/stm32l4xx_hal_msp.c ****     /**SPI1 GPIO Configuration
 1449              		.loc 1 639 5 view .LVU444
 1450 003a DB6C     		ldr	r3, [r3, #76]
 1451 003c 03F00103 		and	r3, r3, #1
 1452 0040 0293     		str	r3, [sp, #8]
 639:Core/Src/stm32l4xx_hal_msp.c ****     /**SPI1 GPIO Configuration
 1453              		.loc 1 639 5 view .LVU445
 1454 0042 029B     		ldr	r3, [sp, #8]
 1455              	.LBE18:
 639:Core/Src/stm32l4xx_hal_msp.c ****     /**SPI1 GPIO Configuration
 1456              		.loc 1 639 5 view .LVU446
 645:Core/Src/stm32l4xx_hal_msp.c ****     GPIO_InitStruct.Mode = GPIO_MODE_AF_PP;
 1457              		.loc 1 645 5 view .LVU447
 645:Core/Src/stm32l4xx_hal_msp.c ****     GPIO_InitStruct.Mode = GPIO_MODE_AF_PP;
 1458              		.loc 1 645 25 is_stmt 0 view .LVU448
 1459 0044 E023     		movs	r3, #224
 1460 0046 0393     		str	r3, [sp, #12]
 646:Core/Src/stm32l4xx_hal_msp.c ****     GPIO_InitStruct.Pull = GPIO_NOPULL;
 1461              		.loc 1 646 5 is_stmt 1 view .LVU449
 646:Core/Src/stm32l4xx_hal_msp.c ****     GPIO_InitStruct.Pull = GPIO_NOPULL;
 1462              		.loc 1 646 26 is_stmt 0 view .LVU450
 1463 0048 0223     		movs	r3, #2
 1464 004a 0493     		str	r3, [sp, #16]
 647:Core/Src/stm32l4xx_hal_msp.c ****     GPIO_InitStruct.Speed = GPIO_SPEED_FREQ_VERY_HIGH;
 1465              		.loc 1 647 5 is_stmt 1 view .LVU451
 648:Core/Src/stm32l4xx_hal_msp.c ****     GPIO_InitStruct.Alternate = GPIO_AF5_SPI1;
 1466              		.loc 1 648 5 view .LVU452
 648:Core/Src/stm32l4xx_hal_msp.c ****     GPIO_InitStruct.Alternate = GPIO_AF5_SPI1;
 1467              		.loc 1 648 27 is_stmt 0 view .LVU453
 1468 004c 0323     		movs	r3, #3
 1469 004e 0693     		str	r3, [sp, #24]
 649:Core/Src/stm32l4xx_hal_msp.c ****     HAL_GPIO_Init(GPIOA, &GPIO_InitStruct);
 1470              		.loc 1 649 5 is_stmt 1 view .LVU454
ARM GAS  /tmp/ccEbPtKE.s 			page 44


 649:Core/Src/stm32l4xx_hal_msp.c ****     HAL_GPIO_Init(GPIOA, &GPIO_InitStruct);
 1471              		.loc 1 649 31 is_stmt 0 view .LVU455
 1472 0050 0523     		movs	r3, #5
 1473 0052 0793     		str	r3, [sp, #28]
 650:Core/Src/stm32l4xx_hal_msp.c **** 
 1474              		.loc 1 650 5 is_stmt 1 view .LVU456
 1475 0054 03A9     		add	r1, sp, #12
 1476 0056 4FF09040 		mov	r0, #1207959552
 1477              	.LVL86:
 650:Core/Src/stm32l4xx_hal_msp.c **** 
 1478              		.loc 1 650 5 is_stmt 0 view .LVU457
 1479 005a FFF7FEFF 		bl	HAL_GPIO_Init
 1480              	.LVL87:
 1481              		.loc 1 658 1 view .LVU458
 1482 005e DBE7     		b	.L87
 1483              	.L92:
 1484              		.align	2
 1485              	.L91:
 1486 0060 00300140 		.word	1073819648
 1487              		.cfi_endproc
 1488              	.LFE237:
 1490              		.section	.text.HAL_SPI_MspDeInit,"ax",%progbits
 1491              		.align	1
 1492              		.global	HAL_SPI_MspDeInit
 1493              		.syntax unified
 1494              		.thumb
 1495              		.thumb_func
 1497              	HAL_SPI_MspDeInit:
 1498              	.LVL88:
 1499              	.LFB238:
 659:Core/Src/stm32l4xx_hal_msp.c **** 
 660:Core/Src/stm32l4xx_hal_msp.c **** /**
 661:Core/Src/stm32l4xx_hal_msp.c ****   * @brief SPI MSP De-Initialization
 662:Core/Src/stm32l4xx_hal_msp.c ****   * This function freeze the hardware resources used in this example
 663:Core/Src/stm32l4xx_hal_msp.c ****   * @param hspi: SPI handle pointer
 664:Core/Src/stm32l4xx_hal_msp.c ****   * @retval None
 665:Core/Src/stm32l4xx_hal_msp.c ****   */
 666:Core/Src/stm32l4xx_hal_msp.c **** void HAL_SPI_MspDeInit(SPI_HandleTypeDef* hspi)
 667:Core/Src/stm32l4xx_hal_msp.c **** {
 1500              		.loc 1 667 1 is_stmt 1 view -0
 1501              		.cfi_startproc
 1502              		@ args = 0, pretend = 0, frame = 0
 1503              		@ frame_needed = 0, uses_anonymous_args = 0
 1504              		.loc 1 667 1 is_stmt 0 view .LVU460
 1505 0000 08B5     		push	{r3, lr}
 1506              		.cfi_def_cfa_offset 8
 1507              		.cfi_offset 3, -8
 1508              		.cfi_offset 14, -4
 668:Core/Src/stm32l4xx_hal_msp.c ****   if(hspi->Instance==SPI1)
 1509              		.loc 1 668 3 is_stmt 1 view .LVU461
 1510              		.loc 1 668 10 is_stmt 0 view .LVU462
 1511 0002 0268     		ldr	r2, [r0]
 1512              		.loc 1 668 5 view .LVU463
 1513 0004 074B     		ldr	r3, .L97
 1514 0006 9A42     		cmp	r2, r3
 1515 0008 00D0     		beq	.L96
 1516              	.LVL89:
ARM GAS  /tmp/ccEbPtKE.s 			page 45


 1517              	.L93:
 669:Core/Src/stm32l4xx_hal_msp.c ****   {
 670:Core/Src/stm32l4xx_hal_msp.c ****     /* USER CODE BEGIN SPI1_MspDeInit 0 */
 671:Core/Src/stm32l4xx_hal_msp.c **** 
 672:Core/Src/stm32l4xx_hal_msp.c ****     /* USER CODE END SPI1_MspDeInit 0 */
 673:Core/Src/stm32l4xx_hal_msp.c ****     /* Peripheral clock disable */
 674:Core/Src/stm32l4xx_hal_msp.c ****     __HAL_RCC_SPI1_CLK_DISABLE();
 675:Core/Src/stm32l4xx_hal_msp.c **** 
 676:Core/Src/stm32l4xx_hal_msp.c ****     /**SPI1 GPIO Configuration
 677:Core/Src/stm32l4xx_hal_msp.c ****     PA5     ------> SPI1_SCK
 678:Core/Src/stm32l4xx_hal_msp.c ****     PA6     ------> SPI1_MISO
 679:Core/Src/stm32l4xx_hal_msp.c ****     PA7     ------> SPI1_MOSI
 680:Core/Src/stm32l4xx_hal_msp.c ****     */
 681:Core/Src/stm32l4xx_hal_msp.c ****     HAL_GPIO_DeInit(GPIOA, SD_SPI1_SCK_Pin|SD_SPI1_MISO_Pin|SD_SPI1_MOSI_Pin);
 682:Core/Src/stm32l4xx_hal_msp.c **** 
 683:Core/Src/stm32l4xx_hal_msp.c ****     /* USER CODE BEGIN SPI1_MspDeInit 1 */
 684:Core/Src/stm32l4xx_hal_msp.c **** 
 685:Core/Src/stm32l4xx_hal_msp.c ****     /* USER CODE END SPI1_MspDeInit 1 */
 686:Core/Src/stm32l4xx_hal_msp.c ****   }
 687:Core/Src/stm32l4xx_hal_msp.c **** 
 688:Core/Src/stm32l4xx_hal_msp.c **** }
 1518              		.loc 1 688 1 view .LVU464
 1519 000a 08BD     		pop	{r3, pc}
 1520              	.LVL90:
 1521              	.L96:
 674:Core/Src/stm32l4xx_hal_msp.c **** 
 1522              		.loc 1 674 5 is_stmt 1 view .LVU465
 1523 000c 064A     		ldr	r2, .L97+4
 1524 000e 136E     		ldr	r3, [r2, #96]
 1525 0010 23F48053 		bic	r3, r3, #4096
 1526 0014 1366     		str	r3, [r2, #96]
 681:Core/Src/stm32l4xx_hal_msp.c **** 
 1527              		.loc 1 681 5 view .LVU466
 1528 0016 E021     		movs	r1, #224
 1529 0018 4FF09040 		mov	r0, #1207959552
 1530              	.LVL91:
 681:Core/Src/stm32l4xx_hal_msp.c **** 
 1531              		.loc 1 681 5 is_stmt 0 view .LVU467
 1532 001c FFF7FEFF 		bl	HAL_GPIO_DeInit
 1533              	.LVL92:
 1534              		.loc 1 688 1 view .LVU468
 1535 0020 F3E7     		b	.L93
 1536              	.L98:
 1537 0022 00BF     		.align	2
 1538              	.L97:
 1539 0024 00300140 		.word	1073819648
 1540 0028 00100240 		.word	1073876992
 1541              		.cfi_endproc
 1542              	.LFE238:
 1544              		.text
 1545              	.Letext0:
 1546              		.file 2 "Drivers/CMSIS/Device/ST/STM32L4xx/Include/stm32l476xx.h"
 1547              		.file 3 "/home/glen/.config/Code/User/globalStorage/bmd.stm32-for-vscode/@xpack-dev-tools/arm-none
 1548              		.file 4 "/home/glen/.config/Code/User/globalStorage/bmd.stm32-for-vscode/@xpack-dev-tools/arm-none
 1549              		.file 5 "Drivers/STM32L4xx_HAL_Driver/Inc/stm32l4xx_hal_def.h"
 1550              		.file 6 "Drivers/STM32L4xx_HAL_Driver/Inc/stm32l4xx_hal_rcc_ex.h"
 1551              		.file 7 "Drivers/STM32L4xx_HAL_Driver/Inc/stm32l4xx_hal_gpio.h"
ARM GAS  /tmp/ccEbPtKE.s 			page 46


 1552              		.file 8 "Drivers/STM32L4xx_HAL_Driver/Inc/stm32l4xx_hal_dma.h"
 1553              		.file 9 "Drivers/STM32L4xx_HAL_Driver/Inc/stm32l4xx_hal_i2c.h"
 1554              		.file 10 "Drivers/STM32L4xx_HAL_Driver/Inc/stm32l4xx_hal_rtc.h"
 1555              		.file 11 "Drivers/STM32L4xx_HAL_Driver/Inc/stm32l4xx_ll_sdmmc.h"
 1556              		.file 12 "Drivers/STM32L4xx_HAL_Driver/Inc/stm32l4xx_hal_sd.h"
 1557              		.file 13 "Drivers/STM32L4xx_HAL_Driver/Inc/stm32l4xx_hal_spi.h"
 1558              		.file 14 "Drivers/STM32L4xx_HAL_Driver/Inc/stm32l4xx_hal_uart.h"
 1559              		.file 15 "Drivers/STM32L4xx_HAL_Driver/Inc/stm32l4xx_hal_cortex.h"
 1560              		.file 16 "Drivers/STM32L4xx_HAL_Driver/Inc/stm32l4xx_ll_dma.h"
 1561              		.file 17 "Core/Inc/main.h"
 1562              		.file 18 "<built-in>"
ARM GAS  /tmp/ccEbPtKE.s 			page 47


DEFINED SYMBOLS
                            *ABS*:00000000 stm32l4xx_hal_msp.c
     /tmp/ccEbPtKE.s:21     .text.HAL_MspInit:00000000 $t
     /tmp/ccEbPtKE.s:27     .text.HAL_MspInit:00000000 HAL_MspInit
     /tmp/ccEbPtKE.s:75     .text.HAL_MspInit:0000002c $d
     /tmp/ccEbPtKE.s:80     .text.HAL_I2C_MspInit:00000000 $t
     /tmp/ccEbPtKE.s:86     .text.HAL_I2C_MspInit:00000000 HAL_I2C_MspInit
     /tmp/ccEbPtKE.s:217    .text.HAL_I2C_MspInit:00000080 $d
     /tmp/ccEbPtKE.s:224    .text.HAL_I2C_MspDeInit:00000000 $t
     /tmp/ccEbPtKE.s:230    .text.HAL_I2C_MspDeInit:00000000 HAL_I2C_MspDeInit
     /tmp/ccEbPtKE.s:277    .text.HAL_I2C_MspDeInit:0000002c $d
     /tmp/ccEbPtKE.s:284    .text.HAL_UART_MspInit:00000000 $t
     /tmp/ccEbPtKE.s:290    .text.HAL_UART_MspInit:00000000 HAL_UART_MspInit
     /tmp/ccEbPtKE.s:719    .text.HAL_UART_MspInit:000001c8 $d
     /tmp/ccEbPtKE.s:731    .text.HAL_UART_MspDeInit:00000000 $t
     /tmp/ccEbPtKE.s:737    .text.HAL_UART_MspDeInit:00000000 HAL_UART_MspDeInit
     /tmp/ccEbPtKE.s:844    .text.HAL_UART_MspDeInit:00000084 $d
     /tmp/ccEbPtKE.s:853    .text.HAL_RTC_MspInit:00000000 $t
     /tmp/ccEbPtKE.s:859    .text.HAL_RTC_MspInit:00000000 HAL_RTC_MspInit
     /tmp/ccEbPtKE.s:931    .text.HAL_RTC_MspInit:00000048 $d
     /tmp/ccEbPtKE.s:937    .text.HAL_RTC_MspDeInit:00000000 $t
     /tmp/ccEbPtKE.s:943    .text.HAL_RTC_MspDeInit:00000000 HAL_RTC_MspDeInit
     /tmp/ccEbPtKE.s:972    .text.HAL_RTC_MspDeInit:0000001c $d
     /tmp/ccEbPtKE.s:978    .text.HAL_SD_MspInit:00000000 $t
     /tmp/ccEbPtKE.s:984    .text.HAL_SD_MspInit:00000000 HAL_SD_MspInit
     /tmp/ccEbPtKE.s:1297   .text.HAL_SD_MspInit:00000148 $d
     /tmp/ccEbPtKE.s:1309   .text.HAL_SD_MspDeInit:00000000 $t
     /tmp/ccEbPtKE.s:1315   .text.HAL_SD_MspDeInit:00000000 HAL_SD_MspDeInit
     /tmp/ccEbPtKE.s:1373   .text.HAL_SD_MspDeInit:00000040 $d
     /tmp/ccEbPtKE.s:1381   .text.HAL_SPI_MspInit:00000000 $t
     /tmp/ccEbPtKE.s:1387   .text.HAL_SPI_MspInit:00000000 HAL_SPI_MspInit
     /tmp/ccEbPtKE.s:1486   .text.HAL_SPI_MspInit:00000060 $d
     /tmp/ccEbPtKE.s:1491   .text.HAL_SPI_MspDeInit:00000000 $t
     /tmp/ccEbPtKE.s:1497   .text.HAL_SPI_MspDeInit:00000000 HAL_SPI_MspDeInit
     /tmp/ccEbPtKE.s:1539   .text.HAL_SPI_MspDeInit:00000024 $d

UNDEFINED SYMBOLS
memset
HAL_RCCEx_PeriphCLKConfig
HAL_GPIO_Init
Error_Handler
HAL_GPIO_DeInit
HAL_DMA_Init
hdma_usart1_rx
HAL_DMA_DeInit
HAL_NVIC_SetPriority
HAL_NVIC_EnableIRQ
hdma_sdmmc1_rx
hdma_sdmmc1_tx
HAL_NVIC_DisableIRQ
